; Listing generated by Microsoft (R) Optimizing Compiler Version 19.37.32705.0 

	TITLE	D:\DevDragon\XashFE\dev\src\temp\engine\!debug\cl_main.obj
	.686P
	.XMM
	include listing.inc
	.model	flat

INCLUDELIB MSVCRTD
INCLUDELIB OLDNAMES

PUBLIC	_mp_decals
PUBLIC	_cl_logofile
PUBLIC	_cl_logocolor
PUBLIC	_cl_allow_download
PUBLIC	_cl_allow_upload
PUBLIC	_cl_download_ingame
PUBLIC	??_C@_09HLNOEJGD@mp_decals@			; `string'
PUBLIC	??_C@_03MHAIKEMP@300@				; `string'
PUBLIC	??_C@_0BM@FNHNOFFA@decals?5limit?5in?5multiplayer@ ; `string'
PUBLIC	_dev_overview
PUBLIC	??_C@_0N@LIOHAFCO@dev_overview@			; `string'
PUBLIC	??_C@_01GBGANLPD@0@				; `string'
PUBLIC	??_C@_0BM@HDLBGHAN@draw?5level?5in?5overview?9mode@ ; `string'
PUBLIC	_cl_resend
PUBLIC	??_C@_09MCGIDBGM@cl_resend@			; `string'
PUBLIC	??_C@_03OGGONKIH@6?40@				; `string'
PUBLIC	??_C@_0BH@JNOGBONI@time?5to?5resend?5connect@	; `string'
PUBLIC	??_C@_0BC@FNPFKPHK@cl_allow_download@		; `string'
PUBLIC	??_C@_01HIHLOKLC@1@				; `string'
PUBLIC	??_C@_0CP@EBEFOALA@allow?5to?5downloading?5resources?5@ ; `string'
PUBLIC	??_C@_0BA@CLDDKIHF@cl_allow_upload@		; `string'
PUBLIC	??_C@_0CL@EIEPLMFJ@allow?5to?5uploading?5resources?5to@ ; `string'
PUBLIC	??_C@_0BD@JLPOFKFL@cl_download_ingame@		; `string'
PUBLIC	??_C@_0DG@NJNMAEOG@allow?5to?5downloading?5resources?5@ ; `string'
PUBLIC	??_C@_0M@MEADMGND@cl_logofile@			; `string'
PUBLIC	??_C@_06COJIGPIB@lambda@			; `string'
PUBLIC	??_C@_0BB@DLGKBBEJ@player?5logo?5name@		; `string'
PUBLIC	??_C@_0N@NAANHKBJ@cl_logocolor@			; `string'
PUBLIC	??_C@_06HDDOCMMN@orange@			; `string'
PUBLIC	??_C@_0BC@KELHMHFN@player?5logo?5color@		; `string'
PUBLIC	_cl_test_bandwidth
PUBLIC	??_C@_0BC@JGICJKMO@cl_test_bandwidth@		; `string'
PUBLIC	??_C@_0CI@MKEAGAPI@test?5network?5bandwith?5before?5co@ ; `string'
_DATA	SEGMENT
COMM	_cl:BYTE:045dec0H
COMM	_cls:BYTE:049840H
COMM	_clgame:BYTE:040658H
COMM	_cl_nopred:DWORD
COMM	_cl_showfps:DWORD
COMM	_cl_timeout:DWORD
COMM	_cl_nodelta:DWORD
COMM	_cl_interp:DWORD
COMM	_cl_showerror:DWORD
COMM	_cl_nosmooth:DWORD
COMM	_cl_smoothtime:DWORD
COMM	_cl_crosshair:DWORD
COMM	_cl_cmdrate:DWORD
COMM	_cl_updaterate:DWORD
COMM	_cl_solid_players:DWORD
COMM	_cl_idealpitchscale:DWORD
COMM	_cl_lightstyle_lerping:DWORD
COMM	_cl_draw_particles:DWORD
COMM	_cl_draw_tracers:DWORD
COMM	_cl_draw_beams:DWORD
COMM	_cl_clockreset:DWORD
COMM	_cl_fixtimerate:DWORD
COMM	_cl_bmodelinterp:DWORD
COMM	_cl_lw:DWORD
COMM	_cl_showevents:DWORD
COMM	_rate:DWORD
COMM	_pglGetError:DWORD
COMM	_pglGetString:DWORD
COMM	_pglAccum:DWORD
COMM	_pglAlphaFunc:DWORD
COMM	_pglArrayElement:DWORD
COMM	_pglBegin:DWORD
COMM	_pglBindTexture:DWORD
COMM	_pglBitmap:DWORD
COMM	_pglBlendFunc:DWORD
COMM	_pglCallList:DWORD
COMM	_pglCallLists:DWORD
COMM	_pglClear:DWORD
COMM	_pglClearAccum:DWORD
COMM	_pglClearColor:DWORD
COMM	_pglClearDepth:DWORD
COMM	_pglClearIndex:DWORD
COMM	_pglClearStencil:DWORD
COMM	_pglIsEnabled:DWORD
COMM	_pglIsList:DWORD
COMM	_pglIsTexture:DWORD
COMM	_pglClipPlane:DWORD
COMM	_pglColor3b:DWORD
COMM	_pglColor3bv:DWORD
COMM	_pglColor3d:DWORD
COMM	_pglColor3dv:DWORD
COMM	_pglColor3f:DWORD
COMM	_pglColor3fv:DWORD
COMM	_pglColor3i:DWORD
COMM	_pglColor3iv:DWORD
COMM	_pglColor3s:DWORD
COMM	_pglColor3sv:DWORD
COMM	_pglColor3ub:DWORD
COMM	_pglColor3ubv:DWORD
COMM	_pglColor3ui:DWORD
COMM	_pglColor3uiv:DWORD
COMM	_pglColor3us:DWORD
COMM	_pglColor3usv:DWORD
COMM	_pglColor4b:DWORD
COMM	_pglColor4bv:DWORD
COMM	_pglColor4d:DWORD
COMM	_pglColor4dv:DWORD
COMM	_pglColor4f:DWORD
COMM	_pglColor4fv:DWORD
COMM	_pglColor4i:DWORD
COMM	_pglColor4iv:DWORD
COMM	_pglColor4s:DWORD
COMM	_pglColor4sv:DWORD
COMM	_pglColor4ub:DWORD
COMM	_pglColor4ubv:DWORD
COMM	_pglColor4ui:DWORD
COMM	_pglColor4uiv:DWORD
COMM	_pglColor4us:DWORD
COMM	_pglColor4usv:DWORD
COMM	_pglColorMask:DWORD
COMM	_pglColorMaterial:DWORD
COMM	_pglColorPointer:DWORD
COMM	_pglCopyPixels:DWORD
COMM	_pglCopyTexImage1D:DWORD
COMM	_pglCopyTexImage2D:DWORD
COMM	_pglCopyTexSubImage1D:DWORD
COMM	_pglCopyTexSubImage2D:DWORD
COMM	_pglCullFace:DWORD
COMM	_pglDeleteLists:DWORD
COMM	_pglDeleteTextures:DWORD
COMM	_pglDepthFunc:DWORD
COMM	_pglDepthMask:DWORD
COMM	_pglDepthRange:DWORD
COMM	_pglDisable:DWORD
COMM	_pglDisableClientState:DWORD
COMM	_pglDrawArrays:DWORD
COMM	_pglDrawBuffer:DWORD
COMM	_pglDrawElements:DWORD
COMM	_pglDrawPixels:DWORD
COMM	_pglEdgeFlag:DWORD
COMM	_pglEdgeFlagPointer:DWORD
COMM	_pglEdgeFlagv:DWORD
COMM	_pglEnable:DWORD
COMM	_pglEnableClientState:DWORD
COMM	_pglEnd:DWORD
COMM	_pglEndList:DWORD
COMM	_pglEvalCoord1d:DWORD
COMM	_pglEvalCoord1dv:DWORD
COMM	_pglEvalCoord1f:DWORD
COMM	_pglEvalCoord1fv:DWORD
COMM	_pglEvalCoord2d:DWORD
COMM	_pglEvalCoord2dv:DWORD
COMM	_pglEvalCoord2f:DWORD
COMM	_pglEvalCoord2fv:DWORD
COMM	_pglEvalMesh1:DWORD
COMM	_pglEvalMesh2:DWORD
COMM	_pglEvalPoint1:DWORD
COMM	_pglEvalPoint2:DWORD
COMM	_pglFeedbackBuffer:DWORD
COMM	_pglFinish:DWORD
COMM	_pglFlush:DWORD
COMM	_pglFogf:DWORD
COMM	_pglFogfv:DWORD
COMM	_pglFogi:DWORD
COMM	_pglFogiv:DWORD
COMM	_pglFrontFace:DWORD
COMM	_pglFrustum:DWORD
COMM	_pglGenTextures:DWORD
COMM	_pglGetBooleanv:DWORD
COMM	_pglGetClipPlane:DWORD
COMM	_pglGetDoublev:DWORD
COMM	_pglGetFloatv:DWORD
COMM	_pglGetIntegerv:DWORD
COMM	_pglGetLightfv:DWORD
COMM	_pglGetLightiv:DWORD
COMM	_pglGetMapdv:DWORD
COMM	_pglGetMapfv:DWORD
COMM	_pglGetMapiv:DWORD
COMM	_pglGetMaterialfv:DWORD
COMM	_pglGetMaterialiv:DWORD
COMM	_pglGetPixelMapfv:DWORD
COMM	_pglGetPixelMapuiv:DWORD
COMM	_pglGetPixelMapusv:DWORD
COMM	_pglGetPointerv:DWORD
COMM	_pglGetPolygonStipple:DWORD
COMM	_pglGetTexEnvfv:DWORD
COMM	_pglGetTexEnviv:DWORD
COMM	_pglGetTexGendv:DWORD
COMM	_pglGetTexGenfv:DWORD
COMM	_pglGetTexGeniv:DWORD
COMM	_pglGetTexImage:DWORD
COMM	_pglGetTexLevelParameterfv:DWORD
COMM	_pglGetTexLevelParameteriv:DWORD
COMM	_pglGetTexParameterfv:DWORD
COMM	_pglGetTexParameteriv:DWORD
COMM	_pglHint:DWORD
COMM	_pglIndexMask:DWORD
COMM	_pglIndexPointer:DWORD
COMM	_pglIndexd:DWORD
COMM	_pglIndexdv:DWORD
COMM	_pglIndexf:DWORD
COMM	_pglIndexfv:DWORD
COMM	_pglIndexi:DWORD
COMM	_pglIndexiv:DWORD
COMM	_pglIndexs:DWORD
COMM	_pglIndexsv:DWORD
COMM	_pglIndexub:DWORD
COMM	_pglIndexubv:DWORD
COMM	_pglInitNames:DWORD
COMM	_pglInterleavedArrays:DWORD
COMM	_pglLightModelf:DWORD
COMM	_pglLightModelfv:DWORD
COMM	_pglLightModeli:DWORD
COMM	_pglLightModeliv:DWORD
COMM	_pglLightf:DWORD
COMM	_pglLightfv:DWORD
COMM	_pglLighti:DWORD
COMM	_pglLightiv:DWORD
COMM	_pglLineStipple:DWORD
COMM	_pglLineWidth:DWORD
COMM	_pglListBase:DWORD
COMM	_pglLoadIdentity:DWORD
COMM	_pglLoadMatrixd:DWORD
COMM	_pglLoadMatrixf:DWORD
COMM	_pglLoadName:DWORD
COMM	_pglLogicOp:DWORD
COMM	_pglMap1d:DWORD
COMM	_pglMap1f:DWORD
COMM	_pglMap2d:DWORD
COMM	_pglMap2f:DWORD
COMM	_pglMapGrid1d:DWORD
COMM	_pglMapGrid1f:DWORD
COMM	_pglMapGrid2d:DWORD
COMM	_pglMapGrid2f:DWORD
COMM	_pglMaterialf:DWORD
COMM	_pglMaterialfv:DWORD
COMM	_pglMateriali:DWORD
COMM	_pglMaterialiv:DWORD
COMM	_pglMatrixMode:DWORD
COMM	_pglMultMatrixd:DWORD
COMM	_pglMultMatrixf:DWORD
COMM	_pglNewList:DWORD
COMM	_pglNormal3b:DWORD
COMM	_pglNormal3bv:DWORD
COMM	_pglNormal3d:DWORD
COMM	_pglNormal3dv:DWORD
COMM	_pglNormal3f:DWORD
COMM	_pglNormal3fv:DWORD
COMM	_pglNormal3i:DWORD
COMM	_pglNormal3iv:DWORD
COMM	_pglNormal3s:DWORD
COMM	_pglNormal3sv:DWORD
COMM	_pglNormalPointer:DWORD
COMM	_pglOrtho:DWORD
COMM	_pglPassThrough:DWORD
COMM	_pglPixelMapfv:DWORD
COMM	_pglPixelMapuiv:DWORD
COMM	_pglPixelMapusv:DWORD
COMM	_pglPixelStoref:DWORD
COMM	_pglPixelStorei:DWORD
COMM	_pglPixelTransferf:DWORD
COMM	_pglPixelTransferi:DWORD
COMM	_pglPixelZoom:DWORD
COMM	_pglPointSize:DWORD
COMM	_pglPolygonMode:DWORD
COMM	_pglPolygonOffset:DWORD
COMM	_pglPolygonStipple:DWORD
COMM	_pglPopAttrib:DWORD
COMM	_pglPopClientAttrib:DWORD
COMM	_pglPopMatrix:DWORD
COMM	_pglPopName:DWORD
COMM	_pglPushAttrib:DWORD
COMM	_pglPushClientAttrib:DWORD
COMM	_pglPushMatrix:DWORD
COMM	_pglPushName:DWORD
COMM	_pglRasterPos2d:DWORD
COMM	_pglRasterPos2dv:DWORD
COMM	_pglRasterPos2f:DWORD
COMM	_pglRasterPos2fv:DWORD
COMM	_pglRasterPos2i:DWORD
COMM	_pglRasterPos2iv:DWORD
COMM	_pglRasterPos2s:DWORD
COMM	_pglRasterPos2sv:DWORD
COMM	_pglRasterPos3d:DWORD
COMM	_pglRasterPos3dv:DWORD
COMM	_pglRasterPos3f:DWORD
COMM	_pglRasterPos3fv:DWORD
COMM	_pglRasterPos3i:DWORD
COMM	_pglRasterPos3iv:DWORD
COMM	_pglRasterPos3s:DWORD
COMM	_pglRasterPos3sv:DWORD
COMM	_pglRasterPos4d:DWORD
COMM	_pglRasterPos4dv:DWORD
COMM	_pglRasterPos4f:DWORD
COMM	_pglRasterPos4fv:DWORD
COMM	_pglRasterPos4i:DWORD
COMM	_pglRasterPos4iv:DWORD
COMM	_pglRasterPos4s:DWORD
COMM	_pglRasterPos4sv:DWORD
COMM	_pglReadBuffer:DWORD
COMM	_pglReadPixels:DWORD
COMM	_pglRectd:DWORD
COMM	_pglRectdv:DWORD
COMM	_pglRectf:DWORD
COMM	_pglRectfv:DWORD
COMM	_pglRecti:DWORD
COMM	_pglRectiv:DWORD
COMM	_pglRects:DWORD
COMM	_pglRectsv:DWORD
COMM	_pglRotated:DWORD
COMM	_pglRotatef:DWORD
COMM	_pglScaled:DWORD
COMM	_pglScalef:DWORD
COMM	_pglScissor:DWORD
COMM	_pglSelectBuffer:DWORD
COMM	_pglShadeModel:DWORD
COMM	_pglStencilFunc:DWORD
COMM	_pglStencilMask:DWORD
COMM	_pglStencilOp:DWORD
COMM	_pglTexCoord1d:DWORD
COMM	_pglTexCoord1dv:DWORD
COMM	_pglTexCoord1f:DWORD
COMM	_pglTexCoord1fv:DWORD
COMM	_pglTexCoord1i:DWORD
COMM	_pglTexCoord1iv:DWORD
COMM	_pglTexCoord1s:DWORD
COMM	_pglTexCoord1sv:DWORD
COMM	_pglTexCoord2d:DWORD
COMM	_pglTexCoord2dv:DWORD
COMM	_pglTexCoord2f:DWORD
COMM	_pglTexCoord2fv:DWORD
COMM	_pglTexCoord2i:DWORD
COMM	_pglTexCoord2iv:DWORD
COMM	_pglTexCoord2s:DWORD
COMM	_pglTexCoord2sv:DWORD
COMM	_pglTexCoord3d:DWORD
COMM	_pglTexCoord3dv:DWORD
COMM	_pglTexCoord3f:DWORD
COMM	_pglTexCoord3fv:DWORD
COMM	_pglTexCoord3i:DWORD
COMM	_pglTexCoord3iv:DWORD
COMM	_pglTexCoord3s:DWORD
COMM	_pglTexCoord3sv:DWORD
COMM	_pglTexCoord4d:DWORD
COMM	_pglTexCoord4dv:DWORD
COMM	_pglTexCoord4f:DWORD
COMM	_pglTexCoord4fv:DWORD
COMM	_pglTexCoord4i:DWORD
COMM	_pglTexCoord4iv:DWORD
COMM	_pglTexCoord4s:DWORD
COMM	_pglTexCoord4sv:DWORD
COMM	_pglTexCoordPointer:DWORD
COMM	_pglTexEnvf:DWORD
COMM	_pglTexEnvfv:DWORD
COMM	_pglTexEnvi:DWORD
COMM	_pglTexEnviv:DWORD
COMM	_pglTexGend:DWORD
COMM	_pglTexGendv:DWORD
COMM	_pglTexGenf:DWORD
COMM	_pglTexGenfv:DWORD
COMM	_pglTexGeni:DWORD
COMM	_pglTexGeniv:DWORD
COMM	_pglTexImage1D:DWORD
COMM	_pglTexImage2D:DWORD
COMM	_pglTexParameterf:DWORD
COMM	_pglTexParameterfv:DWORD
COMM	_pglTexParameteri:DWORD
COMM	_pglTexParameteriv:DWORD
COMM	_pglTexSubImage1D:DWORD
COMM	_pglTexSubImage2D:DWORD
COMM	_pglTranslated:DWORD
COMM	_pglTranslatef:DWORD
COMM	_pglVertex2d:DWORD
COMM	_pglVertex2dv:DWORD
COMM	_pglVertex2f:DWORD
COMM	_pglVertex2fv:DWORD
COMM	_pglVertex2i:DWORD
COMM	_pglVertex2iv:DWORD
COMM	_pglVertex2s:DWORD
COMM	_pglVertex2sv:DWORD
COMM	_pglVertex3d:DWORD
COMM	_pglVertex3dv:DWORD
COMM	_pglVertex3f:DWORD
COMM	_pglVertex3fv:DWORD
COMM	_pglVertex3i:DWORD
COMM	_pglVertex3iv:DWORD
COMM	_pglVertex3s:DWORD
COMM	_pglVertex3sv:DWORD
COMM	_pglVertex4d:DWORD
COMM	_pglVertex4dv:DWORD
COMM	_pglVertex4f:DWORD
COMM	_pglVertex4fv:DWORD
COMM	_pglVertex4i:DWORD
COMM	_pglVertex4iv:DWORD
COMM	_pglVertex4s:DWORD
COMM	_pglVertex4sv:DWORD
COMM	_pglVertexPointer:DWORD
COMM	_pglViewport:DWORD
COMM	_pglPointParameterfEXT:DWORD
COMM	_pglPointParameterfvEXT:DWORD
COMM	_pglLockArraysEXT:DWORD
COMM	_pglUnlockArraysEXT:DWORD
COMM	_pglActiveTextureARB:DWORD
COMM	_pglClientActiveTextureARB:DWORD
COMM	_pglGetCompressedTexImage:DWORD
COMM	_pglDrawRangeElements:DWORD
COMM	_pglDrawRangeElementsEXT:DWORD
COMM	_pglMultiTexCoord1f:DWORD
COMM	_pglMultiTexCoord2f:DWORD
COMM	_pglMultiTexCoord3f:DWORD
COMM	_pglMultiTexCoord4f:DWORD
COMM	_pglActiveTexture:DWORD
COMM	_pglClientActiveTexture:DWORD
COMM	_pglCompressedTexImage3DARB:DWORD
COMM	_pglCompressedTexImage2DARB:DWORD
COMM	_pglCompressedTexImage1DARB:DWORD
COMM	_pglCompressedTexSubImage3DARB:DWORD
COMM	_pglCompressedTexSubImage2DARB:DWORD
COMM	_pglCompressedTexSubImage1DARB:DWORD
COMM	_pglDeleteObjectARB:DWORD
COMM	_pglGetHandleARB:DWORD
COMM	_pglDetachObjectARB:DWORD
COMM	_pglCreateShaderObjectARB:DWORD
COMM	_pglShaderSourceARB:DWORD
COMM	_pglCompileShaderARB:DWORD
COMM	_pglCreateProgramObjectARB:DWORD
COMM	_pglAttachObjectARB:DWORD
COMM	_pglLinkProgramARB:DWORD
COMM	_pglUseProgramObjectARB:DWORD
COMM	_pglValidateProgramARB:DWORD
COMM	_pglBindProgramARB:DWORD
COMM	_pglDeleteProgramsARB:DWORD
COMM	_pglGenProgramsARB:DWORD
COMM	_pglProgramStringARB:DWORD
COMM	_pglProgramEnvParameter4fARB:DWORD
COMM	_pglProgramLocalParameter4fARB:DWORD
COMM	_pglUniform1fARB:DWORD
COMM	_pglUniform2fARB:DWORD
COMM	_pglUniform3fARB:DWORD
COMM	_pglUniform4fARB:DWORD
COMM	_pglUniform1iARB:DWORD
COMM	_pglUniform2iARB:DWORD
COMM	_pglUniform3iARB:DWORD
COMM	_pglUniform4iARB:DWORD
COMM	_pglUniform1fvARB:DWORD
COMM	_pglUniform2fvARB:DWORD
COMM	_pglUniform3fvARB:DWORD
COMM	_pglUniform4fvARB:DWORD
COMM	_pglUniform1ivARB:DWORD
COMM	_pglUniform2ivARB:DWORD
COMM	_pglUniform3ivARB:DWORD
COMM	_pglUniform4ivARB:DWORD
COMM	_pglUniformMatrix2fvARB:DWORD
COMM	_pglUniformMatrix3fvARB:DWORD
COMM	_pglUniformMatrix4fvARB:DWORD
COMM	_pglGetObjectParameterfvARB:DWORD
COMM	_pglGetObjectParameterivARB:DWORD
COMM	_pglGetInfoLogARB:DWORD
COMM	_pglGetAttachedObjectsARB:DWORD
COMM	_pglGetUniformLocationARB:DWORD
COMM	_pglGetActiveUniformARB:DWORD
COMM	_pglGetUniformfvARB:DWORD
COMM	_pglGetUniformivARB:DWORD
COMM	_pglGetShaderSourceARB:DWORD
COMM	_pglTexImage3D:DWORD
COMM	_pglTexSubImage3D:DWORD
COMM	_pglCopyTexSubImage3D:DWORD
COMM	_pglBlendEquationEXT:DWORD
COMM	_pglStencilOpSeparate:DWORD
COMM	_pglStencilFuncSeparate:DWORD
COMM	_pglActiveStencilFaceEXT:DWORD
COMM	_pglVertexAttribPointerARB:DWORD
COMM	_pglEnableVertexAttribArrayARB:DWORD
COMM	_pglDisableVertexAttribArrayARB:DWORD
COMM	_pglBindAttribLocationARB:DWORD
COMM	_pglGetActiveAttribARB:DWORD
COMM	_pglGetAttribLocationARB:DWORD
COMM	_pglBindFragDataLocation:DWORD
COMM	_pglVertexAttrib2fARB:DWORD
COMM	_pglVertexAttrib2fvARB:DWORD
COMM	_pglVertexAttrib3fvARB:DWORD
COMM	_pglBindBufferARB:DWORD
COMM	_pglDeleteBuffersARB:DWORD
COMM	_pglGenBuffersARB:DWORD
COMM	_pglIsBufferARB:DWORD
COMM	_pglMapBufferARB:DWORD
COMM	_pglUnmapBufferARB:DWORD
COMM	_pglBufferDataARB:DWORD
COMM	_pglBufferSubDataARB:DWORD
COMM	_pglGenQueriesARB:DWORD
COMM	_pglDeleteQueriesARB:DWORD
COMM	_pglIsQueryARB:DWORD
COMM	_pglBeginQueryARB:DWORD
COMM	_pglEndQueryARB:DWORD
COMM	_pglGetQueryivARB:DWORD
COMM	_pglGetQueryObjectivARB:DWORD
COMM	_pglGetQueryObjectuivARB:DWORD
COMM	_pglDebugMessageControlARB:DWORD
COMM	_pglDebugMessageInsertARB:DWORD
COMM	_pglDebugMessageCallbackARB:DWORD
COMM	_pglGetDebugMessageLogARB:DWORD
COMM	_pglIsRenderbuffer:DWORD
COMM	_pglBindRenderbuffer:DWORD
COMM	_pglDeleteRenderbuffers:DWORD
COMM	_pglGenRenderbuffers:DWORD
COMM	_pglRenderbufferStorage:DWORD
COMM	_pglRenderbufferStorageMultisample:DWORD
COMM	_pglGetRenderbufferParameteriv:DWORD
COMM	_pglIsFramebuffer:DWORD
COMM	_pglBindFramebuffer:DWORD
COMM	_pglDeleteFramebuffers:DWORD
COMM	_pglGenFramebuffers:DWORD
COMM	_pglCheckFramebufferStatus:DWORD
COMM	_pglFramebufferTexture1D:DWORD
COMM	_pglFramebufferTexture2D:DWORD
COMM	_pglFramebufferTexture3D:DWORD
COMM	_pglFramebufferTextureLayer:DWORD
COMM	_pglFramebufferRenderbuffer:DWORD
COMM	_pglGetFramebufferAttachmentParameteriv:DWORD
COMM	_pglBlitFramebuffer:DWORD
COMM	_pglDrawBuffersARB:DWORD
COMM	_pglGenerateMipmap:DWORD
COMM	_pglBindVertexArray:DWORD
COMM	_pglDeleteVertexArrays:DWORD
COMM	_pglGenVertexArrays:DWORD
COMM	_pglIsVertexArray:DWORD
COMM	_pglSwapInterval:DWORD
COMM	_pwglSwapBuffers:DWORD
COMM	_pwglCopyContext:DWORD
COMM	_pwglCreateContext:DWORD
COMM	_pwglCreateLayerContext:DWORD
COMM	_pwglDeleteContext:DWORD
COMM	_pwglGetCurrentContext:DWORD
COMM	_pwglGetProcAddress:DWORD
COMM	_pwglMakeCurrent:DWORD
COMM	_pwglShareLists:DWORD
COMM	_pwglUseFontBitmaps:DWORD
COMM	_pwglUseFontOutlines:DWORD
COMM	_pwglDescribeLayerPlane:DWORD
COMM	_pwglSetLayerPaletteEntries:DWORD
COMM	_pwglGetLayerPaletteEntries:DWORD
COMM	_pwglRealizeLayerPalette:DWORD
COMM	_pwglSwapLayerBuffers:DWORD
COMM	_pwglSwapIntervalEXT:DWORD
COMM	_pwglCreateContextAttribsARB:DWORD
COMM	_pwglGetPixelFormatAttribiv:DWORD
COMM	_pwglChoosePixelFormat:DWORD
COMM	_pwglGetExtensionsStringEXT:DWORD
COMM	_rcon_client_password:DWORD
COMM	_rcon_address:DWORD
COMM	_cl_cmdbackup:DWORD
COMM	_cl_dlmax:DWORD
COMM	_name:DWORD
COMM	_model:DWORD
COMM	_topcolor:DWORD
COMM	_bottomcolor:DWORD
_DATA	ENDS
;	COMDAT ??_C@_0CI@MKEAGAPI@test?5network?5bandwith?5before?5co@
CONST	SEGMENT
??_C@_0CI@MKEAGAPI@test?5network?5bandwith?5before?5co@ DB 'test network '
	DB	'bandwith before connection', 00H		; `string'
CONST	ENDS
;	COMDAT ??_C@_0BC@JGICJKMO@cl_test_bandwidth@
CONST	SEGMENT
??_C@_0BC@JGICJKMO@cl_test_bandwidth@ DB 'cl_test_bandwidth', 00H ; `string'
CONST	ENDS
;	COMDAT ??_C@_0BC@KELHMHFN@player?5logo?5color@
CONST	SEGMENT
??_C@_0BC@KELHMHFN@player?5logo?5color@ DB 'player logo color', 00H ; `string'
CONST	ENDS
;	COMDAT ??_C@_06HDDOCMMN@orange@
CONST	SEGMENT
??_C@_06HDDOCMMN@orange@ DB 'orange', 00H		; `string'
CONST	ENDS
;	COMDAT ??_C@_0N@NAANHKBJ@cl_logocolor@
CONST	SEGMENT
??_C@_0N@NAANHKBJ@cl_logocolor@ DB 'cl_logocolor', 00H	; `string'
CONST	ENDS
;	COMDAT ??_C@_0BB@DLGKBBEJ@player?5logo?5name@
CONST	SEGMENT
??_C@_0BB@DLGKBBEJ@player?5logo?5name@ DB 'player logo name', 00H ; `string'
CONST	ENDS
;	COMDAT ??_C@_06COJIGPIB@lambda@
CONST	SEGMENT
??_C@_06COJIGPIB@lambda@ DB 'lambda', 00H		; `string'
CONST	ENDS
;	COMDAT ??_C@_0M@MEADMGND@cl_logofile@
CONST	SEGMENT
??_C@_0M@MEADMGND@cl_logofile@ DB 'cl_logofile', 00H	; `string'
CONST	ENDS
;	COMDAT ??_C@_0DG@NJNMAEOG@allow?5to?5downloading?5resources?5@
CONST	SEGMENT
??_C@_0DG@NJNMAEOG@allow?5to?5downloading?5resources?5@ DB 'allow to down'
	DB	'loading resources while client is active', 00H ; `string'
CONST	ENDS
;	COMDAT ??_C@_0BD@JLPOFKFL@cl_download_ingame@
CONST	SEGMENT
??_C@_0BD@JLPOFKFL@cl_download_ingame@ DB 'cl_download_ingame', 00H ; `string'
CONST	ENDS
;	COMDAT ??_C@_0CL@EIEPLMFJ@allow?5to?5uploading?5resources?5to@
CONST	SEGMENT
??_C@_0CL@EIEPLMFJ@allow?5to?5uploading?5resources?5to@ DB 'allow to uplo'
	DB	'ading resources to the server', 00H		; `string'
CONST	ENDS
;	COMDAT ??_C@_0BA@CLDDKIHF@cl_allow_upload@
CONST	SEGMENT
??_C@_0BA@CLDDKIHF@cl_allow_upload@ DB 'cl_allow_upload', 00H ; `string'
CONST	ENDS
;	COMDAT ??_C@_0CP@EBEFOALA@allow?5to?5downloading?5resources?5@
CONST	SEGMENT
??_C@_0CP@EBEFOALA@allow?5to?5downloading?5resources?5@ DB 'allow to down'
	DB	'loading resources from the server', 00H	; `string'
CONST	ENDS
;	COMDAT ??_C@_01HIHLOKLC@1@
CONST	SEGMENT
??_C@_01HIHLOKLC@1@ DB '1', 00H				; `string'
CONST	ENDS
;	COMDAT ??_C@_0BC@FNPFKPHK@cl_allow_download@
CONST	SEGMENT
??_C@_0BC@FNPFKPHK@cl_allow_download@ DB 'cl_allow_download', 00H ; `string'
CONST	ENDS
;	COMDAT ??_C@_0BH@JNOGBONI@time?5to?5resend?5connect@
CONST	SEGMENT
??_C@_0BH@JNOGBONI@time?5to?5resend?5connect@ DB 'time to resend connect', 00H ; `string'
CONST	ENDS
;	COMDAT ??_C@_03OGGONKIH@6?40@
CONST	SEGMENT
??_C@_03OGGONKIH@6?40@ DB '6.0', 00H			; `string'
CONST	ENDS
;	COMDAT ??_C@_09MCGIDBGM@cl_resend@
CONST	SEGMENT
??_C@_09MCGIDBGM@cl_resend@ DB 'cl_resend', 00H		; `string'
CONST	ENDS
;	COMDAT ??_C@_0BM@HDLBGHAN@draw?5level?5in?5overview?9mode@
CONST	SEGMENT
??_C@_0BM@HDLBGHAN@draw?5level?5in?5overview?9mode@ DB 'draw level in ove'
	DB	'rview-mode', 00H				; `string'
CONST	ENDS
;	COMDAT ??_C@_01GBGANLPD@0@
CONST	SEGMENT
??_C@_01GBGANLPD@0@ DB '0', 00H				; `string'
CONST	ENDS
;	COMDAT ??_C@_0N@LIOHAFCO@dev_overview@
CONST	SEGMENT
??_C@_0N@LIOHAFCO@dev_overview@ DB 'dev_overview', 00H	; `string'
CONST	ENDS
;	COMDAT ??_C@_0BM@FNHNOFFA@decals?5limit?5in?5multiplayer@
CONST	SEGMENT
??_C@_0BM@FNHNOFFA@decals?5limit?5in?5multiplayer@ DB 'decals limit in mu'
	DB	'ltiplayer', 00H				; `string'
CONST	ENDS
;	COMDAT ??_C@_03MHAIKEMP@300@
CONST	SEGMENT
??_C@_03MHAIKEMP@300@ DB '300', 00H			; `string'
CONST	ENDS
;	COMDAT ??_C@_09HLNOEJGD@mp_decals@
CONST	SEGMENT
??_C@_09HLNOEJGD@mp_decals@ DB 'mp_decals', 00H		; `string'
CONST	ENDS
_DATA	SEGMENT
_mp_decals DD	FLAT:??_C@_09HLNOEJGD@mp_decals@
	DD	FLAT:??_C@_03MHAIKEMP@300@
	DD	01H
	DD	000000000r			; 0
	DD	0deadbeefH
	DD	FLAT:??_C@_0BM@FNHNOFFA@decals?5limit?5in?5multiplayer@
	ORG $+4
_cl_logofile DD	FLAT:??_C@_0M@MEADMGND@cl_logofile@
	DD	FLAT:??_C@_06COJIGPIB@lambda@
	DD	01H
	DD	000000000r			; 0
	DD	0deadbeefH
	DD	FLAT:??_C@_0BB@DLGKBBEJ@player?5logo?5name@
	ORG $+4
_cl_logocolor DD FLAT:??_C@_0N@NAANHKBJ@cl_logocolor@
	DD	FLAT:??_C@_06HDDOCMMN@orange@
	DD	01H
	DD	000000000r			; 0
	DD	0deadbeefH
	DD	FLAT:??_C@_0BC@KELHMHFN@player?5logo?5color@
	ORG $+4
_cl_allow_download DD FLAT:??_C@_0BC@FNPFKPHK@cl_allow_download@
	DD	FLAT:??_C@_01HIHLOKLC@1@
	DD	01H
	DD	000000000r			; 0
	DD	0deadbeefH
	DD	FLAT:??_C@_0CP@EBEFOALA@allow?5to?5downloading?5resources?5@
	ORG $+4
_cl_allow_upload DD FLAT:??_C@_0BA@CLDDKIHF@cl_allow_upload@
	DD	FLAT:??_C@_01HIHLOKLC@1@
	DD	01H
	DD	000000000r			; 0
	DD	0deadbeefH
	DD	FLAT:??_C@_0CL@EIEPLMFJ@allow?5to?5uploading?5resources?5to@
	ORG $+4
_cl_download_ingame DD FLAT:??_C@_0BD@JLPOFKFL@cl_download_ingame@
	DD	FLAT:??_C@_01HIHLOKLC@1@
	DD	01H
	DD	000000000r			; 0
	DD	0deadbeefH
	DD	FLAT:??_C@_0DG@NJNMAEOG@allow?5to?5downloading?5resources?5@
	ORG $+4
_dev_overview DD FLAT:??_C@_0N@LIOHAFCO@dev_overview@
	DD	FLAT:??_C@_01GBGANLPD@0@
	DD	00H
	DD	000000000r			; 0
	DD	0deadbeefH
	DD	FLAT:??_C@_0BM@HDLBGHAN@draw?5level?5in?5overview?9mode@
	ORG $+4
_cl_resend DD	FLAT:??_C@_09MCGIDBGM@cl_resend@
	DD	FLAT:??_C@_03OGGONKIH@6?40@
	DD	00H
	DD	000000000r			; 0
	DD	0deadbeefH
	DD	FLAT:??_C@_0BH@JNOGBONI@time?5to?5resend?5connect@
	ORG $+4
_cl_test_bandwidth DD FLAT:??_C@_0BC@JGICJKMO@cl_test_bandwidth@
	DD	FLAT:??_C@_01HIHLOKLC@1@
	DD	01H
	DD	000000000r			; 0
	DD	0deadbeefH
	DD	FLAT:??_C@_0CI@MKEAGAPI@test?5network?5bandwith?5before?5co@
	ORG $+4
_DATA	ENDS
PUBLIC	_CL_Init
PUBLIC	_CL_Shutdown
PUBLIC	_Host_ClientBegin
PUBLIC	_Host_ClientFrame
PUBLIC	_CL_Active
PUBLIC	_CL_IsInGame
PUBLIC	_CL_IsInMenu
PUBLIC	_CL_IsInConsole
PUBLIC	_CL_IsIntermission
PUBLIC	_CL_Initialized
PUBLIC	_CL_Userinfo
PUBLIC	_CL_DisableVisibility
PUBLIC	_CL_ServerCommand
PUBLIC	_CL_IsRecordDemo
PUBLIC	_CL_IsTimeDemo
PUBLIC	_CL_IsPlaybackDemo
PUBLIC	_CL_IsBackgroundDemo
PUBLIC	_CL_IsBackgroundMap
PUBLIC	_CL_IsQuakeCompatible
PUBLIC	_CL_Disconnect
PUBLIC	_CL_Crashed
PUBLIC	_CL_Drop
PUBLIC	_BitByte
PUBLIC	_MSG_GetNumBytesWritten
PUBLIC	_MSG_GetRealBytesWritten
PUBLIC	_MSG_GetNumBitsWritten
PUBLIC	_MSG_GetMaxBytes
PUBLIC	_MSG_GetNumBitsLeft
PUBLIC	_MSG_GetData
PUBLIC	_CL_Quit_f
PUBLIC	_CL_SendCommand
PUBLIC	_CL_Disconnect_f
PUBLIC	_CL_ProcessFile
PUBLIC	_CL_WriteUsercmd
PUBLIC	_CL_GetFragmentSize
PUBLIC	_CL_PrecacheResources
PUBLIC	_CL_SetupOverviewParams
PUBLIC	_CL_UpdateFrameLerp
PUBLIC	_CL_IsDevOverviewMode
PUBLIC	_CL_SignonReply
PUBLIC	_CL_ClearState
PUBLIC	_CL_CheckClientState
PUBLIC	_CL_DriftInterpolationAmount
PUBLIC	_CL_ComputeClientInterpolationAmount
PUBLIC	_CL_ComputePacketLoss
PUBLIC	_CL_FindInterpolatedAddAngle
PUBLIC	_CL_ApplyAddAngle
PUBLIC	_CL_ProcessShowTexturesCmds
PUBLIC	_CL_ProcessOverviewCmds
PUBLIC	_CL_UpdateClientData
PUBLIC	_CL_CreateCmd
PUBLIC	_CL_WritePacket
PUBLIC	_CL_BeginUpload_f
PUBLIC	_CL_GetCDKeyHash
PUBLIC	_CL_SendConnectPacket
PUBLIC	_CL_CheckForResend
PUBLIC	_CL_AddResource
PUBLIC	_CL_CreateResourceList
PUBLIC	_CL_Connect_f
PUBLIC	_CL_Rcon_f
PUBLIC	_CL_SendDisconnectMessage
PUBLIC	_CL_Reconnect
PUBLIC	_CL_LocalServers_f
PUBLIC	_CL_InternetServers_f
PUBLIC	_CL_Reconnect_f
PUBLIC	_CL_FixupColorStringsForInfoString
PUBLIC	_CL_ParseStatusMessage
PUBLIC	_CL_ParseNETInfoMessage
PUBLIC	_CL_ProcessNetRequests
PUBLIC	_CL_ConnectionlessPacket
PUBLIC	_CL_GetMessage
PUBLIC	_CL_ReadNetMessage
PUBLIC	_CL_ReadPackets
PUBLIC	_CL_CleanFileName
PUBLIC	_CL_RegisterCustomization
PUBLIC	_CL_SetInfo_f
PUBLIC	_CL_Physinfo_f
PUBLIC	_CL_FullServerinfo_f
PUBLIC	_CL_Escape_f
PUBLIC	_CL_InitLocal
PUBLIC	_CL_AdjustClock
PUBLIC	??_C@_0M@DKOEGGOG@scr_loading@			; `string'
PUBLIC	??_C@_0BO@PBAMMEOO@client?5connected?5at?5?$CF?42f?5sec?6@ ; `string'
PUBLIC	??_C@_0BE@HJOLPNGG@CL_SignonReply?3?5?$CFi?6@	; `string'
PUBLIC	??_C@_05EAFKHBAM@begin@				; `string'
PUBLIC	??_C@_0DI@MMJIGOKI@cl_updaterate?5minimum?5is?5?$CFf?0?5re@ ; `string'
PUBLIC	??_C@_0O@GLEIJHMA@cl_updaterate@		; `string'
PUBLIC	??_C@_0CH@GCBKIJKK@cl_updaterate?5clamped?5at?5maximu@ ; `string'
PUBLIC	??_C@_0CA@NNLHIFJL@ex_interp?5forced?5up?5to?5?$CFi?5msec?6@ ; `string'
PUBLIC	??_C@_0CC@CGOAGALG@ex_interp?5forced?5down?5to?5?$CFi?5mse@ ; `string'
PUBLIC	??_C@_09LIPGDLPA@ex_interp@			; `string'
PUBLIC	??_C@_0P@MJMKNHCG@r_showtextures@		; `string'
PUBLIC	?__LINE__Var@?0??CL_WriteUsercmd@@9@9		; `CL_WriteUsercmd'::`1'::__LINE__Var
PUBLIC	??_C@_0DE@KLFELIEG@D?3?2DevDragon?2XashFE?2dev?2src?2eng@ ; `string'
PUBLIC	??_C@_0DJ@BPAMAEGK@from?5?$DN?$DN?5?91?5?$HM?$HM?5?$CI?5from?5?$DO?$DN?50?5?$CG?$CG?5fr@ ; `string'
PUBLIC	??_C@_0CD@GOANGLPP@to?5?$DO?$DN?50?5?$CG?$CG?5to?5?$DM?5MULTIPLAYER_BAC@ ; `string'
PUBLIC	??_C@_0L@DCAPMAMJ@ClientData@			; `string'
PUBLIC	??_C@_0L@FHOEGPOF@cl_cmdrate@			; `string'
PUBLIC	??_C@_0CD@MNHOADLI@?$FO3Warning?3?$FO1?5Connection?5Problem@ ; `string'
PUBLIC	??_C@_0DG@JCLEFCHC@CL_WritePacket?3?5overflowed?5comm@ ; `string'
PUBLIC	?__LINE__Var@?0??CL_BeginUpload_f@@9@9		; `CL_BeginUpload_f'::`1'::__LINE__Var
PUBLIC	??_C@_04HJKAGJBM@?$CBMD5@			; `string'
PUBLIC	??_C@_0CG@IJLLNIPI@Ingoring?5upload?5of?5non?9customiz@ ; `string'
PUBLIC	??_C@_0L@DHBFCELB@custom?4hpk@			; `string'
PUBLIC	??_C@_0DK@MCGJPAHP@Bogus?5data?5retrieved?5from?5?$CFs?0?5a@ ; `string'
PUBLIC	??_C@_0DD@JPFNAHEK@HPAK_AddLump?5called?5with?5bogus?5@ ; `string'
PUBLIC	??_C@_0BA@OPIGPFCH@Purported?3?5?5?$CFs?6@	; `string'
PUBLIC	??_C@_0BA@LICAHJIO@Actual?5?5?5?3?5?5?$CFs?6@	; `string'
PUBLIC	??_C@_0BL@CFCAJJKK@Removing?5conflicting?5lump?6@ ; `string'
PUBLIC	??_C@_0CK@GCLLEHKK@CL_SendConnectPacket?3?5bad?5serve@ ; `string'
PUBLIC	??_C@_09HOOHLIKH@net_qport@			; `string'
PUBLIC	??_C@_04BCJJGJPP@uuid@				; `string'
PUBLIC	??_C@_05IPCIHGO@qport@				; `string'
PUBLIC	??_C@_0BJ@INHGGABP@connect?5?$CFi?5?$CFi?5?$CC?$CFs?$CC?5?$CC?$CFs?$CC?6@ ; `string'
PUBLIC	??_C@_09IPAEKDAI@localhost@			; `string'
PUBLIC	??_C@_0DC@CJPDMOGH@?$FO1Error?3?$FO7?5CL_CheckForResend?3?5c@ ; `string'
PUBLIC	??_C@_0DD@MOPJJDLG@hi?9speed?5connection?5is?5failed?0?5@ ; `string'
PUBLIC	??_C@_0O@BELBLLBG@getchallenge?6@		; `string'
PUBLIC	??_C@_08IGNJNAKN@cl_dlmax@			; `string'
PUBLIC	??_C@_0CB@PLILGMJK@Connecting?5to?5?$CFs?4?4?4?5?$FLretry?5?$CD?$CFi?$FN@ ; `string'
PUBLIC	??_C@_0BB@BGHIAFEK@bandwidth?5?$CFi?5?$CFi?6@	; `string'
PUBLIC	??_C@_0BO@LICHHHNB@Too?5many?5resources?5on?5client?6@ ; `string'
PUBLIC	??_C@_0BD@IOMBPIHF@logos?1remapped?4bmp@	; `string'
PUBLIC	??_C@_02JDPG@rb@				; `string'
PUBLIC	??_C@_0BJ@FPBNGOLO@Usage?3?5connect?5?$DMserver?$DO?6@ ; `string'
PUBLIC	??_C@_0L@BFANEHJC@server?5?$CFs?6@		; `string'
PUBLIC	??_C@_0DO@NCNKNADM@You?5must?5set?5?8rcon_password?8?5be@ ; `string'
PUBLIC	??_C@_05GCMNNKNG@rcon?5@			; `string'
PUBLIC	??_C@_01CLKCMJKC@?5@				; `string'
PUBLIC	??_C@_0FE@OFOGMBMH@You?5must?5either?5be?5connected?5or@ ; `string'
PUBLIC	??_C@_0O@NGAMONDD@cl_background@		; `string'
PUBLIC	??_C@_0N@CCFOLBKF@scr_download@			; `string'
PUBLIC	??_C@_0M@BOHCKFHE@LastMessage@			; `string'
PUBLIC	??_C@_0L@KKPFIJOL@disconnect@			; `string'
PUBLIC	??_C@_03CLCAEGCJ@new@				; `string'
PUBLIC	??_C@_0BK@EFMONHFA@disconnected?5from?5server?6@ ; `string'
PUBLIC	??_C@_0DD@FDBOEDJA@Scanning?5for?5servers?5on?5the?5loc@ ; `string'
PUBLIC	??_C@_07GBLEFLLO@info?5?$CFi@			; `string'
PUBLIC	??_C@_0N@CIFHLALM@1?$PP0?40?40?40?30?$AA@	; `string'
PUBLIC	??_C@_0BB@FHKNHLNB@ms?4xash?4su?327010@		; `string'
PUBLIC	??_C@_0CC@FKAGDMAF@?$FO1Error?3?$FO7?5Can?8t?5resolve?5adr?3?5?$CF@ ; `string'
PUBLIC	??_C@_0CO@DFHJDOOJ@Scanning?5for?5servers?5on?5the?5int@ ; `string'
PUBLIC	??_C@_07GGMBKBFD@gamedir@			; `string'
PUBLIC	??_C@_04PNCPDLMM@0?499@				; `string'
PUBLIC	??_C@_05IBNOFEBL@clver@				; `string'
PUBLIC	??_C@_0BB@DIBMBDMI@reconnecting?4?4?4?6@	; `string'
PUBLIC	??_C@_0BK@JJLGHCHK@?$FO1Server?$FO7?3?5?$CFs?0?5Info?3?5?$CFs?6@ ; `string'
PUBLIC	??_C@_0BK@JEDBHIFD@?$FO2Server?$FO7?3?5?$CFs?0?5Game?3?5?$CFs?6@ ; `string'
PUBLIC	??_C@_08EJOEDJLI@neterror@			; `string'
PUBLIC	??_C@_08FCFPNNHF@protocol@			; `string'
PUBLIC	??_C@_09MLGAJAED@undefined@			; `string'
PUBLIC	?__LINE__Var@?0??CL_ConnectionlessPacket@@9@9	; `CL_ConnectionlessPacket'::`1'::__LINE__Var
PUBLIC	??_C@_0CC@OJAMPIDI@CL_ConnectionlessPacket?3?5?$CFs?5?3?5?$CF@ ; `string'
PUBLIC	??_C@_0P@IOGHOCLL@client_connect@		; `string'
PUBLIC	??_C@_0CK@DICJNNNK@?$FO1Error?3?$FO7?5dup?5connect?5received@ ; `string'
PUBLIC	??_C@_04NIDJFNBE@info@				; `string'
PUBLIC	??_C@_07PHGFOLHM@netinfo@			; `string'
PUBLIC	??_C@_03LGLGIONO@cmd@				; `string'
PUBLIC	??_C@_0CL@MOFOLJMP@Command?5packet?5from?5remote?5host@ ; `string'
PUBLIC	??_C@_01EEMJAFIK@?6@				; `string'
PUBLIC	??_C@_05IJDJACGD@print@				; `string'
PUBLIC	??_C@_02DKCKIIND@?$CFs@				; `string'
PUBLIC	??_C@_0L@BEEDAEFO@testpacket@			; `string'
PUBLIC	??_C@_0DE@IFANHFOD@CRC?5?$CFp?5is?5matched?0?5get?5challeng@ ; `string'
PUBLIC	??_C@_04OONEELOO@ping@				; `string'
PUBLIC	??_C@_03JBLJHHJA@ack@				; `string'
PUBLIC	??_C@_09DBEGHIJJ@challenge@			; `string'
PUBLIC	??_C@_04OFDNEFMC@echo@				; `string'
PUBLIC	??_C@_01INIBCBCB@f@				; `string'
PUBLIC	??_C@_0BF@JLOFCKGL@serverlist?5call?3?5?$CFs?6@	; `string'
PUBLIC	??_C@_0DC@KKDBOFAL@?$FO1Error?3?$FO7?5bad?5connectionless?5p@ ; `string'
PUBLIC	??_C@_0L@GIBDHCEL@ServerData@			; `string'
PUBLIC	??_C@_0CN@GMBCANBL@?$FO3Warning?3?$FO7?5CL_ReadPackets?3?5?$CFs@ ; `string'
PUBLIC	??_C@_0ED@FEECBHMH@?$FO1Error?3?$FO7?5CL_ReadPackets?3?5?$CFs?3s@ ; `string'
PUBLIC	??_C@_0BP@CBAODGNF@?6Server?5connection?5timed?5out?4?6@ ; `string'
PUBLIC	??_C@_0O@FPFBHEJO@customization@		; `string'
PUBLIC	??_C@_0CN@IBPOEPKJ@Unable?5to?5create?5custom?5decal?5f@ ; `string'
PUBLIC	??_C@_0CK@FPPFLGNI@Duplicate?5resource?5received?5and@ ; `string'
PUBLIC	?__LINE__Var@?0??CL_ProcessFile@@9@9		; `CL_ProcessFile'::`1'::__LINE__Var
PUBLIC	??_C@_06PBLIODKG@sound?1@			; `string'
PUBLIC	??_C@_0P@FNEEOGHP@processing?5?$CFs?6@		; `string'
PUBLIC	??_C@_0DA@NHIBONO@?$FO1Error?3?$FO7?5server?5failed?5to?5tra@ ; `string'
PUBLIC	??_C@_0ED@IBJGKGBH@Downloaded?5?$CFi?5bytes?5for?5purport@ ; `string'
PUBLIC	??_C@_0BG@KLNLHGNN@Resource?5Registration@	; `string'
PUBLIC	??_C@_0ED@OIDIDHDM@Received?5a?5decal?5?$CFs?0?5but?5didn?8t@ ; `string'
PUBLIC	??_C@_0BF@CNHFFNEA@User?5info?5settings?3?6@	; `string'
PUBLIC	??_C@_0BC@KADBPMIN@Total?5?$CFi?5symbols?6@	; `string'
PUBLIC	??_C@_0CC@PIAKLNIH@Usage?3?5setinfo?5?$FL?5?$DMkey?$DO?5?$DMvalue?$DO?5@ ; `string'
PUBLIC	??_C@_0BF@GODLHHLE@Phys?5info?5settings?3?6@	; `string'
PUBLIC	??_C@_0CC@DKBPLKFE@?$FO1Error?3?$FO7?5submodel?5?$CFs?5not?5foun@ ; `string'
PUBLIC	??_C@_0BP@KOCONAKK@?$FO1Error?3?$FO7?5?$CFs?$CFs?5couldn?8t?5load?6@ ; `string'
PUBLIC	??_C@_0CO@BDGNMEFL@Usage?3?5fullserverinfo?5?$DMcomplete@ ; `string'
PUBLIC	??_C@_0BH@NFCHEABC@show?5weapon?5chrosshair@	; `string'
PUBLIC	??_C@_09NBNKIDFG@crosshair@			; `string'
PUBLIC	??_C@_0CO@IPIGBHJN@disable?5delta?9compression?5for?5s@ ; `string'
PUBLIC	??_C@_0L@BPLIDNFG@cl_nodelta@			; `string'
PUBLIC	??_C@_0ED@JGEPHGDP@how?5much?5to?5look?5up?1down?5slopes@ ; `string'
PUBLIC	??_C@_03LNMAPFD@0?48@				; `string'
PUBLIC	??_C@_0BD@FBOKDBLE@cl_idealpitchscale@		; `string'
PUBLIC	??_C@_0DC@FNMDJCPC@Make?5all?5players?5not?5solid?5?$CIcan@ ; `string'
PUBLIC	??_C@_0BB@BGAFDJDO@cl_solid_players@		; `string'
PUBLIC	??_C@_0EA@HNPMKLI@Interpolate?5object?5positions?5st@ ; `string'
PUBLIC	??_C@_03NKBOLEBK@0?41@				; `string'
PUBLIC	??_C@_0BN@CMKNHDIB@connect?5timeout?5?$CIin?9seconds?$CJ@ ; `string'
PUBLIC	??_C@_02PPBOIJDM@60@				; `string'
PUBLIC	??_C@_0L@JCNOFHIK@cl_timeout@			; `string'
PUBLIC	??_C@_0BP@LIMJMBAH@remote?5control?5client?5password@ ; `string'
PUBLIC	??_C@_00CNPNBAHC@@				; `string'
PUBLIC	??_C@_0O@EEIAMLPM@rcon_password@		; `string'
PUBLIC	??_C@_0BH@BPEKCJOI@remote?5control?5address@	; `string'
PUBLIC	??_C@_0N@PJJENLON@rcon_address@			; `string'
PUBLIC	??_C@_0CD@FJCEHFJG@disable?5client?5movement?5predict@ ; `string'
PUBLIC	??_C@_09EFLGBOKH@cl_nopred@			; `string'
PUBLIC	??_C@_0M@IBMGFCGL@player?5name@			; `string'
PUBLIC	??_C@_04MEMAJGDJ@name@				; `string'
PUBLIC	??_C@_0DA@GGEFMNKI@player?5model?5?$CI?8player?8?5is?5a?5sin@ ; `string'
PUBLIC	??_C@_05NCCFOPHA@model@				; `string'
PUBLIC	??_C@_0CA@IMLGPKIK@refresh?5rate?5of?5server?5messages@ ; `string'
PUBLIC	??_C@_02PIBHCBOA@20@				; `string'
PUBLIC	??_C@_0DA@PBHOBKHC@max?5allowed?5fragment?5size?5on?5do@ ; `string'
PUBLIC	??_C@_0BE@CPFCAJAK@player?5network?5rate@	; `string'
PUBLIC	??_C@_04ODIEBBEE@3500@				; `string'
PUBLIC	??_C@_04HCCHHEEF@rate@				; `string'
PUBLIC	??_C@_0BB@ILOPDEKA@player?5top?5color@		; `string'
PUBLIC	??_C@_08OLGKFJAO@topcolor@			; `string'
PUBLIC	??_C@_0BE@KBFJNKLM@player?5bottom?5color@	; `string'
PUBLIC	??_C@_0M@IIFIMDEK@bottomcolor@			; `string'
PUBLIC	??_C@_0CA@DGECEPIL@enable?5client?5weapon?5predicting@ ; `string'
PUBLIC	??_C@_05COECHLGF@cl_lw@				; `string'
PUBLIC	??_C@_0BI@HOGAGOPD@enable?5lag?5compensation@	; `string'
PUBLIC	??_C@_05OMKMDA@cl_lc@				; `string'
PUBLIC	??_C@_0BA@BOCGHAFM@server?5password@		; `string'
PUBLIC	??_C@_08NLHBPEGP@password@			; `string'
PUBLIC	??_C@_0M@OFDHDJHD@player?5team@			; `string'
PUBLIC	??_C@_04KADBPNCB@team@				; `string'
PUBLIC	??_C@_0M@JCPGJACL@player?5skin@			; `string'
PUBLIC	??_C@_04NHPAFEHJ@skin@				; `string'
PUBLIC	??_C@_0BA@MDNBJAOI@show?5client?5fps@		; `string'
PUBLIC	??_C@_0L@FNAGCLGI@cl_showfps@			; `string'
PUBLIC	??_C@_0EJ@KOJLGMDL@disable?5smooth?5up?5stair?5climbin@ ; `string'
PUBLIC	??_C@_0M@LLEMEGKL@cl_nosmooth@			; `string'
PUBLIC	??_C@_0BC@ECBHFPKG@time?5to?5smooth?5up@	; `string'
PUBLIC	??_C@_0O@CDOPINFK@cl_smoothtime@		; `string'
PUBLIC	??_C@_0CO@LLNCFEDN@how?5many?5additional?5history?5com@ ; `string'
PUBLIC	??_C@_02PKFBJPLJ@10@				; `string'
PUBLIC	??_C@_0N@NGMAFPKG@cl_cmdbackup@			; `string'
PUBLIC	??_C@_0DI@MEFENBID@Max?5number?5of?5command?5packets?5s@ ; `string'
PUBLIC	??_C@_02PJNFELNH@30@				; `string'
PUBLIC	??_C@_0BB@CDBJOONC@render?5particles@		; `string'
PUBLIC	??_C@_0BA@DLDAOBHF@r_drawparticles@		; `string'
PUBLIC	??_C@_0P@BBEPAELE@render?5tracers@		; `string'
PUBLIC	??_C@_0O@DNAKHALD@r_drawtracers@		; `string'
PUBLIC	??_C@_0N@KECJKNEI@render?5beams@		; `string'
PUBLIC	??_C@_0M@EHKDLKIM@r_drawbeams@			; `string'
PUBLIC	??_C@_0DD@CIKONPNB@enables?5animated?5light?5lerping?5@ ; `string'
PUBLIC	??_C@_0BG@IKBGNHPM@cl_lightstyle_lerping@	; `string'
PUBLIC	??_C@_0BG@FPPOLPLK@show?5prediction?5error@	; `string'
PUBLIC	??_C@_0N@BLPCJECL@cl_showerror@			; `string'
PUBLIC	??_C@_0BM@OOMCGAMM@enable?5bmodel?5interpolation@ ; `string'
PUBLIC	??_C@_0BA@HDGLEIEB@cl_bmodelinterp@		; `string'
PUBLIC	??_C@_0CL@EHNJPADF@frametime?5delta?5maximum?5value?5b@ ; `string'
PUBLIC	??_C@_0O@DJEBIBFL@cl_clockreset@		; `string'
PUBLIC	??_C@_0CH@CLKODIIO@time?5in?5msec?5to?5client?5clock?5ad@ ; `string'
PUBLIC	??_C@_03CDKFEJKH@7?45@				; `string'
PUBLIC	??_C@_0P@GBJMGNNJ@cl_fixtimerate@		; `string'
PUBLIC	??_C@_0CA@CCEFHBIN@scale?5hud?5at?5current?5resolution@ ; `string'
PUBLIC	??_C@_02PGHGPEOM@?91@				; `string'
PUBLIC	??_C@_09GMLECNLK@hud_scale@			; `string'
PUBLIC	??_C@_0CI@MOIEJPFN@indicate?5what?5background?5map?5is@ ; `string'
PUBLIC	??_C@_0BF@DPPOLODC@show?5events?5playback@	; `string'
PUBLIC	??_C@_0O@FNNFDDLC@cl_showevents@		; `string'
PUBLIC	??_C@_0BB@COIHEPAG@last?5played?5demo@		; `string'
PUBLIC	??_C@_08DAPDEFAC@lastdemo@			; `string'
PUBLIC	??_C@_0CI@MGEECIPN@ambient?5lighting?5level?5?$CIlegacy?0@ ; `string'
PUBLIC	??_C@_0L@IEGJIKFJ@lightgamma@			; `string'
PUBLIC	??_C@_0CH@JDLOPMPD@direct?5lighting?5level?5?$CIlegacy?0?5@ ; `string'
PUBLIC	??_C@_06LMLJGLPA@direct@			; `string'
PUBLIC	??_C@_0CD@PNOAHLOJ@enable?5or?5disable?5no?5clipping?5m@ ; `string'
PUBLIC	??_C@_06IHODGGMJ@noclip@			; `string'
PUBLIC	??_C@_0CI@JHOKLOME@notarget?5mode?5?$CImonsters?5do?5not?5@ ; `string'
PUBLIC	??_C@_08HPLPOCJL@notarget@			; `string'
PUBLIC	??_C@_0CE@OIDLHPFJ@re?9init?5HUD?5on?5start?5demo?5recor@ ; `string'
PUBLIC	??_C@_0L@BAECHHDI@fullupdate@			; `string'
PUBLIC	??_C@_0BO@BFJDPOLM@give?5specified?5item?5or?5weapon@ ; `string'
PUBLIC	??_C@_04BMBHJADG@give@				; `string'
PUBLIC	??_C@_0CG@KPKDPDDB@drop?5current?1specified?5item?5or?5@ ; `string'
PUBLIC	??_C@_04PIONEEJD@drop@				; `string'
PUBLIC	??_C@_0P@CNBLLDB@show?5game?5logo@		; `string'
PUBLIC	??_C@_09EPLNALMJ@gametitle@			; `string'
PUBLIC	??_C@_0O@DJFCAHFH@die?5instantly@		; `string'
PUBLIC	??_C@_04BJJEOANI@kill@				; `string'
PUBLIC	??_C@_0P@IHCIBFKI@enable?5godmode@		; `string'
PUBLIC	??_C@_03DKFAMNOH@god@				; `string'
PUBLIC	??_C@_0BJ@JILCKFBM@set?5client?5field?5of?5view@ ; `string'
PUBLIC	??_C@_03PKBINKFB@fov@				; `string'
PUBLIC	??_C@_0BG@MDLCPPLP@logging?5server?5events@	; `string'
PUBLIC	??_C@_03MGHMBJCF@log@				; `string'
PUBLIC	??_C@_0CO@PMNFOODE@pause?5the?5game?5?$CIif?5the?5server?5a@ ; `string'
PUBLIC	??_C@_05PDJBBECF@pause@				; `string'
PUBLIC	??_C@_0CB@HEKGMPDC@collect?5info?5about?5local?5server@ ; `string'
PUBLIC	??_C@_0N@OHPGBJMI@localservers@			; `string'
PUBLIC	??_C@_0CE@FCJGMNIB@collect?5info?5about?5internet?5ser@ ; `string'
PUBLIC	??_C@_0BA@HMMIBNGA@internetservers@		; `string'
PUBLIC	??_C@_0CN@KALGIHLE@Play?5cd?9track?5?$CInot?5real?5cd?9play@ ; `string'
PUBLIC	??_C@_02ELLOPNDH@cd@				; `string'
PUBLIC	??_C@_0CM@EAINAEGG@Play?5mp3?9track?5?$CIbased?5on?5virtua@ ; `string'
PUBLIC	??_C@_03LHGNACFN@mp3@				; `string'
PUBLIC	??_C@_0DK@LMLJPMOP@examine?5or?5change?5the?5userinfo?5@ ; `string'
PUBLIC	??_C@_07BANLMPIG@setinfo@			; `string'
PUBLIC	??_C@_0DJ@CCNNGOCK@examine?5or?5change?5the?5userinfo?5@ ; `string'
PUBLIC	??_C@_08PPJNGBMG@userinfo@			; `string'
PUBLIC	??_C@_0BO@NJOOMKKF@print?5current?5client?5physinfo@ ; `string'
PUBLIC	??_C@_08PPPJCMOL@physinfo@			; `string'
PUBLIC	??_C@_0BH@PEHNLCL@disconnect?5from?5server@	; `string'
PUBLIC	??_C@_0O@EIHBBIAA@record?5a?5demo@		; `string'
PUBLIC	??_C@_06KKGOIHDP@record@			; `string'
PUBLIC	??_C@_0M@IJLAHPMN@play?5a?5demo@		; `string'
PUBLIC	??_C@_08KNNNHPIP@playdemo@			; `string'
PUBLIC	??_C@_0P@BGKPKPPK@demo?5benchmark@		; `string'
PUBLIC	??_C@_08LGFIIHD@timedemo@			; `string'
PUBLIC	??_C@_0BN@OJLIDBHD@delete?5a?5specified?5demo?5file@ ; `string'
PUBLIC	??_C@_08PJGEFPKP@killdemo@			; `string'
PUBLIC	??_C@_0DD@POMNLFOG@start?5playing?5back?5the?5selected@ ; `string'
PUBLIC	??_C@_0L@PNDCJELG@startdemos@			; `string'
PUBLIC	??_C@_0DN@JLIMINEP@restart?5looping?5demos?5defined?5b@ ; `string'
PUBLIC	??_C@_05CFPGCNL@demos@				; `string'
PUBLIC	??_C@_0N@BDPMHENF@play?5a?5movie@		; `string'
PUBLIC	??_C@_05PAONDCEJ@movie@				; `string'
PUBLIC	??_C@_0CB@ILBKKEAI@stop?5playing?5or?5recording?5a?5dem@ ; `string'
PUBLIC	??_C@_04PEGFANN@stop@				; `string'
PUBLIC	??_C@_0DJ@OGHCBBKD@collect?5info?5about?5local?5server@ ; `string'
PUBLIC	??_C@_0BJ@MOFFGFNO@escape?5from?5game?5to?5menu@ ; `string'
PUBLIC	??_C@_06CHNIFGOF@escape@			; `string'
PUBLIC	??_C@_0BN@CLBJFNJG@toggle?5between?5game?5and?5menu@ ; `string'
PUBLIC	??_C@_0L@HBDHBCHM@togglemenu@			; `string'
PUBLIC	??_C@_0CL@CGJHNICJ@show?5leaks?5on?5a?5map?5?$CIif?5present@ ; `string'
PUBLIC	??_C@_09OEGDAIFJ@pointfile@			; `string'
PUBLIC	??_C@_08OGKOBMOC@linefile@			; `string'
PUBLIC	??_C@_0CH@MMJIKCDL@sent?5by?5server?5when?5serverinfo?5@ ; `string'
PUBLIC	??_C@_0P@FNBOAPB@fullserverinfo@		; `string'
PUBLIC	??_C@_0BN@LJPCPLKK@uploading?5file?5to?5the?5server@ ; `string'
PUBLIC	??_C@_06KAOCKAGB@upload@			; `string'
PUBLIC	??_C@_0P@MHFGDMFE@quit?5from?5game@		; `string'
PUBLIC	??_C@_04KNNLNNGO@quit@				; `string'
PUBLIC	??_C@_04MKNBDEPB@exit@				; `string'
PUBLIC	??_C@_0CO@FDJKINND@takes?5a?5screenshot?5of?5the?5next?5@ ; `string'
PUBLIC	??_C@_0L@CMHOPIGK@screenshot@			; `string'
PUBLIC	??_C@_0CM@MIGONHLN@takes?5a?5snapshot?5of?5the?5next?5re@ ; `string'
PUBLIC	??_C@_08HLGCJJEE@snapshot@			; `string'
PUBLIC	??_C@_0DD@EKKNFHMF@takes?5a?5six?9sides?5cubemap?5shot?5@ ; `string'
PUBLIC	??_C@_07EMBMCCDB@envshot@			; `string'
PUBLIC	??_C@_0DL@JCALLELG@takes?5a?5six?9sides?5envmap?5?$CIskybo@ ; `string'
PUBLIC	??_C@_07FFKGIHOP@skyshot@			; `string'
PUBLIC	??_C@_0DE@GCJKHONG@same?5as?5?$CCscreenshot?$CC?0?5used?5for?5@ ; `string'
PUBLIC	??_C@_09EFOFPGPE@levelshot@			; `string'
PUBLIC	??_C@_0DB@KFMPKFFP@used?5for?5create?5save?5previews?5w@ ; `string'
PUBLIC	??_C@_08FDCALKIA@saveshot@			; `string'
PUBLIC	??_C@_0CA@MGLGGAIH@connect?5to?5a?5server?5by?5hostname@ ; `string'
PUBLIC	??_C@_07KAIBNCHO@connect@			; `string'
PUBLIC	??_C@_0BL@IIAKJDKL@reconnect?5to?5current?5level@ ; `string'
PUBLIC	??_C@_09MCGBPECP@reconnect@			; `string'
PUBLIC	??_C@_0FA@CJPAEKPF@sends?5a?5command?5to?5the?5server?5c@ ; `string'
PUBLIC	??_C@_04CLKJCJJE@rcon@				; `string'
PUBLIC	??_C@_0N@ONJNAGAI@cls?4datagram@		; `string'
PUBLIC	??_C@_0O@GJDENGBI@?$CFs?1client?4dll@		; `string'
PUBLIC	??_C@_0BN@JKJBEKAB@can?8t?5initialize?5client?4dll?6@ ; `string'
PUBLIC	??_C@_0P@BLEODOCM@CL_Shutdown?$CI?$CJ?6@	; `string'
PUBLIC	??_C@_0P@FDJBLPMJ@demoheader?4tmp@		; `string'
PUBLIC	__real@00000000
PUBLIC	__real@38d1b717
PUBLIC	__real@3a83126f
PUBLIC	__real@3c23d70a
PUBLIC	__real@3dcccccd
PUBLIC	__real@3f50624de0000000
PUBLIC	__real@3f800000
PUBLIC	__real@3fa999999999999a
PUBLIC	__real@3fb999999999999a
PUBLIC	__real@3fb99999a0000000
PUBLIC	__real@3fc00000
PUBLIC	__real@3fe0000000000000
PUBLIC	__real@3ff0000000000000
PUBLIC	__real@3ff028f5c28f5c29
PUBLIC	__real@40000000
PUBLIC	__real@4014000000000000
PUBLIC	__real@4024000000000000
PUBLIC	__real@402e000000000000
PUBLIC	__real@4059800000000000
PUBLIC	__real@406fe00000000000
PUBLIC	__real@408f400000000000
PUBLIC	__real@40f00000
PUBLIC	__real@41200000
PUBLIC	__real@41800000
PUBLIC	__real@41a00000
PUBLIC	__real@42b40000
PUBLIC	__real@42c80000
PUBLIC	__real@42cc0000
PUBLIC	__real@447a0000
PUBLIC	__real@44960000
PUBLIC	__real@46000000
PUBLIC	__real@bf800000
PUBLIC	__real@bf847ae147ae147b
PUBLIC	__real@bff0000000000000
PUBLIC	__real@c0f869f000000000
PUBLIC	__xmm@80000000800000008000000080000000
EXTRN	___report_rangecheckfailure:PROC
EXTRN	_memcmp:PROC
EXTRN	_memcpy:PROC
EXTRN	_memset:PROC
EXTRN	__imp__ShowWindow@8:PROC
EXTRN	__imp__SetForegroundWindow@4:PROC
EXTRN	_Sys_DoubleTime:PROC
EXTRN	_Sys_GetCurrentUser:PROC
EXTRN	_Sys_GetMachineKey:PROC
EXTRN	_Sys_Quit:PROC
EXTRN	_Cbuf_AddText:PROC
EXTRN	_Cbuf_Execute:PROC
EXTRN	_Cmd_Argc:PROC
EXTRN	_Cmd_Argv:PROC
EXTRN	_Cmd_AddCommand:PROC
EXTRN	_Cmd_TokenizeString:PROC
EXTRN	_Cmd_ForwardToServer:PROC
EXTRN	_Q_strlen:PROC
EXTRN	_Q_strncat:PROC
EXTRN	_Q_strncpy:PROC
EXTRN	_Q_atoi:PROC
EXTRN	_Q_strnicmp:PROC
EXTRN	_Q_strncmp:PROC
EXTRN	_Q_vsnprintf:PROC
EXTRN	_Q_snprintf:PROC
EXTRN	_va:PROC
EXTRN	__Mem_Alloc:PROC
EXTRN	__Mem_Free:PROC
EXTRN	_Mem_PrintStats:PROC
EXTRN	_Cvar_FindVarExt:PROC
EXTRN	_Cvar_RegisterVariable:PROC
EXTRN	_Cvar_Get:PROC
EXTRN	_Cvar_FullSet:PROC
EXTRN	_Cvar_DirectSet:PROC
EXTRN	_Cvar_SetValue:PROC
EXTRN	_Cvar_VariableInteger:PROC
EXTRN	_Cvar_VariableString:PROC
EXTRN	_Cvar_Reset:PROC
EXTRN	_DBG_AssertFunction:PROC
EXTRN	_NET_Config:PROC
EXTRN	_NET_IsLocalAddress:PROC
EXTRN	_NET_AdrToString:PROC
EXTRN	_NET_StringToAdr:PROC
EXTRN	_NET_CompareAdr:PROC
EXTRN	_NET_GetPacket:PROC
EXTRN	_NET_SendPacket:PROC
EXTRN	_COM_CheckString:PROC
EXTRN	_FS_Open:PROC
EXTRN	_FS_Delete:PROC
EXTRN	_FS_Close:PROC
EXTRN	_FS_FileLength:PROC
EXTRN	_Host_EndGame:PROC
EXTRN	_Host_WriteOpenGLConfig:PROC
EXTRN	_Host_WriteVideoConfig:PROC
EXTRN	_Host_WriteConfig:PROC
EXTRN	_Host_IsLocalGame:PROC
EXTRN	_Host_IsLocalClient:PROC
EXTRN	_Host_ShutdownServer:PROC
EXTRN	_Host_Error:PROC
EXTRN	_SV_Active:PROC
EXTRN	_COM_HexConvert:PROC
EXTRN	_Con_Reportf:PROC
EXTRN	_Con_DPrintf:PROC
EXTRN	_Con_Printf:PROC
EXTRN	_CRC32_BlockSequence:PROC
EXTRN	_CRC32_ProcessBuffer:PROC
EXTRN	_MD5Init:PROC
EXTRN	_MD5Update:PROC
EXTRN	_MD5Final:PROC
EXTRN	_MD5_HashFile:PROC
EXTRN	_MD5_Print:PROC
EXTRN	_COM_ClearCustomizationList:PROC
EXTRN	_COM_CreateCustomization:PROC
EXTRN	_HPAK_GetDataPointer:PROC
EXTRN	_HPAK_ResourceForHash:PROC
EXTRN	_HPAK_AddLump:PROC
EXTRN	_HPAK_RemoveLump:PROC
EXTRN	_HPAK_FlushHostQueue:PROC
EXTRN	_Key_SetKeyDest:PROC
EXTRN	_UI_CreditsActive:PROC
EXTRN	_CL_GetMaxClients:PROC
EXTRN	_CL_LoadProgs:PROC
EXTRN	_SCR_UpdateScreen:PROC
EXTRN	_SCR_Shutdown:PROC
EXTRN	_Con_NPrintf:PROC
EXTRN	_Info_ValueForKey:PROC
EXTRN	_Info_SetValueForKey:PROC
EXTRN	_Info_Print:PROC
EXTRN	_UI_SetActiveMenu:PROC
EXTRN	_S_Init:PROC
EXTRN	_S_Shutdown:PROC
EXTRN	_S_StopBackgroundTrack:PROC
EXTRN	_S_StopAllSounds:PROC
EXTRN	_fabs:PROC
EXTRN	_Mod_LoadWorld:PROC
EXTRN	_Mod_ForName:PROC
EXTRN	_MSG_InitExt:PROC
EXTRN	_MSG_CheckOverflow:PROC
EXTRN	_MSG_BigShort:PROC
EXTRN	_MSG_Clear:PROC
EXTRN	_MSG_WriteBits:PROC
EXTRN	_MSG_WriteCmdExt:PROC
EXTRN	_MSG_WriteByte:PROC
EXTRN	_MSG_WriteString:PROC
EXTRN	_MSG_ReadShort:PROC
EXTRN	_MSG_ReadLong:PROC
EXTRN	_MSG_ReadBytes:PROC
EXTRN	_MSG_ReadStringExt:PROC
EXTRN	_Netchan_Setup:PROC
EXTRN	_Netchan_CreateFileFragmentsFromBuffer:PROC
EXTRN	_Netchan_CopyNormalFragments:PROC
EXTRN	_Netchan_CopyFileFragments:PROC
EXTRN	_Netchan_CreateFragments:PROC
EXTRN	_Netchan_TransmitBits:PROC
EXTRN	_Netchan_OutOfBand:PROC
EXTRN	_Netchan_OutOfBandPrint:PROC
EXTRN	_Netchan_Process:PROC
EXTRN	_Netchan_UpdateProgress:PROC
EXTRN	_Netchan_IncomingReady:PROC
EXTRN	_Netchan_CanPacket:PROC
EXTRN	_Netchan_IsLocal:PROC
EXTRN	_Netchan_ReportFlow:PROC
EXTRN	_Netchan_FragSend:PROC
EXTRN	_Netchan_Clear:PROC
EXTRN	_CL_ScreenShot_f:PROC
EXTRN	_CL_SnapShot_f:PROC
EXTRN	_CL_PlayCDTrack_f:PROC
EXTRN	_CL_EnvShot_f:PROC
EXTRN	_CL_SkyShot_f:PROC
EXTRN	_CL_SaveShot_f:PROC
EXTRN	_CL_LevelShot_f:PROC
EXTRN	_CL_MoveToOnHandList:PROC
EXTRN	_CL_ClearResourceLists:PROC
EXTRN	_CL_StartupDemoHeader:PROC
EXTRN	_CL_WriteDemoUserCmd:PROC
EXTRN	_CL_DemoReadMessage:PROC
EXTRN	_CL_CloseDemoHeader:PROC
EXTRN	_CL_PlayDemo_f:PROC
EXTRN	_CL_TimeDemo_f:PROC
EXTRN	_CL_StartDemos_f:PROC
EXTRN	_CL_Demos_f:PROC
EXTRN	_CL_DeleteDemo_f:PROC
EXTRN	_CL_Record_f:PROC
EXTRN	_CL_Stop_f:PROC
EXTRN	_CL_SetEventIndex:PROC
EXTRN	_CL_BatchResourceRequest:PROC
EXTRN	_CL_EstimateNeededResources:PROC
EXTRN	_CL_UnloadProgs:PROC
EXTRN	_CL_FreeEdicts:PROC
EXTRN	_CL_ClearSpriteTextures:PROC
EXTRN	_NetAPI_CancelAllRequests:PROC
EXTRN	_CL_LoadClientSprite:PROC
EXTRN	_CL_ParseServerMessage:PROC
EXTRN	_CL_RequestMissingResources:PROC
EXTRN	_CL_RegisterResources:PROC
EXTRN	_SCR_EndLoadingPlaque:PROC
EXTRN	_SCR_MakeLevelShot:PROC
EXTRN	_CL_SetSolidEntities:PROC
EXTRN	_CL_SetSolidPlayers:PROC
EXTRN	_CL_PredictMovement:PROC
EXTRN	_CL_MoveSpectatorCamera:PROC
EXTRN	_CL_SetLastUpdate:PROC
EXTRN	_CL_RedoPrediction:PROC
EXTRN	_CL_ClearPhysEnts:PROC
EXTRN	_CL_PushPMStates:PROC
EXTRN	_CL_PopPMStates:PROC
EXTRN	_CL_ParseQuakeMessage:PROC
EXTRN	_CL_MoveThirdpersonCamera:PROC
EXTRN	_CL_EmitEntities:PROC
EXTRN	_CL_ClearEffects:PROC
EXTRN	_CL_ReadPointFile_f:PROC
EXTRN	_CL_ReadLineFile_f:PROC
EXTRN	_Con_Shutdown:PROC
EXTRN	_S_BeginRegistration:PROC
EXTRN	_S_RegisterSound:PROC
EXTRN	_S_EndRegistration:PROC
EXTRN	_SND_UpdateSound:PROC
EXTRN	_UI_AddServerToList:PROC
EXTRN	_SCR_FreeCinematic:PROC
EXTRN	_SCR_NextMovie:PROC
EXTRN	_SCR_RunCinematic:PROC
EXTRN	_CL_PlayVideo_f:PROC
EXTRN	_MSG_WriteDeltaUsercmd:PROC
EXTRN	_VID_CheckChanges:PROC
EXTRN	_R_Init:PROC
EXTRN	_R_Shutdown:PROC
EXTRN	_IN_Shutdown:PROC
EXTRN	_VGui_RunFrame:PROC
EXTRN	@__security_check_cookie@4:PROC
EXTRN	__chkstk:PROC
EXTRN	_memset:PROC
EXTRN	_host_developer:BYTE
EXTRN	_host_limitlocal:DWORD
EXTRN	_host:BYTE
EXTRN	_SI:BYTE
EXTRN	_world:BYTE
EXTRN	_net_from:BYTE
EXTRN	_net_message:BYTE
EXTRN	_net_message_buffer:BYTE
EXTRN	_CL_UPDATE_BACKUP:DWORD
EXTRN	_gl_showtextures:DWORD
EXTRN	_glState:BYTE
EXTRN	___security_cookie:DWORD
EXTRN	__fltused:DWORD
_BSS	SEGMENT
?oldbuttons@?1??CL_ProcessShowTexturesCmds@@9@9 DD 01H DUP (?) ; `CL_ProcessShowTexturesCmds'::`2'::oldbuttons
?szHashedKeyBuffer@?1??CL_GetCDKeyHash@@9@9 DB 0100H DUP (?) ; `CL_GetCDKeyHash'::`2'::szHashedKeyBuffer
?infostring@?1??CL_ParseStatusMessage@@9@9 DB 0108H DUP (?) ; `CL_ParseStatusMessage'::`2'::infostring
?infostring@?1??CL_ParseNETInfoMessage@@9@9 DB 0108H DUP (?) ; `CL_ParseNETInfoMessage'::`2'::infostring
_BSS	ENDS
;	COMDAT __xmm@80000000800000008000000080000000
CONST	SEGMENT
__xmm@80000000800000008000000080000000 DB 00H, 00H, 00H, 080H, 00H, 00H, 00H
	DB	080H, 00H, 00H, 00H, 080H, 00H, 00H, 00H, 080H
CONST	ENDS
;	COMDAT __real@c0f869f000000000
CONST	SEGMENT
__real@c0f869f000000000 DQ 0c0f869f000000000r	; -99999
CONST	ENDS
;	COMDAT __real@bff0000000000000
CONST	SEGMENT
__real@bff0000000000000 DQ 0bff0000000000000r	; -1
CONST	ENDS
;	COMDAT __real@bf847ae147ae147b
CONST	SEGMENT
__real@bf847ae147ae147b DQ 0bf847ae147ae147br	; -0.01
CONST	ENDS
;	COMDAT __real@bf800000
CONST	SEGMENT
__real@bf800000 DD 0bf800000r			; -1
CONST	ENDS
;	COMDAT __real@46000000
CONST	SEGMENT
__real@46000000 DD 046000000r			; 8192
CONST	ENDS
;	COMDAT __real@44960000
CONST	SEGMENT
__real@44960000 DD 044960000r			; 1200
CONST	ENDS
;	COMDAT __real@447a0000
CONST	SEGMENT
__real@447a0000 DD 0447a0000r			; 1000
CONST	ENDS
;	COMDAT __real@42cc0000
CONST	SEGMENT
__real@42cc0000 DD 042cc0000r			; 102
CONST	ENDS
;	COMDAT __real@42c80000
CONST	SEGMENT
__real@42c80000 DD 042c80000r			; 100
CONST	ENDS
;	COMDAT __real@42b40000
CONST	SEGMENT
__real@42b40000 DD 042b40000r			; 90
CONST	ENDS
;	COMDAT __real@41a00000
CONST	SEGMENT
__real@41a00000 DD 041a00000r			; 20
CONST	ENDS
;	COMDAT __real@41800000
CONST	SEGMENT
__real@41800000 DD 041800000r			; 16
CONST	ENDS
;	COMDAT __real@41200000
CONST	SEGMENT
__real@41200000 DD 041200000r			; 10
CONST	ENDS
;	COMDAT __real@40f00000
CONST	SEGMENT
__real@40f00000 DD 040f00000r			; 7.5
CONST	ENDS
;	COMDAT __real@408f400000000000
CONST	SEGMENT
__real@408f400000000000 DQ 0408f400000000000r	; 1000
CONST	ENDS
;	COMDAT __real@406fe00000000000
CONST	SEGMENT
__real@406fe00000000000 DQ 0406fe00000000000r	; 255
CONST	ENDS
;	COMDAT __real@4059800000000000
CONST	SEGMENT
__real@4059800000000000 DQ 04059800000000000r	; 102
CONST	ENDS
;	COMDAT __real@402e000000000000
CONST	SEGMENT
__real@402e000000000000 DQ 0402e000000000000r	; 15
CONST	ENDS
;	COMDAT __real@4024000000000000
CONST	SEGMENT
__real@4024000000000000 DQ 04024000000000000r	; 10
CONST	ENDS
;	COMDAT __real@4014000000000000
CONST	SEGMENT
__real@4014000000000000 DQ 04014000000000000r	; 5
CONST	ENDS
;	COMDAT __real@40000000
CONST	SEGMENT
__real@40000000 DD 040000000r			; 2
CONST	ENDS
;	COMDAT __real@3ff028f5c28f5c29
CONST	SEGMENT
__real@3ff028f5c28f5c29 DQ 03ff028f5c28f5c29r	; 1.01
CONST	ENDS
;	COMDAT __real@3ff0000000000000
CONST	SEGMENT
__real@3ff0000000000000 DQ 03ff0000000000000r	; 1
CONST	ENDS
;	COMDAT __real@3fe0000000000000
CONST	SEGMENT
__real@3fe0000000000000 DQ 03fe0000000000000r	; 0.5
CONST	ENDS
;	COMDAT __real@3fc00000
CONST	SEGMENT
__real@3fc00000 DD 03fc00000r			; 1.5
CONST	ENDS
;	COMDAT __real@3fb99999a0000000
CONST	SEGMENT
__real@3fb99999a0000000 DQ 03fb99999a0000000r	; 0.1
CONST	ENDS
;	COMDAT __real@3fb999999999999a
CONST	SEGMENT
__real@3fb999999999999a DQ 03fb999999999999ar	; 0.1
CONST	ENDS
;	COMDAT __real@3fa999999999999a
CONST	SEGMENT
__real@3fa999999999999a DQ 03fa999999999999ar	; 0.05
CONST	ENDS
;	COMDAT __real@3f800000
CONST	SEGMENT
__real@3f800000 DD 03f800000r			; 1
CONST	ENDS
;	COMDAT __real@3f50624de0000000
CONST	SEGMENT
__real@3f50624de0000000 DQ 03f50624de0000000r	; 0.001
CONST	ENDS
;	COMDAT __real@3dcccccd
CONST	SEGMENT
__real@3dcccccd DD 03dcccccdr			; 0.1
CONST	ENDS
;	COMDAT __real@3c23d70a
CONST	SEGMENT
__real@3c23d70a DD 03c23d70ar			; 0.01
CONST	ENDS
;	COMDAT __real@3a83126f
CONST	SEGMENT
__real@3a83126f DD 03a83126fr			; 0.001
CONST	ENDS
;	COMDAT __real@38d1b717
CONST	SEGMENT
__real@38d1b717 DD 038d1b717r			; 0.0001
CONST	ENDS
;	COMDAT __real@00000000
CONST	SEGMENT
__real@00000000 DD 000000000r			; 0
CONST	ENDS
;	COMDAT ??_C@_0P@FDJBLPMJ@demoheader?4tmp@
CONST	SEGMENT
??_C@_0P@FDJBLPMJ@demoheader?4tmp@ DB 'demoheader.tmp', 00H ; `string'
CONST	ENDS
;	COMDAT ??_C@_0P@BLEODOCM@CL_Shutdown?$CI?$CJ?6@
CONST	SEGMENT
??_C@_0P@BLEODOCM@CL_Shutdown?$CI?$CJ?6@ DB 'CL_Shutdown()', 0aH, 00H ; `string'
CONST	ENDS
;	COMDAT ??_C@_0BN@JKJBEKAB@can?8t?5initialize?5client?4dll?6@
CONST	SEGMENT
??_C@_0BN@JKJBEKAB@can?8t?5initialize?5client?4dll?6@ DB 'can''t initiali'
	DB	'ze client.dll', 0aH, 00H			; `string'
CONST	ENDS
;	COMDAT ??_C@_0O@GJDENGBI@?$CFs?1client?4dll@
CONST	SEGMENT
??_C@_0O@GJDENGBI@?$CFs?1client?4dll@ DB '%s/client.dll', 00H ; `string'
CONST	ENDS
;	COMDAT ??_C@_0N@ONJNAGAI@cls?4datagram@
CONST	SEGMENT
??_C@_0N@ONJNAGAI@cls?4datagram@ DB 'cls.datagram', 00H	; `string'
CONST	ENDS
;	COMDAT ??_C@_04CLKJCJJE@rcon@
CONST	SEGMENT
??_C@_04CLKJCJJE@rcon@ DB 'rcon', 00H			; `string'
CONST	ENDS
;	COMDAT ??_C@_0FA@CJPAEKPF@sends?5a?5command?5to?5the?5server?5c@
CONST	SEGMENT
??_C@_0FA@CJPAEKPF@sends?5a?5command?5to?5the?5server?5c@ DB 'sends a com'
	DB	'mand to the server console (rcon_password and rcon_address re'
	DB	'quired)', 00H				; `string'
CONST	ENDS
;	COMDAT ??_C@_09MCGBPECP@reconnect@
CONST	SEGMENT
??_C@_09MCGBPECP@reconnect@ DB 'reconnect', 00H		; `string'
CONST	ENDS
;	COMDAT ??_C@_0BL@IIAKJDKL@reconnect?5to?5current?5level@
CONST	SEGMENT
??_C@_0BL@IIAKJDKL@reconnect?5to?5current?5level@ DB 'reconnect to curren'
	DB	't level', 00H				; `string'
CONST	ENDS
;	COMDAT ??_C@_07KAIBNCHO@connect@
CONST	SEGMENT
??_C@_07KAIBNCHO@connect@ DB 'connect', 00H		; `string'
CONST	ENDS
;	COMDAT ??_C@_0CA@MGLGGAIH@connect?5to?5a?5server?5by?5hostname@
CONST	SEGMENT
??_C@_0CA@MGLGGAIH@connect?5to?5a?5server?5by?5hostname@ DB 'connect to a'
	DB	' server by hostname', 00H			; `string'
CONST	ENDS
;	COMDAT ??_C@_08FDCALKIA@saveshot@
CONST	SEGMENT
??_C@_08FDCALKIA@saveshot@ DB 'saveshot', 00H		; `string'
CONST	ENDS
;	COMDAT ??_C@_0DB@KFMPKFFP@used?5for?5create?5save?5previews?5w@
CONST	SEGMENT
??_C@_0DB@KFMPKFFP@used?5for?5create?5save?5previews?5w@ DB 'used for cre'
	DB	'ate save previews with LoadGame menu', 00H	; `string'
CONST	ENDS
;	COMDAT ??_C@_09EFOFPGPE@levelshot@
CONST	SEGMENT
??_C@_09EFOFPGPE@levelshot@ DB 'levelshot', 00H		; `string'
CONST	ENDS
;	COMDAT ??_C@_0DE@GCJKHONG@same?5as?5?$CCscreenshot?$CC?0?5used?5for?5@
CONST	SEGMENT
??_C@_0DE@GCJKHONG@same?5as?5?$CCscreenshot?$CC?0?5used?5for?5@ DB 'same '
	DB	'as "screenshot", used for create plaque images', 00H ; `string'
CONST	ENDS
;	COMDAT ??_C@_07FFKGIHOP@skyshot@
CONST	SEGMENT
??_C@_07FFKGIHOP@skyshot@ DB 'skyshot', 00H		; `string'
CONST	ENDS
;	COMDAT ??_C@_0DL@JCALLELG@takes?5a?5six?9sides?5envmap?5?$CIskybo@
CONST	SEGMENT
??_C@_0DL@JCALLELG@takes?5a?5six?9sides?5envmap?5?$CIskybo@ DB 'takes a s'
	DB	'ix-sides envmap (skybox) shot with specified name', 00H ; `string'
CONST	ENDS
;	COMDAT ??_C@_07EMBMCCDB@envshot@
CONST	SEGMENT
??_C@_07EMBMCCDB@envshot@ DB 'envshot', 00H		; `string'
CONST	ENDS
;	COMDAT ??_C@_0DD@EKKNFHMF@takes?5a?5six?9sides?5cubemap?5shot?5@
CONST	SEGMENT
??_C@_0DD@EKKNFHMF@takes?5a?5six?9sides?5cubemap?5shot?5@ DB 'takes a six'
	DB	'-sides cubemap shot with specified name', 00H ; `string'
CONST	ENDS
;	COMDAT ??_C@_08HLGCJJEE@snapshot@
CONST	SEGMENT
??_C@_08HLGCJJEE@snapshot@ DB 'snapshot', 00H		; `string'
CONST	ENDS
;	COMDAT ??_C@_0CM@MIGONHLN@takes?5a?5snapshot?5of?5the?5next?5re@
CONST	SEGMENT
??_C@_0CM@MIGONHLN@takes?5a?5snapshot?5of?5the?5next?5re@ DB 'takes a sna'
	DB	'pshot of the next rendered frame', 00H	; `string'
CONST	ENDS
;	COMDAT ??_C@_0L@CMHOPIGK@screenshot@
CONST	SEGMENT
??_C@_0L@CMHOPIGK@screenshot@ DB 'screenshot', 00H	; `string'
CONST	ENDS
;	COMDAT ??_C@_0CO@FDJKINND@takes?5a?5screenshot?5of?5the?5next?5@
CONST	SEGMENT
??_C@_0CO@FDJKINND@takes?5a?5screenshot?5of?5the?5next?5@ DB 'takes a scr'
	DB	'eenshot of the next rendered frame', 00H	; `string'
CONST	ENDS
;	COMDAT ??_C@_04MKNBDEPB@exit@
CONST	SEGMENT
??_C@_04MKNBDEPB@exit@ DB 'exit', 00H			; `string'
CONST	ENDS
;	COMDAT ??_C@_04KNNLNNGO@quit@
CONST	SEGMENT
??_C@_04KNNLNNGO@quit@ DB 'quit', 00H			; `string'
CONST	ENDS
;	COMDAT ??_C@_0P@MHFGDMFE@quit?5from?5game@
CONST	SEGMENT
??_C@_0P@MHFGDMFE@quit?5from?5game@ DB 'quit from game', 00H ; `string'
CONST	ENDS
;	COMDAT ??_C@_06KAOCKAGB@upload@
CONST	SEGMENT
??_C@_06KAOCKAGB@upload@ DB 'upload', 00H		; `string'
CONST	ENDS
;	COMDAT ??_C@_0BN@LJPCPLKK@uploading?5file?5to?5the?5server@
CONST	SEGMENT
??_C@_0BN@LJPCPLKK@uploading?5file?5to?5the?5server@ DB 'uploading file t'
	DB	'o the server', 00H				; `string'
CONST	ENDS
;	COMDAT ??_C@_0P@FNBOAPB@fullserverinfo@
CONST	SEGMENT
??_C@_0P@FNBOAPB@fullserverinfo@ DB 'fullserverinfo', 00H ; `string'
CONST	ENDS
;	COMDAT ??_C@_0CH@MMJIKCDL@sent?5by?5server?5when?5serverinfo?5@
CONST	SEGMENT
??_C@_0CH@MMJIKCDL@sent?5by?5server?5when?5serverinfo?5@ DB 'sent by serv'
	DB	'er when serverinfo changes', 00H		; `string'
CONST	ENDS
;	COMDAT ??_C@_08OGKOBMOC@linefile@
CONST	SEGMENT
??_C@_08OGKOBMOC@linefile@ DB 'linefile', 00H		; `string'
CONST	ENDS
;	COMDAT ??_C@_09OEGDAIFJ@pointfile@
CONST	SEGMENT
??_C@_09OEGDAIFJ@pointfile@ DB 'pointfile', 00H		; `string'
CONST	ENDS
;	COMDAT ??_C@_0CL@CGJHNICJ@show?5leaks?5on?5a?5map?5?$CIif?5present@
CONST	SEGMENT
??_C@_0CL@CGJHNICJ@show?5leaks?5on?5a?5map?5?$CIif?5present@ DB 'show lea'
	DB	'ks on a map (if present of course)', 00H	; `string'
CONST	ENDS
;	COMDAT ??_C@_0L@HBDHBCHM@togglemenu@
CONST	SEGMENT
??_C@_0L@HBDHBCHM@togglemenu@ DB 'togglemenu', 00H	; `string'
CONST	ENDS
;	COMDAT ??_C@_0BN@CLBJFNJG@toggle?5between?5game?5and?5menu@
CONST	SEGMENT
??_C@_0BN@CLBJFNJG@toggle?5between?5game?5and?5menu@ DB 'toggle between g'
	DB	'ame and menu', 00H				; `string'
CONST	ENDS
;	COMDAT ??_C@_06CHNIFGOF@escape@
CONST	SEGMENT
??_C@_06CHNIFGOF@escape@ DB 'escape', 00H		; `string'
CONST	ENDS
;	COMDAT ??_C@_0BJ@MOFFGFNO@escape?5from?5game?5to?5menu@
CONST	SEGMENT
??_C@_0BJ@MOFFGFNO@escape?5from?5game?5to?5menu@ DB 'escape from game to '
	DB	'menu', 00H					; `string'
CONST	ENDS
;	COMDAT ??_C@_0DJ@OGHCBBKD@collect?5info?5about?5local?5server@
CONST	SEGMENT
??_C@_0DJ@OGHCBBKD@collect?5info?5about?5local?5server@ DB 'collect info '
	DB	'about local servers with specified protocol', 00H ; `string'
CONST	ENDS
;	COMDAT ??_C@_04PEGFANN@stop@
CONST	SEGMENT
??_C@_04PEGFANN@stop@ DB 'stop', 00H			; `string'
CONST	ENDS
;	COMDAT ??_C@_0CB@ILBKKEAI@stop?5playing?5or?5recording?5a?5dem@
CONST	SEGMENT
??_C@_0CB@ILBKKEAI@stop?5playing?5or?5recording?5a?5dem@ DB 'stop playing'
	DB	' or recording a demo', 00H			; `string'
CONST	ENDS
;	COMDAT ??_C@_05PAONDCEJ@movie@
CONST	SEGMENT
??_C@_05PAONDCEJ@movie@ DB 'movie', 00H			; `string'
CONST	ENDS
;	COMDAT ??_C@_0N@BDPMHENF@play?5a?5movie@
CONST	SEGMENT
??_C@_0N@BDPMHENF@play?5a?5movie@ DB 'play a movie', 00H ; `string'
CONST	ENDS
;	COMDAT ??_C@_05CFPGCNL@demos@
CONST	SEGMENT
??_C@_05CFPGCNL@demos@ DB 'demos', 00H			; `string'
CONST	ENDS
;	COMDAT ??_C@_0DN@JLIMINEP@restart?5looping?5demos?5defined?5b@
CONST	SEGMENT
??_C@_0DN@JLIMINEP@restart?5looping?5demos?5defined?5b@ DB 'restart loopi'
	DB	'ng demos defined by the last startdemos command', 00H ; `string'
CONST	ENDS
;	COMDAT ??_C@_0L@PNDCJELG@startdemos@
CONST	SEGMENT
??_C@_0L@PNDCJELG@startdemos@ DB 'startdemos', 00H	; `string'
CONST	ENDS
;	COMDAT ??_C@_0DD@POMNLFOG@start?5playing?5back?5the?5selected@
CONST	SEGMENT
??_C@_0DD@POMNLFOG@start?5playing?5back?5the?5selected@ DB 'start playing'
	DB	' back the selected demos sequentially', 00H	; `string'
CONST	ENDS
;	COMDAT ??_C@_08PJGEFPKP@killdemo@
CONST	SEGMENT
??_C@_08PJGEFPKP@killdemo@ DB 'killdemo', 00H		; `string'
CONST	ENDS
;	COMDAT ??_C@_0BN@OJLIDBHD@delete?5a?5specified?5demo?5file@
CONST	SEGMENT
??_C@_0BN@OJLIDBHD@delete?5a?5specified?5demo?5file@ DB 'delete a specifi'
	DB	'ed demo file', 00H				; `string'
CONST	ENDS
;	COMDAT ??_C@_08LGFIIHD@timedemo@
CONST	SEGMENT
??_C@_08LGFIIHD@timedemo@ DB 'timedemo', 00H		; `string'
CONST	ENDS
;	COMDAT ??_C@_0P@BGKPKPPK@demo?5benchmark@
CONST	SEGMENT
??_C@_0P@BGKPKPPK@demo?5benchmark@ DB 'demo benchmark', 00H ; `string'
CONST	ENDS
;	COMDAT ??_C@_08KNNNHPIP@playdemo@
CONST	SEGMENT
??_C@_08KNNNHPIP@playdemo@ DB 'playdemo', 00H		; `string'
CONST	ENDS
;	COMDAT ??_C@_0M@IJLAHPMN@play?5a?5demo@
CONST	SEGMENT
??_C@_0M@IJLAHPMN@play?5a?5demo@ DB 'play a demo', 00H	; `string'
CONST	ENDS
;	COMDAT ??_C@_06KKGOIHDP@record@
CONST	SEGMENT
??_C@_06KKGOIHDP@record@ DB 'record', 00H		; `string'
CONST	ENDS
;	COMDAT ??_C@_0O@EIHBBIAA@record?5a?5demo@
CONST	SEGMENT
??_C@_0O@EIHBBIAA@record?5a?5demo@ DB 'record a demo', 00H ; `string'
CONST	ENDS
;	COMDAT ??_C@_0BH@PEHNLCL@disconnect?5from?5server@
CONST	SEGMENT
??_C@_0BH@PEHNLCL@disconnect?5from?5server@ DB 'disconnect from server', 00H ; `string'
CONST	ENDS
;	COMDAT ??_C@_08PPPJCMOL@physinfo@
CONST	SEGMENT
??_C@_08PPPJCMOL@physinfo@ DB 'physinfo', 00H		; `string'
CONST	ENDS
;	COMDAT ??_C@_0BO@NJOOMKKF@print?5current?5client?5physinfo@
CONST	SEGMENT
??_C@_0BO@NJOOMKKF@print?5current?5client?5physinfo@ DB 'print current cl'
	DB	'ient physinfo', 00H				; `string'
CONST	ENDS
;	COMDAT ??_C@_08PPJNGBMG@userinfo@
CONST	SEGMENT
??_C@_08PPJNGBMG@userinfo@ DB 'userinfo', 00H		; `string'
CONST	ENDS
;	COMDAT ??_C@_0DJ@CCNNGOCK@examine?5or?5change?5the?5userinfo?5@
CONST	SEGMENT
??_C@_0DJ@CCNNGOCK@examine?5or?5change?5the?5userinfo?5@ DB 'examine or c'
	DB	'hange the userinfo string (alias of setinfo)', 00H ; `string'
CONST	ENDS
;	COMDAT ??_C@_07BANLMPIG@setinfo@
CONST	SEGMENT
??_C@_07BANLMPIG@setinfo@ DB 'setinfo', 00H		; `string'
CONST	ENDS
;	COMDAT ??_C@_0DK@LMLJPMOP@examine?5or?5change?5the?5userinfo?5@
CONST	SEGMENT
??_C@_0DK@LMLJPMOP@examine?5or?5change?5the?5userinfo?5@ DB 'examine or c'
	DB	'hange the userinfo string (alias of userinfo)', 00H ; `string'
CONST	ENDS
;	COMDAT ??_C@_03LHGNACFN@mp3@
CONST	SEGMENT
??_C@_03LHGNACFN@mp3@ DB 'mp3', 00H			; `string'
CONST	ENDS
;	COMDAT ??_C@_0CM@EAINAEGG@Play?5mp3?9track?5?$CIbased?5on?5virtua@
CONST	SEGMENT
??_C@_0CM@EAINAEGG@Play?5mp3?9track?5?$CIbased?5on?5virtua@ DB 'Play mp3-'
	DB	'track (based on virtual cd-player)', 00H	; `string'
CONST	ENDS
;	COMDAT ??_C@_02ELLOPNDH@cd@
CONST	SEGMENT
??_C@_02ELLOPNDH@cd@ DB 'cd', 00H			; `string'
CONST	ENDS
;	COMDAT ??_C@_0CN@KALGIHLE@Play?5cd?9track?5?$CInot?5real?5cd?9play@
CONST	SEGMENT
??_C@_0CN@KALGIHLE@Play?5cd?9track?5?$CInot?5real?5cd?9play@ DB 'Play cd-'
	DB	'track (not real cd-player of course)', 00H	; `string'
CONST	ENDS
;	COMDAT ??_C@_0BA@HMMIBNGA@internetservers@
CONST	SEGMENT
??_C@_0BA@HMMIBNGA@internetservers@ DB 'internetservers', 00H ; `string'
CONST	ENDS
;	COMDAT ??_C@_0CE@FCJGMNIB@collect?5info?5about?5internet?5ser@
CONST	SEGMENT
??_C@_0CE@FCJGMNIB@collect?5info?5about?5internet?5ser@ DB 'collect info '
	DB	'about internet servers', 00H		; `string'
CONST	ENDS
;	COMDAT ??_C@_0N@OHPGBJMI@localservers@
CONST	SEGMENT
??_C@_0N@OHPGBJMI@localservers@ DB 'localservers', 00H	; `string'
CONST	ENDS
;	COMDAT ??_C@_0CB@HEKGMPDC@collect?5info?5about?5local?5server@
CONST	SEGMENT
??_C@_0CB@HEKGMPDC@collect?5info?5about?5local?5server@ DB 'collect info '
	DB	'about local servers', 00H			; `string'
CONST	ENDS
;	COMDAT ??_C@_05PDJBBECF@pause@
CONST	SEGMENT
??_C@_05PDJBBECF@pause@ DB 'pause', 00H			; `string'
CONST	ENDS
;	COMDAT ??_C@_0CO@PMNFOODE@pause?5the?5game?5?$CIif?5the?5server?5a@
CONST	SEGMENT
??_C@_0CO@PMNFOODE@pause?5the?5game?5?$CIif?5the?5server?5a@ DB 'pause th'
	DB	'e game (if the server allows pausing)', 00H	; `string'
CONST	ENDS
;	COMDAT ??_C@_03MGHMBJCF@log@
CONST	SEGMENT
??_C@_03MGHMBJCF@log@ DB 'log', 00H			; `string'
CONST	ENDS
;	COMDAT ??_C@_0BG@MDLCPPLP@logging?5server?5events@
CONST	SEGMENT
??_C@_0BG@MDLCPPLP@logging?5server?5events@ DB 'logging server events', 00H ; `string'
CONST	ENDS
;	COMDAT ??_C@_03PKBINKFB@fov@
CONST	SEGMENT
??_C@_03PKBINKFB@fov@ DB 'fov', 00H			; `string'
CONST	ENDS
;	COMDAT ??_C@_0BJ@JILCKFBM@set?5client?5field?5of?5view@
CONST	SEGMENT
??_C@_0BJ@JILCKFBM@set?5client?5field?5of?5view@ DB 'set client field of '
	DB	'view', 00H					; `string'
CONST	ENDS
;	COMDAT ??_C@_03DKFAMNOH@god@
CONST	SEGMENT
??_C@_03DKFAMNOH@god@ DB 'god', 00H			; `string'
CONST	ENDS
;	COMDAT ??_C@_0P@IHCIBFKI@enable?5godmode@
CONST	SEGMENT
??_C@_0P@IHCIBFKI@enable?5godmode@ DB 'enable godmode', 00H ; `string'
CONST	ENDS
;	COMDAT ??_C@_04BJJEOANI@kill@
CONST	SEGMENT
??_C@_04BJJEOANI@kill@ DB 'kill', 00H			; `string'
CONST	ENDS
;	COMDAT ??_C@_0O@DJFCAHFH@die?5instantly@
CONST	SEGMENT
??_C@_0O@DJFCAHFH@die?5instantly@ DB 'die instantly', 00H ; `string'
CONST	ENDS
;	COMDAT ??_C@_09EPLNALMJ@gametitle@
CONST	SEGMENT
??_C@_09EPLNALMJ@gametitle@ DB 'gametitle', 00H		; `string'
CONST	ENDS
;	COMDAT ??_C@_0P@CNBLLDB@show?5game?5logo@
CONST	SEGMENT
??_C@_0P@CNBLLDB@show?5game?5logo@ DB 'show game logo', 00H ; `string'
CONST	ENDS
;	COMDAT ??_C@_04PIONEEJD@drop@
CONST	SEGMENT
??_C@_04PIONEEJD@drop@ DB 'drop', 00H			; `string'
CONST	ENDS
;	COMDAT ??_C@_0CG@KPKDPDDB@drop?5current?1specified?5item?5or?5@
CONST	SEGMENT
??_C@_0CG@KPKDPDDB@drop?5current?1specified?5item?5or?5@ DB 'drop current'
	DB	'/specified item or weapon', 00H		; `string'
CONST	ENDS
;	COMDAT ??_C@_04BMBHJADG@give@
CONST	SEGMENT
??_C@_04BMBHJADG@give@ DB 'give', 00H			; `string'
CONST	ENDS
;	COMDAT ??_C@_0BO@BFJDPOLM@give?5specified?5item?5or?5weapon@
CONST	SEGMENT
??_C@_0BO@BFJDPOLM@give?5specified?5item?5or?5weapon@ DB 'give specified '
	DB	'item or weapon', 00H			; `string'
CONST	ENDS
;	COMDAT ??_C@_0L@BAECHHDI@fullupdate@
CONST	SEGMENT
??_C@_0L@BAECHHDI@fullupdate@ DB 'fullupdate', 00H	; `string'
CONST	ENDS
;	COMDAT ??_C@_0CE@OIDLHPFJ@re?9init?5HUD?5on?5start?5demo?5recor@
CONST	SEGMENT
??_C@_0CE@OIDLHPFJ@re?9init?5HUD?5on?5start?5demo?5recor@ DB 're-init HUD'
	DB	' on start demo recording', 00H		; `string'
CONST	ENDS
;	COMDAT ??_C@_08HPLPOCJL@notarget@
CONST	SEGMENT
??_C@_08HPLPOCJL@notarget@ DB 'notarget', 00H		; `string'
CONST	ENDS
;	COMDAT ??_C@_0CI@JHOKLOME@notarget?5mode?5?$CImonsters?5do?5not?5@
CONST	SEGMENT
??_C@_0CI@JHOKLOME@notarget?5mode?5?$CImonsters?5do?5not?5@ DB 'notarget '
	DB	'mode (monsters do not see you)', 00H	; `string'
CONST	ENDS
;	COMDAT ??_C@_06IHODGGMJ@noclip@
CONST	SEGMENT
??_C@_06IHODGGMJ@noclip@ DB 'noclip', 00H		; `string'
CONST	ENDS
;	COMDAT ??_C@_0CD@PNOAHLOJ@enable?5or?5disable?5no?5clipping?5m@
CONST	SEGMENT
??_C@_0CD@PNOAHLOJ@enable?5or?5disable?5no?5clipping?5m@ DB 'enable or di'
	DB	'sable no clipping mode', 00H		; `string'
CONST	ENDS
;	COMDAT ??_C@_06LMLJGLPA@direct@
CONST	SEGMENT
??_C@_06LMLJGLPA@direct@ DB 'direct', 00H		; `string'
CONST	ENDS
;	COMDAT ??_C@_0CH@JDLOPMPD@direct?5lighting?5level?5?$CIlegacy?0?5@
CONST	SEGMENT
??_C@_0CH@JDLOPMPD@direct?5lighting?5level?5?$CIlegacy?0?5@ DB 'direct li'
	DB	'ghting level (legacy, unused)', 00H		; `string'
CONST	ENDS
;	COMDAT ??_C@_0L@IEGJIKFJ@lightgamma@
CONST	SEGMENT
??_C@_0L@IEGJIKFJ@lightgamma@ DB 'lightgamma', 00H	; `string'
CONST	ENDS
;	COMDAT ??_C@_0CI@MGEECIPN@ambient?5lighting?5level?5?$CIlegacy?0@
CONST	SEGMENT
??_C@_0CI@MGEECIPN@ambient?5lighting?5level?5?$CIlegacy?0@ DB 'ambient li'
	DB	'ghting level (legacy, unused)', 00H		; `string'
CONST	ENDS
;	COMDAT ??_C@_08DAPDEFAC@lastdemo@
CONST	SEGMENT
??_C@_08DAPDEFAC@lastdemo@ DB 'lastdemo', 00H		; `string'
CONST	ENDS
;	COMDAT ??_C@_0BB@COIHEPAG@last?5played?5demo@
CONST	SEGMENT
??_C@_0BB@COIHEPAG@last?5played?5demo@ DB 'last played demo', 00H ; `string'
CONST	ENDS
;	COMDAT ??_C@_0O@FNNFDDLC@cl_showevents@
CONST	SEGMENT
??_C@_0O@FNNFDDLC@cl_showevents@ DB 'cl_showevents', 00H ; `string'
CONST	ENDS
;	COMDAT ??_C@_0BF@DPPOLODC@show?5events?5playback@
CONST	SEGMENT
??_C@_0BF@DPPOLODC@show?5events?5playback@ DB 'show events playback', 00H ; `string'
CONST	ENDS
;	COMDAT ??_C@_0CI@MOIEJPFN@indicate?5what?5background?5map?5is@
CONST	SEGMENT
??_C@_0CI@MOIEJPFN@indicate?5what?5background?5map?5is@ DB 'indicate what'
	DB	' background map is running', 00H		; `string'
CONST	ENDS
;	COMDAT ??_C@_09GMLECNLK@hud_scale@
CONST	SEGMENT
??_C@_09GMLECNLK@hud_scale@ DB 'hud_scale', 00H		; `string'
CONST	ENDS
;	COMDAT ??_C@_02PGHGPEOM@?91@
CONST	SEGMENT
??_C@_02PGHGPEOM@?91@ DB '-1', 00H			; `string'
CONST	ENDS
;	COMDAT ??_C@_0CA@CCEFHBIN@scale?5hud?5at?5current?5resolution@
CONST	SEGMENT
??_C@_0CA@CCEFHBIN@scale?5hud?5at?5current?5resolution@ DB 'scale hud at '
	DB	'current resolution', 00H			; `string'
CONST	ENDS
;	COMDAT ??_C@_0P@GBJMGNNJ@cl_fixtimerate@
CONST	SEGMENT
??_C@_0P@GBJMGNNJ@cl_fixtimerate@ DB 'cl_fixtimerate', 00H ; `string'
CONST	ENDS
;	COMDAT ??_C@_03CDKFEJKH@7?45@
CONST	SEGMENT
??_C@_03CDKFEJKH@7?45@ DB '7.5', 00H			; `string'
CONST	ENDS
;	COMDAT ??_C@_0CH@CLKODIIO@time?5in?5msec?5to?5client?5clock?5ad@
CONST	SEGMENT
??_C@_0CH@CLKODIIO@time?5in?5msec?5to?5client?5clock?5ad@ DB 'time in mse'
	DB	'c to client clock adjusting', 00H		; `string'
CONST	ENDS
;	COMDAT ??_C@_0O@DJEBIBFL@cl_clockreset@
CONST	SEGMENT
??_C@_0O@DJEBIBFL@cl_clockreset@ DB 'cl_clockreset', 00H ; `string'
CONST	ENDS
;	COMDAT ??_C@_0CL@EHNJPADF@frametime?5delta?5maximum?5value?5b@
CONST	SEGMENT
??_C@_0CL@EHNJPADF@frametime?5delta?5maximum?5value?5b@ DB 'frametime del'
	DB	'ta maximum value before reset', 00H		; `string'
CONST	ENDS
;	COMDAT ??_C@_0BA@HDGLEIEB@cl_bmodelinterp@
CONST	SEGMENT
??_C@_0BA@HDGLEIEB@cl_bmodelinterp@ DB 'cl_bmodelinterp', 00H ; `string'
CONST	ENDS
;	COMDAT ??_C@_0BM@OOMCGAMM@enable?5bmodel?5interpolation@
CONST	SEGMENT
??_C@_0BM@OOMCGAMM@enable?5bmodel?5interpolation@ DB 'enable bmodel inter'
	DB	'polation', 00H				; `string'
CONST	ENDS
;	COMDAT ??_C@_0N@BLPCJECL@cl_showerror@
CONST	SEGMENT
??_C@_0N@BLPCJECL@cl_showerror@ DB 'cl_showerror', 00H	; `string'
CONST	ENDS
;	COMDAT ??_C@_0BG@FPPOLPLK@show?5prediction?5error@
CONST	SEGMENT
??_C@_0BG@FPPOLPLK@show?5prediction?5error@ DB 'show prediction error', 00H ; `string'
CONST	ENDS
;	COMDAT ??_C@_0BG@IKBGNHPM@cl_lightstyle_lerping@
CONST	SEGMENT
??_C@_0BG@IKBGNHPM@cl_lightstyle_lerping@ DB 'cl_lightstyle_lerping', 00H ; `string'
CONST	ENDS
;	COMDAT ??_C@_0DD@CIKONPNB@enables?5animated?5light?5lerping?5@
CONST	SEGMENT
??_C@_0DD@CIKONPNB@enables?5animated?5light?5lerping?5@ DB 'enables anima'
	DB	'ted light lerping (perfomance option)', 00H	; `string'
CONST	ENDS
;	COMDAT ??_C@_0M@EHKDLKIM@r_drawbeams@
CONST	SEGMENT
??_C@_0M@EHKDLKIM@r_drawbeams@ DB 'r_drawbeams', 00H	; `string'
CONST	ENDS
;	COMDAT ??_C@_0N@KECJKNEI@render?5beams@
CONST	SEGMENT
??_C@_0N@KECJKNEI@render?5beams@ DB 'render beams', 00H	; `string'
CONST	ENDS
;	COMDAT ??_C@_0O@DNAKHALD@r_drawtracers@
CONST	SEGMENT
??_C@_0O@DNAKHALD@r_drawtracers@ DB 'r_drawtracers', 00H ; `string'
CONST	ENDS
;	COMDAT ??_C@_0P@BBEPAELE@render?5tracers@
CONST	SEGMENT
??_C@_0P@BBEPAELE@render?5tracers@ DB 'render tracers', 00H ; `string'
CONST	ENDS
;	COMDAT ??_C@_0BA@DLDAOBHF@r_drawparticles@
CONST	SEGMENT
??_C@_0BA@DLDAOBHF@r_drawparticles@ DB 'r_drawparticles', 00H ; `string'
CONST	ENDS
;	COMDAT ??_C@_0BB@CDBJOONC@render?5particles@
CONST	SEGMENT
??_C@_0BB@CDBJOONC@render?5particles@ DB 'render particles', 00H ; `string'
CONST	ENDS
;	COMDAT ??_C@_02PJNFELNH@30@
CONST	SEGMENT
??_C@_02PJNFELNH@30@ DB '30', 00H			; `string'
CONST	ENDS
;	COMDAT ??_C@_0DI@MEFENBID@Max?5number?5of?5command?5packets?5s@
CONST	SEGMENT
??_C@_0DI@MEFENBID@Max?5number?5of?5command?5packets?5s@ DB 'Max number o'
	DB	'f command packets sent to server per second', 00H ; `string'
CONST	ENDS
;	COMDAT ??_C@_0N@NGMAFPKG@cl_cmdbackup@
CONST	SEGMENT
??_C@_0N@NGMAFPKG@cl_cmdbackup@ DB 'cl_cmdbackup', 00H	; `string'
CONST	ENDS
;	COMDAT ??_C@_02PKFBJPLJ@10@
CONST	SEGMENT
??_C@_02PKFBJPLJ@10@ DB '10', 00H			; `string'
CONST	ENDS
;	COMDAT ??_C@_0CO@LLNCFEDN@how?5many?5additional?5history?5com@
CONST	SEGMENT
??_C@_0CO@LLNCFEDN@how?5many?5additional?5history?5com@ DB 'how many addi'
	DB	'tional history commands are sent', 00H	; `string'
CONST	ENDS
;	COMDAT ??_C@_0O@CDOPINFK@cl_smoothtime@
CONST	SEGMENT
??_C@_0O@CDOPINFK@cl_smoothtime@ DB 'cl_smoothtime', 00H ; `string'
CONST	ENDS
;	COMDAT ??_C@_0BC@ECBHFPKG@time?5to?5smooth?5up@
CONST	SEGMENT
??_C@_0BC@ECBHFPKG@time?5to?5smooth?5up@ DB 'time to smooth up', 00H ; `string'
CONST	ENDS
;	COMDAT ??_C@_0M@LLEMEGKL@cl_nosmooth@
CONST	SEGMENT
??_C@_0M@LLEMEGKL@cl_nosmooth@ DB 'cl_nosmooth', 00H	; `string'
CONST	ENDS
;	COMDAT ??_C@_0EJ@KOJLGMDL@disable?5smooth?5up?5stair?5climbin@
CONST	SEGMENT
??_C@_0EJ@KOJLGMDL@disable?5smooth?5up?5stair?5climbin@ DB 'disable smoot'
	DB	'h up stair climbing and interpolate position in multiplayer', 00H ; `string'
CONST	ENDS
;	COMDAT ??_C@_0L@FNAGCLGI@cl_showfps@
CONST	SEGMENT
??_C@_0L@FNAGCLGI@cl_showfps@ DB 'cl_showfps', 00H	; `string'
CONST	ENDS
;	COMDAT ??_C@_0BA@MDNBJAOI@show?5client?5fps@
CONST	SEGMENT
??_C@_0BA@MDNBJAOI@show?5client?5fps@ DB 'show client fps', 00H ; `string'
CONST	ENDS
;	COMDAT ??_C@_04NHPAFEHJ@skin@
CONST	SEGMENT
??_C@_04NHPAFEHJ@skin@ DB 'skin', 00H			; `string'
CONST	ENDS
;	COMDAT ??_C@_0M@JCPGJACL@player?5skin@
CONST	SEGMENT
??_C@_0M@JCPGJACL@player?5skin@ DB 'player skin', 00H	; `string'
CONST	ENDS
;	COMDAT ??_C@_04KADBPNCB@team@
CONST	SEGMENT
??_C@_04KADBPNCB@team@ DB 'team', 00H			; `string'
CONST	ENDS
;	COMDAT ??_C@_0M@OFDHDJHD@player?5team@
CONST	SEGMENT
??_C@_0M@OFDHDJHD@player?5team@ DB 'player team', 00H	; `string'
CONST	ENDS
;	COMDAT ??_C@_08NLHBPEGP@password@
CONST	SEGMENT
??_C@_08NLHBPEGP@password@ DB 'password', 00H		; `string'
CONST	ENDS
;	COMDAT ??_C@_0BA@BOCGHAFM@server?5password@
CONST	SEGMENT
??_C@_0BA@BOCGHAFM@server?5password@ DB 'server password', 00H ; `string'
CONST	ENDS
;	COMDAT ??_C@_05OMKMDA@cl_lc@
CONST	SEGMENT
??_C@_05OMKMDA@cl_lc@ DB 'cl_lc', 00H			; `string'
CONST	ENDS
;	COMDAT ??_C@_0BI@HOGAGOPD@enable?5lag?5compensation@
CONST	SEGMENT
??_C@_0BI@HOGAGOPD@enable?5lag?5compensation@ DB 'enable lag compensation'
	DB	00H						; `string'
CONST	ENDS
;	COMDAT ??_C@_05COECHLGF@cl_lw@
CONST	SEGMENT
??_C@_05COECHLGF@cl_lw@ DB 'cl_lw', 00H			; `string'
CONST	ENDS
;	COMDAT ??_C@_0CA@DGECEPIL@enable?5client?5weapon?5predicting@
CONST	SEGMENT
??_C@_0CA@DGECEPIL@enable?5client?5weapon?5predicting@ DB 'enable client '
	DB	'weapon predicting', 00H			; `string'
CONST	ENDS
;	COMDAT ??_C@_0M@IIFIMDEK@bottomcolor@
CONST	SEGMENT
??_C@_0M@IIFIMDEK@bottomcolor@ DB 'bottomcolor', 00H	; `string'
CONST	ENDS
;	COMDAT ??_C@_0BE@KBFJNKLM@player?5bottom?5color@
CONST	SEGMENT
??_C@_0BE@KBFJNKLM@player?5bottom?5color@ DB 'player bottom color', 00H ; `string'
CONST	ENDS
;	COMDAT ??_C@_08OLGKFJAO@topcolor@
CONST	SEGMENT
??_C@_08OLGKFJAO@topcolor@ DB 'topcolor', 00H		; `string'
CONST	ENDS
;	COMDAT ??_C@_0BB@ILOPDEKA@player?5top?5color@
CONST	SEGMENT
??_C@_0BB@ILOPDEKA@player?5top?5color@ DB 'player top color', 00H ; `string'
CONST	ENDS
;	COMDAT ??_C@_04HCCHHEEF@rate@
CONST	SEGMENT
??_C@_04HCCHHEEF@rate@ DB 'rate', 00H			; `string'
CONST	ENDS
;	COMDAT ??_C@_04ODIEBBEE@3500@
CONST	SEGMENT
??_C@_04ODIEBBEE@3500@ DB '3500', 00H			; `string'
CONST	ENDS
;	COMDAT ??_C@_0BE@CPFCAJAK@player?5network?5rate@
CONST	SEGMENT
??_C@_0BE@CPFCAJAK@player?5network?5rate@ DB 'player network rate', 00H ; `string'
CONST	ENDS
;	COMDAT ??_C@_0DA@PBHOBKHC@max?5allowed?5fragment?5size?5on?5do@
CONST	SEGMENT
??_C@_0DA@PBHOBKHC@max?5allowed?5fragment?5size?5on?5do@ DB 'max allowed '
	DB	'fragment size on download resources', 00H	; `string'
CONST	ENDS
;	COMDAT ??_C@_02PIBHCBOA@20@
CONST	SEGMENT
??_C@_02PIBHCBOA@20@ DB '20', 00H			; `string'
CONST	ENDS
;	COMDAT ??_C@_0CA@IMLGPKIK@refresh?5rate?5of?5server?5messages@
CONST	SEGMENT
??_C@_0CA@IMLGPKIK@refresh?5rate?5of?5server?5messages@ DB 'refresh rate '
	DB	'of server messages', 00H			; `string'
CONST	ENDS
;	COMDAT ??_C@_05NCCFOPHA@model@
CONST	SEGMENT
??_C@_05NCCFOPHA@model@ DB 'model', 00H			; `string'
CONST	ENDS
;	COMDAT ??_C@_0DA@GGEFMNKI@player?5model?5?$CI?8player?8?5is?5a?5sin@
CONST	SEGMENT
??_C@_0DA@GGEFMNKI@player?5model?5?$CI?8player?8?5is?5a?5sin@ DB 'player '
	DB	'model (''player'' is a singleplayer model)', 00H ; `string'
CONST	ENDS
;	COMDAT ??_C@_04MEMAJGDJ@name@
CONST	SEGMENT
??_C@_04MEMAJGDJ@name@ DB 'name', 00H			; `string'
CONST	ENDS
;	COMDAT ??_C@_0M@IBMGFCGL@player?5name@
CONST	SEGMENT
??_C@_0M@IBMGFCGL@player?5name@ DB 'player name', 00H	; `string'
CONST	ENDS
;	COMDAT ??_C@_09EFLGBOKH@cl_nopred@
CONST	SEGMENT
??_C@_09EFLGBOKH@cl_nopred@ DB 'cl_nopred', 00H		; `string'
CONST	ENDS
;	COMDAT ??_C@_0CD@FJCEHFJG@disable?5client?5movement?5predict@
CONST	SEGMENT
??_C@_0CD@FJCEHFJG@disable?5client?5movement?5predict@ DB 'disable client'
	DB	' movement prediction', 00H			; `string'
CONST	ENDS
;	COMDAT ??_C@_0N@PJJENLON@rcon_address@
CONST	SEGMENT
??_C@_0N@PJJENLON@rcon_address@ DB 'rcon_address', 00H	; `string'
CONST	ENDS
;	COMDAT ??_C@_0BH@BPEKCJOI@remote?5control?5address@
CONST	SEGMENT
??_C@_0BH@BPEKCJOI@remote?5control?5address@ DB 'remote control address', 00H ; `string'
CONST	ENDS
;	COMDAT ??_C@_0O@EEIAMLPM@rcon_password@
CONST	SEGMENT
??_C@_0O@EEIAMLPM@rcon_password@ DB 'rcon_password', 00H ; `string'
CONST	ENDS
;	COMDAT ??_C@_00CNPNBAHC@@
CONST	SEGMENT
??_C@_00CNPNBAHC@@ DB 00H				; `string'
CONST	ENDS
;	COMDAT ??_C@_0BP@LIMJMBAH@remote?5control?5client?5password@
CONST	SEGMENT
??_C@_0BP@LIMJMBAH@remote?5control?5client?5password@ DB 'remote control '
	DB	'client password', 00H			; `string'
CONST	ENDS
;	COMDAT ??_C@_0L@JCNOFHIK@cl_timeout@
CONST	SEGMENT
??_C@_0L@JCNOFHIK@cl_timeout@ DB 'cl_timeout', 00H	; `string'
CONST	ENDS
;	COMDAT ??_C@_02PPBOIJDM@60@
CONST	SEGMENT
??_C@_02PPBOIJDM@60@ DB '60', 00H			; `string'
CONST	ENDS
;	COMDAT ??_C@_0BN@CMKNHDIB@connect?5timeout?5?$CIin?9seconds?$CJ@
CONST	SEGMENT
??_C@_0BN@CMKNHDIB@connect?5timeout?5?$CIin?9seconds?$CJ@ DB 'connect tim'
	DB	'eout (in-seconds)', 00H			; `string'
CONST	ENDS
;	COMDAT ??_C@_03NKBOLEBK@0?41@
CONST	SEGMENT
??_C@_03NKBOLEBK@0?41@ DB '0.1', 00H			; `string'
CONST	ENDS
;	COMDAT ??_C@_0EA@HNPMKLI@Interpolate?5object?5positions?5st@
CONST	SEGMENT
??_C@_0EA@HNPMKLI@Interpolate?5object?5positions?5st@ DB 'Interpolate obj'
	DB	'ect positions starting this many seconds in past', 00H ; `string'
CONST	ENDS
;	COMDAT ??_C@_0BB@BGAFDJDO@cl_solid_players@
CONST	SEGMENT
??_C@_0BB@BGAFDJDO@cl_solid_players@ DB 'cl_solid_players', 00H ; `string'
CONST	ENDS
;	COMDAT ??_C@_0DC@FNMDJCPC@Make?5all?5players?5not?5solid?5?$CIcan@
CONST	SEGMENT
??_C@_0DC@FNMDJCPC@Make?5all?5players?5not?5solid?5?$CIcan@ DB 'Make all '
	DB	'players not solid (can''t traceline them)', 00H ; `string'
CONST	ENDS
;	COMDAT ??_C@_0BD@FBOKDBLE@cl_idealpitchscale@
CONST	SEGMENT
??_C@_0BD@FBOKDBLE@cl_idealpitchscale@ DB 'cl_idealpitchscale', 00H ; `string'
CONST	ENDS
;	COMDAT ??_C@_03LNMAPFD@0?48@
CONST	SEGMENT
??_C@_03LNMAPFD@0?48@ DB '0.8', 00H			; `string'
CONST	ENDS
;	COMDAT ??_C@_0ED@JGEPHGDP@how?5much?5to?5look?5up?1down?5slopes@
CONST	SEGMENT
??_C@_0ED@JGEPHGDP@how?5much?5to?5look?5up?1down?5slopes@ DB 'how much to'
	DB	' look up/down slopes and stairs when not using freelook', 00H ; `string'
CONST	ENDS
;	COMDAT ??_C@_0L@BPLIDNFG@cl_nodelta@
CONST	SEGMENT
??_C@_0L@BPLIDNFG@cl_nodelta@ DB 'cl_nodelta', 00H	; `string'
CONST	ENDS
;	COMDAT ??_C@_0CO@IPIGBHJN@disable?5delta?9compression?5for?5s@
CONST	SEGMENT
??_C@_0CO@IPIGBHJN@disable?5delta?9compression?5for?5s@ DB 'disable delta'
	DB	'-compression for server messages', 00H	; `string'
CONST	ENDS
;	COMDAT ??_C@_09NBNKIDFG@crosshair@
CONST	SEGMENT
??_C@_09NBNKIDFG@crosshair@ DB 'crosshair', 00H		; `string'
CONST	ENDS
;	COMDAT ??_C@_0BH@NFCHEABC@show?5weapon?5chrosshair@
CONST	SEGMENT
??_C@_0BH@NFCHEABC@show?5weapon?5chrosshair@ DB 'show weapon chrosshair', 00H ; `string'
CONST	ENDS
;	COMDAT ??_C@_0CO@BDGNMEFL@Usage?3?5fullserverinfo?5?$DMcomplete@
CONST	SEGMENT
??_C@_0CO@BDGNMEFL@Usage?3?5fullserverinfo?5?$DMcomplete@ DB 'Usage: full'
	DB	'serverinfo <complete info string>', 0aH, 00H ; `string'
CONST	ENDS
;	COMDAT ??_C@_0BP@KOCONAKK@?$FO1Error?3?$FO7?5?$CFs?$CFs?5couldn?8t?5load?6@
CONST	SEGMENT
??_C@_0BP@KOCONAKK@?$FO1Error?3?$FO7?5?$CFs?$CFs?5couldn?8t?5load?6@ DB '^'
	DB	'1Error:^7 %s%s couldn''t load', 0aH, 00H	; `string'
CONST	ENDS
;	COMDAT ??_C@_0CC@DKBPLKFE@?$FO1Error?3?$FO7?5submodel?5?$CFs?5not?5foun@
CONST	SEGMENT
??_C@_0CC@DKBPLKFE@?$FO1Error?3?$FO7?5submodel?5?$CFs?5not?5foun@ DB '^1E'
	DB	'rror:^7 submodel %s not found', 0aH, 00H	; `string'
CONST	ENDS
;	COMDAT ??_C@_0BF@GODLHHLE@Phys?5info?5settings?3?6@
CONST	SEGMENT
??_C@_0BF@GODLHHLE@Phys?5info?5settings?3?6@ DB 'Phys info settings:', 0aH
	DB	00H						; `string'
CONST	ENDS
;	COMDAT ??_C@_0CC@PIAKLNIH@Usage?3?5setinfo?5?$FL?5?$DMkey?$DO?5?$DMvalue?$DO?5@
CONST	SEGMENT
??_C@_0CC@PIAKLNIH@Usage?3?5setinfo?5?$FL?5?$DMkey?$DO?5?$DMvalue?$DO?5@ DB 'U'
	DB	'sage: setinfo [ <key> <value> ]', 0aH, 00H	; `string'
CONST	ENDS
;	COMDAT ??_C@_0BC@KADBPMIN@Total?5?$CFi?5symbols?6@
CONST	SEGMENT
??_C@_0BC@KADBPMIN@Total?5?$CFi?5symbols?6@ DB 'Total %i symbols', 0aH, 00H ; `string'
CONST	ENDS
;	COMDAT ??_C@_0BF@CNHFFNEA@User?5info?5settings?3?6@
CONST	SEGMENT
??_C@_0BF@CNHFFNEA@User?5info?5settings?3?6@ DB 'User info settings:', 0aH
	DB	00H						; `string'
CONST	ENDS
;	COMDAT ??_C@_0ED@OIDIDHDM@Received?5a?5decal?5?$CFs?0?5but?5didn?8t@
CONST	SEGMENT
??_C@_0ED@OIDIDHDM@Received?5a?5decal?5?$CFs?0?5but?5didn?8t@ DB 'Receive'
	DB	'd a decal %s, but didn''t find it in resources needed list!', 0aH
	DB	00H						; `string'
CONST	ENDS
;	COMDAT ??_C@_0BG@KLNLHGNN@Resource?5Registration@
CONST	SEGMENT
??_C@_0BG@KLNLHGNN@Resource?5Registration@ DB 'Resource Registration', 00H ; `string'
CONST	ENDS
;	COMDAT ??_C@_0ED@IBJGKGBH@Downloaded?5?$CFi?5bytes?5for?5purport@
CONST	SEGMENT
??_C@_0ED@IBJGKGBH@Downloaded?5?$CFi?5bytes?5for?5purport@ DB 'Downloaded'
	DB	' %i bytes for purported %i byte file, ignoring download', 0aH
	DB	00H						; `string'
CONST	ENDS
;	COMDAT ??_C@_0DA@NHIBONO@?$FO1Error?3?$FO7?5server?5failed?5to?5tra@
CONST	SEGMENT
??_C@_0DA@NHIBONO@?$FO1Error?3?$FO7?5server?5failed?5to?5tra@ DB '^1Error'
	DB	':^7 server failed to transmit file ''%s''', 0aH, 00H ; `string'
CONST	ENDS
;	COMDAT ??_C@_0P@FNEEOGHP@processing?5?$CFs?6@
CONST	SEGMENT
??_C@_0P@FNEEOGHP@processing?5?$CFs?6@ DB 'processing %s', 0aH, 00H ; `string'
CONST	ENDS
;	COMDAT ??_C@_06PBLIODKG@sound?1@
CONST	SEGMENT
??_C@_06PBLIODKG@sound?1@ DB 'sound/', 00H		; `string'
CONST	ENDS
;	COMDAT ?__LINE__Var@?0??CL_ProcessFile@@9@9
_DATA	SEGMENT
?__LINE__Var@?0??CL_ProcessFile@@9@9 DD 088cH		; `CL_ProcessFile'::`1'::__LINE__Var
_DATA	ENDS
;	COMDAT ??_C@_0CK@FPPFLGNI@Duplicate?5resource?5received?5and@
CONST	SEGMENT
??_C@_0CK@FPPFLGNI@Duplicate?5resource?5received?5and@ DB 'Duplicate reso'
	DB	'urce received and ignored.', 0aH, 00H	; `string'
CONST	ENDS
;	COMDAT ??_C@_0CN@IBPOEPKJ@Unable?5to?5create?5custom?5decal?5f@
CONST	SEGMENT
??_C@_0CN@IBPOEPKJ@Unable?5to?5create?5custom?5decal?5f@ DB 'Unable to cr'
	DB	'eate custom decal for player %i', 0aH, 00H	; `string'
CONST	ENDS
;	COMDAT ??_C@_0O@FPFBHEJO@customization@
CONST	SEGMENT
??_C@_0O@FPFBHEJO@customization@ DB 'customization', 00H ; `string'
CONST	ENDS
;	COMDAT ??_C@_0BP@CBAODGNF@?6Server?5connection?5timed?5out?4?6@
CONST	SEGMENT
??_C@_0BP@CBAODGNF@?6Server?5connection?5timed?5out?4?6@ DB 0aH, 'Server '
	DB	'connection timed out.', 0aH, 00H		; `string'
CONST	ENDS
;	COMDAT ??_C@_0ED@FEECBHMH@?$FO1Error?3?$FO7?5CL_ReadPackets?3?5?$CFs?3s@
CONST	SEGMENT
??_C@_0ED@FEECBHMH@?$FO1Error?3?$FO7?5CL_ReadPackets?3?5?$CFs?3s@ DB '^1E'
	DB	'rror:^7 CL_ReadPackets: %s:sequenced packet without connectio'
	DB	'n', 0aH, 00H				; `string'
CONST	ENDS
;	COMDAT ??_C@_0CN@GMBCANBL@?$FO3Warning?3?$FO7?5CL_ReadPackets?3?5?$CFs@
CONST	SEGMENT
??_C@_0CN@GMBCANBL@?$FO3Warning?3?$FO7?5CL_ReadPackets?3?5?$CFs@ DB '^3Wa'
	DB	'rning:^7 CL_ReadPackets: %s:runt packet', 0aH, 00H ; `string'
CONST	ENDS
;	COMDAT ??_C@_0L@GIBDHCEL@ServerData@
CONST	SEGMENT
??_C@_0L@GIBDHCEL@ServerData@ DB 'ServerData', 00H	; `string'
CONST	ENDS
;	COMDAT ??_C@_0DC@KKDBOFAL@?$FO1Error?3?$FO7?5bad?5connectionless?5p@
CONST	SEGMENT
??_C@_0DC@KKDBOFAL@?$FO1Error?3?$FO7?5bad?5connectionless?5p@ DB '^1Error'
	DB	':^7 bad connectionless packet from %s:', 0aH, '%s', 0aH, 00H ; `string'
CONST	ENDS
;	COMDAT ??_C@_0BF@JLOFCKGL@serverlist?5call?3?5?$CFs?6@
CONST	SEGMENT
??_C@_0BF@JLOFCKGL@serverlist?5call?3?5?$CFs?6@ DB 'serverlist call: %s', 0aH
	DB	00H						; `string'
CONST	ENDS
;	COMDAT ??_C@_01INIBCBCB@f@
CONST	SEGMENT
??_C@_01INIBCBCB@f@ DB 'f', 00H				; `string'
CONST	ENDS
;	COMDAT ??_C@_04OFDNEFMC@echo@
CONST	SEGMENT
??_C@_04OFDNEFMC@echo@ DB 'echo', 00H			; `string'
CONST	ENDS
;	COMDAT ??_C@_09DBEGHIJJ@challenge@
CONST	SEGMENT
??_C@_09DBEGHIJJ@challenge@ DB 'challenge', 00H		; `string'
CONST	ENDS
;	COMDAT ??_C@_03JBLJHHJA@ack@
CONST	SEGMENT
??_C@_03JBLJHHJA@ack@ DB 'ack', 00H			; `string'
CONST	ENDS
;	COMDAT ??_C@_04OONEELOO@ping@
CONST	SEGMENT
??_C@_04OONEELOO@ping@ DB 'ping', 00H			; `string'
CONST	ENDS
;	COMDAT ??_C@_0DE@IFANHFOD@CRC?5?$CFp?5is?5matched?0?5get?5challeng@
CONST	SEGMENT
??_C@_0DE@IFANHFOD@CRC?5?$CFp?5is?5matched?0?5get?5challeng@ DB 'CRC %p i'
	DB	's matched, get challenge, fragment size %d', 0aH, 00H ; `string'
CONST	ENDS
;	COMDAT ??_C@_0L@BEEDAEFO@testpacket@
CONST	SEGMENT
??_C@_0L@BEEDAEFO@testpacket@ DB 'testpacket', 00H	; `string'
CONST	ENDS
;	COMDAT ??_C@_02DKCKIIND@?$CFs@
CONST	SEGMENT
??_C@_02DKCKIIND@?$CFs@ DB '%s', 00H			; `string'
CONST	ENDS
;	COMDAT ??_C@_05IJDJACGD@print@
CONST	SEGMENT
??_C@_05IJDJACGD@print@ DB 'print', 00H			; `string'
CONST	ENDS
;	COMDAT ??_C@_01EEMJAFIK@?6@
CONST	SEGMENT
??_C@_01EEMJAFIK@?6@ DB 0aH, 00H			; `string'
CONST	ENDS
;	COMDAT ??_C@_0CL@MOFOLJMP@Command?5packet?5from?5remote?5host@
CONST	SEGMENT
??_C@_0CL@MOFOLJMP@Command?5packet?5from?5remote?5host@ DB 'Command packe'
	DB	't from remote host. Ignored.', 0aH, 00H	; `string'
CONST	ENDS
;	COMDAT ??_C@_03LGLGIONO@cmd@
CONST	SEGMENT
??_C@_03LGLGIONO@cmd@ DB 'cmd', 00H			; `string'
CONST	ENDS
;	COMDAT ??_C@_07PHGFOLHM@netinfo@
CONST	SEGMENT
??_C@_07PHGFOLHM@netinfo@ DB 'netinfo', 00H		; `string'
CONST	ENDS
;	COMDAT ??_C@_04NIDJFNBE@info@
CONST	SEGMENT
??_C@_04NIDJFNBE@info@ DB 'info', 00H			; `string'
CONST	ENDS
;	COMDAT ??_C@_0CK@DICJNNNK@?$FO1Error?3?$FO7?5dup?5connect?5received@
CONST	SEGMENT
??_C@_0CK@DICJNNNK@?$FO1Error?3?$FO7?5dup?5connect?5received@ DB '^1Error'
	DB	':^7 dup connect received. ignored', 0aH, 00H ; `string'
CONST	ENDS
;	COMDAT ??_C@_0P@IOGHOCLL@client_connect@
CONST	SEGMENT
??_C@_0P@IOGHOCLL@client_connect@ DB 'client_connect', 00H ; `string'
CONST	ENDS
;	COMDAT ??_C@_0CC@OJAMPIDI@CL_ConnectionlessPacket?3?5?$CFs?5?3?5?$CF@
CONST	SEGMENT
??_C@_0CC@OJAMPIDI@CL_ConnectionlessPacket?3?5?$CFs?5?3?5?$CF@ DB 'CL_Con'
	DB	'nectionlessPacket: %s : %s', 0aH, 00H	; `string'
CONST	ENDS
;	COMDAT ?__LINE__Var@?0??CL_ConnectionlessPacket@@9@9
_DATA	SEGMENT
?__LINE__Var@?0??CL_ConnectionlessPacket@@9@9 DD 06e2H	; `CL_ConnectionlessPacket'::`1'::__LINE__Var
_DATA	ENDS
;	COMDAT ??_C@_09MLGAJAED@undefined@
CONST	SEGMENT
??_C@_09MLGAJAED@undefined@ DB 'undefined', 00H		; `string'
CONST	ENDS
;	COMDAT ??_C@_08FCFPNNHF@protocol@
CONST	SEGMENT
??_C@_08FCFPNNHF@protocol@ DB 'protocol', 00H		; `string'
CONST	ENDS
;	COMDAT ??_C@_08EJOEDJLI@neterror@
CONST	SEGMENT
??_C@_08EJOEDJLI@neterror@ DB 'neterror', 00H		; `string'
CONST	ENDS
;	COMDAT ??_C@_0BK@JEDBHIFD@?$FO2Server?$FO7?3?5?$CFs?0?5Game?3?5?$CFs?6@
CONST	SEGMENT
??_C@_0BK@JEDBHIFD@?$FO2Server?$FO7?3?5?$CFs?0?5Game?3?5?$CFs?6@ DB '^2Se'
	DB	'rver^7: %s, Game: %s', 0aH, 00H		; `string'
CONST	ENDS
;	COMDAT ??_C@_0BK@JJLGHCHK@?$FO1Server?$FO7?3?5?$CFs?0?5Info?3?5?$CFs?6@
CONST	SEGMENT
??_C@_0BK@JJLGHCHK@?$FO1Server?$FO7?3?5?$CFs?0?5Info?3?5?$CFs?6@ DB '^1Se'
	DB	'rver^7: %s, Info: %s', 0aH, 00H		; `string'
CONST	ENDS
;	COMDAT ??_C@_0BB@DIBMBDMI@reconnecting?4?4?4?6@
CONST	SEGMENT
??_C@_0BB@DIBMBDMI@reconnecting?4?4?4?6@ DB 'reconnecting...', 0aH, 00H ; `string'
CONST	ENDS
;	COMDAT ??_C@_05IBNOFEBL@clver@
CONST	SEGMENT
??_C@_05IBNOFEBL@clver@ DB 'clver', 00H			; `string'
CONST	ENDS
;	COMDAT ??_C@_04PNCPDLMM@0?499@
CONST	SEGMENT
??_C@_04PNCPDLMM@0?499@ DB '0.99', 00H			; `string'
CONST	ENDS
;	COMDAT ??_C@_07GGMBKBFD@gamedir@
CONST	SEGMENT
??_C@_07GGMBKBFD@gamedir@ DB 'gamedir', 00H		; `string'
CONST	ENDS
;	COMDAT ??_C@_0CO@DFHJDOOJ@Scanning?5for?5servers?5on?5the?5int@
CONST	SEGMENT
??_C@_0CO@DFHJDOOJ@Scanning?5for?5servers?5on?5the?5int@ DB 'Scanning for'
	DB	' servers on the internet area...', 0aH, 00H	; `string'
CONST	ENDS
;	COMDAT ??_C@_0CC@FKAGDMAF@?$FO1Error?3?$FO7?5Can?8t?5resolve?5adr?3?5?$CF@
CONST	SEGMENT
??_C@_0CC@FKAGDMAF@?$FO1Error?3?$FO7?5Can?8t?5resolve?5adr?3?5?$CF@ DB '^'
	DB	'1Error:^7 Can''t resolve adr: %s', 0aH, 00H	; `string'
CONST	ENDS
;	COMDAT ??_C@_0BB@FHKNHLNB@ms?4xash?4su?327010@
CONST	SEGMENT
??_C@_0BB@FHKNHLNB@ms?4xash?4su?327010@ DB 'ms.xash.su:27010', 00H ; `string'
CONST	ENDS
;	COMDAT ??_C@_0N@CIFHLALM@1?$PP0?40?40?40?30?$AA@
CONST	SEGMENT
??_C@_0N@CIFHLALM@1?$PP0?40?40?40?30?$AA@ DB '1', 0ffH, '0.0.0.0:0', 00H, 00H ; `string'
CONST	ENDS
;	COMDAT ??_C@_07GBLEFLLO@info?5?$CFi@
CONST	SEGMENT
??_C@_07GBLEFLLO@info?5?$CFi@ DB 'info %i', 00H		; `string'
CONST	ENDS
;	COMDAT ??_C@_0DD@FDBOEDJA@Scanning?5for?5servers?5on?5the?5loc@
CONST	SEGMENT
??_C@_0DD@FDBOEDJA@Scanning?5for?5servers?5on?5the?5loc@ DB 'Scanning for'
	DB	' servers on the local network area...', 0aH, 00H ; `string'
CONST	ENDS
;	COMDAT ??_C@_0BK@EFMONHFA@disconnected?5from?5server?6@
CONST	SEGMENT
??_C@_0BK@EFMONHFA@disconnected?5from?5server?6@ DB 'disconnected from se'
	DB	'rver', 0aH, 00H				; `string'
CONST	ENDS
;	COMDAT ??_C@_03CLCAEGCJ@new@
CONST	SEGMENT
??_C@_03CLCAEGCJ@new@ DB 'new', 00H			; `string'
CONST	ENDS
;	COMDAT ??_C@_0L@KKPFIJOL@disconnect@
CONST	SEGMENT
??_C@_0L@KKPFIJOL@disconnect@ DB 'disconnect', 00H	; `string'
CONST	ENDS
;	COMDAT ??_C@_0M@BOHCKFHE@LastMessage@
CONST	SEGMENT
??_C@_0M@BOHCKFHE@LastMessage@ DB 'LastMessage', 00H	; `string'
CONST	ENDS
;	COMDAT ??_C@_0N@CCFOLBKF@scr_download@
CONST	SEGMENT
??_C@_0N@CCFOLBKF@scr_download@ DB 'scr_download', 00H	; `string'
CONST	ENDS
;	COMDAT ??_C@_0O@NGAMONDD@cl_background@
CONST	SEGMENT
??_C@_0O@NGAMONDD@cl_background@ DB 'cl_background', 00H ; `string'
CONST	ENDS
;	COMDAT ??_C@_0FE@OFOGMBMH@You?5must?5either?5be?5connected?5or@
CONST	SEGMENT
??_C@_0FE@OFOGMBMH@You?5must?5either?5be?5connected?5or@ DB 'You must eit'
	DB	'her be connected or set the ''rcon_address'' cvar to issue rc'
	DB	'on commands', 0aH, 00H			; `string'
CONST	ENDS
;	COMDAT ??_C@_01CLKCMJKC@?5@
CONST	SEGMENT
??_C@_01CLKCMJKC@?5@ DB ' ', 00H			; `string'
CONST	ENDS
;	COMDAT ??_C@_05GCMNNKNG@rcon?5@
CONST	SEGMENT
??_C@_05GCMNNKNG@rcon?5@ DB 'rcon ', 00H		; `string'
CONST	ENDS
;	COMDAT ??_C@_0DO@NCNKNADM@You?5must?5set?5?8rcon_password?8?5be@
CONST	SEGMENT
??_C@_0DO@NCNKNADM@You?5must?5set?5?8rcon_password?8?5be@ DB 'You must se'
	DB	't ''rcon_password'' before issuing an rcon command.', 0aH, 00H ; `string'
CONST	ENDS
;	COMDAT ??_C@_0L@BFANEHJC@server?5?$CFs?6@
CONST	SEGMENT
??_C@_0L@BFANEHJC@server?5?$CFs?6@ DB 'server %s', 0aH, 00H ; `string'
CONST	ENDS
;	COMDAT ??_C@_0BJ@FPBNGOLO@Usage?3?5connect?5?$DMserver?$DO?6@
CONST	SEGMENT
??_C@_0BJ@FPBNGOLO@Usage?3?5connect?5?$DMserver?$DO?6@ DB 'Usage: connect'
	DB	' <server>', 0aH, 00H			; `string'
CONST	ENDS
;	COMDAT ??_C@_02JDPG@rb@
CONST	SEGMENT
??_C@_02JDPG@rb@ DB 'rb', 00H				; `string'
CONST	ENDS
;	COMDAT ??_C@_0BD@IOMBPIHF@logos?1remapped?4bmp@
CONST	SEGMENT
??_C@_0BD@IOMBPIHF@logos?1remapped?4bmp@ DB 'logos/remapped.bmp', 00H ; `string'
CONST	ENDS
;	COMDAT ??_C@_0BO@LICHHHNB@Too?5many?5resources?5on?5client?6@
CONST	SEGMENT
??_C@_0BO@LICHHHNB@Too?5many?5resources?5on?5client?6@ DB 'Too many resou'
	DB	'rces on client', 0aH, 00H			; `string'
CONST	ENDS
;	COMDAT ??_C@_0BB@BGHIAFEK@bandwidth?5?$CFi?5?$CFi?6@
CONST	SEGMENT
??_C@_0BB@BGHIAFEK@bandwidth?5?$CFi?5?$CFi?6@ DB 'bandwidth %i %i', 0aH, 00H ; `string'
CONST	ENDS
;	COMDAT ??_C@_0CB@PLILGMJK@Connecting?5to?5?$CFs?4?4?4?5?$FLretry?5?$CD?$CFi?$FN@
CONST	SEGMENT
??_C@_0CB@PLILGMJK@Connecting?5to?5?$CFs?4?4?4?5?$FLretry?5?$CD?$CFi?$FN@ DB 'C'
	DB	'onnecting to %s... [retry #%i]', 0aH, 00H	; `string'
CONST	ENDS
;	COMDAT ??_C@_08IGNJNAKN@cl_dlmax@
CONST	SEGMENT
??_C@_08IGNJNAKN@cl_dlmax@ DB 'cl_dlmax', 00H		; `string'
CONST	ENDS
;	COMDAT ??_C@_0O@BELBLLBG@getchallenge?6@
CONST	SEGMENT
??_C@_0O@BELBLLBG@getchallenge?6@ DB 'getchallenge', 0aH, 00H ; `string'
CONST	ENDS
;	COMDAT ??_C@_0DD@MOPJJDLG@hi?9speed?5connection?5is?5failed?0?5@
CONST	SEGMENT
??_C@_0DD@MOPJJDLG@hi?9speed?5connection?5is?5failed?0?5@ DB 'hi-speed co'
	DB	'nnection is failed, use default method', 0aH, 00H ; `string'
CONST	ENDS
;	COMDAT ??_C@_0DC@CJPDMOGH@?$FO1Error?3?$FO7?5CL_CheckForResend?3?5c@
CONST	SEGMENT
??_C@_0DC@CJPDMOGH@?$FO1Error?3?$FO7?5CL_CheckForResend?3?5c@ DB '^1Error'
	DB	':^7 CL_CheckForResend: couldn''t connected', 0aH, 00H ; `string'
CONST	ENDS
;	COMDAT ??_C@_09IPAEKDAI@localhost@
CONST	SEGMENT
??_C@_09IPAEKDAI@localhost@ DB 'localhost', 00H		; `string'
CONST	ENDS
;	COMDAT ??_C@_0BJ@INHGGABP@connect?5?$CFi?5?$CFi?5?$CC?$CFs?$CC?5?$CC?$CFs?$CC?6@
CONST	SEGMENT
??_C@_0BJ@INHGGABP@connect?5?$CFi?5?$CFi?5?$CC?$CFs?$CC?5?$CC?$CFs?$CC?6@ DB 'c'
	DB	'onnect %i %i "%s" "%s"', 0aH, 00H		; `string'
CONST	ENDS
;	COMDAT ??_C@_05IPCIHGO@qport@
CONST	SEGMENT
??_C@_05IPCIHGO@qport@ DB 'qport', 00H			; `string'
CONST	ENDS
;	COMDAT ??_C@_04BCJJGJPP@uuid@
CONST	SEGMENT
??_C@_04BCJJGJPP@uuid@ DB 'uuid', 00H			; `string'
CONST	ENDS
;	COMDAT ??_C@_09HOOHLIKH@net_qport@
CONST	SEGMENT
??_C@_09HOOHLIKH@net_qport@ DB 'net_qport', 00H		; `string'
CONST	ENDS
;	COMDAT ??_C@_0CK@GCLLEHKK@CL_SendConnectPacket?3?5bad?5serve@
CONST	SEGMENT
??_C@_0CK@GCLLEHKK@CL_SendConnectPacket?3?5bad?5serve@ DB 'CL_SendConnect'
	DB	'Packet: bad server address', 0aH, 00H	; `string'
CONST	ENDS
;	COMDAT ??_C@_0BL@CFCAJJKK@Removing?5conflicting?5lump?6@
CONST	SEGMENT
??_C@_0BL@CFCAJJKK@Removing?5conflicting?5lump?6@ DB 'Removing conflictin'
	DB	'g lump', 0aH, 00H				; `string'
CONST	ENDS
;	COMDAT ??_C@_0BA@LICAHJIO@Actual?5?5?5?3?5?5?$CFs?6@
CONST	SEGMENT
??_C@_0BA@LICAHJIO@Actual?5?5?5?3?5?5?$CFs?6@ DB 'Actual   :  %s', 0aH, 00H ; `string'
CONST	ENDS
;	COMDAT ??_C@_0BA@OPIGPFCH@Purported?3?5?5?$CFs?6@
CONST	SEGMENT
??_C@_0BA@OPIGPFCH@Purported?3?5?5?$CFs?6@ DB 'Purported:  %s', 0aH, 00H ; `string'
CONST	ENDS
;	COMDAT ??_C@_0DD@JPFNAHEK@HPAK_AddLump?5called?5with?5bogus?5@
CONST	SEGMENT
??_C@_0DD@JPFNAHEK@HPAK_AddLump?5called?5with?5bogus?5@ DB 'HPAK_AddLump '
	DB	'called with bogus lump, md5 mismatch', 0aH, 00H ; `string'
CONST	ENDS
;	COMDAT ??_C@_0DK@MCGJPAHP@Bogus?5data?5retrieved?5from?5?$CFs?0?5a@
CONST	SEGMENT
??_C@_0DK@MCGJPAHP@Bogus?5data?5retrieved?5from?5?$CFs?0?5a@ DB 'Bogus da'
	DB	'ta retrieved from %s, attempting to delete entry', 0aH, 00H ; `string'
CONST	ENDS
;	COMDAT ??_C@_0L@DHBFCELB@custom?4hpk@
CONST	SEGMENT
??_C@_0L@DHBFCELB@custom?4hpk@ DB 'custom.hpk', 00H	; `string'
CONST	ENDS
;	COMDAT ??_C@_0CG@IJLLNIPI@Ingoring?5upload?5of?5non?9customiz@
CONST	SEGMENT
??_C@_0CG@IJLLNIPI@Ingoring?5upload?5of?5non?9customiz@ DB 'Ingoring uplo'
	DB	'ad of non-customization', 0aH, 00H		; `string'
CONST	ENDS
;	COMDAT ??_C@_04HJKAGJBM@?$CBMD5@
CONST	SEGMENT
??_C@_04HJKAGJBM@?$CBMD5@ DB '!MD5', 00H		; `string'
CONST	ENDS
;	COMDAT ?__LINE__Var@?0??CL_BeginUpload_f@@9@9
_DATA	SEGMENT
?__LINE__Var@?0??CL_BeginUpload_f@@9@9 DD 038aH		; `CL_BeginUpload_f'::`1'::__LINE__Var
_DATA	ENDS
;	COMDAT ??_C@_0DG@JCLEFCHC@CL_WritePacket?3?5overflowed?5comm@
CONST	SEGMENT
??_C@_0DG@JCLEFCHC@CL_WritePacket?3?5overflowed?5comm@ DB 'CL_WritePacket'
	DB	': overflowed command buffer (%i bytes)', 0aH, 00H ; `string'
CONST	ENDS
;	COMDAT ??_C@_0CD@MNHOADLI@?$FO3Warning?3?$FO1?5Connection?5Problem@
CONST	SEGMENT
??_C@_0CD@MNHOADLI@?$FO3Warning?3?$FO1?5Connection?5Problem@ DB '^3Warnin'
	DB	'g:^1 Connection Problem^7', 0aH, 00H	; `string'
CONST	ENDS
;	COMDAT ??_C@_0L@FHOEGPOF@cl_cmdrate@
CONST	SEGMENT
??_C@_0L@FHOEGPOF@cl_cmdrate@ DB 'cl_cmdrate', 00H	; `string'
CONST	ENDS
;	COMDAT ??_C@_0L@DCAPMAMJ@ClientData@
CONST	SEGMENT
??_C@_0L@DCAPMAMJ@ClientData@ DB 'ClientData', 00H	; `string'
CONST	ENDS
;	COMDAT ??_C@_0CD@GOANGLPP@to?5?$DO?$DN?50?5?$CG?$CG?5to?5?$DM?5MULTIPLAYER_BAC@
CONST	SEGMENT
??_C@_0CD@GOANGLPP@to?5?$DO?$DN?50?5?$CG?$CG?5to?5?$DM?5MULTIPLAYER_BAC@ DB 't'
	DB	'o >= 0 && to < MULTIPLAYER_BACKUP', 00H	; `string'
CONST	ENDS
;	COMDAT ??_C@_0DJ@BPAMAEGK@from?5?$DN?$DN?5?91?5?$HM?$HM?5?$CI?5from?5?$DO?$DN?50?5?$CG?$CG?5fr@
CONST	SEGMENT
??_C@_0DJ@BPAMAEGK@from?5?$DN?$DN?5?91?5?$HM?$HM?5?$CI?5from?5?$DO?$DN?50?5?$CG?$CG?5fr@ DB 'f'
	DB	'rom == -1 || ( from >= 0 && from < MULTIPLAYER_BACKUP )', 00H ; `string'
CONST	ENDS
;	COMDAT ??_C@_0DE@KLFELIEG@D?3?2DevDragon?2XashFE?2dev?2src?2eng@
CONST	SEGMENT
??_C@_0DE@KLFELIEG@D?3?2DevDragon?2XashFE?2dev?2src?2eng@ DB 'D:\DevDrago'
	DB	'n\XashFE\dev\src\engine\client\cl_main.c', 00H ; `string'
CONST	ENDS
;	COMDAT ?__LINE__Var@?0??CL_WriteUsercmd@@9@9
_DATA	SEGMENT
?__LINE__Var@?0??CL_WriteUsercmd@@9@9 DD 02a8H		; `CL_WriteUsercmd'::`1'::__LINE__Var
_DATA	ENDS
;	COMDAT ??_C@_0P@MJMKNHCG@r_showtextures@
CONST	SEGMENT
??_C@_0P@MJMKNHCG@r_showtextures@ DB 'r_showtextures', 00H ; `string'
CONST	ENDS
;	COMDAT ??_C@_09LIPGDLPA@ex_interp@
CONST	SEGMENT
??_C@_09LIPGDLPA@ex_interp@ DB 'ex_interp', 00H		; `string'
CONST	ENDS
;	COMDAT ??_C@_0CC@CGOAGALG@ex_interp?5forced?5down?5to?5?$CFi?5mse@
CONST	SEGMENT
??_C@_0CC@CGOAGALG@ex_interp?5forced?5down?5to?5?$CFi?5mse@ DB 'ex_interp'
	DB	' forced down to %i msec', 0aH, 00H		; `string'
CONST	ENDS
;	COMDAT ??_C@_0CA@NNLHIFJL@ex_interp?5forced?5up?5to?5?$CFi?5msec?6@
CONST	SEGMENT
??_C@_0CA@NNLHIFJL@ex_interp?5forced?5up?5to?5?$CFi?5msec?6@ DB 'ex_inter'
	DB	'p forced up to %i msec', 0aH, 00H		; `string'
CONST	ENDS
;	COMDAT ??_C@_0CH@GCBKIJKK@cl_updaterate?5clamped?5at?5maximu@
CONST	SEGMENT
??_C@_0CH@GCBKIJKK@cl_updaterate?5clamped?5at?5maximu@ DB 'cl_updaterate '
	DB	'clamped at maximum (%f)', 0aH, 00H		; `string'
CONST	ENDS
;	COMDAT ??_C@_0O@GLEIJHMA@cl_updaterate@
CONST	SEGMENT
??_C@_0O@GLEIJHMA@cl_updaterate@ DB 'cl_updaterate', 00H ; `string'
CONST	ENDS
;	COMDAT ??_C@_0DI@MMJIGOKI@cl_updaterate?5minimum?5is?5?$CFf?0?5re@
CONST	SEGMENT
??_C@_0DI@MMJIGOKI@cl_updaterate?5minimum?5is?5?$CFf?0?5re@ DB 'cl_update'
	DB	'rate minimum is %f, resetting to default (20)', 0aH, 00H ; `string'
CONST	ENDS
;	COMDAT ??_C@_05EAFKHBAM@begin@
CONST	SEGMENT
??_C@_05EAFKHBAM@begin@ DB 'begin', 00H			; `string'
CONST	ENDS
;	COMDAT ??_C@_0BE@HJOLPNGG@CL_SignonReply?3?5?$CFi?6@
CONST	SEGMENT
??_C@_0BE@HJOLPNGG@CL_SignonReply?3?5?$CFi?6@ DB 'CL_SignonReply: %i', 0aH
	DB	00H						; `string'
CONST	ENDS
;	COMDAT ??_C@_0BO@PBAMMEOO@client?5connected?5at?5?$CF?42f?5sec?6@
CONST	SEGMENT
??_C@_0BO@PBAMMEOO@client?5connected?5at?5?$CF?42f?5sec?6@ DB 'client con'
	DB	'nected at %.2f sec', 0aH, 00H		; `string'
CONST	ENDS
;	COMDAT ??_C@_0M@DKOEGGOG@scr_loading@
CONST	SEGMENT
??_C@_0M@DKOEGGOG@scr_loading@ DB 'scr_loading', 00H	; `string'
CONST	ENDS
;	COMDAT voltbl
voltbl	SEGMENT
_volmd	DW	014H
	DW	0971H
voltbl	ENDS
;	COMDAT voltbl
voltbl	SEGMENT
_volmd	DW	010H
	DW	0175H
voltbl	ENDS
;	COMDAT voltbl
voltbl	SEGMENT
_volmd	DB	0dH
	DB	078H
voltbl	ENDS
;	COMDAT voltbl
voltbl	SEGMENT
_volmd	DB	0dH
	DB	0e8H
voltbl	ENDS
;	COMDAT voltbl
voltbl	SEGMENT
_volmd	DW	010H
	DW	0267H
voltbl	ENDS
;	COMDAT voltbl
voltbl	SEGMENT
_volmd	DB	010H
	DB	0f1H
voltbl	ENDS
;	COMDAT voltbl
voltbl	SEGMENT
_volmd	DW	010H
	DW	013dH
voltbl	ENDS
;	COMDAT voltbl
voltbl	SEGMENT
_volmd	DW	0dH
	DW	02e6H
voltbl	ENDS
;	COMDAT voltbl
voltbl	SEGMENT
_volmd	DW	010H
	DW	0141H
voltbl	ENDS
;	COMDAT voltbl
voltbl	SEGMENT
_volmd	DB	010H
	DB	0e0H
voltbl	ENDS
;	COMDAT voltbl
voltbl	SEGMENT
_volmd	DW	010H
	DW	0292H
voltbl	ENDS
;	COMDAT voltbl
voltbl	SEGMENT
_volmd	DW	014H
	DW	076eH
voltbl	ENDS
;	COMDAT voltbl
voltbl	SEGMENT
_volmd	DW	010H
	DW	0356H
voltbl	ENDS
;	COMDAT voltbl
voltbl	SEGMENT
_volmd	DW	0dH
	DW	018cH
voltbl	ENDS
;	COMDAT voltbl
voltbl	SEGMENT
_volmd	DB	010H
	DB	0f5H
voltbl	ENDS
;	COMDAT voltbl
voltbl	SEGMENT
_volmd	DW	014H
	DW	035aH
voltbl	ENDS
;	COMDAT voltbl
voltbl	SEGMENT
_volmd	DB	010H
	DB	0afH
voltbl	ENDS
; Function compile flags: /Odtp /ZI
; File D:\DevDragon\XashFE\dev\src\engine\client\cl_main.c
;	COMDAT _CL_AdjustClock
_TEXT	SEGMENT
tv169 = -112						; size = 8
tv174 = -104						; size = 8
tv164 = -96						; size = 8
tv148 = -96						; size = 8
tv79 = -96						; size = 8
_sign$1 = -24						; size = 8
_adjust$2 = -16						; size = 8
_msec$3 = -8						; size = 8
_CL_AdjustClock PROC					; COMDAT

; 2702 : {

	push	ebp
	mov	ebp, esp
	sub	esp, 112				; 00000070H
	push	ebx
	push	esi
	push	edi

; 2703 : 	if( cl.timedelta == 0.0f || !cl_fixtimerate->value )

	movss	xmm0, DWORD PTR _cl+2167656
	ucomiss	xmm0, DWORD PTR __real@00000000
	lahf
	test	ah, 68					; 00000044H
	jnp	SHORT $LN3@CL_AdjustC
	mov	eax, DWORD PTR _cl_fixtimerate
	movss	xmm0, DWORD PTR [eax+12]
	ucomiss	xmm0, DWORD PTR __real@00000000
	lahf
	test	ah, 68					; 00000044H
	jp	SHORT $LN2@CL_AdjustC
$LN3@CL_AdjustC:

; 2704 : 		return;

	jmp	$LN7@CL_AdjustC
$LN2@CL_AdjustC:

; 2705 : 
; 2706 : 	if( cl_fixtimerate->value < 0.0f )

	mov	eax, DWORD PTR _cl_fixtimerate
	xorps	xmm0, xmm0
	comiss	xmm0, DWORD PTR [eax+12]
	jbe	SHORT $LN4@CL_AdjustC

; 2707 : 		Cvar_SetValue( "cl_fixtimerate", 7.5f );

	push	ecx
	movss	xmm0, DWORD PTR __real@40f00000
	movss	DWORD PTR [esp], xmm0
	push	OFFSET ??_C@_0P@GBJMGNNJ@cl_fixtimerate@
	call	_Cvar_SetValue
	add	esp, 8
$LN4@CL_AdjustC:

; 2708 : 
; 2709 : 	if( fabs( cl.timedelta ) >= 0.001f )

	cvtss2sd xmm0, DWORD PTR _cl+2167656
	sub	esp, 8
	movsd	QWORD PTR [esp], xmm0
	call	_fabs
	add	esp, 8
	fstp	QWORD PTR tv148[ebp]
	movsd	xmm0, QWORD PTR tv148[ebp]
	comisd	xmm0, QWORD PTR __real@3f50624de0000000
	jb	$LN7@CL_AdjustC

; 2710 : 	{
; 2711 : 		double	msec, adjust, sign;
; 2712 : 
; 2713 : 		msec = ( cl.timedelta * 1000.0 );

	cvtss2sd xmm0, DWORD PTR _cl+2167656
	mulsd	xmm0, QWORD PTR __real@408f400000000000
	movsd	QWORD PTR _msec$3[ebp], xmm0

; 2714 : 		sign = ( msec < 0 ) ? 1.0 : -1.0;

	xorps	xmm0, xmm0
	comisd	xmm0, QWORD PTR _msec$3[ebp]
	jbe	SHORT $LN9@CL_AdjustC
	movsd	xmm0, QWORD PTR __real@3ff0000000000000
	movsd	QWORD PTR tv79[ebp], xmm0
	jmp	SHORT $LN10@CL_AdjustC
$LN9@CL_AdjustC:
	movsd	xmm0, QWORD PTR __real@bff0000000000000
	movsd	QWORD PTR tv79[ebp], xmm0
$LN10@CL_AdjustC:
	movsd	xmm0, QWORD PTR tv79[ebp]
	movsd	QWORD PTR _sign$1[ebp], xmm0

; 2715 : 		msec = fabs( msec );

	sub	esp, 8
	movsd	xmm0, QWORD PTR _msec$3[ebp]
	movsd	QWORD PTR [esp], xmm0
	call	_fabs
	add	esp, 8
	fstp	QWORD PTR _msec$3[ebp]

; 2716 : 		adjust = sign * ( cl_fixtimerate->value / 1000.0 );

	mov	eax, DWORD PTR _cl_fixtimerate
	cvtss2sd xmm0, DWORD PTR [eax+12]
	divsd	xmm0, QWORD PTR __real@408f400000000000
	mulsd	xmm0, QWORD PTR _sign$1[ebp]
	movsd	QWORD PTR _adjust$2[ebp], xmm0

; 2717 : 
; 2718 : 		if( fabs( adjust ) < fabs( cl.timedelta ))

	sub	esp, 8
	movsd	xmm0, QWORD PTR _adjust$2[ebp]
	movsd	QWORD PTR [esp], xmm0
	call	_fabs
	add	esp, 8
	fstp	QWORD PTR tv164[ebp]
	movsd	xmm0, QWORD PTR tv164[ebp]
	cvtss2sd xmm1, DWORD PTR _cl+2167656
	sub	esp, 8
	movsd	QWORD PTR [esp], xmm1
	movsd	QWORD PTR tv174[ebp], xmm0
	call	_fabs
	add	esp, 8
	fstp	QWORD PTR tv169[ebp]
	movsd	xmm0, QWORD PTR tv169[ebp]
	movsd	xmm1, QWORD PTR tv174[ebp]
	comisd	xmm0, xmm1
	jbe	SHORT $LN6@CL_AdjustC

; 2719 : 		{
; 2720 : 			cl.timedelta += adjust;

	cvtss2sd xmm0, DWORD PTR _cl+2167656
	addsd	xmm0, QWORD PTR _adjust$2[ebp]
	cvtsd2ss xmm0, xmm0
	movss	DWORD PTR _cl+2167656, xmm0

; 2721 : 			cl.time += adjust;

	movsd	xmm0, QWORD PTR _cl+2167640
	addsd	xmm0, QWORD PTR _adjust$2[ebp]
	movsd	QWORD PTR _cl+2167640, xmm0
$LN6@CL_AdjustC:

; 2722 : 		}
; 2723 : 
; 2724 : 		if( cl.oldtime > cl.time )

	movsd	xmm0, QWORD PTR _cl+2167648
	comisd	xmm0, QWORD PTR _cl+2167640
	jbe	SHORT $LN7@CL_AdjustC

; 2725 : 			cl.oldtime = cl.time;

	movsd	xmm0, QWORD PTR _cl+2167640
	movsd	QWORD PTR _cl+2167648, xmm0
$LN7@CL_AdjustC:

; 2726 : 	}
; 2727 : }

	pop	edi
	pop	esi
	pop	ebx
	mov	esp, ebp
	pop	ebp
	ret	0
_CL_AdjustClock ENDP
_TEXT	ENDS
; Function compile flags: /Odtp /ZI
; File D:\DevDragon\XashFE\dev\src\engine\client\cl_main.c
;	COMDAT _CL_InitLocal
_TEXT	SEGMENT
_CL_InitLocal PROC					; COMDAT

; 2572 : {

	push	ebp
	mov	ebp, esp
	sub	esp, 64					; 00000040H
	push	ebx
	push	esi
	push	edi

; 2573 : 	cls.state = ca_disconnected;

	mov	DWORD PTR _cls, 0

; 2574 : 	cls.signon = 0;

	mov	DWORD PTR _cls+64, 0

; 2575 : 
; 2576 : 	cl.resourcesneeded.pNext = cl.resourcesneeded.pPrev = &cl.resourcesneeded;

	mov	DWORD PTR _cl+3029684, OFFSET _cl+3029552
	mov	eax, DWORD PTR _cl+3029684
	mov	DWORD PTR _cl+3029680, eax

; 2577 : 	cl.resourcesonhand.pNext = cl.resourcesonhand.pPrev = &cl.resourcesonhand;

	mov	DWORD PTR _cl+3029548, OFFSET _cl+3029416
	mov	eax, DWORD PTR _cl+3029548
	mov	DWORD PTR _cl+3029544, eax

; 2578 : 
; 2579 : 	Cvar_RegisterVariable( &mp_decals );

	push	OFFSET _mp_decals
	call	_Cvar_RegisterVariable
	add	esp, 4

; 2580 : 	Cvar_RegisterVariable( &dev_overview );

	push	OFFSET _dev_overview
	call	_Cvar_RegisterVariable
	add	esp, 4

; 2581 : 	Cvar_RegisterVariable( &cl_resend );

	push	OFFSET _cl_resend
	call	_Cvar_RegisterVariable
	add	esp, 4

; 2582 : 	Cvar_RegisterVariable( &cl_allow_upload );

	push	OFFSET _cl_allow_upload
	call	_Cvar_RegisterVariable
	add	esp, 4

; 2583 : 	Cvar_RegisterVariable( &cl_allow_download );

	push	OFFSET _cl_allow_download
	call	_Cvar_RegisterVariable
	add	esp, 4

; 2584 : 	Cvar_RegisterVariable( &cl_download_ingame );

	push	OFFSET _cl_download_ingame
	call	_Cvar_RegisterVariable
	add	esp, 4

; 2585 : 	Cvar_RegisterVariable( &cl_logofile );

	push	OFFSET _cl_logofile
	call	_Cvar_RegisterVariable
	add	esp, 4

; 2586 : 	Cvar_RegisterVariable( &cl_logocolor );

	push	OFFSET _cl_logocolor
	call	_Cvar_RegisterVariable
	add	esp, 4

; 2587 : 	Cvar_RegisterVariable( &cl_test_bandwidth );

	push	OFFSET _cl_test_bandwidth
	call	_Cvar_RegisterVariable
	add	esp, 4

; 2588 : 
; 2589 : 	// register our variables
; 2590 : 	cl_crosshair = Cvar_Get( "crosshair", "1", FCVAR_ARCHIVE, "show weapon chrosshair" );

	push	OFFSET ??_C@_0BH@NFCHEABC@show?5weapon?5chrosshair@
	push	1
	push	OFFSET ??_C@_01HIHLOKLC@1@
	push	OFFSET ??_C@_09NBNKIDFG@crosshair@
	call	_Cvar_Get
	add	esp, 16					; 00000010H
	mov	DWORD PTR _cl_crosshair, eax

; 2591 : 	cl_nodelta = Cvar_Get ("cl_nodelta", "0", 0, "disable delta-compression for server messages" );

	push	OFFSET ??_C@_0CO@IPIGBHJN@disable?5delta?9compression?5for?5s@
	push	0
	push	OFFSET ??_C@_01GBGANLPD@0@
	push	OFFSET ??_C@_0L@BPLIDNFG@cl_nodelta@
	call	_Cvar_Get
	add	esp, 16					; 00000010H
	mov	DWORD PTR _cl_nodelta, eax

; 2592 : 	cl_idealpitchscale = Cvar_Get( "cl_idealpitchscale", "0.8", 0, "how much to look up/down slopes and stairs when not using freelook" );

	push	OFFSET ??_C@_0ED@JGEPHGDP@how?5much?5to?5look?5up?1down?5slopes@
	push	0
	push	OFFSET ??_C@_03LNMAPFD@0?48@
	push	OFFSET ??_C@_0BD@FBOKDBLE@cl_idealpitchscale@
	call	_Cvar_Get
	add	esp, 16					; 00000010H
	mov	DWORD PTR _cl_idealpitchscale, eax

; 2593 : 	cl_solid_players = Cvar_Get( "cl_solid_players", "1", 0, "Make all players not solid (can't traceline them)" );

	push	OFFSET ??_C@_0DC@FNMDJCPC@Make?5all?5players?5not?5solid?5?$CIcan@
	push	0
	push	OFFSET ??_C@_01HIHLOKLC@1@
	push	OFFSET ??_C@_0BB@BGAFDJDO@cl_solid_players@
	call	_Cvar_Get
	add	esp, 16					; 00000010H
	mov	DWORD PTR _cl_solid_players, eax

; 2594 : 	cl_interp = Cvar_Get( "ex_interp", "0.1", FCVAR_ARCHIVE, "Interpolate object positions starting this many seconds in past" ); 

	push	OFFSET ??_C@_0EA@HNPMKLI@Interpolate?5object?5positions?5st@
	push	1
	push	OFFSET ??_C@_03NKBOLEBK@0?41@
	push	OFFSET ??_C@_09LIPGDLPA@ex_interp@
	call	_Cvar_Get
	add	esp, 16					; 00000010H
	mov	DWORD PTR _cl_interp, eax

; 2595 : 	cl_timeout = Cvar_Get( "cl_timeout", "60", 0, "connect timeout (in-seconds)" );

	push	OFFSET ??_C@_0BN@CMKNHDIB@connect?5timeout?5?$CIin?9seconds?$CJ@
	push	0
	push	OFFSET ??_C@_02PPBOIJDM@60@
	push	OFFSET ??_C@_0L@JCNOFHIK@cl_timeout@
	call	_Cvar_Get
	add	esp, 16					; 00000010H
	mov	DWORD PTR _cl_timeout, eax

; 2596 : 
; 2597 : 	rcon_client_password = Cvar_Get( "rcon_password", "", 0, "remote control client password" );

	push	OFFSET ??_C@_0BP@LIMJMBAH@remote?5control?5client?5password@
	push	0
	push	OFFSET ??_C@_00CNPNBAHC@@
	push	OFFSET ??_C@_0O@EEIAMLPM@rcon_password@
	call	_Cvar_Get
	add	esp, 16					; 00000010H
	mov	DWORD PTR _rcon_client_password, eax

; 2598 : 	rcon_address = Cvar_Get( "rcon_address", "", 0, "remote control address" );

	push	OFFSET ??_C@_0BH@BPEKCJOI@remote?5control?5address@
	push	0
	push	OFFSET ??_C@_00CNPNBAHC@@
	push	OFFSET ??_C@_0N@PJJENLON@rcon_address@
	call	_Cvar_Get
	add	esp, 16					; 00000010H
	mov	DWORD PTR _rcon_address, eax

; 2599 : 
; 2600 : 	// userinfo
; 2601 : 	cl_nopred = Cvar_Get( "cl_nopred", "0", FCVAR_ARCHIVE|FCVAR_USERINFO, "disable client movement prediction" );

	push	OFFSET ??_C@_0CD@FJCEHFJG@disable?5client?5movement?5predict@
	push	3
	push	OFFSET ??_C@_01GBGANLPD@0@
	push	OFFSET ??_C@_09EFLGBOKH@cl_nopred@
	call	_Cvar_Get
	add	esp, 16					; 00000010H
	mov	DWORD PTR _cl_nopred, eax

; 2602 : 	name = Cvar_Get( "name", Sys_GetCurrentUser(), FCVAR_USERINFO|FCVAR_ARCHIVE|FCVAR_PRINTABLEONLY, "player name" );

	push	OFFSET ??_C@_0M@IBMGFCGL@player?5name@
	push	131					; 00000083H
	call	_Sys_GetCurrentUser
	push	eax
	push	OFFSET ??_C@_04MEMAJGDJ@name@
	call	_Cvar_Get
	add	esp, 16					; 00000010H
	mov	DWORD PTR _name, eax

; 2603 : 	model = Cvar_Get( "model", "", FCVAR_USERINFO|FCVAR_ARCHIVE, "player model ('player' is a singleplayer model)" );

	push	OFFSET ??_C@_0DA@GGEFMNKI@player?5model?5?$CI?8player?8?5is?5a?5sin@
	push	3
	push	OFFSET ??_C@_00CNPNBAHC@@
	push	OFFSET ??_C@_05NCCFOPHA@model@
	call	_Cvar_Get
	add	esp, 16					; 00000010H
	mov	DWORD PTR _model, eax

; 2604 : 	cl_updaterate = Cvar_Get( "cl_updaterate", "20", FCVAR_USERINFO|FCVAR_ARCHIVE, "refresh rate of server messages" );

	push	OFFSET ??_C@_0CA@IMLGPKIK@refresh?5rate?5of?5server?5messages@
	push	3
	push	OFFSET ??_C@_02PIBHCBOA@20@
	push	OFFSET ??_C@_0O@GLEIJHMA@cl_updaterate@
	call	_Cvar_Get
	add	esp, 16					; 00000010H
	mov	DWORD PTR _cl_updaterate, eax

; 2605 : 	cl_dlmax = Cvar_Get( "cl_dlmax", "0", FCVAR_USERINFO|FCVAR_ARCHIVE, "max allowed fragment size on download resources" );

	push	OFFSET ??_C@_0DA@PBHOBKHC@max?5allowed?5fragment?5size?5on?5do@
	push	3
	push	OFFSET ??_C@_01GBGANLPD@0@
	push	OFFSET ??_C@_08IGNJNAKN@cl_dlmax@
	call	_Cvar_Get
	add	esp, 16					; 00000010H
	mov	DWORD PTR _cl_dlmax, eax

; 2606 : 	rate = Cvar_Get( "rate", "3500", FCVAR_USERINFO|FCVAR_ARCHIVE, "player network rate" );

	push	OFFSET ??_C@_0BE@CPFCAJAK@player?5network?5rate@
	push	3
	push	OFFSET ??_C@_04ODIEBBEE@3500@
	push	OFFSET ??_C@_04HCCHHEEF@rate@
	call	_Cvar_Get
	add	esp, 16					; 00000010H
	mov	DWORD PTR _rate, eax

; 2607 : 	topcolor = Cvar_Get( "topcolor", "0", FCVAR_USERINFO|FCVAR_ARCHIVE, "player top color" );

	push	OFFSET ??_C@_0BB@ILOPDEKA@player?5top?5color@
	push	3
	push	OFFSET ??_C@_01GBGANLPD@0@
	push	OFFSET ??_C@_08OLGKFJAO@topcolor@
	call	_Cvar_Get
	add	esp, 16					; 00000010H
	mov	DWORD PTR _topcolor, eax

; 2608 : 	bottomcolor = Cvar_Get( "bottomcolor", "0", FCVAR_USERINFO|FCVAR_ARCHIVE, "player bottom color" );

	push	OFFSET ??_C@_0BE@KBFJNKLM@player?5bottom?5color@
	push	3
	push	OFFSET ??_C@_01GBGANLPD@0@
	push	OFFSET ??_C@_0M@IIFIMDEK@bottomcolor@
	call	_Cvar_Get
	add	esp, 16					; 00000010H
	mov	DWORD PTR _bottomcolor, eax

; 2609 : 	cl_lw = Cvar_Get( "cl_lw", "1", FCVAR_ARCHIVE|FCVAR_USERINFO, "enable client weapon predicting" );

	push	OFFSET ??_C@_0CA@DGECEPIL@enable?5client?5weapon?5predicting@
	push	3
	push	OFFSET ??_C@_01HIHLOKLC@1@
	push	OFFSET ??_C@_05COECHLGF@cl_lw@
	call	_Cvar_Get
	add	esp, 16					; 00000010H
	mov	DWORD PTR _cl_lw, eax

; 2610 : 	Cvar_Get( "cl_lc", "1", FCVAR_ARCHIVE|FCVAR_USERINFO, "enable lag compensation" );

	push	OFFSET ??_C@_0BI@HOGAGOPD@enable?5lag?5compensation@
	push	3
	push	OFFSET ??_C@_01HIHLOKLC@1@
	push	OFFSET ??_C@_05OMKMDA@cl_lc@
	call	_Cvar_Get
	add	esp, 16					; 00000010H

; 2611 : 	Cvar_Get( "password", "", FCVAR_USERINFO, "server password" );

	push	OFFSET ??_C@_0BA@BOCGHAFM@server?5password@
	push	2
	push	OFFSET ??_C@_00CNPNBAHC@@
	push	OFFSET ??_C@_08NLHBPEGP@password@
	call	_Cvar_Get
	add	esp, 16					; 00000010H

; 2612 : 	Cvar_Get( "team", "", FCVAR_USERINFO, "player team" );

	push	OFFSET ??_C@_0M@OFDHDJHD@player?5team@
	push	2
	push	OFFSET ??_C@_00CNPNBAHC@@
	push	OFFSET ??_C@_04KADBPNCB@team@
	call	_Cvar_Get
	add	esp, 16					; 00000010H

; 2613 : 	Cvar_Get( "skin", "", FCVAR_USERINFO, "player skin" );

	push	OFFSET ??_C@_0M@JCPGJACL@player?5skin@
	push	2
	push	OFFSET ??_C@_00CNPNBAHC@@
	push	OFFSET ??_C@_04NHPAFEHJ@skin@
	call	_Cvar_Get
	add	esp, 16					; 00000010H

; 2614 : 
; 2615 : 	cl_showfps = Cvar_Get( "cl_showfps", "1", FCVAR_ARCHIVE, "show client fps" );

	push	OFFSET ??_C@_0BA@MDNBJAOI@show?5client?5fps@
	push	1
	push	OFFSET ??_C@_01HIHLOKLC@1@
	push	OFFSET ??_C@_0L@FNAGCLGI@cl_showfps@
	call	_Cvar_Get
	add	esp, 16					; 00000010H
	mov	DWORD PTR _cl_showfps, eax

; 2616 : 	cl_nosmooth = Cvar_Get( "cl_nosmooth", "0", FCVAR_ARCHIVE, "disable smooth up stair climbing and interpolate position in multiplayer" );

	push	OFFSET ??_C@_0EJ@KOJLGMDL@disable?5smooth?5up?5stair?5climbin@
	push	1
	push	OFFSET ??_C@_01GBGANLPD@0@
	push	OFFSET ??_C@_0M@LLEMEGKL@cl_nosmooth@
	call	_Cvar_Get
	add	esp, 16					; 00000010H
	mov	DWORD PTR _cl_nosmooth, eax

; 2617 : 	cl_smoothtime = Cvar_Get( "cl_smoothtime", "0", FCVAR_ARCHIVE, "time to smooth up" );

	push	OFFSET ??_C@_0BC@ECBHFPKG@time?5to?5smooth?5up@
	push	1
	push	OFFSET ??_C@_01GBGANLPD@0@
	push	OFFSET ??_C@_0O@CDOPINFK@cl_smoothtime@
	call	_Cvar_Get
	add	esp, 16					; 00000010H
	mov	DWORD PTR _cl_smoothtime, eax

; 2618 : 	cl_cmdbackup = Cvar_Get( "cl_cmdbackup", "10", FCVAR_ARCHIVE, "how many additional history commands are sent" );

	push	OFFSET ??_C@_0CO@LLNCFEDN@how?5many?5additional?5history?5com@
	push	1
	push	OFFSET ??_C@_02PKFBJPLJ@10@
	push	OFFSET ??_C@_0N@NGMAFPKG@cl_cmdbackup@
	call	_Cvar_Get
	add	esp, 16					; 00000010H
	mov	DWORD PTR _cl_cmdbackup, eax

; 2619 : 	cl_cmdrate = Cvar_Get( "cl_cmdrate", "30", FCVAR_ARCHIVE, "Max number of command packets sent to server per second" );

	push	OFFSET ??_C@_0DI@MEFENBID@Max?5number?5of?5command?5packets?5s@
	push	1
	push	OFFSET ??_C@_02PJNFELNH@30@
	push	OFFSET ??_C@_0L@FHOEGPOF@cl_cmdrate@
	call	_Cvar_Get
	add	esp, 16					; 00000010H
	mov	DWORD PTR _cl_cmdrate, eax

; 2620 : 	cl_draw_particles = Cvar_Get( "r_drawparticles", "1", FCVAR_CHEAT, "render particles" );

	push	OFFSET ??_C@_0BB@CDBJOONC@render?5particles@
	push	32768					; 00008000H
	push	OFFSET ??_C@_01HIHLOKLC@1@
	push	OFFSET ??_C@_0BA@DLDAOBHF@r_drawparticles@
	call	_Cvar_Get
	add	esp, 16					; 00000010H
	mov	DWORD PTR _cl_draw_particles, eax

; 2621 : 	cl_draw_tracers = Cvar_Get( "r_drawtracers", "1", FCVAR_CHEAT, "render tracers" );

	push	OFFSET ??_C@_0P@BBEPAELE@render?5tracers@
	push	32768					; 00008000H
	push	OFFSET ??_C@_01HIHLOKLC@1@
	push	OFFSET ??_C@_0O@DNAKHALD@r_drawtracers@
	call	_Cvar_Get
	add	esp, 16					; 00000010H
	mov	DWORD PTR _cl_draw_tracers, eax

; 2622 : 	cl_draw_beams = Cvar_Get( "r_drawbeams", "1", FCVAR_CHEAT, "render beams" );

	push	OFFSET ??_C@_0N@KECJKNEI@render?5beams@
	push	32768					; 00008000H
	push	OFFSET ??_C@_01HIHLOKLC@1@
	push	OFFSET ??_C@_0M@EHKDLKIM@r_drawbeams@
	call	_Cvar_Get
	add	esp, 16					; 00000010H
	mov	DWORD PTR _cl_draw_beams, eax

; 2623 : 	cl_lightstyle_lerping = Cvar_Get( "cl_lightstyle_lerping", "0", FCVAR_ARCHIVE, "enables animated light lerping (perfomance option)" );

	push	OFFSET ??_C@_0DD@CIKONPNB@enables?5animated?5light?5lerping?5@
	push	1
	push	OFFSET ??_C@_01GBGANLPD@0@
	push	OFFSET ??_C@_0BG@IKBGNHPM@cl_lightstyle_lerping@
	call	_Cvar_Get
	add	esp, 16					; 00000010H
	mov	DWORD PTR _cl_lightstyle_lerping, eax

; 2624 : 	cl_showerror = Cvar_Get( "cl_showerror", "0", FCVAR_ARCHIVE, "show prediction error" );

	push	OFFSET ??_C@_0BG@FPPOLPLK@show?5prediction?5error@
	push	1
	push	OFFSET ??_C@_01GBGANLPD@0@
	push	OFFSET ??_C@_0N@BLPCJECL@cl_showerror@
	call	_Cvar_Get
	add	esp, 16					; 00000010H
	mov	DWORD PTR _cl_showerror, eax

; 2625 : 	cl_bmodelinterp = Cvar_Get( "cl_bmodelinterp", "1", FCVAR_ARCHIVE, "enable bmodel interpolation" );

	push	OFFSET ??_C@_0BM@OOMCGAMM@enable?5bmodel?5interpolation@
	push	1
	push	OFFSET ??_C@_01HIHLOKLC@1@
	push	OFFSET ??_C@_0BA@HDGLEIEB@cl_bmodelinterp@
	call	_Cvar_Get
	add	esp, 16					; 00000010H
	mov	DWORD PTR _cl_bmodelinterp, eax

; 2626 : 	cl_clockreset = Cvar_Get( "cl_clockreset", "0.1", FCVAR_ARCHIVE, "frametime delta maximum value before reset" );

	push	OFFSET ??_C@_0CL@EHNJPADF@frametime?5delta?5maximum?5value?5b@
	push	1
	push	OFFSET ??_C@_03NKBOLEBK@0?41@
	push	OFFSET ??_C@_0O@DJEBIBFL@cl_clockreset@
	call	_Cvar_Get
	add	esp, 16					; 00000010H
	mov	DWORD PTR _cl_clockreset, eax

; 2627 : 	cl_fixtimerate = Cvar_Get( "cl_fixtimerate", "7.5", FCVAR_ARCHIVE, "time in msec to client clock adjusting" );

	push	OFFSET ??_C@_0CH@CLKODIIO@time?5in?5msec?5to?5client?5clock?5ad@
	push	1
	push	OFFSET ??_C@_03CDKFEJKH@7?45@
	push	OFFSET ??_C@_0P@GBJMGNNJ@cl_fixtimerate@
	call	_Cvar_Get
	add	esp, 16					; 00000010H
	mov	DWORD PTR _cl_fixtimerate, eax

; 2628 : 	Cvar_Get( "hud_scale", "-1", FCVAR_ARCHIVE|FCVAR_LATCH, "scale hud at current resolution" );

	push	OFFSET ??_C@_0CA@CCEFHBIN@scale?5hud?5at?5current?5resolution@
	push	2049					; 00000801H
	push	OFFSET ??_C@_02PGHGPEOM@?91@
	push	OFFSET ??_C@_09GMLECNLK@hud_scale@
	call	_Cvar_Get
	add	esp, 16					; 00000010H

; 2629 : 	Cvar_Get( "cl_background", "0", FCVAR_READ_ONLY, "indicate what background map is running" );

	push	OFFSET ??_C@_0CI@MOIEJPFN@indicate?5what?5background?5map?5is@
	push	131072					; 00020000H
	push	OFFSET ??_C@_01GBGANLPD@0@
	push	OFFSET ??_C@_0O@NGAMONDD@cl_background@
	call	_Cvar_Get
	add	esp, 16					; 00000010H

; 2630 : 	cl_showevents = Cvar_Get( "cl_showevents", "0", FCVAR_ARCHIVE, "show events playback" );

	push	OFFSET ??_C@_0BF@DPPOLODC@show?5events?5playback@
	push	1
	push	OFFSET ??_C@_01GBGANLPD@0@
	push	OFFSET ??_C@_0O@FNNFDDLC@cl_showevents@
	call	_Cvar_Get
	add	esp, 16					; 00000010H
	mov	DWORD PTR _cl_showevents, eax

; 2631 : 	Cvar_Get( "lastdemo", "", FCVAR_ARCHIVE, "last played demo" );

	push	OFFSET ??_C@_0BB@COIHEPAG@last?5played?5demo@
	push	1
	push	OFFSET ??_C@_00CNPNBAHC@@
	push	OFFSET ??_C@_08DAPDEFAC@lastdemo@
	call	_Cvar_Get
	add	esp, 16					; 00000010H

; 2632 : 
; 2633 : 	// these two added to shut up CS 1.5 about 'unknown' commands
; 2634 : 	Cvar_Get( "lightgamma", "1", FCVAR_ARCHIVE, "ambient lighting level (legacy, unused)" );

	push	OFFSET ??_C@_0CI@MGEECIPN@ambient?5lighting?5level?5?$CIlegacy?0@
	push	1
	push	OFFSET ??_C@_01HIHLOKLC@1@
	push	OFFSET ??_C@_0L@IEGJIKFJ@lightgamma@
	call	_Cvar_Get
	add	esp, 16					; 00000010H

; 2635 : 	Cvar_Get( "direct", "1", FCVAR_ARCHIVE, "direct lighting level (legacy, unused)" );

	push	OFFSET ??_C@_0CH@JDLOPMPD@direct?5lighting?5level?5?$CIlegacy?0?5@
	push	1
	push	OFFSET ??_C@_01HIHLOKLC@1@
	push	OFFSET ??_C@_06LMLJGLPA@direct@
	call	_Cvar_Get
	add	esp, 16					; 00000010H

; 2636 : 
; 2637 : 	// server commands
; 2638 : 	Cmd_AddCommand ("noclip", NULL, "enable or disable no clipping mode" );

	push	OFFSET ??_C@_0CD@PNOAHLOJ@enable?5or?5disable?5no?5clipping?5m@
	push	0
	push	OFFSET ??_C@_06IHODGGMJ@noclip@
	call	_Cmd_AddCommand
	add	esp, 12					; 0000000cH

; 2639 : 	Cmd_AddCommand ("notarget", NULL, "notarget mode (monsters do not see you)" );

	push	OFFSET ??_C@_0CI@JHOKLOME@notarget?5mode?5?$CImonsters?5do?5not?5@
	push	0
	push	OFFSET ??_C@_08HPLPOCJL@notarget@
	call	_Cmd_AddCommand
	add	esp, 12					; 0000000cH

; 2640 : 	Cmd_AddCommand ("fullupdate", NULL, "re-init HUD on start demo recording" );

	push	OFFSET ??_C@_0CE@OIDLHPFJ@re?9init?5HUD?5on?5start?5demo?5recor@
	push	0
	push	OFFSET ??_C@_0L@BAECHHDI@fullupdate@
	call	_Cmd_AddCommand
	add	esp, 12					; 0000000cH

; 2641 : 	Cmd_AddCommand ("give", NULL, "give specified item or weapon" );

	push	OFFSET ??_C@_0BO@BFJDPOLM@give?5specified?5item?5or?5weapon@
	push	0
	push	OFFSET ??_C@_04BMBHJADG@give@
	call	_Cmd_AddCommand
	add	esp, 12					; 0000000cH

; 2642 : 	Cmd_AddCommand ("drop", NULL, "drop current/specified item or weapon" );

	push	OFFSET ??_C@_0CG@KPKDPDDB@drop?5current?1specified?5item?5or?5@
	push	0
	push	OFFSET ??_C@_04PIONEEJD@drop@
	call	_Cmd_AddCommand
	add	esp, 12					; 0000000cH

; 2643 : 	Cmd_AddCommand ("gametitle", NULL, "show game logo" );

	push	OFFSET ??_C@_0P@CNBLLDB@show?5game?5logo@
	push	0
	push	OFFSET ??_C@_09EPLNALMJ@gametitle@
	call	_Cmd_AddCommand
	add	esp, 12					; 0000000cH

; 2644 : 	Cmd_AddCommand( "kill", NULL, "die instantly" );

	push	OFFSET ??_C@_0O@DJFCAHFH@die?5instantly@
	push	0
	push	OFFSET ??_C@_04BJJEOANI@kill@
	call	_Cmd_AddCommand
	add	esp, 12					; 0000000cH

; 2645 : 	Cmd_AddCommand ("god", NULL, "enable godmode" );

	push	OFFSET ??_C@_0P@IHCIBFKI@enable?5godmode@
	push	0
	push	OFFSET ??_C@_03DKFAMNOH@god@
	call	_Cmd_AddCommand
	add	esp, 12					; 0000000cH

; 2646 : 	Cmd_AddCommand ("fov", NULL, "set client field of view" );

	push	OFFSET ??_C@_0BJ@JILCKFBM@set?5client?5field?5of?5view@
	push	0
	push	OFFSET ??_C@_03PKBINKFB@fov@
	call	_Cmd_AddCommand
	add	esp, 12					; 0000000cH

; 2647 : 	Cmd_AddCommand ("log", NULL, "logging server events" );

	push	OFFSET ??_C@_0BG@MDLCPPLP@logging?5server?5events@
	push	0
	push	OFFSET ??_C@_03MGHMBJCF@log@
	call	_Cmd_AddCommand
	add	esp, 12					; 0000000cH

; 2648 : 		
; 2649 : 	// register our commands
; 2650 : 	Cmd_AddCommand ("pause", NULL, "pause the game (if the server allows pausing)" );

	push	OFFSET ??_C@_0CO@PMNFOODE@pause?5the?5game?5?$CIif?5the?5server?5a@
	push	0
	push	OFFSET ??_C@_05PDJBBECF@pause@
	call	_Cmd_AddCommand
	add	esp, 12					; 0000000cH

; 2651 : 	Cmd_AddCommand ("localservers", CL_LocalServers_f, "collect info about local servers" );

	push	OFFSET ??_C@_0CB@HEKGMPDC@collect?5info?5about?5local?5server@
	push	OFFSET _CL_LocalServers_f
	push	OFFSET ??_C@_0N@OHPGBJMI@localservers@
	call	_Cmd_AddCommand
	add	esp, 12					; 0000000cH

; 2652 : 	Cmd_AddCommand ("internetservers", CL_InternetServers_f, "collect info about internet servers" );

	push	OFFSET ??_C@_0CE@FCJGMNIB@collect?5info?5about?5internet?5ser@
	push	OFFSET _CL_InternetServers_f
	push	OFFSET ??_C@_0BA@HMMIBNGA@internetservers@
	call	_Cmd_AddCommand
	add	esp, 12					; 0000000cH

; 2653 : 	Cmd_AddCommand ("cd", CL_PlayCDTrack_f, "Play cd-track (not real cd-player of course)" );

	push	OFFSET ??_C@_0CN@KALGIHLE@Play?5cd?9track?5?$CInot?5real?5cd?9play@
	push	OFFSET _CL_PlayCDTrack_f
	push	OFFSET ??_C@_02ELLOPNDH@cd@
	call	_Cmd_AddCommand
	add	esp, 12					; 0000000cH

; 2654 : 	Cmd_AddCommand ("mp3", CL_PlayCDTrack_f, "Play mp3-track (based on virtual cd-player)" );

	push	OFFSET ??_C@_0CM@EAINAEGG@Play?5mp3?9track?5?$CIbased?5on?5virtua@
	push	OFFSET _CL_PlayCDTrack_f
	push	OFFSET ??_C@_03LHGNACFN@mp3@
	call	_Cmd_AddCommand
	add	esp, 12					; 0000000cH

; 2655 : 
; 2656 : 	Cmd_AddCommand ("setinfo", CL_SetInfo_f, "examine or change the userinfo string (alias of userinfo)" );

	push	OFFSET ??_C@_0DK@LMLJPMOP@examine?5or?5change?5the?5userinfo?5@
	push	OFFSET _CL_SetInfo_f
	push	OFFSET ??_C@_07BANLMPIG@setinfo@
	call	_Cmd_AddCommand
	add	esp, 12					; 0000000cH

; 2657 : 	Cmd_AddCommand ("userinfo", CL_SetInfo_f, "examine or change the userinfo string (alias of setinfo)" );

	push	OFFSET ??_C@_0DJ@CCNNGOCK@examine?5or?5change?5the?5userinfo?5@
	push	OFFSET _CL_SetInfo_f
	push	OFFSET ??_C@_08PPJNGBMG@userinfo@
	call	_Cmd_AddCommand
	add	esp, 12					; 0000000cH

; 2658 : 	Cmd_AddCommand ("physinfo", CL_Physinfo_f, "print current client physinfo" );

	push	OFFSET ??_C@_0BO@NJOOMKKF@print?5current?5client?5physinfo@
	push	OFFSET _CL_Physinfo_f
	push	OFFSET ??_C@_08PPPJCMOL@physinfo@
	call	_Cmd_AddCommand
	add	esp, 12					; 0000000cH

; 2659 : 	Cmd_AddCommand ("disconnect", CL_Disconnect_f, "disconnect from server" );

	push	OFFSET ??_C@_0BH@PEHNLCL@disconnect?5from?5server@
	push	OFFSET _CL_Disconnect_f
	push	OFFSET ??_C@_0L@KKPFIJOL@disconnect@
	call	_Cmd_AddCommand
	add	esp, 12					; 0000000cH

; 2660 : 	Cmd_AddCommand ("record", CL_Record_f, "record a demo" );

	push	OFFSET ??_C@_0O@EIHBBIAA@record?5a?5demo@
	push	OFFSET _CL_Record_f
	push	OFFSET ??_C@_06KKGOIHDP@record@
	call	_Cmd_AddCommand
	add	esp, 12					; 0000000cH

; 2661 : 	Cmd_AddCommand ("playdemo", CL_PlayDemo_f, "play a demo" );

	push	OFFSET ??_C@_0M@IJLAHPMN@play?5a?5demo@
	push	OFFSET _CL_PlayDemo_f
	push	OFFSET ??_C@_08KNNNHPIP@playdemo@
	call	_Cmd_AddCommand
	add	esp, 12					; 0000000cH

; 2662 : 	Cmd_AddCommand ("timedemo", CL_TimeDemo_f, "demo benchmark" );

	push	OFFSET ??_C@_0P@BGKPKPPK@demo?5benchmark@
	push	OFFSET _CL_TimeDemo_f
	push	OFFSET ??_C@_08LGFIIHD@timedemo@
	call	_Cmd_AddCommand
	add	esp, 12					; 0000000cH

; 2663 : 	Cmd_AddCommand ("killdemo", CL_DeleteDemo_f, "delete a specified demo file" );

	push	OFFSET ??_C@_0BN@OJLIDBHD@delete?5a?5specified?5demo?5file@
	push	OFFSET _CL_DeleteDemo_f
	push	OFFSET ??_C@_08PJGEFPKP@killdemo@
	call	_Cmd_AddCommand
	add	esp, 12					; 0000000cH

; 2664 : 	Cmd_AddCommand ("startdemos", CL_StartDemos_f, "start playing back the selected demos sequentially" );

	push	OFFSET ??_C@_0DD@POMNLFOG@start?5playing?5back?5the?5selected@
	push	OFFSET _CL_StartDemos_f
	push	OFFSET ??_C@_0L@PNDCJELG@startdemos@
	call	_Cmd_AddCommand
	add	esp, 12					; 0000000cH

; 2665 : 	Cmd_AddCommand ("demos", CL_Demos_f, "restart looping demos defined by the last startdemos command" );

	push	OFFSET ??_C@_0DN@JLIMINEP@restart?5looping?5demos?5defined?5b@
	push	OFFSET _CL_Demos_f
	push	OFFSET ??_C@_05CFPGCNL@demos@
	call	_Cmd_AddCommand
	add	esp, 12					; 0000000cH

; 2666 : 	Cmd_AddCommand ("movie", CL_PlayVideo_f, "play a movie" );

	push	OFFSET ??_C@_0N@BDPMHENF@play?5a?5movie@
	push	OFFSET _CL_PlayVideo_f
	push	OFFSET ??_C@_05PAONDCEJ@movie@
	call	_Cmd_AddCommand
	add	esp, 12					; 0000000cH

; 2667 : 	Cmd_AddCommand ("stop", CL_Stop_f, "stop playing or recording a demo" );

	push	OFFSET ??_C@_0CB@ILBKKEAI@stop?5playing?5or?5recording?5a?5dem@
	push	OFFSET _CL_Stop_f
	push	OFFSET ??_C@_04PEGFANN@stop@
	call	_Cmd_AddCommand
	add	esp, 12					; 0000000cH

; 2668 : 	Cmd_AddCommand ("info", NULL, "collect info about local servers with specified protocol" );

	push	OFFSET ??_C@_0DJ@OGHCBBKD@collect?5info?5about?5local?5server@
	push	0
	push	OFFSET ??_C@_04NIDJFNBE@info@
	call	_Cmd_AddCommand
	add	esp, 12					; 0000000cH

; 2669 : 	Cmd_AddCommand ("escape", CL_Escape_f, "escape from game to menu" );

	push	OFFSET ??_C@_0BJ@MOFFGFNO@escape?5from?5game?5to?5menu@
	push	OFFSET _CL_Escape_f
	push	OFFSET ??_C@_06CHNIFGOF@escape@
	call	_Cmd_AddCommand
	add	esp, 12					; 0000000cH

; 2670 : 	Cmd_AddCommand ("togglemenu", CL_Escape_f, "toggle between game and menu" );

	push	OFFSET ??_C@_0BN@CLBJFNJG@toggle?5between?5game?5and?5menu@
	push	OFFSET _CL_Escape_f
	push	OFFSET ??_C@_0L@HBDHBCHM@togglemenu@
	call	_Cmd_AddCommand
	add	esp, 12					; 0000000cH

; 2671 : 	Cmd_AddCommand ("pointfile", CL_ReadPointFile_f, "show leaks on a map (if present of course)" );

	push	OFFSET ??_C@_0CL@CGJHNICJ@show?5leaks?5on?5a?5map?5?$CIif?5present@
	push	OFFSET _CL_ReadPointFile_f
	push	OFFSET ??_C@_09OEGDAIFJ@pointfile@
	call	_Cmd_AddCommand
	add	esp, 12					; 0000000cH

; 2672 : 	Cmd_AddCommand ("linefile", CL_ReadLineFile_f, "show leaks on a map (if present of course)" );

	push	OFFSET ??_C@_0CL@CGJHNICJ@show?5leaks?5on?5a?5map?5?$CIif?5present@
	push	OFFSET _CL_ReadLineFile_f
	push	OFFSET ??_C@_08OGKOBMOC@linefile@
	call	_Cmd_AddCommand
	add	esp, 12					; 0000000cH

; 2673 : 	Cmd_AddCommand ("fullserverinfo", CL_FullServerinfo_f, "sent by server when serverinfo changes" );

	push	OFFSET ??_C@_0CH@MMJIKCDL@sent?5by?5server?5when?5serverinfo?5@
	push	OFFSET _CL_FullServerinfo_f
	push	OFFSET ??_C@_0P@FNBOAPB@fullserverinfo@
	call	_Cmd_AddCommand
	add	esp, 12					; 0000000cH

; 2674 : 	Cmd_AddCommand ("upload", CL_BeginUpload_f, "uploading file to the server" );

	push	OFFSET ??_C@_0BN@LJPCPLKK@uploading?5file?5to?5the?5server@
	push	OFFSET _CL_BeginUpload_f
	push	OFFSET ??_C@_06KAOCKAGB@upload@
	call	_Cmd_AddCommand
	add	esp, 12					; 0000000cH

; 2675 : 	
; 2676 : 	Cmd_AddCommand ("quit", CL_Quit_f, "quit from game" );

	push	OFFSET ??_C@_0P@MHFGDMFE@quit?5from?5game@
	push	OFFSET _CL_Quit_f
	push	OFFSET ??_C@_04KNNLNNGO@quit@
	call	_Cmd_AddCommand
	add	esp, 12					; 0000000cH

; 2677 : 	Cmd_AddCommand ("exit", CL_Quit_f, "quit from game" );

	push	OFFSET ??_C@_0P@MHFGDMFE@quit?5from?5game@
	push	OFFSET _CL_Quit_f
	push	OFFSET ??_C@_04MKNBDEPB@exit@
	call	_Cmd_AddCommand
	add	esp, 12					; 0000000cH

; 2678 : 
; 2679 : 	Cmd_AddCommand ("screenshot", CL_ScreenShot_f, "takes a screenshot of the next rendered frame" );

	push	OFFSET ??_C@_0CO@FDJKINND@takes?5a?5screenshot?5of?5the?5next?5@
	push	OFFSET _CL_ScreenShot_f
	push	OFFSET ??_C@_0L@CMHOPIGK@screenshot@
	call	_Cmd_AddCommand
	add	esp, 12					; 0000000cH

; 2680 : 	Cmd_AddCommand ("snapshot", CL_SnapShot_f, "takes a snapshot of the next rendered frame" );

	push	OFFSET ??_C@_0CM@MIGONHLN@takes?5a?5snapshot?5of?5the?5next?5re@
	push	OFFSET _CL_SnapShot_f
	push	OFFSET ??_C@_08HLGCJJEE@snapshot@
	call	_Cmd_AddCommand
	add	esp, 12					; 0000000cH

; 2681 : 	Cmd_AddCommand ("envshot", CL_EnvShot_f, "takes a six-sides cubemap shot with specified name" );

	push	OFFSET ??_C@_0DD@EKKNFHMF@takes?5a?5six?9sides?5cubemap?5shot?5@
	push	OFFSET _CL_EnvShot_f
	push	OFFSET ??_C@_07EMBMCCDB@envshot@
	call	_Cmd_AddCommand
	add	esp, 12					; 0000000cH

; 2682 : 	Cmd_AddCommand ("skyshot", CL_SkyShot_f, "takes a six-sides envmap (skybox) shot with specified name" );

	push	OFFSET ??_C@_0DL@JCALLELG@takes?5a?5six?9sides?5envmap?5?$CIskybo@
	push	OFFSET _CL_SkyShot_f
	push	OFFSET ??_C@_07FFKGIHOP@skyshot@
	call	_Cmd_AddCommand
	add	esp, 12					; 0000000cH

; 2683 : 	Cmd_AddCommand ("levelshot", CL_LevelShot_f, "same as \"screenshot\", used for create plaque images" );

	push	OFFSET ??_C@_0DE@GCJKHONG@same?5as?5?$CCscreenshot?$CC?0?5used?5for?5@
	push	OFFSET _CL_LevelShot_f
	push	OFFSET ??_C@_09EFOFPGPE@levelshot@
	call	_Cmd_AddCommand
	add	esp, 12					; 0000000cH

; 2684 : 	Cmd_AddCommand ("saveshot", CL_SaveShot_f, "used for create save previews with LoadGame menu" );

	push	OFFSET ??_C@_0DB@KFMPKFFP@used?5for?5create?5save?5previews?5w@
	push	OFFSET _CL_SaveShot_f
	push	OFFSET ??_C@_08FDCALKIA@saveshot@
	call	_Cmd_AddCommand
	add	esp, 12					; 0000000cH

; 2685 : 
; 2686 : 	Cmd_AddCommand ("connect", CL_Connect_f, "connect to a server by hostname" );

	push	OFFSET ??_C@_0CA@MGLGGAIH@connect?5to?5a?5server?5by?5hostname@
	push	OFFSET _CL_Connect_f
	push	OFFSET ??_C@_07KAIBNCHO@connect@
	call	_Cmd_AddCommand
	add	esp, 12					; 0000000cH

; 2687 : 	Cmd_AddCommand ("reconnect", CL_Reconnect_f, "reconnect to current level" );

	push	OFFSET ??_C@_0BL@IIAKJDKL@reconnect?5to?5current?5level@
	push	OFFSET _CL_Reconnect_f
	push	OFFSET ??_C@_09MCGBPECP@reconnect@
	call	_Cmd_AddCommand
	add	esp, 12					; 0000000cH

; 2688 : 
; 2689 : 	Cmd_AddCommand ("rcon", CL_Rcon_f, "sends a command to the server console (rcon_password and rcon_address required)" );

	push	OFFSET ??_C@_0FA@CJPAEKPF@sends?5a?5command?5to?5the?5server?5c@
	push	OFFSET _CL_Rcon_f
	push	OFFSET ??_C@_04CLKJCJJE@rcon@
	call	_Cmd_AddCommand
	add	esp, 12					; 0000000cH

; 2690 : }

	pop	edi
	pop	esi
	pop	ebx
	mov	esp, ebp
	pop	ebp
	ret	0
_CL_InitLocal ENDP
_TEXT	ENDS
; Function compile flags: /Odtp /ZI
; File D:\DevDragon\XashFE\dev\src\engine\client\cl_main.c
;	COMDAT _CL_Escape_f
_TEXT	SEGMENT
_CL_Escape_f PROC					; COMDAT

; 2554 : {

	push	ebp
	mov	ebp, esp
	sub	esp, 64					; 00000040H
	push	ebx
	push	esi
	push	edi

; 2555 : 	if( cls.key_dest == key_menu )

	cmp	DWORD PTR _cls+36, 2
	jne	SHORT $LN2@CL_Escape_

; 2556 : 		return;

	jmp	SHORT $LN1@CL_Escape_
$LN2@CL_Escape_:

; 2557 : 
; 2558 : 	// the final credits is running
; 2559 : 	if( UI_CreditsActive( )) return;

	call	_UI_CreditsActive
	test	eax, eax
	je	SHORT $LN3@CL_Escape_
	jmp	SHORT $LN1@CL_Escape_
$LN3@CL_Escape_:

; 2560 : 
; 2561 : 	if( cls.state == ca_cinematic )

	cmp	DWORD PTR _cls, 5
	jne	SHORT $LN4@CL_Escape_

; 2562 : 		SCR_NextMovie(); // jump to next movie

	call	_SCR_NextMovie
	jmp	SHORT $LN1@CL_Escape_
$LN4@CL_Escape_:

; 2563 : 	else UI_SetActiveMenu( true );

	push	1
	call	_UI_SetActiveMenu
	add	esp, 4
$LN1@CL_Escape_:

; 2564 : }

	pop	edi
	pop	esi
	pop	ebx
	mov	esp, ebp
	pop	ebp
	ret	0
_CL_Escape_f ENDP
_TEXT	ENDS
; Function compile flags: /Odtp /ZI
; File D:\DevDragon\XashFE\dev\src\engine\client\cl_main.c
;	COMDAT _CL_FullServerinfo_f
_TEXT	SEGMENT
_CL_FullServerinfo_f PROC				; COMDAT

; 2536 : {

	push	ebp
	mov	ebp, esp
	sub	esp, 64					; 00000040H
	push	ebx
	push	esi
	push	edi

; 2537 : 	if( Cmd_Argc() != 2 )

	call	_Cmd_Argc
	cmp	eax, 2
	je	SHORT $LN2@CL_FullSer

; 2538 : 	{
; 2539 : 		Con_Printf( S_USAGE "fullserverinfo <complete info string>\n" );

	push	OFFSET ??_C@_0CO@BDGNMEFL@Usage?3?5fullserverinfo?5?$DMcomplete@
	call	_Con_Printf
	add	esp, 4

; 2540 : 		return;

	jmp	SHORT $LN1@CL_FullSer
$LN2@CL_FullSer:

; 2541 : 	}
; 2542 : 
; 2543 : 	Q_strncpy( cl.serverinfo, Cmd_Argv( 1 ), sizeof( cl.serverinfo ));

	push	512					; 00000200H
	push	1
	call	_Cmd_Argv
	add	esp, 4
	push	eax
	push	OFFSET _cl+2167660
	call	_Q_strncpy
	add	esp, 12					; 0000000cH
$LN1@CL_FullSer:

; 2544 : }

	pop	edi
	pop	esi
	pop	ebx
	mov	esp, ebp
	pop	ebp
	ret	0
_CL_FullServerinfo_f ENDP
_TEXT	ENDS
; Function compile flags: /Odtp /ZI
; File D:\DevDragon\XashFE\dev\src\engine\client\cl_main.c
;	COMDAT _CL_Physinfo_f
_TEXT	SEGMENT
_CL_Physinfo_f PROC					; COMDAT

; 2381 : {

	push	ebp
	mov	ebp, esp
	sub	esp, 64					; 00000040H
	push	ebx
	push	esi
	push	edi

; 2382 : 	Con_Printf( "Phys info settings:\n" );

	push	OFFSET ??_C@_0BF@GODLHHLE@Phys?5info?5settings?3?6@
	call	_Con_Printf
	add	esp, 4

; 2383 : 	Info_Print( cls.physinfo );

	push	OFFSET _cls+10136
	call	_Info_Print
	add	esp, 4

; 2384 : 	Con_Printf( "Total %i symbols\n", Q_strlen( cls.physinfo ));

	push	OFFSET _cls+10136
	call	_Q_strlen
	add	esp, 4
	push	eax
	push	OFFSET ??_C@_0BC@KADBPMIN@Total?5?$CFi?5symbols?6@
	call	_Con_Printf
	add	esp, 8

; 2385 : }

	pop	edi
	pop	esi
	pop	ebx
	mov	esp, ebp
	pop	ebp
	ret	0
_CL_Physinfo_f ENDP
_TEXT	ENDS
; Function compile flags: /Odtp /ZI
; File D:\DevDragon\XashFE\dev\src\engine\client\cl_main.c
;	COMDAT _CL_SetInfo_f
_TEXT	SEGMENT
_var$ = -4						; size = 4
_CL_SetInfo_f PROC					; COMDAT

; 2341 : {

	push	ebp
	mov	ebp, esp
	sub	esp, 68					; 00000044H
	push	ebx
	push	esi
	push	edi

; 2342 : 	convar_t	*var;
; 2343 : 
; 2344 : 	if( Cmd_Argc() == 1 )

	call	_Cmd_Argc
	cmp	eax, 1
	jne	SHORT $LN2@CL_SetInfo

; 2345 : 	{
; 2346 : 		Con_Printf( "User info settings:\n" );

	push	OFFSET ??_C@_0BF@CNHFFNEA@User?5info?5settings?3?6@
	call	_Con_Printf
	add	esp, 4

; 2347 : 		Info_Print( cls.userinfo );

	push	OFFSET _cls+9880
	call	_Info_Print
	add	esp, 4

; 2348 : 		Con_Printf( "Total %i symbols\n", Q_strlen( cls.userinfo ));

	push	OFFSET _cls+9880
	call	_Q_strlen
	add	esp, 4
	push	eax
	push	OFFSET ??_C@_0BC@KADBPMIN@Total?5?$CFi?5symbols?6@
	call	_Con_Printf
	add	esp, 8

; 2349 : 		return;

	jmp	$LN1@CL_SetInfo
$LN2@CL_SetInfo:

; 2350 : 	}
; 2351 : 
; 2352 : 	if( Cmd_Argc() != 3 )

	call	_Cmd_Argc
	cmp	eax, 3
	je	SHORT $LN3@CL_SetInfo

; 2353 : 	{
; 2354 : 		Con_Printf( S_USAGE "setinfo [ <key> <value> ]\n" );

	push	OFFSET ??_C@_0CC@PIAKLNIH@Usage?3?5setinfo?5?$FL?5?$DMkey?$DO?5?$DMvalue?$DO?5@
	call	_Con_Printf
	add	esp, 4

; 2355 : 		return;

	jmp	SHORT $LN1@CL_SetInfo
$LN3@CL_SetInfo:

; 2356 : 	}
; 2357 : 
; 2358 : 	// NOTE: some userinfo comed from cvars, e.g. cl_lw but we can call "setinfo cl_lw 1"
; 2359 : 	// without real cvar changing. So we need to lookup for cvar first to make sure what
; 2360 : 	// our key is not linked with console variable
; 2361 : 	var = Cvar_FindVar( Cmd_Argv( 1 ));

	push	0
	push	1
	call	_Cmd_Argv
	add	esp, 4
	push	eax
	call	_Cvar_FindVarExt
	add	esp, 8
	mov	DWORD PTR _var$[ebp], eax

; 2362 : 
; 2363 : 	// make sure what cvar is existed and really part of userinfo
; 2364 : 	if( var && FBitSet( var->flags, FCVAR_USERINFO ))

	cmp	DWORD PTR _var$[ebp], 0
	je	SHORT $LN4@CL_SetInfo
	mov	eax, DWORD PTR _var$[ebp]
	mov	ecx, DWORD PTR [eax+8]
	and	ecx, 2
	je	SHORT $LN4@CL_SetInfo

; 2365 : 	{
; 2366 : 		Cvar_DirectSet( var, Cmd_Argv( 2 ));

	push	2
	call	_Cmd_Argv
	add	esp, 4
	push	eax
	mov	eax, DWORD PTR _var$[ebp]
	push	eax
	call	_Cvar_DirectSet
	add	esp, 8

; 2367 : 	}

	jmp	SHORT $LN1@CL_SetInfo
$LN4@CL_SetInfo:

; 2368 : 	else if( Info_SetValueForKey( cls.userinfo, Cmd_Argv( 1 ), Cmd_Argv( 2 ), MAX_INFO_STRING ))

	push	256					; 00000100H
	push	2
	call	_Cmd_Argv
	add	esp, 4
	push	eax
	push	1
	call	_Cmd_Argv
	add	esp, 4
	push	eax
	push	OFFSET _cls+9880
	call	_Info_SetValueForKey
	add	esp, 16					; 00000010H
	test	eax, eax
	je	SHORT $LN1@CL_SetInfo

; 2369 : 	{
; 2370 : 		// send update only on successfully changed userinfo
; 2371 : 		Cmd_ForwardToServer ();

	call	_Cmd_ForwardToServer
$LN1@CL_SetInfo:

; 2372 : 	}
; 2373 : }

	pop	edi
	pop	esi
	pop	ebx
	mov	esp, ebp
	pop	ebp
	ret	0
_CL_SetInfo_f ENDP
_TEXT	ENDS
; Function compile flags: /Odtp /ZI
; File D:\DevDragon\XashFE\dev\src\engine\client\cl_main.c
;	COMDAT _CL_RegisterCustomization
_TEXT	SEGMENT
_player$1 = -12						; size = 4
_pList$ = -8						; size = 4
_bFound$ = -4						; size = 4
_resource$ = 8						; size = 4
_CL_RegisterCustomization PROC				; COMDAT

; 2153 : {

	push	ebp
	mov	ebp, esp
	sub	esp, 76					; 0000004cH
	push	ebx
	push	esi
	push	edi

; 2154 : 	qboolean		bFound = false;

	mov	DWORD PTR _bFound$[ebp], 0

; 2155 : 	customization_t	*pList;
; 2156 : 
; 2157 : 	for( pList = cl.players[resource->playernum].customdata.pNext; pList; pList = pList->pNext )

	mov	eax, DWORD PTR _resource$[ebp]
	movzx	ecx, BYTE PTR [eax+93]
	imul	edx, ecx, 584
	mov	eax, DWORD PTR _cl[edx+2185504]
	mov	DWORD PTR _pList$[ebp], eax
	jmp	SHORT $LN4@CL_Registe
$LN2@CL_Registe:
	mov	eax, DWORD PTR _pList$[ebp]
	mov	ecx, DWORD PTR [eax+160]
	mov	DWORD PTR _pList$[ebp], ecx
$LN4@CL_Registe:
	cmp	DWORD PTR _pList$[ebp], 0
	je	SHORT $LN3@CL_Registe

; 2158 : 	{
; 2159 : 		if( !memcmp( pList->resource.rgucMD5_hash, resource->rgucMD5_hash, 16 ))

	push	16					; 00000010H
	mov	eax, DWORD PTR _resource$[ebp]
	add	eax, 77					; 0000004dH
	push	eax
	mov	ecx, DWORD PTR _pList$[ebp]
	add	ecx, 81					; 00000051H
	push	ecx
	call	_memcmp
	add	esp, 12					; 0000000cH
	test	eax, eax
	jne	SHORT $LN5@CL_Registe

; 2160 : 		{
; 2161 : 			bFound = true;

	mov	DWORD PTR _bFound$[ebp], 1

; 2162 : 			break;

	jmp	SHORT $LN3@CL_Registe
$LN5@CL_Registe:

; 2163 : 		}
; 2164 : 	}

	jmp	SHORT $LN2@CL_Registe
$LN3@CL_Registe:

; 2165 : 
; 2166 : 	if( !bFound )

	cmp	DWORD PTR _bFound$[ebp], 0
	jne	SHORT $LN6@CL_Registe

; 2167 : 	{
; 2168 : 		player_info_t	*player =  &cl.players[resource->playernum];

	mov	eax, DWORD PTR _resource$[ebp]
	movzx	ecx, BYTE PTR [eax+93]
	imul	edx, ecx, 584
	add	edx, OFFSET _cl+2184940
	mov	DWORD PTR _player$1[ebp], edx

; 2169 : 
; 2170 : 		if( !COM_CreateCustomization( &player->customdata, resource, resource->playernum, FCUST_FROMHPAK, NULL, NULL ))

	push	0
	push	0
	push	1
	mov	eax, DWORD PTR _resource$[ebp]
	movzx	ecx, BYTE PTR [eax+93]
	push	ecx
	mov	edx, DWORD PTR _resource$[ebp]
	push	edx
	mov	eax, DWORD PTR _player$1[ebp]
	add	eax, 404				; 00000194H
	push	eax
	call	_COM_CreateCustomization
	add	esp, 24					; 00000018H
	test	eax, eax
	jne	SHORT $LN8@CL_Registe

; 2171 : 			Con_Printf( "Unable to create custom decal for player %i\n", resource->playernum );

	mov	eax, DWORD PTR _resource$[ebp]
	movzx	ecx, BYTE PTR [eax+93]
	push	ecx
	push	OFFSET ??_C@_0CN@IBPOEPKJ@Unable?5to?5create?5custom?5decal?5f@
	call	_Con_Printf
	add	esp, 8
$LN8@CL_Registe:

; 2172 : 	}

	jmp	SHORT $LN1@CL_Registe
$LN6@CL_Registe:

; 2173 : 	else
; 2174 : 	{
; 2175 : 		Con_DPrintf( "Duplicate resource received and ignored.\n" );

	push	OFFSET ??_C@_0CK@FPPFLGNI@Duplicate?5resource?5received?5and@
	call	_Con_DPrintf
	add	esp, 4
$LN1@CL_Registe:

; 2176 : 	}
; 2177 : }

	pop	edi
	pop	esi
	pop	ebx
	mov	esp, ebp
	pop	ebp
	ret	0
_CL_RegisterCustomization ENDP
_TEXT	ENDS
; Function compile flags: /Odtp /ZI
; File D:\DevDragon\XashFE\dev\src\engine\client\cl_main.c
;	COMDAT _CL_CleanFileName
_TEXT	SEGMENT
_pfilename$ = -4					; size = 4
_filename$ = 8						; size = 4
_CL_CleanFileName PROC					; COMDAT

; 2136 : {

	push	ebp
	mov	ebp, esp
	sub	esp, 68					; 00000044H
	push	ebx
	push	esi
	push	edi

; 2137 : 	const char	*pfilename = filename;

	mov	eax, DWORD PTR _filename$[ebp]
	mov	DWORD PTR _pfilename$[ebp], eax

; 2138 : 
; 2139 : 	if( COM_CheckString( filename ) && filename[0] == '!' )

	mov	eax, DWORD PTR _filename$[ebp]
	push	eax
	call	_COM_CheckString
	add	esp, 4
	test	eax, eax
	je	SHORT $LN2@CL_CleanFi
	mov	eax, 1
	imul	ecx, eax, 0
	mov	edx, DWORD PTR _filename$[ebp]
	movsx	eax, BYTE PTR [edx+ecx]
	cmp	eax, 33					; 00000021H
	jne	SHORT $LN2@CL_CleanFi

; 2140 : 		pfilename = "customization";

	mov	DWORD PTR _pfilename$[ebp], OFFSET ??_C@_0O@FPFBHEJO@customization@
$LN2@CL_CleanFi:

; 2141 : 	return pfilename;

	mov	eax, DWORD PTR _pfilename$[ebp]

; 2142 : }

	pop	edi
	pop	esi
	pop	ebx
	mov	esp, ebp
	pop	ebp
	ret	0
_CL_CleanFileName ENDP
_TEXT	ENDS
; Function compile flags: /Odtp /ZI
; File D:\DevDragon\XashFE\dev\src\engine\client\cl_main.c
;	COMDAT _CL_ReadPackets
_TEXT	SEGMENT
tv74 = -80						; size = 8
_checktime$1 = -8					; size = 8
_CL_ReadPackets PROC					; COMDAT

; 2073 : {

	push	ebp
	mov	ebp, esp
	sub	esp, 80					; 00000050H
	push	ebx
	push	esi
	push	edi

; 2074 : 	// decide the simulation time
; 2075 : 	cl.oldtime = cl.time;

	movsd	xmm0, QWORD PTR _cl+2167640
	movsd	QWORD PTR _cl+2167648, xmm0

; 2076 : 
; 2077 : 	if( cls.demoplayback != DEMO_XASH3D && !cl.paused )

	cmp	DWORD PTR _cls+300828, 1
	je	SHORT $LN2@CL_ReadPac
	cmp	DWORD PTR _cl+24, 0
	jne	SHORT $LN2@CL_ReadPac

; 2078 : 		cl.time += host.frametime;

	movsd	xmm0, QWORD PTR _cl+2167640
	addsd	xmm0, QWORD PTR _host+1448
	movsd	QWORD PTR _cl+2167640, xmm0
$LN2@CL_ReadPac:

; 2079 : 
; 2080 : 	// demo time
; 2081 : 	if( cls.demorecording && !cls.demowaiting )

	cmp	DWORD PTR _cls+300824, 0
	je	SHORT $LN3@CL_ReadPac
	cmp	DWORD PTR _cls+300832, 0
	jne	SHORT $LN3@CL_ReadPac

; 2082 : 		cls.demotime += host.frametime;

	movsd	xmm0, QWORD PTR _cls+301096
	addsd	xmm0, QWORD PTR _host+1448
	movsd	QWORD PTR _cls+301096, xmm0
$LN3@CL_ReadPac:

; 2083 : 
; 2084 : 	CL_ReadNetMessage();

	call	_CL_ReadNetMessage

; 2085 : 
; 2086 : 	CL_ApplyAddAngle();

	call	_CL_ApplyAddAngle

; 2087 : #if 0
; 2088 : 	// keep cheat cvars are unchanged
; 2089 : 	if( cl.maxclients > 1 && cls.state == ca_active && !host_developer.value )
; 2090 : 		Cvar_SetCheatState();
; 2091 : #endif
; 2092 : 	// hot precache and downloading resources
; 2093 : 	if( cls.signon == SIGNONS && cl.lastresourcecheck < host.realtime )

	cmp	DWORD PTR _cls+64, 2
	jne	$LN4@CL_ReadPac
	movsd	xmm0, QWORD PTR _host+1440
	comisd	xmm0, QWORD PTR _cl+2203632
	jbe	SHORT $LN4@CL_ReadPac

; 2094 : 	{
; 2095 : 		double checktime = Host_IsLocalGame() ? 0.1 : 1.0;

	call	_Host_IsLocalGame
	test	eax, eax
	je	SHORT $LN11@CL_ReadPac
	movsd	xmm0, QWORD PTR __real@3fb999999999999a
	movsd	QWORD PTR tv74[ebp], xmm0
	jmp	SHORT $LN12@CL_ReadPac
$LN11@CL_ReadPac:
	movsd	xmm0, QWORD PTR __real@3ff0000000000000
	movsd	QWORD PTR tv74[ebp], xmm0
$LN12@CL_ReadPac:
	movsd	xmm0, QWORD PTR tv74[ebp]
	movsd	QWORD PTR _checktime$1[ebp], xmm0

; 2096 : 
; 2097 : 		if( !cls.dl.custom && cl.resourcesneeded.pNext != &cl.resourcesneeded )

	cmp	DWORD PTR _cls+296708, 0
	jne	SHORT $LN5@CL_ReadPac
	cmp	DWORD PTR _cl+3029680, OFFSET _cl+3029552
	je	SHORT $LN5@CL_ReadPac

; 2098 : 		{
; 2099 : 			// check resource for downloading and precache
; 2100 : 			CL_EstimateNeededResources();

	call	_CL_EstimateNeededResources

; 2101 : 			CL_BatchResourceRequest( false );

	push	0
	call	_CL_BatchResourceRequest
	add	esp, 4

; 2102 : 			cls.dl.custom = true;

	mov	DWORD PTR _cls+296708, 1
$LN5@CL_ReadPac:

; 2103 : 		}
; 2104 : 
; 2105 : 		cl.lastresourcecheck = host.realtime + checktime;

	movsd	xmm0, QWORD PTR _host+1440
	addsd	xmm0, QWORD PTR _checktime$1[ebp]
	movsd	QWORD PTR _cl+2203632, xmm0
$LN4@CL_ReadPac:

; 2106 : 	}
; 2107 : 
; 2108 : 	// singleplayer never has connection timeout
; 2109 : 	if( NET_IsLocalAddress( cls.netchan.remote_address ))

	sub	esp, 20					; 00000014H
	mov	eax, esp
	mov	ecx, DWORD PTR _cls+26804
	mov	DWORD PTR [eax], ecx
	mov	edx, DWORD PTR _cls+26808
	mov	DWORD PTR [eax+4], edx
	mov	ecx, DWORD PTR _cls+26812
	mov	DWORD PTR [eax+8], ecx
	mov	edx, DWORD PTR _cls+26816
	mov	DWORD PTR [eax+12], edx
	mov	ecx, DWORD PTR _cls+26820
	mov	DWORD PTR [eax+16], ecx
	call	_NET_IsLocalAddress
	add	esp, 20					; 00000014H
	test	eax, eax
	je	SHORT $LN6@CL_ReadPac

; 2110 : 		return;

	jmp	SHORT $LN9@CL_ReadPac
$LN6@CL_ReadPac:

; 2111 : 
; 2112 : 	// if in the debugger last frame, don't timeout
; 2113 : 	if( host.frametime > 5.0f ) cls.netchan.last_received = Sys_DoubleTime();

	movsd	xmm0, QWORD PTR _host+1448
	comisd	xmm0, QWORD PTR __real@4014000000000000
	jbe	SHORT $LN7@CL_ReadPac
	call	_Sys_DoubleTime
	fstp	QWORD PTR _cls+26832
$LN7@CL_ReadPac:

; 2114 :           
; 2115 : 	// check timeout
; 2116 : 	if( cls.state >= ca_connected && cls.state != ca_cinematic && !cls.demoplayback )

	cmp	DWORD PTR _cls, 2
	jl	SHORT $LN9@CL_ReadPac
	cmp	DWORD PTR _cls, 5
	je	SHORT $LN9@CL_ReadPac
	cmp	DWORD PTR _cls+300828, 0
	jne	SHORT $LN9@CL_ReadPac

; 2117 : 	{
; 2118 : 		if( host.realtime - cls.netchan.last_received > cl_timeout->value )

	movsd	xmm0, QWORD PTR _host+1440
	subsd	xmm0, QWORD PTR _cls+26832
	mov	eax, DWORD PTR _cl_timeout
	cvtss2sd xmm1, DWORD PTR [eax+12]
	comisd	xmm0, xmm1
	jbe	SHORT $LN9@CL_ReadPac

; 2119 : 		{
; 2120 : 			Con_Printf( "\nServer connection timed out.\n" );

	push	OFFSET ??_C@_0BP@CBAODGNF@?6Server?5connection?5timed?5out?4?6@
	call	_Con_Printf
	add	esp, 4

; 2121 : 			CL_Disconnect();

	call	_CL_Disconnect
$LN9@CL_ReadPac:

; 2122 : 			return;
; 2123 : 		}
; 2124 : 	}
; 2125 : 	
; 2126 : }

	pop	edi
	pop	esi
	pop	ebx
	mov	esp, ebp
	pop	ebp
	ret	0
_CL_ReadPackets ENDP
_TEXT	ENDS
; Function compile flags: /Odtp /ZI
; File D:\DevDragon\XashFE\dev\src\engine\client\cl_main.c
;	COMDAT _CL_ReadNetMessage
_TEXT	SEGMENT
_curSize$ = -4						; size = 4
_CL_ReadNetMessage PROC					; COMDAT

; 1998 : {

	push	ebp
	mov	ebp, esp
	sub	esp, 68					; 00000044H
	push	ebx
	push	esi
	push	edi
$LN2@CL_ReadNet:

; 1999 : 	size_t	curSize;
; 2000 : 
; 2001 : 	while( CL_GetMessage( net_message_buffer, &curSize ))

	lea	eax, DWORD PTR _curSize$[ebp]
	push	eax
	push	OFFSET _net_message_buffer
	call	_CL_GetMessage
	add	esp, 8
	test	eax, eax
	je	$LN3@CL_ReadNet

; 2002 : 	{
; 2003 : 		MSG_Init( &net_message, "ServerData", net_message_buffer, curSize );

	push	-1
	mov	eax, DWORD PTR _curSize$[ebp]
	push	eax
	push	OFFSET _net_message_buffer
	push	OFFSET ??_C@_0L@GIBDHCEL@ServerData@
	push	OFFSET _net_message
	call	_MSG_InitExt
	add	esp, 20					; 00000014H

; 2004 : 
; 2005 : 		// check for connectionless packet (0xffffffff) first
; 2006 : 		if( MSG_GetMaxBytes( &net_message ) >= 4 && *(int *)net_message.pData == -1 )

	push	OFFSET _net_message
	call	_MSG_GetMaxBytes
	add	esp, 4
	cmp	eax, 4
	jl	SHORT $LN4@CL_ReadNet
	mov	eax, DWORD PTR _net_message+8
	cmp	DWORD PTR [eax], -1
	jne	SHORT $LN4@CL_ReadNet

; 2007 : 		{
; 2008 : 			CL_ConnectionlessPacket( net_from, &net_message );

	push	OFFSET _net_message
	sub	esp, 20					; 00000014H
	mov	eax, esp
	mov	ecx, DWORD PTR _net_from
	mov	DWORD PTR [eax], ecx
	mov	edx, DWORD PTR _net_from+4
	mov	DWORD PTR [eax+4], edx
	mov	ecx, DWORD PTR _net_from+8
	mov	DWORD PTR [eax+8], ecx
	mov	edx, DWORD PTR _net_from+12
	mov	DWORD PTR [eax+12], edx
	mov	ecx, DWORD PTR _net_from+16
	mov	DWORD PTR [eax+16], ecx
	call	_CL_ConnectionlessPacket
	add	esp, 24					; 00000018H

; 2009 : 			continue;

	jmp	$LN2@CL_ReadNet
$LN4@CL_ReadNet:

; 2010 : 		}
; 2011 : 
; 2012 : 		// can't be a valid sequenced packet	
; 2013 : 		if( cls.state < ca_connected ) continue;

	cmp	DWORD PTR _cls, 2
	jge	SHORT $LN5@CL_ReadNet
	jmp	$LN2@CL_ReadNet
$LN5@CL_ReadNet:

; 2014 : 
; 2015 : 		if( !cls.demoplayback && MSG_GetMaxBytes( &net_message ) < 8 )

	cmp	DWORD PTR _cls+300828, 0
	jne	SHORT $LN6@CL_ReadNet
	push	OFFSET _net_message
	call	_MSG_GetMaxBytes
	add	esp, 4
	cmp	eax, 8
	jge	SHORT $LN6@CL_ReadNet

; 2016 : 		{
; 2017 : 			Con_Printf( S_WARN "CL_ReadPackets: %s:runt packet\n", NET_AdrToString( net_from ));

	sub	esp, 20					; 00000014H
	mov	eax, esp
	mov	ecx, DWORD PTR _net_from
	mov	DWORD PTR [eax], ecx
	mov	edx, DWORD PTR _net_from+4
	mov	DWORD PTR [eax+4], edx
	mov	ecx, DWORD PTR _net_from+8
	mov	DWORD PTR [eax+8], ecx
	mov	edx, DWORD PTR _net_from+12
	mov	DWORD PTR [eax+12], edx
	mov	ecx, DWORD PTR _net_from+16
	mov	DWORD PTR [eax+16], ecx
	call	_NET_AdrToString
	add	esp, 20					; 00000014H
	push	eax
	push	OFFSET ??_C@_0CN@GMBCANBL@?$FO3Warning?3?$FO7?5CL_ReadPackets?3?5?$CFs@
	call	_Con_Printf
	add	esp, 8

; 2018 : 			continue;

	jmp	$LN2@CL_ReadNet
$LN6@CL_ReadNet:

; 2019 : 		}
; 2020 : 
; 2021 : 		// packet from server
; 2022 : 		if( !cls.demoplayback && !NET_CompareAdr( net_from, cls.netchan.remote_address ))

	cmp	DWORD PTR _cls+300828, 0
	jne	$LN7@CL_ReadNet
	sub	esp, 20					; 00000014H
	mov	eax, esp
	mov	ecx, DWORD PTR _cls+26804
	mov	DWORD PTR [eax], ecx
	mov	edx, DWORD PTR _cls+26808
	mov	DWORD PTR [eax+4], edx
	mov	ecx, DWORD PTR _cls+26812
	mov	DWORD PTR [eax+8], ecx
	mov	edx, DWORD PTR _cls+26816
	mov	DWORD PTR [eax+12], edx
	mov	ecx, DWORD PTR _cls+26820
	mov	DWORD PTR [eax+16], ecx
	sub	esp, 20					; 00000014H
	mov	edx, esp
	mov	eax, DWORD PTR _net_from
	mov	DWORD PTR [edx], eax
	mov	ecx, DWORD PTR _net_from+4
	mov	DWORD PTR [edx+4], ecx
	mov	eax, DWORD PTR _net_from+8
	mov	DWORD PTR [edx+8], eax
	mov	ecx, DWORD PTR _net_from+12
	mov	DWORD PTR [edx+12], ecx
	mov	eax, DWORD PTR _net_from+16
	mov	DWORD PTR [edx+16], eax
	call	_NET_CompareAdr
	add	esp, 40					; 00000028H
	test	eax, eax
	jne	SHORT $LN7@CL_ReadNet

; 2023 : 		{
; 2024 : 			Con_DPrintf( S_ERROR "CL_ReadPackets: %s:sequenced packet without connection\n", NET_AdrToString( net_from ));

	sub	esp, 20					; 00000014H
	mov	eax, esp
	mov	ecx, DWORD PTR _net_from
	mov	DWORD PTR [eax], ecx
	mov	edx, DWORD PTR _net_from+4
	mov	DWORD PTR [eax+4], edx
	mov	ecx, DWORD PTR _net_from+8
	mov	DWORD PTR [eax+8], ecx
	mov	edx, DWORD PTR _net_from+12
	mov	DWORD PTR [eax+12], edx
	mov	ecx, DWORD PTR _net_from+16
	mov	DWORD PTR [eax+16], ecx
	call	_NET_AdrToString
	add	esp, 20					; 00000014H
	push	eax
	push	OFFSET ??_C@_0ED@FEECBHMH@?$FO1Error?3?$FO7?5CL_ReadPackets?3?5?$CFs?3s@
	call	_Con_DPrintf
	add	esp, 8

; 2025 : 			continue;

	jmp	$LN2@CL_ReadNet
$LN7@CL_ReadNet:

; 2026 : 		}
; 2027 : 
; 2028 : 		if( !cls.demoplayback && !Netchan_Process( &cls.netchan, &net_message ))

	cmp	DWORD PTR _cls+300828, 0
	jne	SHORT $LN8@CL_ReadNet
	push	OFFSET _net_message
	push	OFFSET _cls+26800
	call	_Netchan_Process
	add	esp, 8
	test	eax, eax
	jne	SHORT $LN8@CL_ReadNet

; 2029 : 			continue;	// wasn't accepted for some reason

	jmp	$LN2@CL_ReadNet
$LN8@CL_ReadNet:

; 2030 : 
; 2031 : 		// run special handler for quake demos
; 2032 : 		if( cls.demoplayback == DEMO_QUAKE1 )

	cmp	DWORD PTR _cls+300828, 2
	jne	SHORT $LN9@CL_ReadNet

; 2033 : 			CL_ParseQuakeMessage( &net_message, true );

	push	1
	push	OFFSET _net_message
	call	_CL_ParseQuakeMessage
	add	esp, 8
	jmp	SHORT $LN10@CL_ReadNet
$LN9@CL_ReadNet:

; 2034 : 		else CL_ParseServerMessage( &net_message, true );

	push	1
	push	OFFSET _net_message
	call	_CL_ParseServerMessage
	add	esp, 8
$LN10@CL_ReadNet:

; 2035 : 		cl.send_reply = true;

	mov	DWORD PTR _cl+60, 1

; 2036 : 	}

	jmp	$LN2@CL_ReadNet
$LN3@CL_ReadNet:

; 2037 : 
; 2038 : 	// build list of all solid entities per next frame (exclude clients)
; 2039 : 	CL_SetSolidEntities();

	call	_CL_SetSolidEntities

; 2040 : 
; 2041 : 	// check for fragmentation/reassembly related packets.
; 2042 : 	if( cls.state != ca_disconnected && Netchan_IncomingReady( &cls.netchan ))

	cmp	DWORD PTR _cls, 0
	je	SHORT $LN11@CL_ReadNet
	push	OFFSET _cls+26800
	call	_Netchan_IncomingReady
	add	esp, 4
	test	eax, eax
	je	SHORT $LN11@CL_ReadNet

; 2043 : 	{
; 2044 : 		// process the incoming buffer(s)
; 2045 : 		if( Netchan_CopyNormalFragments( &cls.netchan, &net_message, &curSize ))

	lea	eax, DWORD PTR _curSize$[ebp]
	push	eax
	push	OFFSET _net_message
	push	OFFSET _cls+26800
	call	_Netchan_CopyNormalFragments
	add	esp, 12					; 0000000cH
	test	eax, eax
	je	SHORT $LN12@CL_ReadNet

; 2046 : 		{
; 2047 : 			MSG_Init( &net_message, "ServerData", net_message_buffer, curSize );

	push	-1
	mov	eax, DWORD PTR _curSize$[ebp]
	push	eax
	push	OFFSET _net_message_buffer
	push	OFFSET ??_C@_0L@GIBDHCEL@ServerData@
	push	OFFSET _net_message
	call	_MSG_InitExt
	add	esp, 20					; 00000014H

; 2048 : 			CL_ParseServerMessage( &net_message, false );

	push	0
	push	OFFSET _net_message
	call	_CL_ParseServerMessage
	add	esp, 8
$LN12@CL_ReadNet:

; 2049 : 		}
; 2050 : 		
; 2051 : 		if( Netchan_CopyFileFragments( &cls.netchan, &net_message ))

	push	OFFSET _net_message
	push	OFFSET _cls+26800
	call	_Netchan_CopyFileFragments
	add	esp, 8
	test	eax, eax
	je	SHORT $LN11@CL_ReadNet

; 2052 : 		{
; 2053 : 			// remove from resource request stuff.
; 2054 : 			CL_ProcessFile( true, cls.netchan.incomingfilename );

	push	OFFSET _cls+289204
	push	1
	call	_CL_ProcessFile
	add	esp, 8
$LN11@CL_ReadNet:

; 2055 : 		}
; 2056 : 	}
; 2057 : 
; 2058 : 	Netchan_UpdateProgress( &cls.netchan );

	push	OFFSET _cls+26800
	call	_Netchan_UpdateProgress
	add	esp, 4

; 2059 : 
; 2060 : 	// check requests for time-expire
; 2061 : 	CL_ProcessNetRequests();

	call	_CL_ProcessNetRequests

; 2062 : }

	pop	edi
	pop	esi
	pop	ebx
	mov	esp, ebp
	pop	ebp
	ret	0
_CL_ReadNetMessage ENDP
_TEXT	ENDS
; Function compile flags: /Odtp /ZI
; File D:\DevDragon\XashFE\dev\src\engine\client\cl_main.c
;	COMDAT _CL_GetMessage
_TEXT	SEGMENT
_data$ = 8						; size = 4
_length$ = 12						; size = 4
_CL_GetMessage PROC					; COMDAT

; 1979 : {

	push	ebp
	mov	ebp, esp
	sub	esp, 64					; 00000040H
	push	ebx
	push	esi
	push	edi

; 1980 : 	if( cls.demoplayback )

	cmp	DWORD PTR _cls+300828, 0
	je	SHORT $LN2@CL_GetMess

; 1981 : 	{
; 1982 : 		if( CL_DemoReadMessage( data, length ))

	mov	eax, DWORD PTR _length$[ebp]
	push	eax
	mov	ecx, DWORD PTR _data$[ebp]
	push	ecx
	call	_CL_DemoReadMessage
	add	esp, 8
	test	eax, eax
	je	SHORT $LN3@CL_GetMess

; 1983 : 			return true;

	mov	eax, 1
	jmp	SHORT $LN1@CL_GetMess
$LN3@CL_GetMess:

; 1984 : 		return false;

	xor	eax, eax
	jmp	SHORT $LN1@CL_GetMess
$LN2@CL_GetMess:

; 1985 : 	}
; 1986 : 
; 1987 : 	if( NET_GetPacket( NS_CLIENT, &net_from, data, length ))

	mov	eax, DWORD PTR _length$[ebp]
	push	eax
	mov	ecx, DWORD PTR _data$[ebp]
	push	ecx
	push	OFFSET _net_from
	push	0
	call	_NET_GetPacket
	add	esp, 16					; 00000010H
	test	eax, eax
	je	SHORT $LN4@CL_GetMess

; 1988 : 		return true;

	mov	eax, 1
	jmp	SHORT $LN1@CL_GetMess
$LN4@CL_GetMess:

; 1989 : 	return false;

	xor	eax, eax
$LN1@CL_GetMess:

; 1990 : }

	pop	edi
	pop	esi
	pop	ebx
	mov	esp, ebp
	pop	ebp
	ret	0
_CL_GetMessage ENDP
_TEXT	ENDS
; Function compile flags: /Odtp /ZI
; File D:\DevDragon\XashFE\dev\src\engine\client\cl_main.c
;	COMDAT _CL_ConnectionlessPacket
_TEXT	SEGMENT
_list$1 = -66632					; size = 4
_nr$2 = -66628						; size = 4
_prev$3 = -66624					; size = 4
_list$4 = -66620					; size = 4
_nr$5 = -66616						; size = 4
_crcValue2$6 = -66612					; size = 4
_realsize$7 = -66608					; size = 4
_crcValue$8 = -66604					; size = 4
_recv_buf$9 = -66600					; size = 65536
_servadr$ = -1064					; size = 20
_dataoffset$ = -1044					; size = 4
_len$ = -1040						; size = 4
_buf$ = -1036						; size = 1024
_c$ = -12						; size = 4
_args$ = -8						; size = 4
__$ArrayPad$ = -4					; size = 4
_from$ = 8						; size = 20
_msg$ = 28						; size = 4
_CL_ConnectionlessPacket PROC				; COMDAT

; 1762 : {

	push	ebp
	mov	ebp, esp
	mov	eax, 67144				; 00010648H
	call	__chkstk
	mov	eax, DWORD PTR ___security_cookie
	xor	eax, ebp
	mov	DWORD PTR __$ArrayPad$[ebp], eax
	push	ebx
	push	esi
	push	edi

; 1763 : 	char	*args;
; 1764 : 	char	*c, buf[MAX_SYSPATH];
; 1765 : 	int	len = sizeof( buf );

	mov	DWORD PTR _len$[ebp], 1024		; 00000400H

; 1766 : 	int	dataoffset = 0;

	mov	DWORD PTR _dataoffset$[ebp], 0

; 1767 : 	netadr_t	servadr;
; 1768 : 	
; 1769 : 	MSG_Clear( msg );

	mov	eax, DWORD PTR _msg$[ebp]
	push	eax
	call	_MSG_Clear
	add	esp, 4

; 1770 : 	MSG_ReadLong( msg ); // skip the -1

	mov	eax, DWORD PTR _msg$[ebp]
	push	eax
	call	_MSG_ReadLong
	add	esp, 4

; 1771 : 
; 1772 : 	args = MSG_ReadStringLine( msg );

	push	1
	mov	eax, DWORD PTR _msg$[ebp]
	push	eax
	call	_MSG_ReadStringExt
	add	esp, 8
	mov	DWORD PTR _args$[ebp], eax

; 1773 : 
; 1774 : 	Cmd_TokenizeString( args );

	mov	eax, DWORD PTR _args$[ebp]
	push	eax
	call	_Cmd_TokenizeString
	add	esp, 4

; 1775 : 	c = Cmd_Argv( 0 );

	push	0
	call	_Cmd_Argv
	add	esp, 4
	mov	DWORD PTR _c$[ebp], eax

; 1776 : 
; 1777 : 	Con_Reportf( "CL_ConnectionlessPacket: %s : %s\n", NET_AdrToString( from ), c );

	mov	eax, DWORD PTR _c$[ebp]
	push	eax
	sub	esp, 20					; 00000014H
	mov	ecx, esp
	mov	edx, DWORD PTR _from$[ebp]
	mov	DWORD PTR [ecx], edx
	mov	eax, DWORD PTR _from$[ebp+4]
	mov	DWORD PTR [ecx+4], eax
	mov	edx, DWORD PTR _from$[ebp+8]
	mov	DWORD PTR [ecx+8], edx
	mov	eax, DWORD PTR _from$[ebp+12]
	mov	DWORD PTR [ecx+12], eax
	mov	edx, DWORD PTR _from$[ebp+16]
	mov	DWORD PTR [ecx+16], edx
	call	_NET_AdrToString
	add	esp, 20					; 00000014H
	push	eax
	push	OFFSET ??_C@_0CC@OJAMPIDI@CL_ConnectionlessPacket?3?5?$CFs?5?3?5?$CF@
	call	_Con_Reportf
	add	esp, 12					; 0000000cH

; 1778 : 
; 1779 : 	// server connection
; 1780 : 	if( !Q_strcmp( c, "client_connect" ))

	push	99999					; 0001869fH
	push	OFFSET ??_C@_0P@IOGHOCLL@client_connect@
	mov	eax, DWORD PTR _c$[ebp]
	push	eax
	call	_Q_strncmp
	add	esp, 12					; 0000000cH
	test	eax, eax
	jne	SHORT $LN6@CL_Connect

; 1781 : 	{
; 1782 : 		if( cls.state == ca_connected )

	cmp	DWORD PTR _cls, 2
	jne	SHORT $LN8@CL_Connect

; 1783 : 		{
; 1784 : 			Con_DPrintf( S_ERROR "dup connect received. ignored\n");

	push	OFFSET ??_C@_0CK@DICJNNNK@?$FO1Error?3?$FO7?5dup?5connect?5received@
	call	_Con_DPrintf
	add	esp, 4

; 1785 : 			return;

	jmp	$LN43@CL_Connect
$LN8@CL_Connect:

; 1786 : 		}
; 1787 : 
; 1788 : 		CL_Reconnect( true );

	push	1
	call	_CL_Reconnect
	add	esp, 4

; 1789 : 		UI_SetActiveMenu( cl.background );

	mov	eax, DWORD PTR _cl+64
	push	eax
	call	_UI_SetActiveMenu
	add	esp, 4

; 1790 : 	}

	jmp	$LN43@CL_Connect
$LN6@CL_Connect:

; 1791 : 	else if( !Q_strcmp( c, "info" ))

	push	99999					; 0001869fH
	push	OFFSET ??_C@_04NIDJFNBE@info@
	mov	eax, DWORD PTR _c$[ebp]
	push	eax
	call	_Q_strncmp
	add	esp, 12					; 0000000cH
	test	eax, eax
	jne	SHORT $LN9@CL_Connect

; 1792 : 	{
; 1793 : 		// server responding to a status broadcast
; 1794 : 		CL_ParseStatusMessage( from, msg );

	mov	eax, DWORD PTR _msg$[ebp]
	push	eax
	sub	esp, 20					; 00000014H
	mov	ecx, esp
	mov	edx, DWORD PTR _from$[ebp]
	mov	DWORD PTR [ecx], edx
	mov	eax, DWORD PTR _from$[ebp+4]
	mov	DWORD PTR [ecx+4], eax
	mov	edx, DWORD PTR _from$[ebp+8]
	mov	DWORD PTR [ecx+8], edx
	mov	eax, DWORD PTR _from$[ebp+12]
	mov	DWORD PTR [ecx+12], eax
	mov	edx, DWORD PTR _from$[ebp+16]
	mov	DWORD PTR [ecx+16], edx
	call	_CL_ParseStatusMessage
	add	esp, 24					; 00000018H

; 1795 : 	}

	jmp	$LN43@CL_Connect
$LN9@CL_Connect:

; 1796 : 	else if( !Q_strcmp( c, "netinfo" ))

	push	99999					; 0001869fH
	push	OFFSET ??_C@_07PHGFOLHM@netinfo@
	mov	eax, DWORD PTR _c$[ebp]
	push	eax
	call	_Q_strncmp
	add	esp, 12					; 0000000cH
	test	eax, eax
	jne	SHORT $LN11@CL_Connect

; 1797 : 	{
; 1798 : 		// server responding to a status broadcast
; 1799 : 		CL_ParseNETInfoMessage( from, msg, args );

	mov	eax, DWORD PTR _args$[ebp]
	push	eax
	mov	ecx, DWORD PTR _msg$[ebp]
	push	ecx
	sub	esp, 20					; 00000014H
	mov	edx, esp
	mov	eax, DWORD PTR _from$[ebp]
	mov	DWORD PTR [edx], eax
	mov	ecx, DWORD PTR _from$[ebp+4]
	mov	DWORD PTR [edx+4], ecx
	mov	eax, DWORD PTR _from$[ebp+8]
	mov	DWORD PTR [edx+8], eax
	mov	ecx, DWORD PTR _from$[ebp+12]
	mov	DWORD PTR [edx+12], ecx
	mov	eax, DWORD PTR _from$[ebp+16]
	mov	DWORD PTR [edx+16], eax
	call	_CL_ParseNETInfoMessage
	add	esp, 28					; 0000001cH

; 1800 : 	}

	jmp	$LN43@CL_Connect
$LN11@CL_Connect:

; 1801 : 	else if( !Q_strcmp( c, "cmd" ))

	push	99999					; 0001869fH
	push	OFFSET ??_C@_03LGLGIONO@cmd@
	mov	eax, DWORD PTR _c$[ebp]
	push	eax
	call	_Q_strncmp
	add	esp, 12					; 0000000cH
	test	eax, eax
	jne	$LN13@CL_Connect

; 1802 : 	{
; 1803 : 		// remote command from gui front end
; 1804 : 		if( !NET_IsLocalAddress( from ))

	sub	esp, 20					; 00000014H
	mov	eax, esp
	mov	ecx, DWORD PTR _from$[ebp]
	mov	DWORD PTR [eax], ecx
	mov	edx, DWORD PTR _from$[ebp+4]
	mov	DWORD PTR [eax+4], edx
	mov	ecx, DWORD PTR _from$[ebp+8]
	mov	DWORD PTR [eax+8], ecx
	mov	edx, DWORD PTR _from$[ebp+12]
	mov	DWORD PTR [eax+12], edx
	mov	ecx, DWORD PTR _from$[ebp+16]
	mov	DWORD PTR [eax+16], ecx
	call	_NET_IsLocalAddress
	add	esp, 20					; 00000014H
	test	eax, eax
	jne	SHORT $LN15@CL_Connect

; 1805 : 		{
; 1806 : 			Con_Printf( "Command packet from remote host. Ignored.\n" );

	push	OFFSET ??_C@_0CL@MOFOLJMP@Command?5packet?5from?5remote?5host@
	call	_Con_Printf
	add	esp, 4

; 1807 : 			return;

	jmp	$LN43@CL_Connect
$LN15@CL_Connect:

; 1808 : 		}
; 1809 : 
; 1810 : 		ShowWindow( host.hWnd, SW_RESTORE );

	push	9
	mov	eax, DWORD PTR _host+34332
	push	eax
	call	DWORD PTR __imp__ShowWindow@8

; 1811 : 		SetForegroundWindow ( host.hWnd );

	mov	eax, DWORD PTR _host+34332
	push	eax
	call	DWORD PTR __imp__SetForegroundWindow@4

; 1812 : 		args = MSG_ReadString( msg );

	push	0
	mov	eax, DWORD PTR _msg$[ebp]
	push	eax
	call	_MSG_ReadStringExt
	add	esp, 8
	mov	DWORD PTR _args$[ebp], eax

; 1813 : 		Cbuf_AddText( args );

	mov	eax, DWORD PTR _args$[ebp]
	push	eax
	call	_Cbuf_AddText
	add	esp, 4

; 1814 : 		Cbuf_AddText( "\n" );

	push	OFFSET ??_C@_01EEMJAFIK@?6@
	call	_Cbuf_AddText
	add	esp, 4

; 1815 : 	}

	jmp	$LN43@CL_Connect
$LN13@CL_Connect:

; 1816 : 	else if( !Q_strcmp( c, "print" ))

	push	99999					; 0001869fH
	push	OFFSET ??_C@_05IJDJACGD@print@
	mov	eax, DWORD PTR _c$[ebp]
	push	eax
	call	_Q_strncmp
	add	esp, 12					; 0000000cH
	test	eax, eax
	jne	SHORT $LN16@CL_Connect

; 1817 : 	{
; 1818 : 		// print command from somewhere
; 1819 : 		Con_Printf( "%s", MSG_ReadString( msg ));

	push	0
	mov	eax, DWORD PTR _msg$[ebp]
	push	eax
	call	_MSG_ReadStringExt
	add	esp, 8
	push	eax
	push	OFFSET ??_C@_02DKCKIIND@?$CFs@
	call	_Con_Printf
	add	esp, 8

; 1820 : 	}

	jmp	$LN43@CL_Connect
$LN16@CL_Connect:

; 1821 : 	else if( !Q_strcmp( c, "testpacket" ))

	push	99999					; 0001869fH
	push	OFFSET ??_C@_0L@BEEDAEFO@testpacket@
	mov	eax, DWORD PTR _c$[ebp]
	push	eax
	call	_Q_strncmp
	add	esp, 12					; 0000000cH
	test	eax, eax
	jne	$LN18@CL_Connect

; 1822 : 	{
; 1823 : 		byte	recv_buf[NET_MAX_FRAGMENT];
; 1824 : 		dword	crcValue = MSG_ReadLong( msg );

	mov	eax, DWORD PTR _msg$[ebp]
	push	eax
	call	_MSG_ReadLong
	add	esp, 4
	mov	DWORD PTR _crcValue$8[ebp], eax

; 1825 : 		int	realsize = MSG_GetMaxBytes( msg ) - MSG_GetNumBytesRead( msg );

	mov	eax, DWORD PTR _msg$[ebp]
	push	eax
	call	_MSG_GetMaxBytes
	add	esp, 4
	mov	esi, eax
	mov	ecx, DWORD PTR _msg$[ebp]
	push	ecx
	call	_MSG_GetNumBytesWritten
	add	esp, 4
	sub	esi, eax
	mov	DWORD PTR _realsize$7[ebp], esi

; 1826 : 		dword	crcValue2 = 0;

	mov	DWORD PTR _crcValue2$6[ebp], 0

; 1827 : 
; 1828 : 		if( cls.max_fragment_size != MSG_GetMaxBytes( msg ))

	mov	eax, DWORD PTR _msg$[ebp]
	push	eax
	call	_MSG_GetMaxBytes
	add	esp, 4
	cmp	DWORD PTR _cls+144, eax
	je	$LN20@CL_Connect

; 1829 : 		{
; 1830 : 			if( cls.connect_retry >= CL_TEST_RETRIES )

	cmp	DWORD PTR _cls+148, 5
	jl	SHORT $LN21@CL_Connect

; 1831 : 			{
; 1832 : 				// too many fails use default connection method
; 1833 : 				Con_Printf( "hi-speed connection is failed, use default method\n" );

	push	OFFSET ??_C@_0DD@MOPJJDLG@hi?9speed?5connection?5is?5failed?0?5@
	call	_Con_Printf
	add	esp, 4

; 1834 : 				Netchan_OutOfBandPrint( NS_CLIENT, from, "getchallenge\n" );

	push	OFFSET ??_C@_0O@BELBLLBG@getchallenge?6@
	sub	esp, 20					; 00000014H
	mov	eax, esp
	mov	ecx, DWORD PTR _from$[ebp]
	mov	DWORD PTR [eax], ecx
	mov	edx, DWORD PTR _from$[ebp+4]
	mov	DWORD PTR [eax+4], edx
	mov	ecx, DWORD PTR _from$[ebp+8]
	mov	DWORD PTR [eax+8], ecx
	mov	edx, DWORD PTR _from$[ebp+12]
	mov	DWORD PTR [eax+12], edx
	mov	ecx, DWORD PTR _from$[ebp+16]
	mov	DWORD PTR [eax+16], ecx
	push	0
	call	_Netchan_OutOfBandPrint
	add	esp, 28					; 0000001cH

; 1835 : 				Cvar_SetValue( "cl_dlmax", FRAGMENT_MIN_SIZE );

	push	ecx
	movss	xmm0, DWORD PTR __real@44960000
	movss	DWORD PTR [esp], xmm0
	push	OFFSET ??_C@_08IGNJNAKN@cl_dlmax@
	call	_Cvar_SetValue
	add	esp, 8

; 1836 : 				cls.connect_time = host.realtime;

	movsd	xmm0, QWORD PTR _host+1440
	movsd	QWORD PTR _cls+136, xmm0

; 1837 : 				return;

	jmp	$LN43@CL_Connect
$LN21@CL_Connect:

; 1838 : 			}
; 1839 : 
; 1840 : 			// if we waiting more than cl_timeout or packet was trashed
; 1841 : 			cls.connect_time = MAX_HEARTBEAT;

	movsd	xmm0, QWORD PTR __real@c0f869f000000000
	movsd	QWORD PTR _cls+136, xmm0

; 1842 : 			return; // just wait for a next responce

	jmp	$LN43@CL_Connect
$LN20@CL_Connect:

; 1843 : 		}
; 1844 : 
; 1845 : 		// reading test buffer
; 1846 : 		MSG_ReadBytes( msg, recv_buf, realsize );

	mov	eax, DWORD PTR _realsize$7[ebp]
	push	eax
	lea	ecx, DWORD PTR _recv_buf$9[ebp]
	push	ecx
	mov	edx, DWORD PTR _msg$[ebp]
	push	edx
	call	_MSG_ReadBytes
	add	esp, 12					; 0000000cH

; 1847 : 
; 1848 : 		// procssing the CRC
; 1849 : 		CRC32_ProcessBuffer( &crcValue2, recv_buf, realsize );

	mov	eax, DWORD PTR _realsize$7[ebp]
	push	eax
	lea	ecx, DWORD PTR _recv_buf$9[ebp]
	push	ecx
	lea	edx, DWORD PTR _crcValue2$6[ebp]
	push	edx
	call	_CRC32_ProcessBuffer
	add	esp, 12					; 0000000cH

; 1850 : 
; 1851 : 		if( crcValue == crcValue2 )

	mov	eax, DWORD PTR _crcValue$8[ebp]
	cmp	eax, DWORD PTR _crcValue2$6[ebp]
	jne	SHORT $LN22@CL_Connect

; 1852 : 		{
; 1853 : 			// packet was sucessfully delivered, adjust the fragment size and get challenge
; 1854 : 			Con_DPrintf( "CRC %p is matched, get challenge, fragment size %d\n", crcValue, cls.max_fragment_size );

	mov	eax, DWORD PTR _cls+144
	push	eax
	mov	ecx, DWORD PTR _crcValue$8[ebp]
	push	ecx
	push	OFFSET ??_C@_0DE@IFANHFOD@CRC?5?$CFp?5is?5matched?0?5get?5challeng@
	call	_Con_DPrintf
	add	esp, 12					; 0000000cH

; 1855 : 			Netchan_OutOfBandPrint( NS_CLIENT, from, "getchallenge\n" );

	push	OFFSET ??_C@_0O@BELBLLBG@getchallenge?6@
	sub	esp, 20					; 00000014H
	mov	eax, esp
	mov	ecx, DWORD PTR _from$[ebp]
	mov	DWORD PTR [eax], ecx
	mov	edx, DWORD PTR _from$[ebp+4]
	mov	DWORD PTR [eax+4], edx
	mov	ecx, DWORD PTR _from$[ebp+8]
	mov	DWORD PTR [eax+8], ecx
	mov	edx, DWORD PTR _from$[ebp+12]
	mov	DWORD PTR [eax+12], edx
	mov	ecx, DWORD PTR _from$[ebp+16]
	mov	DWORD PTR [eax+16], ecx
	push	0
	call	_Netchan_OutOfBandPrint
	add	esp, 28					; 0000001cH

; 1856 : 			Cvar_SetValue( "cl_dlmax", cls.max_fragment_size );

	cvtsi2ss xmm0, DWORD PTR _cls+144
	push	ecx
	movss	DWORD PTR [esp], xmm0
	push	OFFSET ??_C@_08IGNJNAKN@cl_dlmax@
	call	_Cvar_SetValue
	add	esp, 8

; 1857 : 			cls.connect_time = host.realtime;

	movsd	xmm0, QWORD PTR _host+1440
	movsd	QWORD PTR _cls+136, xmm0

; 1858 : 		}

	jmp	$LN23@CL_Connect
$LN22@CL_Connect:

; 1859 : 		else
; 1860 : 		{
; 1861 : 			if( cls.connect_retry >= CL_TEST_RETRIES )

	cmp	DWORD PTR _cls+148, 5
	jl	SHORT $LN24@CL_Connect

; 1862 : 			{
; 1863 : 				// too many fails use default connection method
; 1864 : 				Con_Printf( "hi-speed connection is failed, use default method\n" );

	push	OFFSET ??_C@_0DD@MOPJJDLG@hi?9speed?5connection?5is?5failed?0?5@
	call	_Con_Printf
	add	esp, 4

; 1865 : 				Netchan_OutOfBandPrint( NS_CLIENT, from, "getchallenge\n" );

	push	OFFSET ??_C@_0O@BELBLLBG@getchallenge?6@
	sub	esp, 20					; 00000014H
	mov	eax, esp
	mov	ecx, DWORD PTR _from$[ebp]
	mov	DWORD PTR [eax], ecx
	mov	edx, DWORD PTR _from$[ebp+4]
	mov	DWORD PTR [eax+4], edx
	mov	ecx, DWORD PTR _from$[ebp+8]
	mov	DWORD PTR [eax+8], ecx
	mov	edx, DWORD PTR _from$[ebp+12]
	mov	DWORD PTR [eax+12], edx
	mov	ecx, DWORD PTR _from$[ebp+16]
	mov	DWORD PTR [eax+16], ecx
	push	0
	call	_Netchan_OutOfBandPrint
	add	esp, 28					; 0000001cH

; 1866 : 				Cvar_SetValue( "cl_dlmax", FRAGMENT_MIN_SIZE );

	push	ecx
	movss	xmm0, DWORD PTR __real@44960000
	movss	DWORD PTR [esp], xmm0
	push	OFFSET ??_C@_08IGNJNAKN@cl_dlmax@
	call	_Cvar_SetValue
	add	esp, 8

; 1867 : 				cls.connect_time = host.realtime;

	movsd	xmm0, QWORD PTR _host+1440
	movsd	QWORD PTR _cls+136, xmm0

; 1868 : 				return;

	jmp	$LN43@CL_Connect
$LN24@CL_Connect:

; 1869 : 			}
; 1870 : 
; 1871 : 			// trying the next size of packet
; 1872 : 			cls.connect_time = MAX_HEARTBEAT;

	movsd	xmm0, QWORD PTR __real@c0f869f000000000
	movsd	QWORD PTR _cls+136, xmm0
$LN23@CL_Connect:

; 1873 : 		}
; 1874 : 	}

	jmp	$LN43@CL_Connect
$LN18@CL_Connect:

; 1875 : 	else if( !Q_strcmp( c, "ping" ))

	push	99999					; 0001869fH
	push	OFFSET ??_C@_04OONEELOO@ping@
	mov	eax, DWORD PTR _c$[ebp]
	push	eax
	call	_Q_strncmp
	add	esp, 12					; 0000000cH
	test	eax, eax
	jne	SHORT $LN25@CL_Connect

; 1876 : 	{
; 1877 : 		// ping from somewhere
; 1878 : 		Netchan_OutOfBandPrint( NS_CLIENT, from, "ack" );

	push	OFFSET ??_C@_03JBLJHHJA@ack@
	sub	esp, 20					; 00000014H
	mov	eax, esp
	mov	ecx, DWORD PTR _from$[ebp]
	mov	DWORD PTR [eax], ecx
	mov	edx, DWORD PTR _from$[ebp+4]
	mov	DWORD PTR [eax+4], edx
	mov	ecx, DWORD PTR _from$[ebp+8]
	mov	DWORD PTR [eax+8], ecx
	mov	edx, DWORD PTR _from$[ebp+12]
	mov	DWORD PTR [eax+12], edx
	mov	ecx, DWORD PTR _from$[ebp+16]
	mov	DWORD PTR [eax+16], ecx
	push	0
	call	_Netchan_OutOfBandPrint
	add	esp, 28					; 0000001cH

; 1879 : 	}

	jmp	$LN43@CL_Connect
$LN25@CL_Connect:

; 1880 : 	else if( !Q_strcmp( c, "challenge" ))

	push	99999					; 0001869fH
	push	OFFSET ??_C@_09DBEGHIJJ@challenge@
	mov	eax, DWORD PTR _c$[ebp]
	push	eax
	call	_Q_strncmp
	add	esp, 12					; 0000000cH
	test	eax, eax
	jne	SHORT $LN27@CL_Connect

; 1881 : 	{
; 1882 : 		// challenge from the server we are connecting to
; 1883 : 		cls.challenge = Q_atoi( Cmd_Argv( 1 ));

	push	1
	call	_Cmd_Argv
	add	esp, 4
	push	eax
	call	_Q_atoi
	add	esp, 4
	mov	DWORD PTR _cls+290568, eax

; 1884 : 		CL_SendConnectPacket();

	call	_CL_SendConnectPacket

; 1885 : 		return;

	jmp	$LN43@CL_Connect

; 1886 : 	}

	jmp	$LN43@CL_Connect
$LN27@CL_Connect:

; 1887 : 	else if( !Q_strcmp( c, "echo" ))

	push	99999					; 0001869fH
	push	OFFSET ??_C@_04OFDNEFMC@echo@
	mov	eax, DWORD PTR _c$[ebp]
	push	eax
	call	_Q_strncmp
	add	esp, 12					; 0000000cH
	test	eax, eax
	jne	SHORT $LN29@CL_Connect

; 1888 : 	{
; 1889 : 		// echo request from server
; 1890 : 		Netchan_OutOfBandPrint( NS_CLIENT, from, "%s", Cmd_Argv( 1 ));

	push	1
	call	_Cmd_Argv
	add	esp, 4
	push	eax
	push	OFFSET ??_C@_02DKCKIIND@?$CFs@
	sub	esp, 20					; 00000014H
	mov	eax, esp
	mov	ecx, DWORD PTR _from$[ebp]
	mov	DWORD PTR [eax], ecx
	mov	edx, DWORD PTR _from$[ebp+4]
	mov	DWORD PTR [eax+4], edx
	mov	ecx, DWORD PTR _from$[ebp+8]
	mov	DWORD PTR [eax+8], ecx
	mov	edx, DWORD PTR _from$[ebp+12]
	mov	DWORD PTR [eax+12], edx
	mov	ecx, DWORD PTR _from$[ebp+16]
	mov	DWORD PTR [eax+16], ecx
	push	0
	call	_Netchan_OutOfBandPrint
	add	esp, 32					; 00000020H

; 1891 : 	}

	jmp	$LN43@CL_Connect
$LN29@CL_Connect:

; 1892 : 	else if( !Q_strcmp( c, "disconnect" ))

	push	99999					; 0001869fH
	push	OFFSET ??_C@_0L@KKPFIJOL@disconnect@
	mov	eax, DWORD PTR _c$[ebp]
	push	eax
	call	_Q_strncmp
	add	esp, 12					; 0000000cH
	test	eax, eax
	jne	SHORT $LN31@CL_Connect

; 1893 : 	{
; 1894 : 		// a disconnect message from the server, which will happen if the server
; 1895 : 		// dropped the connection but it is still getting packets from us
; 1896 : 		CL_Disconnect_f();

	call	_CL_Disconnect_f

; 1897 : 	}

	jmp	$LN43@CL_Connect
$LN31@CL_Connect:

; 1898 : 	else if( !Q_strcmp( c, "f" ))

	push	99999					; 0001869fH
	push	OFFSET ??_C@_01INIBCBCB@f@
	mov	eax, DWORD PTR _c$[ebp]
	push	eax
	call	_Q_strncmp
	add	esp, 12					; 0000000cH
	test	eax, eax
	jne	$LN33@CL_Connect
$LN2@CL_Connect:

; 1899 : 	{
; 1900 : 		// serverlist got from masterserver
; 1901 : 		while( MSG_GetNumBitsLeft( msg ) > 8 )

	mov	eax, DWORD PTR _msg$[ebp]
	push	eax
	call	_MSG_GetNumBitsLeft
	add	esp, 4
	cmp	eax, 8
	jle	$LN3@CL_Connect

; 1902 : 		{
; 1903 : 			MSG_ReadBytes( msg, servadr.ip, sizeof( servadr.ip ));	// 4 bytes for IP

	push	4
	lea	eax, DWORD PTR _servadr$[ebp+4]
	push	eax
	mov	ecx, DWORD PTR _msg$[ebp]
	push	ecx
	call	_MSG_ReadBytes
	add	esp, 12					; 0000000cH

; 1904 : 			servadr.port = MSG_ReadShort( msg );			// 2 bytes for Port

	mov	eax, DWORD PTR _msg$[ebp]
	push	eax
	call	_MSG_ReadShort
	add	esp, 4
	mov	WORD PTR _servadr$[ebp+18], ax

; 1905 : 			servadr.type = NA_IP;

	mov	DWORD PTR _servadr$[ebp], 3

; 1906 : 
; 1907 : 			// list is ends here
; 1908 : 			if( !servadr.port )

	movzx	eax, WORD PTR _servadr$[ebp+18]
	test	eax, eax
	jne	$LN35@CL_Connect

; 1909 : 			{
; 1910 : 				if( clgame.request_type == NET_REQUEST_CLIENT && clgame.master_request != NULL )

	cmp	DWORD PTR _clgame+255296, 2
	jne	$LN36@CL_Connect
	cmp	DWORD PTR _clgame+260424, 0
	je	$LN36@CL_Connect

; 1911 : 				{
; 1912 : 					net_request_t	*nr = clgame.master_request;

	mov	eax, DWORD PTR _clgame+260424
	mov	DWORD PTR _nr$5[ebp], eax

; 1913 : 					net_adrlist_t	*list, **prev;
; 1914 : 
; 1915 : 					// setup the answer
; 1916 : 					nr->resp.remote_address = from;

	mov	eax, DWORD PTR _nr$5[ebp]
	add	eax, 12					; 0000000cH
	mov	ecx, DWORD PTR _from$[ebp]
	mov	DWORD PTR [eax], ecx
	mov	edx, DWORD PTR _from$[ebp+4]
	mov	DWORD PTR [eax+4], edx
	mov	ecx, DWORD PTR _from$[ebp+8]
	mov	DWORD PTR [eax+8], ecx
	mov	edx, DWORD PTR _from$[ebp+12]
	mov	DWORD PTR [eax+12], edx
	mov	ecx, DWORD PTR _from$[ebp+16]
	mov	DWORD PTR [eax+16], ecx

; 1917 : 					nr->resp.error = NET_SUCCESS;

	mov	eax, DWORD PTR _nr$5[ebp]
	mov	DWORD PTR [eax], 0

; 1918 : 					nr->resp.ping = host.realtime - nr->timesend;

	mov	eax, DWORD PTR _nr$5[ebp]
	movsd	xmm0, QWORD PTR _host+1440
	subsd	xmm0, QWORD PTR [eax+64]
	mov	ecx, DWORD PTR _nr$5[ebp]
	movsd	QWORD PTR [ecx+32], xmm0

; 1919 : 
; 1920 : 					if( nr->timeout <= host.realtime )

	mov	eax, DWORD PTR _nr$5[ebp]
	movsd	xmm0, QWORD PTR _host+1440
	comisd	xmm0, QWORD PTR [eax+56]
	jb	SHORT $LN37@CL_Connect

; 1921 : 						SetBits( nr->resp.error, NET_ERROR_TIMEOUT );

	mov	eax, DWORD PTR _nr$5[ebp]
	mov	ecx, DWORD PTR [eax]
	or	ecx, 1
	mov	edx, DWORD PTR _nr$5[ebp]
	mov	DWORD PTR [edx], ecx
$LN37@CL_Connect:

; 1922 : 
; 1923 : 					Con_Printf( "serverlist call: %s\n", NET_AdrToString( from ));

	sub	esp, 20					; 00000014H
	mov	eax, esp
	mov	ecx, DWORD PTR _from$[ebp]
	mov	DWORD PTR [eax], ecx
	mov	edx, DWORD PTR _from$[ebp+4]
	mov	DWORD PTR [eax+4], edx
	mov	ecx, DWORD PTR _from$[ebp+8]
	mov	DWORD PTR [eax+8], ecx
	mov	edx, DWORD PTR _from$[ebp+12]
	mov	DWORD PTR [eax+12], edx
	mov	ecx, DWORD PTR _from$[ebp+16]
	mov	DWORD PTR [eax+16], ecx
	call	_NET_AdrToString
	add	esp, 20					; 00000014H
	push	eax
	push	OFFSET ??_C@_0BF@JLOFCKGL@serverlist?5call?3?5?$CFs?6@
	call	_Con_Printf
	add	esp, 8

; 1924 : 					nr->pfnFunc( &nr->resp );

	mov	eax, DWORD PTR _nr$5[ebp]
	push	eax
	mov	ecx, DWORD PTR _nr$5[ebp]
	mov	edx, DWORD PTR [ecx+48]
	call	edx
	add	esp, 4

; 1925 : 
; 1926 : 					// throw the list, now it will be stored in user area
; 1927 : 					prev = &((net_adrlist_t *)nr->resp.response);

	mov	eax, DWORD PTR _nr$5[ebp]
	add	eax, 40					; 00000028H
	mov	DWORD PTR _prev$3[ebp], eax
$LN4@CL_Connect:

; 1928 : 
; 1929 : 					while( 1 )

	mov	eax, 1
	test	eax, eax
	je	SHORT $LN5@CL_Connect

; 1930 : 					{
; 1931 : 						list = *prev;

	mov	eax, DWORD PTR _prev$3[ebp]
	mov	ecx, DWORD PTR [eax]
	mov	DWORD PTR _list$4[ebp], ecx

; 1932 : 						if( !list ) break;

	cmp	DWORD PTR _list$4[ebp], 0
	jne	SHORT $LN38@CL_Connect
	jmp	SHORT $LN5@CL_Connect
$LN38@CL_Connect:

; 1933 : 
; 1934 : 						// throw out any variables the game created
; 1935 : 						*prev = list->next;

	mov	eax, DWORD PTR _prev$3[ebp]
	mov	ecx, DWORD PTR _list$4[ebp]
	mov	edx, DWORD PTR [ecx]
	mov	DWORD PTR [eax], edx

; 1936 : 						Mem_Free( list );

	mov	eax, DWORD PTR ?__LINE__Var@?0??CL_ConnectionlessPacket@@9@9
	add	eax, 174				; 000000aeH
	push	eax
	push	OFFSET ??_C@_0DE@KLFELIEG@D?3?2DevDragon?2XashFE?2dev?2src?2eng@
	mov	ecx, DWORD PTR _list$4[ebp]
	push	ecx
	call	__Mem_Free
	add	esp, 12					; 0000000cH

; 1937 : 					}

	jmp	SHORT $LN4@CL_Connect
$LN5@CL_Connect:

; 1938 : 					memset( nr, 0, sizeof( *nr )); // done

	push	80					; 00000050H
	push	0
	mov	eax, DWORD PTR _nr$5[ebp]
	push	eax
	call	_memset
	add	esp, 12					; 0000000cH

; 1939 : 					clgame.request_type = NET_REQUEST_CANCEL;

	mov	DWORD PTR _clgame+255296, 0

; 1940 : 					clgame.master_request = NULL;

	mov	DWORD PTR _clgame+260424, 0
$LN36@CL_Connect:

; 1941 : 				}
; 1942 : 				break;

	jmp	$LN3@CL_Connect
$LN35@CL_Connect:

; 1943 : 			}
; 1944 : 
; 1945 : 			if( clgame.request_type == NET_REQUEST_CLIENT && clgame.master_request != NULL )

	cmp	DWORD PTR _clgame+255296, 2
	jne	$LN39@CL_Connect
	cmp	DWORD PTR _clgame+260424, 0
	je	$LN39@CL_Connect

; 1946 : 			{
; 1947 : 				net_request_t	*nr = clgame.master_request;

	mov	eax, DWORD PTR _clgame+260424
	mov	DWORD PTR _nr$2[ebp], eax

; 1948 : 				net_adrlist_t	*list;
; 1949 : 
; 1950 : 				// adding addresses into list
; 1951 : 				list = Z_Malloc( sizeof( *list ));

	mov	eax, DWORD PTR ?__LINE__Var@?0??CL_ConnectionlessPacket@@9@9
	add	eax, 189				; 000000bdH
	push	eax
	push	OFFSET ??_C@_0DE@KLFELIEG@D?3?2DevDragon?2XashFE?2dev?2src?2eng@
	push	0
	push	24					; 00000018H
	mov	ecx, DWORD PTR _host+236
	push	ecx
	call	__Mem_Alloc
	add	esp, 20					; 00000014H
	mov	DWORD PTR _list$1[ebp], eax

; 1952 : 				list->remote_address = servadr;

	mov	eax, DWORD PTR _list$1[ebp]
	add	eax, 4
	mov	ecx, DWORD PTR _servadr$[ebp]
	mov	DWORD PTR [eax], ecx
	mov	edx, DWORD PTR _servadr$[ebp+4]
	mov	DWORD PTR [eax+4], edx
	mov	ecx, DWORD PTR _servadr$[ebp+8]
	mov	DWORD PTR [eax+8], ecx
	mov	edx, DWORD PTR _servadr$[ebp+12]
	mov	DWORD PTR [eax+12], edx
	mov	ecx, DWORD PTR _servadr$[ebp+16]
	mov	DWORD PTR [eax+16], ecx

; 1953 : 				list->next = nr->resp.response;

	mov	eax, DWORD PTR _list$1[ebp]
	mov	ecx, DWORD PTR _nr$2[ebp]
	mov	edx, DWORD PTR [ecx+40]
	mov	DWORD PTR [eax], edx

; 1954 : 				nr->resp.response = list;

	mov	eax, DWORD PTR _nr$2[ebp]
	mov	ecx, DWORD PTR _list$1[ebp]
	mov	DWORD PTR [eax+40], ecx

; 1955 : 			}

	jmp	SHORT $LN41@CL_Connect
$LN39@CL_Connect:

; 1956 : 			else if( clgame.request_type == NET_REQUEST_GAMEUI )

	cmp	DWORD PTR _clgame+255296, 1
	jne	SHORT $LN41@CL_Connect

; 1957 : 			{
; 1958 : 				NET_Config( true ); // allow remote

	push	1
	call	_NET_Config
	add	esp, 4

; 1959 : 				Netchan_OutOfBandPrint( NS_CLIENT, servadr, "info %i", PROTOCOL_VERSION );

	push	49					; 00000031H
	push	OFFSET ??_C@_07GBLEFLLO@info?5?$CFi@
	sub	esp, 20					; 00000014H
	mov	eax, esp
	mov	ecx, DWORD PTR _servadr$[ebp]
	mov	DWORD PTR [eax], ecx
	mov	edx, DWORD PTR _servadr$[ebp+4]
	mov	DWORD PTR [eax+4], edx
	mov	ecx, DWORD PTR _servadr$[ebp+8]
	mov	DWORD PTR [eax+8], ecx
	mov	edx, DWORD PTR _servadr$[ebp+12]
	mov	DWORD PTR [eax+12], edx
	mov	ecx, DWORD PTR _servadr$[ebp+16]
	mov	DWORD PTR [eax+16], ecx
	push	0
	call	_Netchan_OutOfBandPrint
	add	esp, 32					; 00000020H
$LN41@CL_Connect:

; 1960 : 			}
; 1961 : 		}

	jmp	$LN2@CL_Connect
$LN3@CL_Connect:

; 1962 : 	}

	jmp	$LN43@CL_Connect
$LN33@CL_Connect:

; 1963 : 	else if( clgame.dllFuncs.pfnConnectionlessPacket( &from, args, buf, &len ))

	lea	eax, DWORD PTR _len$[ebp]
	push	eax
	lea	ecx, DWORD PTR _buf$[ebp]
	push	ecx
	mov	edx, DWORD PTR _args$[ebp]
	push	edx
	lea	eax, DWORD PTR _from$[ebp]
	push	eax
	call	DWORD PTR _clgame+128
	add	esp, 16					; 00000010H
	test	eax, eax
	je	SHORT $LN42@CL_Connect

; 1964 : 	{
; 1965 : 		// user out of band message (must be handled in CL_ConnectionlessPacket)
; 1966 : 		if( len > 0 ) Netchan_OutOfBand( NS_SERVER, from, len, buf );

	cmp	DWORD PTR _len$[ebp], 0
	jle	SHORT $LN44@CL_Connect
	lea	eax, DWORD PTR _buf$[ebp]
	push	eax
	mov	ecx, DWORD PTR _len$[ebp]
	push	ecx
	sub	esp, 20					; 00000014H
	mov	edx, esp
	mov	eax, DWORD PTR _from$[ebp]
	mov	DWORD PTR [edx], eax
	mov	ecx, DWORD PTR _from$[ebp+4]
	mov	DWORD PTR [edx+4], ecx
	mov	eax, DWORD PTR _from$[ebp+8]
	mov	DWORD PTR [edx+8], eax
	mov	ecx, DWORD PTR _from$[ebp+12]
	mov	DWORD PTR [edx+12], ecx
	mov	eax, DWORD PTR _from$[ebp+16]
	mov	DWORD PTR [edx+16], eax
	push	1
	call	_Netchan_OutOfBand
	add	esp, 32					; 00000020H
$LN44@CL_Connect:

; 1967 : 	}

	jmp	SHORT $LN43@CL_Connect
$LN42@CL_Connect:

; 1968 : 	else Con_DPrintf( S_ERROR "bad connectionless packet from %s:\n%s\n", NET_AdrToString( from ), args );

	mov	eax, DWORD PTR _args$[ebp]
	push	eax
	sub	esp, 20					; 00000014H
	mov	ecx, esp
	mov	edx, DWORD PTR _from$[ebp]
	mov	DWORD PTR [ecx], edx
	mov	eax, DWORD PTR _from$[ebp+4]
	mov	DWORD PTR [ecx+4], eax
	mov	edx, DWORD PTR _from$[ebp+8]
	mov	DWORD PTR [ecx+8], edx
	mov	eax, DWORD PTR _from$[ebp+12]
	mov	DWORD PTR [ecx+12], eax
	mov	edx, DWORD PTR _from$[ebp+16]
	mov	DWORD PTR [ecx+16], edx
	call	_NET_AdrToString
	add	esp, 20					; 00000014H
	push	eax
	push	OFFSET ??_C@_0DC@KKDBOFAL@?$FO1Error?3?$FO7?5bad?5connectionless?5p@
	call	_Con_DPrintf
	add	esp, 12					; 0000000cH
$LN43@CL_Connect:

; 1969 : }

	pop	edi
	pop	esi
	pop	ebx
	mov	ecx, DWORD PTR __$ArrayPad$[ebp]
	xor	ecx, ebp
	call	@__security_check_cookie@4
	mov	esp, ebp
	pop	ebp
	ret	0
_CL_ConnectionlessPacket ENDP
_TEXT	ENDS
; Function compile flags: /Odtp /ZI
; File D:\DevDragon\XashFE\dev\src\engine\client\cl_main.c
;	COMDAT _CL_ProcessNetRequests
_TEXT	SEGMENT
_i$ = -8						; size = 4
_nr$ = -4						; size = 4
_CL_ProcessNetRequests PROC				; COMDAT

; 1693 : {

	push	ebp
	mov	ebp, esp
	sub	esp, 72					; 00000048H
	push	ebx
	push	esi
	push	edi

; 1694 : 	net_request_t	*nr;
; 1695 : 	int		i;
; 1696 : 
; 1697 : 	// find a request with specified context
; 1698 : 	for( i = 0; i < MAX_REQUESTS; i++ )

	mov	DWORD PTR _i$[ebp], 0
	jmp	SHORT $LN4@CL_Process
$LN2@CL_Process:
	mov	eax, DWORD PTR _i$[ebp]
	add	eax, 1
	mov	DWORD PTR _i$[ebp], eax
$LN4@CL_Process:
	cmp	DWORD PTR _i$[ebp], 64			; 00000040H
	jge	SHORT $LN3@CL_Process

; 1699 : 	{
; 1700 : 		nr = &clgame.net_requests[i];

	imul	eax, DWORD PTR _i$[ebp], 80
	add	eax, OFFSET _clgame+255304
	mov	DWORD PTR _nr$[ebp], eax

; 1701 : 		if( !nr->pfnFunc ) continue;	// not used

	mov	eax, DWORD PTR _nr$[ebp]
	cmp	DWORD PTR [eax+48], 0
	jne	SHORT $LN5@CL_Process
	jmp	SHORT $LN2@CL_Process
$LN5@CL_Process:

; 1702 : 
; 1703 : 		if( nr->timeout <= host.realtime )

	mov	eax, DWORD PTR _nr$[ebp]
	movsd	xmm0, QWORD PTR _host+1440
	comisd	xmm0, QWORD PTR [eax+56]
	jb	SHORT $LN6@CL_Process

; 1704 : 		{
; 1705 : 			// setup the answer
; 1706 : 			SetBits( nr->resp.error, NET_ERROR_TIMEOUT );

	mov	eax, DWORD PTR _nr$[ebp]
	mov	ecx, DWORD PTR [eax]
	or	ecx, 1
	mov	edx, DWORD PTR _nr$[ebp]
	mov	DWORD PTR [edx], ecx

; 1707 : 			nr->resp.ping = host.realtime - nr->timesend;

	mov	eax, DWORD PTR _nr$[ebp]
	movsd	xmm0, QWORD PTR _host+1440
	subsd	xmm0, QWORD PTR [eax+64]
	mov	ecx, DWORD PTR _nr$[ebp]
	movsd	QWORD PTR [ecx+32], xmm0

; 1708 : 
; 1709 : 			nr->pfnFunc( &nr->resp );

	mov	eax, DWORD PTR _nr$[ebp]
	push	eax
	mov	ecx, DWORD PTR _nr$[ebp]
	mov	edx, DWORD PTR [ecx+48]
	call	edx
	add	esp, 4

; 1710 : 			memset( nr, 0, sizeof( *nr )); // done

	push	80					; 00000050H
	push	0
	mov	eax, DWORD PTR _nr$[ebp]
	push	eax
	call	_memset
	add	esp, 12					; 0000000cH
$LN6@CL_Process:

; 1711 : 		}
; 1712 : 	}

	jmp	SHORT $LN2@CL_Process
$LN3@CL_Process:

; 1713 : }

	pop	edi
	pop	esi
	pop	ebx
	mov	esp, ebp
	pop	ebp
	ret	0
_CL_ProcessNetRequests ENDP
_TEXT	ENDS
; Function compile flags: /Odtp /ZI
; File D:\DevDragon\XashFE\dev\src\engine\client\cl_main.c
;	COMDAT _CL_ParseNETInfoMessage
_TEXT	SEGMENT
_val$ = -24						; size = 4
_errorBits$ = -20					; size = 4
_type$ = -16						; size = 4
_context$ = -12						; size = 4
_i$ = -8						; size = 4
_nr$ = -4						; size = 4
_from$ = 8						; size = 20
_msg$ = 28						; size = 4
_s$ = 32						; size = 4
_CL_ParseNETInfoMessage PROC				; COMDAT

; 1638 : {

	push	ebp
	mov	ebp, esp
	sub	esp, 88					; 00000058H
	push	ebx
	push	esi
	push	edi

; 1639 : 	net_request_t	*nr;
; 1640 : 	static char	infostring[MAX_INFO_STRING+8];
; 1641 : 	int		i, context, type;
; 1642 : 	int		errorBits = 0;

	mov	DWORD PTR _errorBits$[ebp], 0

; 1643 : 	char		*val;
; 1644 : 
; 1645 : 	context = Q_atoi( Cmd_Argv( 1 ));

	push	1
	call	_Cmd_Argv
	add	esp, 4
	push	eax
	call	_Q_atoi
	add	esp, 4
	mov	DWORD PTR _context$[ebp], eax

; 1646 : 	type = Q_atoi( Cmd_Argv( 2 ));

	push	2
	call	_Cmd_Argv
	add	esp, 4
	push	eax
	call	_Q_atoi
	add	esp, 4
	mov	DWORD PTR _type$[ebp], eax
$LN2@CL_ParseNE:

; 1647 : 	while( *s != '\\' ) s++; // fetching infostring

	mov	eax, DWORD PTR _s$[ebp]
	movsx	ecx, BYTE PTR [eax]
	cmp	ecx, 92					; 0000005cH
	je	SHORT $LN3@CL_ParseNE
	mov	eax, DWORD PTR _s$[ebp]
	add	eax, 1
	mov	DWORD PTR _s$[ebp], eax
	jmp	SHORT $LN2@CL_ParseNE
$LN3@CL_ParseNE:

; 1648 : 
; 1649 : 	// check for errors
; 1650 : 	val = Info_ValueForKey( s, "neterror" );

	push	OFFSET ??_C@_08EJOEDJLI@neterror@
	mov	eax, DWORD PTR _s$[ebp]
	push	eax
	call	_Info_ValueForKey
	add	esp, 8
	mov	DWORD PTR _val$[ebp], eax

; 1651 : 
; 1652 : 	if( !Q_stricmp( val, "protocol" ))

	push	99999					; 0001869fH
	push	OFFSET ??_C@_08FCFPNNHF@protocol@
	mov	eax, DWORD PTR _val$[ebp]
	push	eax
	call	_Q_strnicmp
	add	esp, 12					; 0000000cH
	test	eax, eax
	jne	SHORT $LN7@CL_ParseNE

; 1653 : 		SetBits( errorBits, NET_ERROR_PROTO_UNSUPPORTED );

	mov	eax, DWORD PTR _errorBits$[ebp]
	or	eax, 2
	mov	DWORD PTR _errorBits$[ebp], eax
	jmp	SHORT $LN9@CL_ParseNE
$LN7@CL_ParseNE:

; 1654 : 	else if( !Q_stricmp( val, "undefined" ))

	push	99999					; 0001869fH
	push	OFFSET ??_C@_09MLGAJAED@undefined@
	mov	eax, DWORD PTR _val$[ebp]
	push	eax
	call	_Q_strnicmp
	add	esp, 12					; 0000000cH
	test	eax, eax
	jne	SHORT $LN9@CL_ParseNE

; 1655 : 		SetBits( errorBits, NET_ERROR_UNDEFINED );

	mov	eax, DWORD PTR _errorBits$[ebp]
	or	eax, 4
	mov	DWORD PTR _errorBits$[ebp], eax
$LN9@CL_ParseNE:

; 1656 : 
; 1657 : 	CL_FixupColorStringsForInfoString( s, infostring );

	push	OFFSET ?infostring@?1??CL_ParseNETInfoMessage@@9@9
	mov	eax, DWORD PTR _s$[ebp]
	push	eax
	call	_CL_FixupColorStringsForInfoString
	add	esp, 8

; 1658 : 
; 1659 : 	// find a request with specified context
; 1660 : 	for( i = 0; i < MAX_REQUESTS; i++ )

	mov	DWORD PTR _i$[ebp], 0
	jmp	SHORT $LN6@CL_ParseNE
$LN4@CL_ParseNE:
	mov	eax, DWORD PTR _i$[ebp]
	add	eax, 1
	mov	DWORD PTR _i$[ebp], eax
$LN6@CL_ParseNE:
	cmp	DWORD PTR _i$[ebp], 64			; 00000040H
	jge	$LN5@CL_ParseNE

; 1661 : 	{
; 1662 : 		nr = &clgame.net_requests[i];

	imul	eax, DWORD PTR _i$[ebp], 80
	add	eax, OFFSET _clgame+255304
	mov	DWORD PTR _nr$[ebp], eax

; 1663 : 
; 1664 : 		if( nr->resp.context == context && nr->resp.type == type )

	mov	eax, DWORD PTR _nr$[ebp]
	mov	ecx, DWORD PTR [eax+4]
	cmp	ecx, DWORD PTR _context$[ebp]
	jne	$LN10@CL_ParseNE
	mov	eax, DWORD PTR _nr$[ebp]
	mov	ecx, DWORD PTR [eax+8]
	cmp	ecx, DWORD PTR _type$[ebp]
	jne	$LN10@CL_ParseNE

; 1665 : 		{
; 1666 : 			// setup the answer
; 1667 : 			nr->resp.response = infostring;

	mov	eax, DWORD PTR _nr$[ebp]
	mov	DWORD PTR [eax+40], OFFSET ?infostring@?1??CL_ParseNETInfoMessage@@9@9

; 1668 : 			nr->resp.remote_address = from;

	mov	eax, DWORD PTR _nr$[ebp]
	add	eax, 12					; 0000000cH
	mov	ecx, DWORD PTR _from$[ebp]
	mov	DWORD PTR [eax], ecx
	mov	edx, DWORD PTR _from$[ebp+4]
	mov	DWORD PTR [eax+4], edx
	mov	ecx, DWORD PTR _from$[ebp+8]
	mov	DWORD PTR [eax+8], ecx
	mov	edx, DWORD PTR _from$[ebp+12]
	mov	DWORD PTR [eax+12], edx
	mov	ecx, DWORD PTR _from$[ebp+16]
	mov	DWORD PTR [eax+16], ecx

; 1669 : 			nr->resp.error = NET_SUCCESS;

	mov	eax, DWORD PTR _nr$[ebp]
	mov	DWORD PTR [eax], 0

; 1670 : 			nr->resp.ping = host.realtime - nr->timesend;

	mov	eax, DWORD PTR _nr$[ebp]
	movsd	xmm0, QWORD PTR _host+1440
	subsd	xmm0, QWORD PTR [eax+64]
	mov	ecx, DWORD PTR _nr$[ebp]
	movsd	QWORD PTR [ecx+32], xmm0

; 1671 : 
; 1672 : 			if( nr->timeout <= host.realtime )

	mov	eax, DWORD PTR _nr$[ebp]
	movsd	xmm0, QWORD PTR _host+1440
	comisd	xmm0, QWORD PTR [eax+56]
	jb	SHORT $LN11@CL_ParseNE

; 1673 : 				SetBits( nr->resp.error, NET_ERROR_TIMEOUT );

	mov	eax, DWORD PTR _nr$[ebp]
	mov	ecx, DWORD PTR [eax]
	or	ecx, 1
	mov	edx, DWORD PTR _nr$[ebp]
	mov	DWORD PTR [edx], ecx
$LN11@CL_ParseNE:

; 1674 : 			SetBits( nr->resp.error, errorBits ); // misc error bits

	mov	eax, DWORD PTR _nr$[ebp]
	mov	ecx, DWORD PTR [eax]
	or	ecx, DWORD PTR _errorBits$[ebp]
	mov	edx, DWORD PTR _nr$[ebp]
	mov	DWORD PTR [edx], ecx

; 1675 : 
; 1676 : 			nr->pfnFunc( &nr->resp );

	mov	eax, DWORD PTR _nr$[ebp]
	push	eax
	mov	ecx, DWORD PTR _nr$[ebp]
	mov	edx, DWORD PTR [ecx+48]
	call	edx
	add	esp, 4

; 1677 : 
; 1678 : 			if( !FBitSet( nr->flags, FNETAPI_MULTIPLE_RESPONSE ))

	mov	eax, DWORD PTR _nr$[ebp]
	mov	ecx, DWORD PTR [eax+72]
	and	ecx, 1
	jne	SHORT $LN12@CL_ParseNE

; 1679 : 				memset( nr, 0, sizeof( *nr )); // done

	push	80					; 00000050H
	push	0
	mov	eax, DWORD PTR _nr$[ebp]
	push	eax
	call	_memset
	add	esp, 12					; 0000000cH
$LN12@CL_ParseNE:

; 1680 : 			return;

	jmp	SHORT $LN5@CL_ParseNE
$LN10@CL_ParseNE:

; 1681 : 		}
; 1682 : 	}

	jmp	$LN4@CL_ParseNE
$LN5@CL_ParseNE:

; 1683 : }

	pop	edi
	pop	esi
	pop	ebx
	mov	esp, ebp
	pop	ebp
	ret	0
_CL_ParseNETInfoMessage ENDP
_TEXT	ENDS
; Function compile flags: /Odtp /ZI
; File D:\DevDragon\XashFE\dev\src\engine\client\cl_main.c
;	COMDAT _CL_ParseStatusMessage
_TEXT	SEGMENT
_s$ = -4						; size = 4
_from$ = 8						; size = 20
_msg$ = 28						; size = 4
_CL_ParseStatusMessage PROC				; COMDAT

; 1612 : {

	push	ebp
	mov	ebp, esp
	sub	esp, 68					; 00000044H
	push	ebx
	push	esi
	push	edi

; 1613 : 	static char	infostring[MAX_INFO_STRING+8];
; 1614 : 	char		*s = MSG_ReadString( msg );

	push	0
	mov	eax, DWORD PTR _msg$[ebp]
	push	eax
	call	_MSG_ReadStringExt
	add	esp, 8
	mov	DWORD PTR _s$[ebp], eax

; 1615 : 
; 1616 : 	CL_FixupColorStringsForInfoString( s, infostring );

	push	OFFSET ?infostring@?1??CL_ParseStatusMessage@@9@9
	mov	eax, DWORD PTR _s$[ebp]
	push	eax
	call	_CL_FixupColorStringsForInfoString
	add	esp, 8

; 1617 : 
; 1618 : 	if( !COM_CheckString( Info_ValueForKey( infostring, "gamedir" )))

	push	OFFSET ??_C@_07GGMBKBFD@gamedir@
	push	OFFSET ?infostring@?1??CL_ParseStatusMessage@@9@9
	call	_Info_ValueForKey
	add	esp, 8
	push	eax
	call	_COM_CheckString
	add	esp, 4
	test	eax, eax
	jne	SHORT $LN2@CL_ParseSt

; 1619 : 	{
; 1620 : 		Con_Printf( "^1Server^7: %s, Info: %s\n", NET_AdrToString( from ), infostring );

	push	OFFSET ?infostring@?1??CL_ParseStatusMessage@@9@9
	sub	esp, 20					; 00000014H
	mov	eax, esp
	mov	ecx, DWORD PTR _from$[ebp]
	mov	DWORD PTR [eax], ecx
	mov	edx, DWORD PTR _from$[ebp+4]
	mov	DWORD PTR [eax+4], edx
	mov	ecx, DWORD PTR _from$[ebp+8]
	mov	DWORD PTR [eax+8], ecx
	mov	edx, DWORD PTR _from$[ebp+12]
	mov	DWORD PTR [eax+12], edx
	mov	ecx, DWORD PTR _from$[ebp+16]
	mov	DWORD PTR [eax+16], ecx
	call	_NET_AdrToString
	add	esp, 20					; 00000014H
	push	eax
	push	OFFSET ??_C@_0BK@JJLGHCHK@?$FO1Server?$FO7?3?5?$CFs?0?5Info?3?5?$CFs?6@
	call	_Con_Printf
	add	esp, 12					; 0000000cH

; 1621 : 		return; // unsupported proto

	jmp	SHORT $LN1@CL_ParseSt
$LN2@CL_ParseSt:

; 1622 : 	}
; 1623 : 
; 1624 : 	// more info about servers
; 1625 : 	Con_Printf( "^2Server^7: %s, Game: %s\n", NET_AdrToString( from ), Info_ValueForKey( infostring, "gamedir" ));

	push	OFFSET ??_C@_07GGMBKBFD@gamedir@
	push	OFFSET ?infostring@?1??CL_ParseStatusMessage@@9@9
	call	_Info_ValueForKey
	add	esp, 8
	push	eax
	sub	esp, 20					; 00000014H
	mov	eax, esp
	mov	ecx, DWORD PTR _from$[ebp]
	mov	DWORD PTR [eax], ecx
	mov	edx, DWORD PTR _from$[ebp+4]
	mov	DWORD PTR [eax+4], edx
	mov	ecx, DWORD PTR _from$[ebp+8]
	mov	DWORD PTR [eax+8], ecx
	mov	edx, DWORD PTR _from$[ebp+12]
	mov	DWORD PTR [eax+12], edx
	mov	ecx, DWORD PTR _from$[ebp+16]
	mov	DWORD PTR [eax+16], ecx
	call	_NET_AdrToString
	add	esp, 20					; 00000014H
	push	eax
	push	OFFSET ??_C@_0BK@JEDBHIFD@?$FO2Server?$FO7?3?5?$CFs?0?5Game?3?5?$CFs?6@
	call	_Con_Printf
	add	esp, 12					; 0000000cH

; 1626 : 
; 1627 : 	UI_AddServerToList( from, infostring );

	push	OFFSET ?infostring@?1??CL_ParseStatusMessage@@9@9
	sub	esp, 20					; 00000014H
	mov	eax, esp
	mov	ecx, DWORD PTR _from$[ebp]
	mov	DWORD PTR [eax], ecx
	mov	edx, DWORD PTR _from$[ebp+4]
	mov	DWORD PTR [eax+4], edx
	mov	ecx, DWORD PTR _from$[ebp+8]
	mov	DWORD PTR [eax+8], ecx
	mov	edx, DWORD PTR _from$[ebp+12]
	mov	DWORD PTR [eax+12], edx
	mov	ecx, DWORD PTR _from$[ebp+16]
	mov	DWORD PTR [eax+16], ecx
	call	_UI_AddServerToList
	add	esp, 24					; 00000018H
$LN1@CL_ParseSt:

; 1628 : }

	pop	edi
	pop	esi
	pop	ebx
	mov	esp, ebp
	pop	ebp
	ret	0
_CL_ParseStatusMessage ENDP
_TEXT	ENDS
; Function compile flags: /Odtp /ZI
; File D:\DevDragon\XashFE\dev\src\engine\client\cl_main.c
;	COMDAT _CL_FixupColorStringsForInfoString
_TEXT	SEGMENT
_count$ = -16						; size = 4
_color$ = -12						; size = 4
_endOfKeyVal$ = -8					; size = 4
_hasPrefix$ = -4					; size = 4
_in$ = 8						; size = 4
_out$ = 12						; size = 4
_CL_FixupColorStringsForInfoString PROC			; COMDAT

; 1548 : {

	push	ebp
	mov	ebp, esp
	sub	esp, 80					; 00000050H
	push	ebx
	push	esi
	push	edi

; 1549 : 	qboolean	hasPrefix = false;

	mov	DWORD PTR _hasPrefix$[ebp], 0

; 1550 : 	qboolean	endOfKeyVal = false;

	mov	DWORD PTR _endOfKeyVal$[ebp], 0

; 1551 : 	int	color = 7;

	mov	DWORD PTR _color$[ebp], 7

; 1552 : 	int	count = 0;

	mov	DWORD PTR _count$[ebp], 0

; 1553 : 
; 1554 : 	if( *in == '\\' )

	mov	eax, DWORD PTR _in$[ebp]
	movsx	ecx, BYTE PTR [eax]
	cmp	ecx, 92					; 0000005cH
	jne	SHORT $LN2@CL_FixupCo

; 1555 : 	{
; 1556 : 		*out++ = *in++;

	mov	eax, DWORD PTR _out$[ebp]
	mov	ecx, DWORD PTR _in$[ebp]
	mov	dl, BYTE PTR [ecx]
	mov	BYTE PTR [eax], dl
	mov	eax, DWORD PTR _out$[ebp]
	add	eax, 1
	mov	DWORD PTR _out$[ebp], eax
	mov	ecx, DWORD PTR _in$[ebp]
	add	ecx, 1
	mov	DWORD PTR _in$[ebp], ecx

; 1557 : 		count++;

	mov	eax, DWORD PTR _count$[ebp]
	add	eax, 1
	mov	DWORD PTR _count$[ebp], eax
$LN2@CL_FixupCo:

; 1558 : 	}
; 1559 : 
; 1560 : 	while( *in && count < MAX_INFO_STRING )

	mov	eax, DWORD PTR _in$[ebp]
	movsx	ecx, BYTE PTR [eax]
	test	ecx, ecx
	je	$LN3@CL_FixupCo
	cmp	DWORD PTR _count$[ebp], 256		; 00000100H
	jge	$LN3@CL_FixupCo

; 1561 : 	{
; 1562 : 		if( IsColorString( in ))

	cmp	DWORD PTR _in$[ebp], 0
	je	SHORT $LN5@CL_FixupCo
	mov	eax, DWORD PTR _in$[ebp]
	movsx	ecx, BYTE PTR [eax]
	cmp	ecx, 94					; 0000005eH
	jne	SHORT $LN5@CL_FixupCo
	mov	eax, DWORD PTR _in$[ebp]
	movsx	ecx, BYTE PTR [eax+1]
	test	ecx, ecx
	je	SHORT $LN5@CL_FixupCo
	mov	eax, DWORD PTR _in$[ebp]
	movsx	ecx, BYTE PTR [eax+1]
	cmp	ecx, 48					; 00000030H
	jl	SHORT $LN5@CL_FixupCo
	mov	eax, DWORD PTR _in$[ebp]
	movsx	ecx, BYTE PTR [eax+1]
	cmp	ecx, 57					; 00000039H
	jg	SHORT $LN5@CL_FixupCo

; 1563 : 			color = ColorIndex( *(in+1));

	mov	eax, DWORD PTR _in$[ebp]
	movsx	ecx, BYTE PTR [eax+1]
	sub	ecx, 48					; 00000030H
	and	ecx, 7
	mov	DWORD PTR _color$[ebp], ecx
$LN5@CL_FixupCo:

; 1564 : 
; 1565 : 		// color the not reset while end of key (or value) was found!
; 1566 : 		if( *in == '\\' && color != 7 )

	mov	eax, DWORD PTR _in$[ebp]
	movsx	ecx, BYTE PTR [eax]
	cmp	ecx, 92					; 0000005cH
	jne	SHORT $LN6@CL_FixupCo
	cmp	DWORD PTR _color$[ebp], 7
	je	SHORT $LN6@CL_FixupCo

; 1567 : 		{
; 1568 : 			if( IsColorString( out - 2 ))

	mov	eax, DWORD PTR _out$[ebp]
	sub	eax, 2
	je	SHORT $LN7@CL_FixupCo
	mov	eax, DWORD PTR _out$[ebp]
	movsx	ecx, BYTE PTR [eax-2]
	cmp	ecx, 94					; 0000005eH
	jne	SHORT $LN7@CL_FixupCo
	mov	eax, DWORD PTR _out$[ebp]
	movsx	ecx, BYTE PTR [eax-1]
	test	ecx, ecx
	je	SHORT $LN7@CL_FixupCo
	mov	eax, DWORD PTR _out$[ebp]
	movsx	ecx, BYTE PTR [eax-1]
	cmp	ecx, 48					; 00000030H
	jl	SHORT $LN7@CL_FixupCo
	mov	eax, DWORD PTR _out$[ebp]
	movsx	ecx, BYTE PTR [eax-1]
	cmp	ecx, 57					; 00000039H
	jg	SHORT $LN7@CL_FixupCo

; 1569 : 			{
; 1570 : 				*(out - 1) = '7';

	mov	eax, DWORD PTR _out$[ebp]
	mov	BYTE PTR [eax-1], 55			; 00000037H

; 1571 : 			}

	jmp	SHORT $LN8@CL_FixupCo
$LN7@CL_FixupCo:

; 1572 : 			else
; 1573 : 			{
; 1574 : 				*out++ = '^';

	mov	eax, DWORD PTR _out$[ebp]
	mov	BYTE PTR [eax], 94			; 0000005eH
	mov	ecx, DWORD PTR _out$[ebp]
	add	ecx, 1
	mov	DWORD PTR _out$[ebp], ecx

; 1575 : 				*out++ = '7';

	mov	eax, DWORD PTR _out$[ebp]
	mov	BYTE PTR [eax], 55			; 00000037H
	mov	ecx, DWORD PTR _out$[ebp]
	add	ecx, 1
	mov	DWORD PTR _out$[ebp], ecx

; 1576 : 				count += 2;

	mov	eax, DWORD PTR _count$[ebp]
	add	eax, 2
	mov	DWORD PTR _count$[ebp], eax
$LN8@CL_FixupCo:

; 1577 : 			}
; 1578 : 			color = 7;

	mov	DWORD PTR _color$[ebp], 7
$LN6@CL_FixupCo:

; 1579 : 		}
; 1580 : 
; 1581 : 		*out++ = *in++;

	mov	eax, DWORD PTR _out$[ebp]
	mov	ecx, DWORD PTR _in$[ebp]
	mov	dl, BYTE PTR [ecx]
	mov	BYTE PTR [eax], dl
	mov	eax, DWORD PTR _out$[ebp]
	add	eax, 1
	mov	DWORD PTR _out$[ebp], eax
	mov	ecx, DWORD PTR _in$[ebp]
	add	ecx, 1
	mov	DWORD PTR _in$[ebp], ecx

; 1582 : 		count++;

	mov	eax, DWORD PTR _count$[ebp]
	add	eax, 1
	mov	DWORD PTR _count$[ebp], eax

; 1583 : 	}

	jmp	$LN2@CL_FixupCo
$LN3@CL_FixupCo:

; 1584 : 
; 1585 : 	// check the remaining value
; 1586 : 	if( color != 7 )

	cmp	DWORD PTR _color$[ebp], 7
	je	SHORT $LN9@CL_FixupCo

; 1587 : 	{
; 1588 : 		// if the ends with another color rewrite it
; 1589 : 		if( IsColorString( out - 2 ))

	mov	eax, DWORD PTR _out$[ebp]
	sub	eax, 2
	je	SHORT $LN10@CL_FixupCo
	mov	eax, DWORD PTR _out$[ebp]
	movsx	ecx, BYTE PTR [eax-2]
	cmp	ecx, 94					; 0000005eH
	jne	SHORT $LN10@CL_FixupCo
	mov	eax, DWORD PTR _out$[ebp]
	movsx	ecx, BYTE PTR [eax-1]
	test	ecx, ecx
	je	SHORT $LN10@CL_FixupCo
	mov	eax, DWORD PTR _out$[ebp]
	movsx	ecx, BYTE PTR [eax-1]
	cmp	ecx, 48					; 00000030H
	jl	SHORT $LN10@CL_FixupCo
	mov	eax, DWORD PTR _out$[ebp]
	movsx	ecx, BYTE PTR [eax-1]
	cmp	ecx, 57					; 00000039H
	jg	SHORT $LN10@CL_FixupCo

; 1590 : 		{
; 1591 : 			*(out - 1) = '7';

	mov	eax, DWORD PTR _out$[ebp]
	mov	BYTE PTR [eax-1], 55			; 00000037H

; 1592 : 		}

	jmp	SHORT $LN9@CL_FixupCo
$LN10@CL_FixupCo:

; 1593 : 		else
; 1594 : 		{
; 1595 : 			*out++ = '^';

	mov	eax, DWORD PTR _out$[ebp]
	mov	BYTE PTR [eax], 94			; 0000005eH
	mov	ecx, DWORD PTR _out$[ebp]
	add	ecx, 1
	mov	DWORD PTR _out$[ebp], ecx

; 1596 : 			*out++ = '7';

	mov	eax, DWORD PTR _out$[ebp]
	mov	BYTE PTR [eax], 55			; 00000037H
	mov	ecx, DWORD PTR _out$[ebp]
	add	ecx, 1
	mov	DWORD PTR _out$[ebp], ecx

; 1597 : 			count += 2;

	mov	eax, DWORD PTR _count$[ebp]
	add	eax, 2
	mov	DWORD PTR _count$[ebp], eax
$LN9@CL_FixupCo:

; 1598 : 		}
; 1599 : 	}
; 1600 : 
; 1601 : 	*out = '\0';

	mov	eax, DWORD PTR _out$[ebp]
	mov	BYTE PTR [eax], 0

; 1602 : }

	pop	edi
	pop	esi
	pop	ebx
	mov	esp, ebp
	pop	ebp
	ret	0
_CL_FixupColorStringsForInfoString ENDP
_TEXT	ENDS
; Function compile flags: /Odtp /ZI
; File D:\DevDragon\XashFE\dev\src\engine\client\cl_main.c
;	COMDAT _CL_Reconnect_f
_TEXT	SEGMENT
_CL_Reconnect_f PROC					; COMDAT

; 1514 : {

	push	ebp
	mov	ebp, esp
	sub	esp, 64					; 00000040H
	push	ebx
	push	esi
	push	edi

; 1515 : 	if( cls.state == ca_disconnected )

	cmp	DWORD PTR _cls, 0
	jne	SHORT $LN2@CL_Reconne

; 1516 : 		return;

	jmp	$LN4@CL_Reconne
$LN2@CL_Reconne:

; 1517 : 
; 1518 : 	S_StopAllSounds ( true );

	push	1
	call	_S_StopAllSounds
	add	esp, 4

; 1519 : 
; 1520 : 	if( cls.state == ca_connected )

	cmp	DWORD PTR _cls, 2
	jne	SHORT $LN3@CL_Reconne

; 1521 : 	{
; 1522 : 		CL_Reconnect( false );

	push	0
	call	_CL_Reconnect
	add	esp, 4

; 1523 : 		return;

	jmp	SHORT $LN4@CL_Reconne
$LN3@CL_Reconne:

; 1524 : 	}
; 1525 : 
; 1526 : 	if( COM_CheckString( cls.servername ))

	push	OFFSET _cls+72
	call	_COM_CheckString
	add	esp, 4
	test	eax, eax
	je	SHORT $LN4@CL_Reconne

; 1527 : 	{
; 1528 : 		if( cls.state >= ca_connected )

	cmp	DWORD PTR _cls, 2
	jl	SHORT $LN5@CL_Reconne

; 1529 : 			CL_Disconnect();

	call	_CL_Disconnect
$LN5@CL_Reconne:

; 1530 : 
; 1531 : 		cls.connect_time = MAX_HEARTBEAT;	// fire immediately

	movsd	xmm0, QWORD PTR __real@c0f869f000000000
	movsd	QWORD PTR _cls+136, xmm0

; 1532 : 		cls.demonum = cls.movienum = -1;	// not in the demo loop now

	mov	DWORD PTR _cls+298772, -1
	mov	eax, DWORD PTR _cls+298772
	mov	DWORD PTR _cls+296712, eax

; 1533 : 		cls.state = ca_connecting;

	mov	DWORD PTR _cls, 1

; 1534 : 		cls.signon = 0;

	mov	DWORD PTR _cls+64, 0

; 1535 : 
; 1536 : 		Con_Printf( "reconnecting...\n" );

	push	OFFSET ??_C@_0BB@DIBMBDMI@reconnecting?4?4?4?6@
	call	_Con_Printf
	add	esp, 4
$LN4@CL_Reconne:

; 1537 : 	}
; 1538 : }

	pop	edi
	pop	esi
	pop	ebx
	mov	esp, ebp
	pop	ebp
	ret	0
_CL_Reconnect_f ENDP
_TEXT	ENDS
; Function compile flags: /Odtp /ZI
; File D:\DevDragon\XashFE\dev\src\engine\client\cl_main.c
;	COMDAT _CL_InternetServers_f
_TEXT	SEGMENT
_adr$ = -544						; size = 20
_remaining$ = -524					; size = 4
_info$ = -520						; size = 4
_fullquery$ = -516					; size = 512
__$ArrayPad$ = -4					; size = 4
_CL_InternetServers_f PROC				; COMDAT

; 1480 : {

	push	ebp
	mov	ebp, esp
	sub	esp, 672				; 000002a0H
	mov	eax, DWORD PTR ___security_cookie
	xor	eax, ebp
	mov	DWORD PTR __$ArrayPad$[ebp], eax
	push	ebx
	push	esi
	push	edi

; 1481 : 	char	fullquery[512] = MS_SCAN_REQUEST;

	mov	eax, DWORD PTR ??_C@_0N@CIFHLALM@1?$PP0?40?40?40?30?$AA@
	mov	DWORD PTR _fullquery$[ebp], eax
	mov	ecx, DWORD PTR ??_C@_0N@CIFHLALM@1?$PP0?40?40?40?30?$AA@+4
	mov	DWORD PTR _fullquery$[ebp+4], ecx
	mov	edx, DWORD PTR ??_C@_0N@CIFHLALM@1?$PP0?40?40?40?30?$AA@+8
	mov	DWORD PTR _fullquery$[ebp+8], edx
	mov	al, BYTE PTR ??_C@_0N@CIFHLALM@1?$PP0?40?40?40?30?$AA@+12
	mov	BYTE PTR _fullquery$[ebp+12], al
	push	499					; 000001f3H
	push	0
	lea	eax, DWORD PTR _fullquery$[ebp+13]
	push	eax
	call	_memset
	add	esp, 12					; 0000000cH

; 1482 : 	char	*info = fullquery + sizeof( MS_SCAN_REQUEST ) - 1;

	lea	eax, DWORD PTR _fullquery$[ebp+12]
	mov	DWORD PTR _info$[ebp], eax

; 1483 : 	int	remaining = sizeof( fullquery ) - sizeof( MS_SCAN_REQUEST );

	mov	DWORD PTR _remaining$[ebp], 499		; 000001f3H

; 1484 : 	netadr_t	adr;
; 1485 : 
; 1486 : 	NET_Config( true ); // allow remote

	push	1
	call	_NET_Config
	add	esp, 4

; 1487 : 
; 1488 : 	if( !NET_StringToAdr( MASTERSERVER_ADR, &adr ) )

	lea	eax, DWORD PTR _adr$[ebp]
	push	eax
	push	OFFSET ??_C@_0BB@FHKNHLNB@ms?4xash?4su?327010@
	call	_NET_StringToAdr
	add	esp, 8
	test	eax, eax
	jne	SHORT $LN2@CL_Interne

; 1489 : 	{
; 1490 : 		Con_DPrintf( S_ERROR "Can't resolve adr: %s\n", MASTERSERVER_ADR );

	push	OFFSET ??_C@_0BB@FHKNHLNB@ms?4xash?4su?327010@
	push	OFFSET ??_C@_0CC@FKAGDMAF@?$FO1Error?3?$FO7?5Can?8t?5resolve?5adr?3?5?$CF@
	call	_Con_DPrintf
	add	esp, 8

; 1491 : 		return;

	jmp	$LN1@CL_Interne
$LN2@CL_Interne:

; 1492 : 	}
; 1493 : 
; 1494 : 	Con_Printf( "Scanning for servers on the internet area...\n" );

	push	OFFSET ??_C@_0CO@DFHJDOOJ@Scanning?5for?5servers?5on?5the?5int@
	call	_Con_Printf
	add	esp, 4

; 1495 : 	Info_SetValueForKey( info, "gamedir", GI->gamefolder, remaining );

	mov	eax, DWORD PTR _remaining$[ebp]
	push	eax
	mov	ecx, DWORD PTR _SI+768
	push	ecx
	push	OFFSET ??_C@_07GGMBKBFD@gamedir@
	mov	edx, DWORD PTR _info$[ebp]
	push	edx
	call	_Info_SetValueForKey
	add	esp, 16					; 00000010H

; 1496 : 	Info_SetValueForKey( info, "clver", XASH_VERSION, remaining ); // let master know about client version

	mov	eax, DWORD PTR _remaining$[ebp]
	push	eax
	push	OFFSET ??_C@_04PNCPDLMM@0?499@
	push	OFFSET ??_C@_05IBNOFEBL@clver@
	mov	ecx, DWORD PTR _info$[ebp]
	push	ecx
	call	_Info_SetValueForKey
	add	esp, 16					; 00000010H

; 1497 : 
; 1498 : 	NET_SendPacket( NS_CLIENT, sizeof( MS_SCAN_REQUEST ) + Q_strlen( info ), fullquery, adr );

	sub	esp, 20					; 00000014H
	mov	eax, esp
	mov	ecx, DWORD PTR _adr$[ebp]
	mov	DWORD PTR [eax], ecx
	mov	edx, DWORD PTR _adr$[ebp+4]
	mov	DWORD PTR [eax+4], edx
	mov	ecx, DWORD PTR _adr$[ebp+8]
	mov	DWORD PTR [eax+8], ecx
	mov	edx, DWORD PTR _adr$[ebp+12]
	mov	DWORD PTR [eax+12], edx
	mov	ecx, DWORD PTR _adr$[ebp+16]
	mov	DWORD PTR [eax+16], ecx
	lea	edx, DWORD PTR _fullquery$[ebp]
	push	edx
	mov	eax, DWORD PTR _info$[ebp]
	push	eax
	call	_Q_strlen
	add	esp, 4
	add	eax, 13					; 0000000dH
	push	eax
	push	0
	call	_NET_SendPacket
	add	esp, 32					; 00000020H

; 1499 : 
; 1500 : 	// now we clearing the vgui request
; 1501 : 	if( clgame.master_request != NULL )

	cmp	DWORD PTR _clgame+260424, 0
	je	SHORT $LN3@CL_Interne

; 1502 : 		memset( clgame.master_request, 0, sizeof( net_request_t ));

	push	80					; 00000050H
	push	0
	mov	eax, DWORD PTR _clgame+260424
	push	eax
	call	_memset
	add	esp, 12					; 0000000cH
$LN3@CL_Interne:

; 1503 : 	clgame.request_type = NET_REQUEST_GAMEUI;

	mov	DWORD PTR _clgame+255296, 1
$LN1@CL_Interne:

; 1504 : }

	pop	edi
	pop	esi
	pop	ebx
	mov	ecx, DWORD PTR __$ArrayPad$[ebp]
	xor	ecx, ebp
	call	@__security_check_cookie@4
	mov	esp, ebp
	pop	ebp
	ret	0
_CL_InternetServers_f ENDP
_TEXT	ENDS
; Function compile flags: /Odtp /ZI
; File D:\DevDragon\XashFE\dev\src\engine\client\cl_main.c
;	COMDAT _CL_LocalServers_f
_TEXT	SEGMENT
_adr$ = -24						; size = 20
__$ArrayPad$ = -4					; size = 4
_CL_LocalServers_f PROC					; COMDAT

; 1461 : {

	push	ebp
	mov	ebp, esp
	sub	esp, 88					; 00000058H
	mov	eax, DWORD PTR ___security_cookie
	xor	eax, ebp
	mov	DWORD PTR __$ArrayPad$[ebp], eax
	push	ebx
	push	esi
	push	edi

; 1462 : 	netadr_t	adr;
; 1463 : 
; 1464 : 	Con_Printf( "Scanning for servers on the local network area...\n" );

	push	OFFSET ??_C@_0DD@FDBOEDJA@Scanning?5for?5servers?5on?5the?5loc@
	call	_Con_Printf
	add	esp, 4

; 1465 : 	NET_Config( true ); // allow remote

	push	1
	call	_NET_Config
	add	esp, 4

; 1466 : 	
; 1467 : 	// send a broadcast packet
; 1468 : 	adr.type = NA_BROADCAST;

	mov	DWORD PTR _adr$[ebp], 2

; 1469 : 	adr.port = MSG_BigShort( PORT_SERVER );

	push	27015					; 00006987H
	call	_MSG_BigShort
	add	esp, 4
	mov	WORD PTR _adr$[ebp+18], ax

; 1470 : 
; 1471 : 	Netchan_OutOfBandPrint( NS_CLIENT, adr, "info %i", PROTOCOL_VERSION );

	push	49					; 00000031H
	push	OFFSET ??_C@_07GBLEFLLO@info?5?$CFi@
	sub	esp, 20					; 00000014H
	mov	eax, esp
	mov	ecx, DWORD PTR _adr$[ebp]
	mov	DWORD PTR [eax], ecx
	mov	edx, DWORD PTR _adr$[ebp+4]
	mov	DWORD PTR [eax+4], edx
	mov	ecx, DWORD PTR _adr$[ebp+8]
	mov	DWORD PTR [eax+8], ecx
	mov	edx, DWORD PTR _adr$[ebp+12]
	mov	DWORD PTR [eax+12], edx
	mov	ecx, DWORD PTR _adr$[ebp+16]
	mov	DWORD PTR [eax+16], ecx
	push	0
	call	_Netchan_OutOfBandPrint
	add	esp, 32					; 00000020H

; 1472 : }

	pop	edi
	pop	esi
	pop	ebx
	mov	ecx, DWORD PTR __$ArrayPad$[ebp]
	xor	ecx, ebp
	call	@__security_check_cookie@4
	mov	esp, ebp
	pop	ebp
	ret	0
_CL_LocalServers_f ENDP
_TEXT	ENDS
; Function compile flags: /Odtp /ZI
; File D:\DevDragon\XashFE\dev\src\engine\client\cl_main.c
;	COMDAT _CL_Reconnect
_TEXT	SEGMENT
_setup_netchan$ = 8					; size = 4
_CL_Reconnect PROC					; COMDAT

; 1362 : {

	push	ebp
	mov	ebp, esp
	sub	esp, 64					; 00000040H
	push	ebx
	push	esi
	push	edi

; 1363 : 	if( setup_netchan )

	cmp	DWORD PTR _setup_netchan$[ebp], 0
	je	SHORT $LN2@CL_Reconne

; 1364 : 	{
; 1365 : 		Netchan_Setup( NS_CLIENT, &cls.netchan, net_from, Cvar_VariableInteger( "net_qport" ), NULL, CL_GetFragmentSize );

	push	OFFSET _CL_GetFragmentSize
	push	0
	push	OFFSET ??_C@_09HOOHLIKH@net_qport@
	call	_Cvar_VariableInteger
	add	esp, 4
	push	eax
	sub	esp, 20					; 00000014H
	mov	eax, esp
	mov	ecx, DWORD PTR _net_from
	mov	DWORD PTR [eax], ecx
	mov	edx, DWORD PTR _net_from+4
	mov	DWORD PTR [eax+4], edx
	mov	ecx, DWORD PTR _net_from+8
	mov	DWORD PTR [eax+8], ecx
	mov	edx, DWORD PTR _net_from+12
	mov	DWORD PTR [eax+12], edx
	mov	ecx, DWORD PTR _net_from+16
	mov	DWORD PTR [eax+16], ecx
	push	OFFSET _cls+26800
	push	0
	call	_Netchan_Setup
	add	esp, 40					; 00000028H

; 1366 : 	}

	jmp	SHORT $LN3@CL_Reconne
$LN2@CL_Reconne:

; 1367 : 	else
; 1368 : 	{
; 1369 : 		// clear channel and stuff
; 1370 : 		Netchan_Clear( &cls.netchan );

	push	OFFSET _cls+26800
	call	_Netchan_Clear
	add	esp, 4

; 1371 : 		MSG_Clear( &cls.netchan.message );

	push	OFFSET _cls+26900
	call	_MSG_Clear
	add	esp, 4
$LN3@CL_Reconne:

; 1372 : 	}
; 1373 : 
; 1374 : 	cls.demonum = cls.movienum = -1;	// not in the demo loop now

	mov	DWORD PTR _cls+298772, -1
	mov	eax, DWORD PTR _cls+298772
	mov	DWORD PTR _cls+296712, eax

; 1375 : 	cls.state = ca_connected;

	mov	DWORD PTR _cls, 2

; 1376 : 	cls.signon = 0;

	mov	DWORD PTR _cls+64, 0

; 1377 : 
; 1378 : 	CL_ServerCommand( true, "new" );

	push	OFFSET ??_C@_03CLCAEGCJ@new@
	push	1
	call	_CL_ServerCommand
	add	esp, 8

; 1379 : 
; 1380 : 	cl.validsequence = 0;		// haven't gotten a valid frame update yet

	mov	DWORD PTR _cl+4, 0

; 1381 : 	cl.delta_sequence = -1;		// we'll request a full delta from the baseline

	mov	DWORD PTR _cl+28, -1

; 1382 : 	cls.lastoutgoingcommand = -1;		// we don't have a backed up cmd history yet

	mov	DWORD PTR _cls+290592, -1

; 1383 : 	cls.nextcmdtime = host.realtime;	// we can send a cmd right away

	cvtsd2ss xmm0, QWORD PTR _host+1440
	movss	DWORD PTR _cls+290588, xmm0

; 1384 : 	cl.last_command_ack = -1;

	mov	DWORD PTR _cl+52, -1

; 1385 : 
; 1386 : 	CL_StartupDemoHeader ();

	call	_CL_StartupDemoHeader

; 1387 : }

	pop	edi
	pop	esi
	pop	ebx
	mov	esp, ebp
	pop	ebp
	ret	0
_CL_Reconnect ENDP
_TEXT	ENDS
; Function compile flags: /Odtp /ZI
; File D:\DevDragon\XashFE\dev\src\engine\client\cl_main.c
;	COMDAT _CL_SendDisconnectMessage
_TEXT	SEGMENT
_data$ = -56						; size = 32
_buf$ = -24						; size = 20
__$ArrayPad$ = -4					; size = 4
_CL_SendDisconnectMessage PROC				; COMDAT

; 1335 : {

	push	ebp
	mov	ebp, esp
	sub	esp, 120				; 00000078H
	mov	eax, DWORD PTR ___security_cookie
	xor	eax, ebp
	mov	DWORD PTR __$ArrayPad$[ebp], eax
	push	ebx
	push	esi
	push	edi

; 1336 : 	sizebuf_t	buf;
; 1337 : 	byte	data[32];
; 1338 : 
; 1339 : 	if( cls.state == ca_disconnected ) return;

	cmp	DWORD PTR _cls, 0
	jne	SHORT $LN2@CL_SendDis
	jmp	$LN1@CL_SendDis
$LN2@CL_SendDis:

; 1340 : 
; 1341 : 	MSG_Init( &buf, "LastMessage", data, sizeof( data ));

	push	-1
	push	32					; 00000020H
	lea	eax, DWORD PTR _data$[ebp]
	push	eax
	push	OFFSET ??_C@_0M@BOHCKFHE@LastMessage@
	lea	ecx, DWORD PTR _buf$[ebp]
	push	ecx
	call	_MSG_InitExt
	add	esp, 20					; 00000014H

; 1342 : 	MSG_BeginClientCmd( &buf, clc_stringcmd );

	push	0
	push	0
	push	3
	lea	eax, DWORD PTR _buf$[ebp]
	push	eax
	call	_MSG_WriteCmdExt
	add	esp, 16					; 00000010H

; 1343 : 	MSG_WriteString( &buf, "disconnect" );

	push	OFFSET ??_C@_0L@KKPFIJOL@disconnect@
	lea	eax, DWORD PTR _buf$[ebp]
	push	eax
	call	_MSG_WriteString
	add	esp, 8

; 1344 : 
; 1345 : 	if( !cls.netchan.remote_address.type )

	cmp	DWORD PTR _cls+26804, 0
	jne	SHORT $LN3@CL_SendDis

; 1346 : 		cls.netchan.remote_address.type = NA_LOOPBACK;

	mov	DWORD PTR _cls+26804, 1
$LN3@CL_SendDis:

; 1347 : 
; 1348 : 	// make sure message will be delivered
; 1349 : 	Netchan_TransmitBits( &cls.netchan, MSG_GetNumBitsWritten( &buf ), MSG_GetData( &buf ));

	lea	eax, DWORD PTR _buf$[ebp]
	push	eax
	call	_MSG_GetData
	add	esp, 4
	push	eax
	lea	ecx, DWORD PTR _buf$[ebp]
	push	ecx
	call	_MSG_GetNumBitsWritten
	add	esp, 4
	push	eax
	push	OFFSET _cls+26800
	call	_Netchan_TransmitBits
	add	esp, 12					; 0000000cH

; 1350 : 	Netchan_TransmitBits( &cls.netchan, MSG_GetNumBitsWritten( &buf ), MSG_GetData( &buf ));

	lea	eax, DWORD PTR _buf$[ebp]
	push	eax
	call	_MSG_GetData
	add	esp, 4
	push	eax
	lea	ecx, DWORD PTR _buf$[ebp]
	push	ecx
	call	_MSG_GetNumBitsWritten
	add	esp, 4
	push	eax
	push	OFFSET _cls+26800
	call	_Netchan_TransmitBits
	add	esp, 12					; 0000000cH

; 1351 : 	Netchan_TransmitBits( &cls.netchan, MSG_GetNumBitsWritten( &buf ), MSG_GetData( &buf ));

	lea	eax, DWORD PTR _buf$[ebp]
	push	eax
	call	_MSG_GetData
	add	esp, 4
	push	eax
	lea	ecx, DWORD PTR _buf$[ebp]
	push	ecx
	call	_MSG_GetNumBitsWritten
	add	esp, 4
	push	eax
	push	OFFSET _cls+26800
	call	_Netchan_TransmitBits
	add	esp, 12					; 0000000cH
$LN1@CL_SendDis:

; 1352 : }

	pop	edi
	pop	esi
	pop	ebx
	mov	ecx, DWORD PTR __$ArrayPad$[ebp]
	xor	ecx, ebp
	call	@__security_check_cookie@4
	mov	esp, ebp
	pop	ebp
	ret	0
_CL_SendDisconnectMessage ENDP
_TEXT	ENDS
; Function compile flags: /Odtp /ZI
; File D:\DevDragon\XashFE\dev\src\engine\client\cl_main.c
;	COMDAT _CL_Rcon_f
_TEXT	SEGMENT
$T1 = -1248						; size = 4
_i$ = -1052						; size = 4
_to$ = -1048						; size = 20
_message$ = -1028					; size = 1024
__$ArrayPad$ = -4					; size = 4
_CL_Rcon_f PROC						; COMDAT

; 1232 : {

	push	ebp
	mov	ebp, esp
	sub	esp, 1248				; 000004e0H
	mov	eax, DWORD PTR ___security_cookie
	xor	eax, ebp
	mov	DWORD PTR __$ArrayPad$[ebp], eax
	push	ebx
	push	esi
	push	edi

; 1233 : 	char	message[1024];
; 1234 : 	netadr_t	to;
; 1235 : 	int	i;
; 1236 : 
; 1237 : 	if( !COM_CheckString( rcon_client_password->string ))

	mov	eax, DWORD PTR _rcon_client_password
	mov	ecx, DWORD PTR [eax+4]
	push	ecx
	call	_COM_CheckString
	add	esp, 4
	test	eax, eax
	jne	SHORT $LN5@CL_Rcon_f

; 1238 : 	{
; 1239 : 		Con_Printf( "You must set 'rcon_password' before issuing an rcon command.\n" );

	push	OFFSET ??_C@_0DO@NCNKNADM@You?5must?5set?5?8rcon_password?8?5be@
	call	_Con_Printf
	add	esp, 4

; 1240 : 		return;

	jmp	$LN10@CL_Rcon_f
$LN5@CL_Rcon_f:

; 1241 : 	}
; 1242 : 
; 1243 : 	message[0] = (char)255;

	mov	eax, 1
	imul	ecx, eax, 0
	mov	BYTE PTR _message$[ebp+ecx], -1

; 1244 : 	message[1] = (char)255;

	mov	eax, 1
	shl	eax, 0
	mov	BYTE PTR _message$[ebp+eax], -1

; 1245 : 	message[2] = (char)255;

	mov	eax, 1
	shl	eax, 1
	mov	BYTE PTR _message$[ebp+eax], -1

; 1246 : 	message[3] = (char)255;

	mov	eax, 1
	imul	ecx, eax, 3
	mov	BYTE PTR _message$[ebp+ecx], -1

; 1247 : 	message[4] = 0;

	mov	eax, 1
	shl	eax, 2
	mov	DWORD PTR $T1[ebp], eax
	cmp	DWORD PTR $T1[ebp], 1024		; 00000400H
	jae	SHORT $LN11@CL_Rcon_f
	jmp	SHORT $LN12@CL_Rcon_f
$LN11@CL_Rcon_f:
	call	___report_rangecheckfailure
$LN12@CL_Rcon_f:
	mov	ecx, DWORD PTR $T1[ebp]
	mov	BYTE PTR _message$[ebp+ecx], 0

; 1248 : 
; 1249 : 	NET_Config( true );	// allow remote

	push	1
	call	_NET_Config
	add	esp, 4

; 1250 : 
; 1251 : 	Q_strcat( message, "rcon " );

	push	99999					; 0001869fH
	push	OFFSET ??_C@_05GCMNNKNG@rcon?5@
	lea	eax, DWORD PTR _message$[ebp]
	push	eax
	call	_Q_strncat
	add	esp, 12					; 0000000cH

; 1252 : 	Q_strcat( message, rcon_client_password->string );

	push	99999					; 0001869fH
	mov	eax, DWORD PTR _rcon_client_password
	mov	ecx, DWORD PTR [eax+4]
	push	ecx
	lea	edx, DWORD PTR _message$[ebp]
	push	edx
	call	_Q_strncat
	add	esp, 12					; 0000000cH

; 1253 : 	Q_strcat( message, " " );

	push	99999					; 0001869fH
	push	OFFSET ??_C@_01CLKCMJKC@?5@
	lea	eax, DWORD PTR _message$[ebp]
	push	eax
	call	_Q_strncat
	add	esp, 12					; 0000000cH

; 1254 : 
; 1255 : 	for( i = 1; i < Cmd_Argc(); i++ )

	mov	DWORD PTR _i$[ebp], 1
	jmp	SHORT $LN4@CL_Rcon_f
$LN2@CL_Rcon_f:
	mov	eax, DWORD PTR _i$[ebp]
	add	eax, 1
	mov	DWORD PTR _i$[ebp], eax
$LN4@CL_Rcon_f:
	call	_Cmd_Argc
	cmp	DWORD PTR _i$[ebp], eax
	jae	SHORT $LN3@CL_Rcon_f

; 1256 : 	{
; 1257 : 		Q_strcat( message, Cmd_Argv( i ));

	push	99999					; 0001869fH
	mov	eax, DWORD PTR _i$[ebp]
	push	eax
	call	_Cmd_Argv
	add	esp, 4
	push	eax
	lea	ecx, DWORD PTR _message$[ebp]
	push	ecx
	call	_Q_strncat
	add	esp, 12					; 0000000cH

; 1258 : 		Q_strcat( message, " " );

	push	99999					; 0001869fH
	push	OFFSET ??_C@_01CLKCMJKC@?5@
	lea	eax, DWORD PTR _message$[ebp]
	push	eax
	call	_Q_strncat
	add	esp, 12					; 0000000cH

; 1259 : 	}

	jmp	SHORT $LN2@CL_Rcon_f
$LN3@CL_Rcon_f:

; 1260 : 
; 1261 : 	if( cls.state >= ca_connected )

	cmp	DWORD PTR _cls, 2
	jl	SHORT $LN6@CL_Rcon_f

; 1262 : 	{
; 1263 : 		to = cls.netchan.remote_address;

	mov	eax, DWORD PTR _cls+26804
	mov	DWORD PTR _to$[ebp], eax
	mov	ecx, DWORD PTR _cls+26808
	mov	DWORD PTR _to$[ebp+4], ecx
	mov	edx, DWORD PTR _cls+26812
	mov	DWORD PTR _to$[ebp+8], edx
	mov	eax, DWORD PTR _cls+26816
	mov	DWORD PTR _to$[ebp+12], eax
	mov	ecx, DWORD PTR _cls+26820
	mov	DWORD PTR _to$[ebp+16], ecx

; 1264 : 	}

	jmp	SHORT $LN7@CL_Rcon_f
$LN6@CL_Rcon_f:

; 1265 : 	else
; 1266 : 	{
; 1267 : 		if( !COM_CheckString( rcon_address->string ))

	mov	eax, DWORD PTR _rcon_address
	mov	ecx, DWORD PTR [eax+4]
	push	ecx
	call	_COM_CheckString
	add	esp, 4
	test	eax, eax
	jne	SHORT $LN8@CL_Rcon_f

; 1268 : 		{
; 1269 : 			Con_Printf( "You must either be connected or set the 'rcon_address' cvar to issue rcon commands\n" );

	push	OFFSET ??_C@_0FE@OFOGMBMH@You?5must?5either?5be?5connected?5or@
	call	_Con_Printf
	add	esp, 4

; 1270 : 			return;

	jmp	$LN10@CL_Rcon_f
$LN8@CL_Rcon_f:

; 1271 : 		}
; 1272 : 
; 1273 : 		NET_StringToAdr( rcon_address->string, &to );

	lea	eax, DWORD PTR _to$[ebp]
	push	eax
	mov	ecx, DWORD PTR _rcon_address
	mov	edx, DWORD PTR [ecx+4]
	push	edx
	call	_NET_StringToAdr
	add	esp, 8

; 1274 : 		if( to.port == 0 ) to.port = MSG_BigShort( PORT_SERVER );

	movzx	eax, WORD PTR _to$[ebp+18]
	test	eax, eax
	jne	SHORT $LN7@CL_Rcon_f
	push	27015					; 00006987H
	call	_MSG_BigShort
	add	esp, 4
	mov	WORD PTR _to$[ebp+18], ax
$LN7@CL_Rcon_f:

; 1275 : 	}
; 1276 : 	
; 1277 : 	NET_SendPacket( NS_CLIENT, Q_strlen( message ) + 1, message, to );

	sub	esp, 20					; 00000014H
	mov	eax, esp
	mov	ecx, DWORD PTR _to$[ebp]
	mov	DWORD PTR [eax], ecx
	mov	edx, DWORD PTR _to$[ebp+4]
	mov	DWORD PTR [eax+4], edx
	mov	ecx, DWORD PTR _to$[ebp+8]
	mov	DWORD PTR [eax+8], ecx
	mov	edx, DWORD PTR _to$[ebp+12]
	mov	DWORD PTR [eax+12], edx
	mov	ecx, DWORD PTR _to$[ebp+16]
	mov	DWORD PTR [eax+16], ecx
	lea	edx, DWORD PTR _message$[ebp]
	push	edx
	lea	eax, DWORD PTR _message$[ebp]
	push	eax
	call	_Q_strlen
	add	esp, 4
	add	eax, 1
	push	eax
	push	0
	call	_NET_SendPacket
	add	esp, 32					; 00000020H
$LN10@CL_Rcon_f:

; 1278 : }

	pop	edi
	pop	esi
	pop	ebx
	mov	ecx, DWORD PTR __$ArrayPad$[ebp]
	xor	ecx, ebp
	call	@__security_check_cookie@4
	mov	esp, ebp
	pop	ebp
	ret	0
_CL_Rcon_f ENDP
_TEXT	ENDS
; Function compile flags: /Odtp /ZI
; File D:\DevDragon\XashFE\dev\src\engine\client\cl_main.c
;	COMDAT _CL_Connect_f
_TEXT	SEGMENT
_server$ = -260						; size = 256
__$ArrayPad$ = -4					; size = 4
_CL_Connect_f PROC					; COMDAT

; 1192 : {

	push	ebp
	mov	ebp, esp
	sub	esp, 324				; 00000144H
	mov	eax, DWORD PTR ___security_cookie
	xor	eax, ebp
	mov	DWORD PTR __$ArrayPad$[ebp], eax
	push	ebx
	push	esi
	push	edi

; 1193 : 	string	server;
; 1194 : 
; 1195 : 	if( Cmd_Argc() != 2 )

	call	_Cmd_Argc
	cmp	eax, 2
	je	SHORT $LN2@CL_Connect

; 1196 : 	{
; 1197 : 		Con_Printf( S_USAGE "connect <server>\n" );

	push	OFFSET ??_C@_0BJ@FPBNGOLO@Usage?3?5connect?5?$DMserver?$DO?6@
	call	_Con_Printf
	add	esp, 4

; 1198 : 		return;	

	jmp	$LN1@CL_Connect
$LN2@CL_Connect:

; 1199 : 	}
; 1200 : 
; 1201 : 	Q_strncpy( server, Cmd_Argv( 1 ), sizeof( server ));

	push	256					; 00000100H
	push	1
	call	_Cmd_Argv
	add	esp, 4
	push	eax
	lea	eax, DWORD PTR _server$[ebp]
	push	eax
	call	_Q_strncpy
	add	esp, 12					; 0000000cH

; 1202 : 
; 1203 : 	// if running a local server, kill it and reissue
; 1204 : 	if( SV_Active( )) Host_ShutdownServer();

	call	_SV_Active
	test	eax, eax
	je	SHORT $LN3@CL_Connect
	call	_Host_ShutdownServer
$LN3@CL_Connect:

; 1205 : 	NET_Config( true ); // allow remote

	push	1
	call	_NET_Config
	add	esp, 4

; 1206 : 
; 1207 : 	Con_Printf( "server %s\n", server );

	lea	eax, DWORD PTR _server$[ebp]
	push	eax
	push	OFFSET ??_C@_0L@BFANEHJC@server?5?$CFs?6@
	call	_Con_Printf
	add	esp, 8

; 1208 : 	CL_Disconnect();

	call	_CL_Disconnect

; 1209 : 
; 1210 : 	// TESTTEST: a see console during connection
; 1211 : 	UI_SetActiveMenu( false );

	push	0
	call	_UI_SetActiveMenu
	add	esp, 4

; 1212 : 	Key_SetKeyDest( key_console );

	push	0
	call	_Key_SetKeyDest
	add	esp, 4

; 1213 : 
; 1214 : 	cls.state = ca_connecting;

	mov	DWORD PTR _cls, 1

; 1215 : 	Q_strncpy( cls.servername, server, sizeof( cls.servername ));

	push	64					; 00000040H
	lea	eax, DWORD PTR _server$[ebp]
	push	eax
	push	OFFSET _cls+72
	call	_Q_strncpy
	add	esp, 12					; 0000000cH

; 1216 : 	cls.connect_time = MAX_HEARTBEAT; // CL_CheckForResend() will fire immediately

	movsd	xmm0, QWORD PTR __real@c0f869f000000000
	movsd	QWORD PTR _cls+136, xmm0

; 1217 : 	cls.max_fragment_size = FRAGMENT_MAX_SIZE; // guess a we can establish connection with maximum fragment size

	mov	DWORD PTR _cls+144, 64000		; 0000fa00H

; 1218 : 	cls.connect_retry = 0;

	mov	DWORD PTR _cls+148, 0

; 1219 : 	cls.spectator = false;

	mov	DWORD PTR _cls+152, 0

; 1220 : 	cls.signon = 0;

	mov	DWORD PTR _cls+64, 0
$LN1@CL_Connect:

; 1221 : }

	pop	edi
	pop	esi
	pop	ebx
	mov	ecx, DWORD PTR __$ArrayPad$[ebp]
	xor	ecx, ebp
	call	@__security_check_cookie@4
	mov	esp, ebp
	pop	ebp
	ret	0
_CL_Connect_f ENDP
_TEXT	ENDS
; Function compile flags: /Odtp /ZI
; File D:\DevDragon\XashFE\dev\src\engine\client\cl_main.c
;	COMDAT _CL_CreateResourceList
_TEXT	SEGMENT
_fp$ = -292						; size = 4
_nSize$ = -288						; size = 4
_pNewResource$ = -284					; size = 4
_rgucMD5_hash$ = -280					; size = 16
_szFileName$ = -264					; size = 260
__$ArrayPad$ = -4					; size = 4
_CL_CreateResourceList PROC				; COMDAT

; 1150 : {

	push	ebp
	mov	ebp, esp
	sub	esp, 356				; 00000164H
	mov	eax, DWORD PTR ___security_cookie
	xor	eax, ebp
	mov	DWORD PTR __$ArrayPad$[ebp], eax
	push	ebx
	push	esi
	push	edi

; 1151 : 	char		szFileName[MAX_OSPATH];
; 1152 : 	byte		rgucMD5_hash[16];
; 1153 : 	resource_t	*pNewResource;
; 1154 : 	int		nSize;
; 1155 : 	file_t		*fp;
; 1156 : 
; 1157 : 	HPAK_FlushHostQueue();

	call	_HPAK_FlushHostQueue

; 1158 : 	cl.num_resources = 0;

	mov	DWORD PTR _cl+4561592, 0

; 1159 : 
; 1160 : 	Q_snprintf( szFileName, sizeof( szFileName ), "logos/remapped.bmp" );

	push	OFFSET ??_C@_0BD@IOMBPIHF@logos?1remapped?4bmp@
	push	260					; 00000104H
	lea	eax, DWORD PTR _szFileName$[ebp]
	push	eax
	call	_Q_snprintf
	add	esp, 12					; 0000000cH

; 1161 : 	memset( rgucMD5_hash, 0, sizeof( rgucMD5_hash ));

	push	16					; 00000010H
	push	0
	lea	eax, DWORD PTR _rgucMD5_hash$[ebp]
	push	eax
	call	_memset
	add	esp, 12					; 0000000cH

; 1162 : 
; 1163 : 	fp = FS_Open( szFileName, "rb", true );

	push	1
	push	OFFSET ??_C@_02JDPG@rb@
	lea	eax, DWORD PTR _szFileName$[ebp]
	push	eax
	call	_FS_Open
	add	esp, 12					; 0000000cH
	mov	DWORD PTR _fp$[ebp], eax

; 1164 : 
; 1165 : 	if( fp )

	cmp	DWORD PTR _fp$[ebp], 0
	je	$LN1@CL_CreateR

; 1166 : 	{
; 1167 : 		MD5_HashFile( rgucMD5_hash, szFileName, NULL );

	push	0
	lea	eax, DWORD PTR _szFileName$[ebp]
	push	eax
	lea	ecx, DWORD PTR _rgucMD5_hash$[ebp]
	push	ecx
	call	_MD5_HashFile
	add	esp, 12					; 0000000cH

; 1168 : 		nSize = FS_FileLength( fp );

	mov	eax, DWORD PTR _fp$[ebp]
	push	eax
	call	_FS_FileLength
	add	esp, 4
	mov	DWORD PTR _nSize$[ebp], eax

; 1169 : 
; 1170 : 		if( nSize != 0 )

	cmp	DWORD PTR _nSize$[ebp], 0
	je	SHORT $LN3@CL_CreateR

; 1171 : 		{
; 1172 : 			pNewResource = CL_AddResource( t_decal, szFileName, nSize, false, 0 );

	push	0
	push	0
	mov	eax, DWORD PTR _nSize$[ebp]
	push	eax
	lea	ecx, DWORD PTR _szFileName$[ebp]
	push	ecx
	push	3
	call	_CL_AddResource
	add	esp, 20					; 00000014H
	mov	DWORD PTR _pNewResource$[ebp], eax

; 1173 : 
; 1174 : 			if( pNewResource )

	cmp	DWORD PTR _pNewResource$[ebp], 0
	je	SHORT $LN3@CL_CreateR

; 1175 : 			{
; 1176 : 				SetBits( pNewResource->ucFlags, RES_CUSTOM );

	mov	eax, DWORD PTR _pNewResource$[ebp]
	movzx	ecx, BYTE PTR [eax+76]
	or	ecx, 4
	mov	edx, DWORD PTR _pNewResource$[ebp]
	mov	BYTE PTR [edx+76], cl

; 1177 : 				memcpy( pNewResource->rgucMD5_hash, rgucMD5_hash, 16 );

	push	16					; 00000010H
	lea	eax, DWORD PTR _rgucMD5_hash$[ebp]
	push	eax
	mov	ecx, DWORD PTR _pNewResource$[ebp]
	add	ecx, 77					; 0000004dH
	push	ecx
	call	_memcpy
	add	esp, 12					; 0000000cH

; 1178 : 				HPAK_AddLump( false, CUSTOM_RES_PATH, pNewResource, NULL, fp );

	mov	eax, DWORD PTR _fp$[ebp]
	push	eax
	push	0
	mov	ecx, DWORD PTR _pNewResource$[ebp]
	push	ecx
	push	OFFSET ??_C@_0L@DHBFCELB@custom?4hpk@
	push	0
	call	_HPAK_AddLump
	add	esp, 20					; 00000014H
$LN3@CL_CreateR:

; 1179 : 			}
; 1180 : 		}
; 1181 : 		FS_Close( fp );

	mov	eax, DWORD PTR _fp$[ebp]
	push	eax
	call	_FS_Close
	add	esp, 4
$LN1@CL_CreateR:

; 1182 : 	}
; 1183 : }

	pop	edi
	pop	esi
	pop	ebx
	mov	ecx, DWORD PTR __$ArrayPad$[ebp]
	xor	ecx, ebp
	call	@__security_check_cookie@4
	mov	esp, ebp
	pop	ebp
	ret	0
_CL_CreateResourceList ENDP
_TEXT	ENDS
; Function compile flags: /Odtp /ZI
; File D:\DevDragon\XashFE\dev\src\engine\client\cl_main.c
;	COMDAT _CL_AddResource
_TEXT	SEGMENT
tv75 = -72						; size = 4
_r$ = -4						; size = 4
_type$ = 8						; size = 4
_name$ = 12						; size = 4
_size$ = 16						; size = 4
_bFatalIfMissing$ = 20					; size = 4
_index$ = 24						; size = 4
_CL_AddResource PROC					; COMDAT

; 1133 : {

	push	ebp
	mov	ebp, esp
	sub	esp, 72					; 00000048H
	push	ebx
	push	esi
	push	edi

; 1134 : 	resource_t	*r = &cl.resourcelist[cl.num_resources];

	imul	eax, DWORD PTR _cl+4561592, 136
	add	eax, OFFSET _cl+3029688
	mov	DWORD PTR _r$[ebp], eax

; 1135 : 
; 1136 : 	if( cl.num_resources >= MAX_RESOURCES )

	cmp	DWORD PTR _cl+4561592, 11264		; 00002c00H
	jl	SHORT $LN2@CL_AddReso

; 1137 : 		Host_Error( "Too many resources on client\n" );

	push	OFFSET ??_C@_0BO@LICHHHNB@Too?5many?5resources?5on?5client?6@
	call	_Host_Error
	add	esp, 4
$LN2@CL_AddReso:

; 1138 : 	cl.num_resources++;

	mov	eax, DWORD PTR _cl+4561592
	add	eax, 1
	mov	DWORD PTR _cl+4561592, eax

; 1139 : 
; 1140 : 	Q_strncpy( r->szFileName, name, sizeof( r->szFileName ));

	push	64					; 00000040H
	mov	eax, DWORD PTR _name$[ebp]
	push	eax
	mov	ecx, DWORD PTR _r$[ebp]
	push	ecx
	call	_Q_strncpy
	add	esp, 12					; 0000000cH

; 1141 : 	r->ucFlags |= bFatalIfMissing ? RES_FATALIFMISSING : 0;

	cmp	DWORD PTR _bFatalIfMissing$[ebp], 0
	je	SHORT $LN4@CL_AddReso
	mov	DWORD PTR tv75[ebp], 1
	jmp	SHORT $LN5@CL_AddReso
$LN4@CL_AddReso:
	mov	DWORD PTR tv75[ebp], 0
$LN5@CL_AddReso:
	mov	eax, DWORD PTR _r$[ebp]
	movzx	ecx, BYTE PTR [eax+76]
	or	ecx, DWORD PTR tv75[ebp]
	mov	edx, DWORD PTR _r$[ebp]
	mov	BYTE PTR [edx+76], cl

; 1142 : 	r->nDownloadSize = size;

	mov	eax, DWORD PTR _r$[ebp]
	mov	ecx, DWORD PTR _size$[ebp]
	mov	DWORD PTR [eax+72], ecx

; 1143 : 	r->nIndex = index;

	mov	eax, DWORD PTR _r$[ebp]
	mov	ecx, DWORD PTR _index$[ebp]
	mov	DWORD PTR [eax+68], ecx

; 1144 : 	r->type = type;

	mov	eax, DWORD PTR _r$[ebp]
	mov	ecx, DWORD PTR _type$[ebp]
	mov	DWORD PTR [eax+64], ecx

; 1145 : 
; 1146 : 	return r;

	mov	eax, DWORD PTR _r$[ebp]

; 1147 : }

	pop	edi
	pop	esi
	pop	ebx
	mov	esp, ebp
	pop	ebp
	ret	0
_CL_AddResource ENDP
_TEXT	ENDS
; Function compile flags: /Odtp /ZI
; File D:\DevDragon\XashFE\dev\src\engine\client\cl_main.c
;	COMDAT _CL_CheckForResend
_TEXT	SEGMENT
tv137 = -100						; size = 4
tv139 = -96						; size = 4
tv133 = -92						; size = 4
_adr$ = -24						; size = 20
__$ArrayPad$ = -4					; size = 4
_CL_CheckForResend PROC					; COMDAT

; 1068 : {

	push	ebp
	mov	ebp, esp
	sub	esp, 100				; 00000064H
	mov	eax, DWORD PTR ___security_cookie
	xor	eax, ebp
	mov	DWORD PTR __$ArrayPad$[ebp], eax
	push	ebx
	push	esi
	push	edi

; 1069 : 	netadr_t	adr;
; 1070 : 
; 1071 : 	// if the local server is running and we aren't then connect
; 1072 : 	if( cls.state == ca_disconnected && SV_Active( ))

	cmp	DWORD PTR _cls, 0
	jne	SHORT $LN2@CL_CheckFo
	call	_SV_Active
	test	eax, eax
	je	SHORT $LN2@CL_CheckFo

; 1073 : 	{
; 1074 : 		cls.signon = 0;

	mov	DWORD PTR _cls+64, 0

; 1075 : 		cls.state = ca_connecting;

	mov	DWORD PTR _cls, 1

; 1076 : 		Q_strncpy( cls.servername, "localhost", sizeof( cls.servername ));

	push	64					; 00000040H
	push	OFFSET ??_C@_09IPAEKDAI@localhost@
	push	OFFSET _cls+72
	call	_Q_strncpy
	add	esp, 12					; 0000000cH

; 1077 : 		// we don't need a challenge on the localhost
; 1078 : 		CL_SendConnectPacket();

	call	_CL_SendConnectPacket

; 1079 : 		return;

	jmp	$LN14@CL_CheckFo
$LN2@CL_CheckFo:

; 1080 : 	}
; 1081 : 
; 1082 : 	// resend if we haven't gotten a reply yet
; 1083 : 	if( cls.demoplayback || cls.state != ca_connecting )

	cmp	DWORD PTR _cls+300828, 0
	jne	SHORT $LN4@CL_CheckFo
	cmp	DWORD PTR _cls, 1
	je	SHORT $LN3@CL_CheckFo
$LN4@CL_CheckFo:

; 1084 : 		return;

	jmp	$LN14@CL_CheckFo
$LN3@CL_CheckFo:

; 1085 : 
; 1086 : 	if( cl_resend.value < CL_MIN_RESEND_TIME )

	movss	xmm0, DWORD PTR __real@3fc00000
	comiss	xmm0, DWORD PTR _cl_resend+12
	jbe	SHORT $LN5@CL_CheckFo

; 1087 : 		Cvar_SetValue( "cl_resend", CL_MIN_RESEND_TIME );

	push	ecx
	movss	xmm0, DWORD PTR __real@3fc00000
	movss	DWORD PTR [esp], xmm0
	push	OFFSET ??_C@_09MCGIDBGM@cl_resend@
	call	_Cvar_SetValue
	add	esp, 8
	jmp	SHORT $LN7@CL_CheckFo
$LN5@CL_CheckFo:

; 1088 : 	else if( cl_resend.value > CL_MAX_RESEND_TIME )

	movss	xmm0, DWORD PTR _cl_resend+12
	comiss	xmm0, DWORD PTR __real@41a00000
	jbe	SHORT $LN7@CL_CheckFo

; 1089 : 		Cvar_SetValue( "cl_resend", CL_MAX_RESEND_TIME );

	push	ecx
	movss	xmm0, DWORD PTR __real@41a00000
	movss	DWORD PTR [esp], xmm0
	push	OFFSET ??_C@_09MCGIDBGM@cl_resend@
	call	_Cvar_SetValue
	add	esp, 8
$LN7@CL_CheckFo:

; 1090 : 
; 1091 : 	if(( host.realtime - cls.connect_time ) < cl_resend.value )

	movsd	xmm0, QWORD PTR _host+1440
	subsd	xmm0, QWORD PTR _cls+136
	cvtss2sd xmm1, DWORD PTR _cl_resend+12
	comisd	xmm1, xmm0
	jbe	SHORT $LN8@CL_CheckFo

; 1092 : 		return;

	jmp	$LN14@CL_CheckFo
$LN8@CL_CheckFo:

; 1093 : 
; 1094 : 	if( !NET_StringToAdr( cls.servername, &adr ))

	lea	eax, DWORD PTR _adr$[ebp]
	push	eax
	push	OFFSET _cls+72
	call	_NET_StringToAdr
	add	esp, 8
	test	eax, eax
	jne	SHORT $LN9@CL_CheckFo

; 1095 : 	{
; 1096 : 		CL_Disconnect();

	call	_CL_Disconnect

; 1097 : 		return;

	jmp	$LN14@CL_CheckFo
$LN9@CL_CheckFo:

; 1098 : 	}
; 1099 : 
; 1100 : 	// only retry so many times before failure.
; 1101 : 	if( cls.connect_retry >= CL_CONNECTION_RETRIES )

	cmp	DWORD PTR _cls+148, 10			; 0000000aH
	jl	SHORT $LN10@CL_CheckFo

; 1102 : 	{
; 1103 : 		Con_DPrintf( S_ERROR "CL_CheckForResend: couldn't connected\n" );

	push	OFFSET ??_C@_0DC@CJPDMOGH@?$FO1Error?3?$FO7?5CL_CheckForResend?3?5c@
	call	_Con_DPrintf
	add	esp, 4

; 1104 : 		CL_Disconnect();

	call	_CL_Disconnect

; 1105 : 		return;

	jmp	$LN14@CL_CheckFo
$LN10@CL_CheckFo:

; 1106 : 	}
; 1107 : 
; 1108 : 	if( adr.port == 0 ) adr.port = MSG_BigShort( PORT_SERVER );

	movzx	eax, WORD PTR _adr$[ebp+18]
	test	eax, eax
	jne	SHORT $LN11@CL_CheckFo
	push	27015					; 00006987H
	call	_MSG_BigShort
	add	esp, 4
	mov	WORD PTR _adr$[ebp+18], ax
$LN11@CL_CheckFo:

; 1109 : 
; 1110 : 	if( cls.connect_retry == CL_TEST_RETRIES_NORESPONCE )

	cmp	DWORD PTR _cls+148, 2
	jne	SHORT $LN12@CL_CheckFo

; 1111 : 	{
; 1112 : 		// too many fails use default connection method
; 1113 : 		Con_Printf( "hi-speed connection is failed, use default method\n" );

	push	OFFSET ??_C@_0DD@MOPJJDLG@hi?9speed?5connection?5is?5failed?0?5@
	call	_Con_Printf
	add	esp, 4

; 1114 : 		Netchan_OutOfBandPrint( NS_CLIENT, adr, "getchallenge\n" );

	push	OFFSET ??_C@_0O@BELBLLBG@getchallenge?6@
	sub	esp, 20					; 00000014H
	mov	eax, esp
	mov	ecx, DWORD PTR _adr$[ebp]
	mov	DWORD PTR [eax], ecx
	mov	edx, DWORD PTR _adr$[ebp+4]
	mov	DWORD PTR [eax+4], edx
	mov	ecx, DWORD PTR _adr$[ebp+8]
	mov	DWORD PTR [eax+8], ecx
	mov	edx, DWORD PTR _adr$[ebp+12]
	mov	DWORD PTR [eax+12], edx
	mov	ecx, DWORD PTR _adr$[ebp+16]
	mov	DWORD PTR [eax+16], ecx
	push	0
	call	_Netchan_OutOfBandPrint
	add	esp, 28					; 0000001cH

; 1115 : 		Cvar_SetValue( "cl_dlmax", FRAGMENT_MIN_SIZE );

	push	ecx
	movss	xmm0, DWORD PTR __real@44960000
	movss	DWORD PTR [esp], xmm0
	push	OFFSET ??_C@_08IGNJNAKN@cl_dlmax@
	call	_Cvar_SetValue
	add	esp, 8

; 1116 : 		cls.connect_time = host.realtime;

	movsd	xmm0, QWORD PTR _host+1440
	movsd	QWORD PTR _cls+136, xmm0

; 1117 : 		cls.connect_retry++;

	mov	eax, DWORD PTR _cls+148
	add	eax, 1
	mov	DWORD PTR _cls+148, eax

; 1118 : 		return;

	jmp	$LN14@CL_CheckFo
$LN12@CL_CheckFo:

; 1119 : 	}
; 1120 : 
; 1121 : 	cls.max_fragment_size = Q_max( FRAGMENT_MAX_SIZE, cls.max_fragment_size >> Q_min( 1, cls.connect_retry ));

	cmp	DWORD PTR _cls+148, 1
	jle	SHORT $LN16@CL_CheckFo
	mov	DWORD PTR tv133[ebp], 1
	jmp	SHORT $LN17@CL_CheckFo
$LN16@CL_CheckFo:
	mov	eax, DWORD PTR _cls+148
	mov	DWORD PTR tv133[ebp], eax
$LN17@CL_CheckFo:
	mov	edx, DWORD PTR _cls+144
	mov	ecx, DWORD PTR tv133[ebp]
	sar	edx, cl
	cmp	edx, 64000				; 0000fa00H
	jge	SHORT $LN20@CL_CheckFo
	mov	DWORD PTR tv139[ebp], 64000		; 0000fa00H
	jmp	SHORT $LN21@CL_CheckFo
$LN20@CL_CheckFo:
	cmp	DWORD PTR _cls+148, 1
	jle	SHORT $LN18@CL_CheckFo
	mov	DWORD PTR tv137[ebp], 1
	jmp	SHORT $LN19@CL_CheckFo
$LN18@CL_CheckFo:
	mov	eax, DWORD PTR _cls+148
	mov	DWORD PTR tv137[ebp], eax
$LN19@CL_CheckFo:
	mov	edx, DWORD PTR _cls+144
	mov	ecx, DWORD PTR tv137[ebp]
	sar	edx, cl
	mov	DWORD PTR tv139[ebp], edx
$LN21@CL_CheckFo:
	mov	eax, DWORD PTR tv139[ebp]
	mov	DWORD PTR _cls+144, eax

; 1122 : 	cls.connect_time = host.realtime; // for retransmit requests

	movsd	xmm0, QWORD PTR _host+1440
	movsd	QWORD PTR _cls+136, xmm0

; 1123 : 	cls.connect_retry++;

	mov	eax, DWORD PTR _cls+148
	add	eax, 1
	mov	DWORD PTR _cls+148, eax

; 1124 : 
; 1125 : 	Con_Printf( "Connecting to %s... [retry #%i]\n", cls.servername, cls.connect_retry );

	mov	eax, DWORD PTR _cls+148
	push	eax
	push	OFFSET _cls+72
	push	OFFSET ??_C@_0CB@PLILGMJK@Connecting?5to?5?$CFs?4?4?4?5?$FLretry?5?$CD?$CFi?$FN@
	call	_Con_Printf
	add	esp, 12					; 0000000cH

; 1126 : 
; 1127 : 	if( cl_test_bandwidth.value )

	movss	xmm0, DWORD PTR _cl_test_bandwidth+12
	ucomiss	xmm0, DWORD PTR __real@00000000
	lahf
	test	ah, 68					; 00000044H
	jnp	SHORT $LN13@CL_CheckFo

; 1128 : 		Netchan_OutOfBandPrint( NS_CLIENT, adr, "bandwidth %i %i\n", PROTOCOL_VERSION, cls.max_fragment_size );

	mov	eax, DWORD PTR _cls+144
	push	eax
	push	49					; 00000031H
	push	OFFSET ??_C@_0BB@BGHIAFEK@bandwidth?5?$CFi?5?$CFi?6@
	sub	esp, 20					; 00000014H
	mov	ecx, esp
	mov	edx, DWORD PTR _adr$[ebp]
	mov	DWORD PTR [ecx], edx
	mov	eax, DWORD PTR _adr$[ebp+4]
	mov	DWORD PTR [ecx+4], eax
	mov	edx, DWORD PTR _adr$[ebp+8]
	mov	DWORD PTR [ecx+8], edx
	mov	eax, DWORD PTR _adr$[ebp+12]
	mov	DWORD PTR [ecx+12], eax
	mov	edx, DWORD PTR _adr$[ebp+16]
	mov	DWORD PTR [ecx+16], edx
	push	0
	call	_Netchan_OutOfBandPrint
	add	esp, 36					; 00000024H
	jmp	SHORT $LN14@CL_CheckFo
$LN13@CL_CheckFo:

; 1129 : 	else Netchan_OutOfBandPrint( NS_CLIENT, adr, "getchallenge\n" );

	push	OFFSET ??_C@_0O@BELBLLBG@getchallenge?6@
	sub	esp, 20					; 00000014H
	mov	eax, esp
	mov	ecx, DWORD PTR _adr$[ebp]
	mov	DWORD PTR [eax], ecx
	mov	edx, DWORD PTR _adr$[ebp+4]
	mov	DWORD PTR [eax+4], edx
	mov	ecx, DWORD PTR _adr$[ebp+8]
	mov	DWORD PTR [eax+8], ecx
	mov	edx, DWORD PTR _adr$[ebp+12]
	mov	DWORD PTR [eax+12], edx
	mov	ecx, DWORD PTR _adr$[ebp+16]
	mov	DWORD PTR [eax+16], ecx
	push	0
	call	_Netchan_OutOfBandPrint
	add	esp, 28					; 0000001cH
$LN14@CL_CheckFo:

; 1130 : }

	pop	edi
	pop	esi
	pop	ebx
	mov	ecx, DWORD PTR __$ArrayPad$[ebp]
	xor	ecx, ebp
	call	@__security_check_cookie@4
	mov	esp, ebp
	pop	ebp
	ret	0
_CL_CheckForResend ENDP
_TEXT	ENDS
; Function compile flags: /Odtp /ZI
; File D:\DevDragon\XashFE\dev\src\engine\client\cl_main.c
;	COMDAT _CL_SendConnectPacket
_TEXT	SEGMENT
_adr$ = -288						; size = 20
_key$ = -268						; size = 4
_qport$ = -264						; size = 4
_protinfo$ = -260					; size = 256
__$ArrayPad$ = -4					; size = 4
_CL_SendConnectPacket PROC				; COMDAT

; 1035 : {

	push	ebp
	mov	ebp, esp
	sub	esp, 352				; 00000160H
	mov	eax, DWORD PTR ___security_cookie
	xor	eax, ebp
	mov	DWORD PTR __$ArrayPad$[ebp], eax
	push	ebx
	push	esi
	push	edi

; 1036 : 	char	protinfo[MAX_INFO_STRING];
; 1037 : 	char	*qport;
; 1038 : 	char	*key;
; 1039 : 	netadr_t	adr;
; 1040 : 
; 1041 : 	if( !NET_StringToAdr( cls.servername, &adr ))

	lea	eax, DWORD PTR _adr$[ebp]
	push	eax
	push	OFFSET _cls+72
	call	_NET_StringToAdr
	add	esp, 8
	test	eax, eax
	jne	SHORT $LN2@CL_SendCon

; 1042 : 	{
; 1043 : 		Con_Printf( "CL_SendConnectPacket: bad server address\n");

	push	OFFSET ??_C@_0CK@GCLLEHKK@CL_SendConnectPacket?3?5bad?5serve@
	call	_Con_Printf
	add	esp, 4

; 1044 : 		cls.connect_time = 0;

	xorps	xmm0, xmm0
	movsd	QWORD PTR _cls+136, xmm0

; 1045 : 		return;

	jmp	$LN1@CL_SendCon
$LN2@CL_SendCon:

; 1046 : 	}
; 1047 : 
; 1048 : 	if( adr.port == 0 ) adr.port = MSG_BigShort( PORT_SERVER );

	movzx	eax, WORD PTR _adr$[ebp+18]
	test	eax, eax
	jne	SHORT $LN3@CL_SendCon
	push	27015					; 00006987H
	call	_MSG_BigShort
	add	esp, 4
	mov	WORD PTR _adr$[ebp+18], ax
$LN3@CL_SendCon:

; 1049 : 	qport = Cvar_VariableString( "net_qport" );

	push	OFFSET ??_C@_09HOOHLIKH@net_qport@
	call	_Cvar_VariableString
	add	esp, 4
	mov	DWORD PTR _qport$[ebp], eax

; 1050 : 	key = CL_GetCDKeyHash();

	call	_CL_GetCDKeyHash
	mov	DWORD PTR _key$[ebp], eax

; 1051 : 
; 1052 : 	memset( protinfo, 0, sizeof( protinfo ));

	push	256					; 00000100H
	push	0
	lea	eax, DWORD PTR _protinfo$[ebp]
	push	eax
	call	_memset
	add	esp, 12					; 0000000cH

; 1053 : 	Info_SetValueForKey( protinfo, "uuid", key, sizeof( protinfo ));

	push	256					; 00000100H
	mov	eax, DWORD PTR _key$[ebp]
	push	eax
	push	OFFSET ??_C@_04BCJJGJPP@uuid@
	lea	ecx, DWORD PTR _protinfo$[ebp]
	push	ecx
	call	_Info_SetValueForKey
	add	esp, 16					; 00000010H

; 1054 : 	Info_SetValueForKey( protinfo, "qport", qport, sizeof( protinfo ));

	push	256					; 00000100H
	mov	eax, DWORD PTR _qport$[ebp]
	push	eax
	push	OFFSET ??_C@_05IPCIHGO@qport@
	lea	ecx, DWORD PTR _protinfo$[ebp]
	push	ecx
	call	_Info_SetValueForKey
	add	esp, 16					; 00000010H

; 1055 : 
; 1056 : 	Netchan_OutOfBandPrint( NS_CLIENT, adr, "connect %i %i \"%s\" \"%s\"\n", PROTOCOL_VERSION, cls.challenge, protinfo, cls.userinfo );

	push	OFFSET _cls+9880
	lea	eax, DWORD PTR _protinfo$[ebp]
	push	eax
	mov	ecx, DWORD PTR _cls+290568
	push	ecx
	push	49					; 00000031H
	push	OFFSET ??_C@_0BJ@INHGGABP@connect?5?$CFi?5?$CFi?5?$CC?$CFs?$CC?5?$CC?$CFs?$CC?6@
	sub	esp, 20					; 00000014H
	mov	edx, esp
	mov	eax, DWORD PTR _adr$[ebp]
	mov	DWORD PTR [edx], eax
	mov	ecx, DWORD PTR _adr$[ebp+4]
	mov	DWORD PTR [edx+4], ecx
	mov	eax, DWORD PTR _adr$[ebp+8]
	mov	DWORD PTR [edx+8], eax
	mov	ecx, DWORD PTR _adr$[ebp+12]
	mov	DWORD PTR [edx+12], ecx
	mov	eax, DWORD PTR _adr$[ebp+16]
	mov	DWORD PTR [edx+16], eax
	push	0
	call	_Netchan_OutOfBandPrint
	add	esp, 44					; 0000002cH

; 1057 : 	cls.timestart = Sys_DoubleTime();

	call	_Sys_DoubleTime
	fstp	QWORD PTR _cls+16
$LN1@CL_SendCon:

; 1058 : }

	pop	edi
	pop	esi
	pop	ebx
	mov	ecx, DWORD PTR __$ArrayPad$[ebp]
	xor	ecx, ebp
	call	@__security_check_cookie@4
	mov	esp, ebp
	pop	ebp
	ret	0
_CL_SendConnectPacket ENDP
_TEXT	ENDS
; Function compile flags: /Odtp /ZI
; File D:\DevDragon\XashFE\dev\src\engine\client\cl_main.c
;	COMDAT _CL_GetCDKeyHash
_TEXT	SEGMENT
$T1 = -188						; size = 4
_ctx$ = -120						; size = 88
_digest$ = -32						; size = 17
_nKeyLength$ = -12					; size = 4
_keyBuffer$ = -8					; size = 4
__$ArrayPad$ = -4					; size = 4
_CL_GetCDKeyHash PROC					; COMDAT

; 1002 : {

	push	ebp
	mov	ebp, esp
	sub	esp, 188				; 000000bcH
	mov	eax, DWORD PTR ___security_cookie
	xor	eax, ebp
	mov	DWORD PTR __$ArrayPad$[ebp], eax
	push	ebx
	push	esi
	push	edi

; 1003 : 	const char	*keyBuffer;
; 1004 : 	static char	szHashedKeyBuffer[256];
; 1005 : 	int		nKeyLength = 0;

	mov	DWORD PTR _nKeyLength$[ebp], 0

; 1006 : 	byte		digest[17]; // The MD5 Hash
; 1007 : 	MD5Context_t	ctx;
; 1008 : 
; 1009 : 	keyBuffer = Sys_GetMachineKey( &nKeyLength );

	lea	eax, DWORD PTR _nKeyLength$[ebp]
	push	eax
	call	_Sys_GetMachineKey
	add	esp, 4
	mov	DWORD PTR _keyBuffer$[ebp], eax

; 1010 : 
; 1011 : 	// now get the md5 hash of the key
; 1012 : 	memset( &ctx, 0, sizeof( ctx ));

	push	88					; 00000058H
	push	0
	lea	eax, DWORD PTR _ctx$[ebp]
	push	eax
	call	_memset
	add	esp, 12					; 0000000cH

; 1013 : 	memset( digest, 0, sizeof( digest ));

	push	17					; 00000011H
	push	0
	lea	eax, DWORD PTR _digest$[ebp]
	push	eax
	call	_memset
	add	esp, 12					; 0000000cH

; 1014 : 	
; 1015 : 	MD5Init( &ctx );

	lea	eax, DWORD PTR _ctx$[ebp]
	push	eax
	call	_MD5Init
	add	esp, 4

; 1016 : 	MD5Update( &ctx, (byte *)keyBuffer, nKeyLength );

	mov	eax, DWORD PTR _nKeyLength$[ebp]
	push	eax
	mov	ecx, DWORD PTR _keyBuffer$[ebp]
	push	ecx
	lea	edx, DWORD PTR _ctx$[ebp]
	push	edx
	call	_MD5Update
	add	esp, 12					; 0000000cH

; 1017 : 	MD5Final( digest, &ctx );

	lea	eax, DWORD PTR _ctx$[ebp]
	push	eax
	lea	ecx, DWORD PTR _digest$[ebp]
	push	ecx
	call	_MD5Final
	add	esp, 8

; 1018 : 	digest[16] = '\0';

	mov	eax, 1
	shl	eax, 4
	mov	DWORD PTR $T1[ebp], eax
	cmp	DWORD PTR $T1[ebp], 17			; 00000011H
	jae	SHORT $LN3@CL_GetCDKe
	jmp	SHORT $LN4@CL_GetCDKe
$LN3@CL_GetCDKe:
	call	___report_rangecheckfailure
$LN4@CL_GetCDKe:
	mov	ecx, DWORD PTR $T1[ebp]
	mov	BYTE PTR _digest$[ebp+ecx], 0

; 1019 : 
; 1020 : 	memset( szHashedKeyBuffer, 0, 256 );

	push	256					; 00000100H
	push	0
	push	OFFSET ?szHashedKeyBuffer@?1??CL_GetCDKeyHash@@9@9
	call	_memset
	add	esp, 12					; 0000000cH

; 1021 : 	Q_strncpy( szHashedKeyBuffer, MD5_Print( digest ), sizeof( szHashedKeyBuffer ));

	push	256					; 00000100H
	lea	eax, DWORD PTR _digest$[ebp]
	push	eax
	call	_MD5_Print
	add	esp, 4
	push	eax
	push	OFFSET ?szHashedKeyBuffer@?1??CL_GetCDKeyHash@@9@9
	call	_Q_strncpy
	add	esp, 12					; 0000000cH

; 1022 : 
; 1023 : 	return szHashedKeyBuffer;

	mov	eax, OFFSET ?szHashedKeyBuffer@?1??CL_GetCDKeyHash@@9@9
$LN2@CL_GetCDKe:

; 1024 : }

	pop	edi
	pop	esi
	pop	ebx
	mov	ecx, DWORD PTR __$ArrayPad$[ebp]
	xor	ecx, ebp
	call	@__security_check_cookie@4
	mov	esp, ebp
	pop	ebp
	ret	0
_CL_GetCDKeyHash ENDP
_TEXT	ENDS
; Function compile flags: /Odtp /ZI
; File D:\DevDragon\XashFE\dev\src\engine\client\cl_main.c
;	COMDAT _CL_BeginUpload_f
_TEXT	SEGMENT
_ctx$1 = -272						; size = 88
_md5$2 = -184						; size = 16
_md5$ = -168						; size = 16
_size$ = -152						; size = 4
_buf$ = -148						; size = 4
_custResource$ = -144					; size = 136
_name$ = -8						; size = 4
__$ArrayPad$ = -4					; size = 4
_CL_BeginUpload_f PROC					; COMDAT

; 906  : {

	push	ebp
	mov	ebp, esp
	sub	esp, 336				; 00000150H
	mov	eax, DWORD PTR ___security_cookie
	xor	eax, ebp
	mov	DWORD PTR __$ArrayPad$[ebp], eax
	push	ebx
	push	esi
	push	edi

; 907  : 	char		*name;
; 908  : 	resource_t	custResource;
; 909  : 	byte		*buf = NULL;

	mov	DWORD PTR _buf$[ebp], 0

; 910  : 	int		size = 0;

	mov	DWORD PTR _size$[ebp], 0

; 911  : 	byte		md5[16];
; 912  : 
; 913  : 	name = Cmd_Argv( 1 );

	push	1
	call	_Cmd_Argv
	add	esp, 4
	mov	DWORD PTR _name$[ebp], eax

; 914  : 
; 915  : 	if( !COM_CheckString( name ))

	mov	eax, DWORD PTR _name$[ebp]
	push	eax
	call	_COM_CheckString
	add	esp, 4
	test	eax, eax
	jne	SHORT $LN2@CL_BeginUp

; 916  : 		return;

	jmp	$LN10@CL_BeginUp
$LN2@CL_BeginUp:

; 917  : 
; 918  : 	if( !cl_allow_upload.value )

	movss	xmm0, DWORD PTR _cl_allow_upload+12
	ucomiss	xmm0, DWORD PTR __real@00000000
	lahf
	test	ah, 68					; 00000044H
	jp	SHORT $LN3@CL_BeginUp

; 919  : 		return;

	jmp	$LN10@CL_BeginUp
$LN3@CL_BeginUp:

; 920  : 
; 921  : 	if( Q_strlen( name ) != 36 || Q_strnicmp( name, "!MD5", 4 ))

	mov	eax, DWORD PTR _name$[ebp]
	push	eax
	call	_Q_strlen
	add	esp, 4
	cmp	eax, 36					; 00000024H
	jne	SHORT $LN5@CL_BeginUp
	push	4
	push	OFFSET ??_C@_04HJKAGJBM@?$CBMD5@
	mov	eax, DWORD PTR _name$[ebp]
	push	eax
	call	_Q_strnicmp
	add	esp, 12					; 0000000cH
	test	eax, eax
	je	SHORT $LN4@CL_BeginUp
$LN5@CL_BeginUp:

; 922  : 	{
; 923  : 		Con_Printf( "Ingoring upload of non-customization\n" );

	push	OFFSET ??_C@_0CG@IJLLNIPI@Ingoring?5upload?5of?5non?9customiz@
	call	_Con_Printf
	add	esp, 4

; 924  : 		return;

	jmp	$LN10@CL_BeginUp
$LN4@CL_BeginUp:

; 925  : 	}
; 926  : 
; 927  : 	memset( &custResource, 0, sizeof( custResource ));

	push	136					; 00000088H
	push	0
	lea	eax, DWORD PTR _custResource$[ebp]
	push	eax
	call	_memset
	add	esp, 12					; 0000000cH

; 928  : 	COM_HexConvert( name + 4, 32, md5 );

	lea	eax, DWORD PTR _md5$[ebp]
	push	eax
	push	32					; 00000020H
	mov	ecx, DWORD PTR _name$[ebp]
	add	ecx, 4
	push	ecx
	call	_COM_HexConvert
	add	esp, 12					; 0000000cH

; 929  : 
; 930  : 	if( HPAK_ResourceForHash( CUSTOM_RES_PATH, md5, &custResource ))

	lea	eax, DWORD PTR _custResource$[ebp]
	push	eax
	lea	ecx, DWORD PTR _md5$[ebp]
	push	ecx
	push	OFFSET ??_C@_0L@DHBFCELB@custom?4hpk@
	call	_HPAK_ResourceForHash
	add	esp, 12					; 0000000cH
	test	eax, eax
	je	$LN9@CL_BeginUp

; 931  : 	{
; 932  : 		if( memcmp( md5, custResource.rgucMD5_hash, 16 ))

	push	16					; 00000010H
	lea	eax, DWORD PTR _custResource$[ebp+77]
	push	eax
	lea	ecx, DWORD PTR _md5$[ebp]
	push	ecx
	call	_memcmp
	add	esp, 12					; 0000000cH
	test	eax, eax
	je	SHORT $LN7@CL_BeginUp

; 933  : 		{
; 934  : 			Con_Reportf( "Bogus data retrieved from %s, attempting to delete entry\n", CUSTOM_RES_PATH );

	push	OFFSET ??_C@_0L@DHBFCELB@custom?4hpk@
	push	OFFSET ??_C@_0DK@MCGJPAHP@Bogus?5data?5retrieved?5from?5?$CFs?0?5a@
	call	_Con_Reportf
	add	esp, 8

; 935  : 			HPAK_RemoveLump( CUSTOM_RES_PATH, &custResource );

	lea	eax, DWORD PTR _custResource$[ebp]
	push	eax
	push	OFFSET ??_C@_0L@DHBFCELB@custom?4hpk@
	call	_HPAK_RemoveLump
	add	esp, 8

; 936  : 			return;

	jmp	$LN10@CL_BeginUp
$LN7@CL_BeginUp:

; 937  : 		}
; 938  : 
; 939  : 		if( HPAK_GetDataPointer( CUSTOM_RES_PATH, &custResource, &buf, &size ))

	lea	eax, DWORD PTR _size$[ebp]
	push	eax
	lea	ecx, DWORD PTR _buf$[ebp]
	push	ecx
	lea	edx, DWORD PTR _custResource$[ebp]
	push	edx
	push	OFFSET ??_C@_0L@DHBFCELB@custom?4hpk@
	call	_HPAK_GetDataPointer
	add	esp, 16					; 00000010H
	test	eax, eax
	je	$LN9@CL_BeginUp

; 940  : 		{
; 941  : 			byte		md5[16];
; 942  : 			MD5Context_t	ctx;
; 943  : 
; 944  : 			memset( &ctx, 0, sizeof( ctx ));

	push	88					; 00000058H
	push	0
	lea	eax, DWORD PTR _ctx$1[ebp]
	push	eax
	call	_memset
	add	esp, 12					; 0000000cH

; 945  : 			MD5Init( &ctx );

	lea	eax, DWORD PTR _ctx$1[ebp]
	push	eax
	call	_MD5Init
	add	esp, 4

; 946  : 			MD5Update( &ctx, buf, size );

	mov	eax, DWORD PTR _size$[ebp]
	push	eax
	mov	ecx, DWORD PTR _buf$[ebp]
	push	ecx
	lea	edx, DWORD PTR _ctx$1[ebp]
	push	edx
	call	_MD5Update
	add	esp, 12					; 0000000cH

; 947  : 			MD5Final( md5, &ctx );

	lea	eax, DWORD PTR _ctx$1[ebp]
	push	eax
	lea	ecx, DWORD PTR _md5$2[ebp]
	push	ecx
	call	_MD5Final
	add	esp, 8

; 948  : 
; 949  : 			if( memcmp( custResource.rgucMD5_hash, md5, 16 ))

	push	16					; 00000010H
	lea	eax, DWORD PTR _md5$2[ebp]
	push	eax
	lea	ecx, DWORD PTR _custResource$[ebp+77]
	push	ecx
	call	_memcmp
	add	esp, 12					; 0000000cH
	test	eax, eax
	je	SHORT $LN9@CL_BeginUp

; 950  : 			{
; 951  : 				Con_Reportf( "HPAK_AddLump called with bogus lump, md5 mismatch\n" );

	push	OFFSET ??_C@_0DD@JPFNAHEK@HPAK_AddLump?5called?5with?5bogus?5@
	call	_Con_Reportf
	add	esp, 4

; 952  : 				Con_Reportf( "Purported:  %s\n", MD5_Print( custResource.rgucMD5_hash ) );

	lea	eax, DWORD PTR _custResource$[ebp+77]
	push	eax
	call	_MD5_Print
	add	esp, 4
	push	eax
	push	OFFSET ??_C@_0BA@OPIGPFCH@Purported?3?5?5?$CFs?6@
	call	_Con_Reportf
	add	esp, 8

; 953  : 				Con_Reportf( "Actual   :  %s\n", MD5_Print( md5 ) );

	lea	eax, DWORD PTR _md5$2[ebp]
	push	eax
	call	_MD5_Print
	add	esp, 4
	push	eax
	push	OFFSET ??_C@_0BA@LICAHJIO@Actual?5?5?5?3?5?5?$CFs?6@
	call	_Con_Reportf
	add	esp, 8

; 954  : 				Con_Reportf( "Removing conflicting lump\n" );

	push	OFFSET ??_C@_0BL@CFCAJJKK@Removing?5conflicting?5lump?6@
	call	_Con_Reportf
	add	esp, 4

; 955  : 				HPAK_RemoveLump( CUSTOM_RES_PATH, &custResource );

	lea	eax, DWORD PTR _custResource$[ebp]
	push	eax
	push	OFFSET ??_C@_0L@DHBFCELB@custom?4hpk@
	call	_HPAK_RemoveLump
	add	esp, 8

; 956  : 				return;

	jmp	SHORT $LN10@CL_BeginUp
$LN9@CL_BeginUp:

; 957  : 			}
; 958  : 		}
; 959  : 	}
; 960  : 
; 961  : 	if( buf && size > 0 )

	cmp	DWORD PTR _buf$[ebp], 0
	je	SHORT $LN10@CL_BeginUp
	cmp	DWORD PTR _size$[ebp], 0
	jle	SHORT $LN10@CL_BeginUp

; 962  : 	{
; 963  : 		Netchan_CreateFileFragmentsFromBuffer( &cls.netchan, name, buf, size );

	mov	eax, DWORD PTR _size$[ebp]
	push	eax
	mov	ecx, DWORD PTR _buf$[ebp]
	push	ecx
	mov	edx, DWORD PTR _name$[ebp]
	push	edx
	push	OFFSET _cls+26800
	call	_Netchan_CreateFileFragmentsFromBuffer
	add	esp, 16					; 00000010H

; 964  : 		Netchan_FragSend( &cls.netchan );

	push	OFFSET _cls+26800
	call	_Netchan_FragSend
	add	esp, 4

; 965  : 		Mem_Free( buf );

	mov	eax, DWORD PTR ?__LINE__Var@?0??CL_BeginUpload_f@@9@9
	add	eax, 59					; 0000003bH
	push	eax
	push	OFFSET ??_C@_0DE@KLFELIEG@D?3?2DevDragon?2XashFE?2dev?2src?2eng@
	mov	ecx, DWORD PTR _buf$[ebp]
	push	ecx
	call	__Mem_Free
	add	esp, 12					; 0000000cH
$LN10@CL_BeginUp:

; 966  : 	}
; 967  : }

	pop	edi
	pop	esi
	pop	ebx
	mov	ecx, DWORD PTR __$ArrayPad$[ebp]
	xor	ecx, ebp
	call	@__security_check_cookie@4
	mov	esp, ebp
	pop	ebp
	ret	0
_CL_BeginUpload_f ENDP
_TEXT	ENDS
; Function compile flags: /Odtp /ZI
; File D:\DevDragon\XashFE\dev\src\engine\client\cl_main.c
;	COMDAT _CL_WritePacket
_TEXT	SEGMENT
tv229 = -8588						; size = 4
tv205 = -8588						; size = 4
tv81 = -8588						; size = 4
tv228 = -8584						; size = 4
tv204 = -8584						; size = 4
tv80 = -8584						; size = 4
_outgoing_sequence$1 = -8068				; size = 4
_cmdnumber$ = -8064					; size = 4
_newcmds$ = -8060					; size = 4
_numcmds$ = -8056					; size = 4
_numbackup$ = -8052					; size = 4
_size$ = -8048						; size = 4
_key$ = -8044						; size = 4
_to$ = -8040						; size = 4
_from$ = -8036						; size = 4
_i$ = -8032						; size = 4
_data$ = -8028						; size = 8000
_send_command$ = -28					; size = 4
_buf$ = -24						; size = 20
__$ArrayPad$ = -4					; size = 4
_CL_WritePacket PROC					; COMDAT

; 712  : {

	push	ebp
	mov	ebp, esp
	mov	eax, 8588				; 0000218cH
	call	__chkstk
	mov	eax, DWORD PTR ___security_cookie
	xor	eax, ebp
	mov	DWORD PTR __$ArrayPad$[ebp], eax
	push	ebx
	push	esi
	push	edi

; 713  : 	sizebuf_t		buf;
; 714  : 	qboolean		send_command = false;

	mov	DWORD PTR _send_command$[ebp], 0

