; Listing generated by Microsoft (R) Optimizing Compiler Version 19.37.32705.0 

	TITLE	D:\DevDragon\XashFE\dev\src\temp\engine\!debug\cl_scrn.obj
	.686P
	.XMM
	include listing.inc
	.model	flat

INCLUDELIB MSVCRTD
INCLUDELIB OLDNAMES

_DATA	SEGMENT
COMM	_scr_loading:DWORD
COMM	_scr_download:DWORD
COMM	_cl_allow_levelshots:DWORD
COMM	_cl_envshot_size:DWORD
COMM	_cl_testlights:DWORD
COMM	_cl_levelshot_name:DWORD
COMM	_scr_centertime:DWORD
COMM	_scr_viewsize:DWORD
COMM	_v_dark:DWORD
COMM	_pglGetError:DWORD
COMM	_pglGetString:DWORD
COMM	_pglAccum:DWORD
COMM	_pglAlphaFunc:DWORD
COMM	_pglArrayElement:DWORD
COMM	_pglBegin:DWORD
COMM	_pglBindTexture:DWORD
COMM	_pglBitmap:DWORD
COMM	_pglBlendFunc:DWORD
COMM	_pglCallList:DWORD
COMM	_pglCallLists:DWORD
COMM	_pglClear:DWORD
COMM	_pglClearAccum:DWORD
COMM	_pglClearColor:DWORD
COMM	_pglClearDepth:DWORD
COMM	_pglClearIndex:DWORD
COMM	_pglClearStencil:DWORD
COMM	_pglIsEnabled:DWORD
COMM	_pglIsList:DWORD
COMM	_pglIsTexture:DWORD
COMM	_pglClipPlane:DWORD
COMM	_pglColor3b:DWORD
COMM	_pglColor3bv:DWORD
COMM	_pglColor3d:DWORD
COMM	_pglColor3dv:DWORD
COMM	_pglColor3f:DWORD
COMM	_pglColor3fv:DWORD
COMM	_pglColor3i:DWORD
COMM	_pglColor3iv:DWORD
COMM	_pglColor3s:DWORD
COMM	_pglColor3sv:DWORD
COMM	_pglColor3ub:DWORD
COMM	_pglColor3ubv:DWORD
COMM	_pglColor3ui:DWORD
COMM	_pglColor3uiv:DWORD
COMM	_pglColor3us:DWORD
COMM	_pglColor3usv:DWORD
COMM	_pglColor4b:DWORD
COMM	_pglColor4bv:DWORD
COMM	_pglColor4d:DWORD
COMM	_pglColor4dv:DWORD
COMM	_pglColor4f:DWORD
COMM	_pglColor4fv:DWORD
COMM	_pglColor4i:DWORD
COMM	_pglColor4iv:DWORD
COMM	_pglColor4s:DWORD
COMM	_pglColor4sv:DWORD
COMM	_pglColor4ub:DWORD
COMM	_pglColor4ubv:DWORD
COMM	_pglColor4ui:DWORD
COMM	_pglColor4uiv:DWORD
COMM	_pglColor4us:DWORD
COMM	_pglColor4usv:DWORD
COMM	_pglColorMask:DWORD
COMM	_pglColorMaterial:DWORD
COMM	_pglColorPointer:DWORD
COMM	_pglCopyPixels:DWORD
COMM	_pglCopyTexImage1D:DWORD
COMM	_pglCopyTexImage2D:DWORD
COMM	_pglCopyTexSubImage1D:DWORD
COMM	_pglCopyTexSubImage2D:DWORD
COMM	_pglCullFace:DWORD
COMM	_pglDeleteLists:DWORD
COMM	_pglDeleteTextures:DWORD
COMM	_pglDepthFunc:DWORD
COMM	_pglDepthMask:DWORD
COMM	_pglDepthRange:DWORD
COMM	_pglDisable:DWORD
COMM	_pglDisableClientState:DWORD
COMM	_pglDrawArrays:DWORD
COMM	_pglDrawBuffer:DWORD
COMM	_pglDrawElements:DWORD
COMM	_pglDrawPixels:DWORD
COMM	_pglEdgeFlag:DWORD
COMM	_pglEdgeFlagPointer:DWORD
COMM	_pglEdgeFlagv:DWORD
COMM	_pglEnable:DWORD
COMM	_pglEnableClientState:DWORD
COMM	_pglEnd:DWORD
COMM	_pglEndList:DWORD
COMM	_pglEvalCoord1d:DWORD
COMM	_pglEvalCoord1dv:DWORD
COMM	_pglEvalCoord1f:DWORD
COMM	_pglEvalCoord1fv:DWORD
COMM	_pglEvalCoord2d:DWORD
COMM	_pglEvalCoord2dv:DWORD
COMM	_pglEvalCoord2f:DWORD
COMM	_pglEvalCoord2fv:DWORD
COMM	_pglEvalMesh1:DWORD
COMM	_pglEvalMesh2:DWORD
COMM	_pglEvalPoint1:DWORD
COMM	_pglEvalPoint2:DWORD
COMM	_pglFeedbackBuffer:DWORD
COMM	_pglFinish:DWORD
COMM	_pglFlush:DWORD
COMM	_pglFogf:DWORD
COMM	_pglFogfv:DWORD
COMM	_pglFogi:DWORD
COMM	_pglFogiv:DWORD
COMM	_pglFrontFace:DWORD
COMM	_pglFrustum:DWORD
COMM	_pglGenTextures:DWORD
COMM	_pglGetBooleanv:DWORD
COMM	_pglGetClipPlane:DWORD
COMM	_pglGetDoublev:DWORD
COMM	_pglGetFloatv:DWORD
COMM	_pglGetIntegerv:DWORD
COMM	_pglGetLightfv:DWORD
COMM	_pglGetLightiv:DWORD
COMM	_pglGetMapdv:DWORD
COMM	_pglGetMapfv:DWORD
COMM	_pglGetMapiv:DWORD
COMM	_pglGetMaterialfv:DWORD
COMM	_pglGetMaterialiv:DWORD
COMM	_pglGetPixelMapfv:DWORD
COMM	_pglGetPixelMapuiv:DWORD
COMM	_pglGetPixelMapusv:DWORD
COMM	_pglGetPointerv:DWORD
COMM	_pglGetPolygonStipple:DWORD
COMM	_pglGetTexEnvfv:DWORD
COMM	_pglGetTexEnviv:DWORD
COMM	_pglGetTexGendv:DWORD
COMM	_pglGetTexGenfv:DWORD
COMM	_pglGetTexGeniv:DWORD
COMM	_pglGetTexImage:DWORD
COMM	_pglGetTexLevelParameterfv:DWORD
COMM	_pglGetTexLevelParameteriv:DWORD
COMM	_pglGetTexParameterfv:DWORD
COMM	_pglGetTexParameteriv:DWORD
COMM	_pglHint:DWORD
COMM	_pglIndexMask:DWORD
COMM	_pglIndexPointer:DWORD
COMM	_pglIndexd:DWORD
COMM	_pglIndexdv:DWORD
COMM	_pglIndexf:DWORD
COMM	_pglIndexfv:DWORD
COMM	_pglIndexi:DWORD
COMM	_pglIndexiv:DWORD
COMM	_pglIndexs:DWORD
COMM	_pglIndexsv:DWORD
COMM	_pglIndexub:DWORD
COMM	_pglIndexubv:DWORD
COMM	_pglInitNames:DWORD
COMM	_pglInterleavedArrays:DWORD
COMM	_pglLightModelf:DWORD
COMM	_pglLightModelfv:DWORD
COMM	_pglLightModeli:DWORD
COMM	_pglLightModeliv:DWORD
COMM	_pglLightf:DWORD
COMM	_pglLightfv:DWORD
COMM	_pglLighti:DWORD
COMM	_pglLightiv:DWORD
COMM	_pglLineStipple:DWORD
COMM	_pglLineWidth:DWORD
COMM	_pglListBase:DWORD
COMM	_pglLoadIdentity:DWORD
COMM	_pglLoadMatrixd:DWORD
COMM	_pglLoadMatrixf:DWORD
COMM	_pglLoadName:DWORD
COMM	_pglLogicOp:DWORD
COMM	_pglMap1d:DWORD
COMM	_pglMap1f:DWORD
COMM	_pglMap2d:DWORD
COMM	_pglMap2f:DWORD
COMM	_pglMapGrid1d:DWORD
COMM	_pglMapGrid1f:DWORD
COMM	_pglMapGrid2d:DWORD
COMM	_pglMapGrid2f:DWORD
COMM	_pglMaterialf:DWORD
COMM	_pglMaterialfv:DWORD
COMM	_pglMateriali:DWORD
COMM	_pglMaterialiv:DWORD
COMM	_pglMatrixMode:DWORD
COMM	_pglMultMatrixd:DWORD
COMM	_pglMultMatrixf:DWORD
COMM	_pglNewList:DWORD
COMM	_pglNormal3b:DWORD
COMM	_pglNormal3bv:DWORD
COMM	_pglNormal3d:DWORD
COMM	_pglNormal3dv:DWORD
COMM	_pglNormal3f:DWORD
COMM	_pglNormal3fv:DWORD
COMM	_pglNormal3i:DWORD
COMM	_pglNormal3iv:DWORD
COMM	_pglNormal3s:DWORD
COMM	_pglNormal3sv:DWORD
COMM	_pglNormalPointer:DWORD
COMM	_pglOrtho:DWORD
COMM	_pglPassThrough:DWORD
COMM	_pglPixelMapfv:DWORD
COMM	_pglPixelMapuiv:DWORD
COMM	_pglPixelMapusv:DWORD
COMM	_pglPixelStoref:DWORD
COMM	_pglPixelStorei:DWORD
COMM	_pglPixelTransferf:DWORD
COMM	_pglPixelTransferi:DWORD
COMM	_pglPixelZoom:DWORD
COMM	_pglPointSize:DWORD
COMM	_pglPolygonMode:DWORD
COMM	_pglPolygonOffset:DWORD
COMM	_pglPolygonStipple:DWORD
COMM	_pglPopAttrib:DWORD
COMM	_pglPopClientAttrib:DWORD
COMM	_pglPopMatrix:DWORD
COMM	_pglPopName:DWORD
COMM	_pglPushAttrib:DWORD
COMM	_pglPushClientAttrib:DWORD
COMM	_pglPushMatrix:DWORD
COMM	_pglPushName:DWORD
COMM	_pglRasterPos2d:DWORD
COMM	_pglRasterPos2dv:DWORD
COMM	_pglRasterPos2f:DWORD
COMM	_pglRasterPos2fv:DWORD
COMM	_pglRasterPos2i:DWORD
COMM	_pglRasterPos2iv:DWORD
COMM	_pglRasterPos2s:DWORD
COMM	_pglRasterPos2sv:DWORD
COMM	_pglRasterPos3d:DWORD
COMM	_pglRasterPos3dv:DWORD
COMM	_pglRasterPos3f:DWORD
COMM	_pglRasterPos3fv:DWORD
COMM	_pglRasterPos3i:DWORD
COMM	_pglRasterPos3iv:DWORD
COMM	_pglRasterPos3s:DWORD
COMM	_pglRasterPos3sv:DWORD
COMM	_pglRasterPos4d:DWORD
COMM	_pglRasterPos4dv:DWORD
COMM	_pglRasterPos4f:DWORD
COMM	_pglRasterPos4fv:DWORD
COMM	_pglRasterPos4i:DWORD
COMM	_pglRasterPos4iv:DWORD
COMM	_pglRasterPos4s:DWORD
COMM	_pglRasterPos4sv:DWORD
COMM	_pglReadBuffer:DWORD
COMM	_pglReadPixels:DWORD
COMM	_pglRectd:DWORD
COMM	_pglRectdv:DWORD
COMM	_pglRectf:DWORD
COMM	_pglRectfv:DWORD
COMM	_pglRecti:DWORD
COMM	_pglRectiv:DWORD
COMM	_pglRects:DWORD
COMM	_pglRectsv:DWORD
COMM	_pglRotated:DWORD
COMM	_pglRotatef:DWORD
COMM	_pglScaled:DWORD
COMM	_pglScalef:DWORD
COMM	_pglScissor:DWORD
COMM	_pglSelectBuffer:DWORD
COMM	_pglShadeModel:DWORD
COMM	_pglStencilFunc:DWORD
COMM	_pglStencilMask:DWORD
COMM	_pglStencilOp:DWORD
COMM	_pglTexCoord1d:DWORD
COMM	_pglTexCoord1dv:DWORD
COMM	_pglTexCoord1f:DWORD
COMM	_pglTexCoord1fv:DWORD
COMM	_pglTexCoord1i:DWORD
COMM	_pglTexCoord1iv:DWORD
COMM	_pglTexCoord1s:DWORD
COMM	_pglTexCoord1sv:DWORD
COMM	_pglTexCoord2d:DWORD
COMM	_pglTexCoord2dv:DWORD
COMM	_pglTexCoord2f:DWORD
COMM	_pglTexCoord2fv:DWORD
COMM	_pglTexCoord2i:DWORD
COMM	_pglTexCoord2iv:DWORD
COMM	_pglTexCoord2s:DWORD
COMM	_pglTexCoord2sv:DWORD
COMM	_pglTexCoord3d:DWORD
COMM	_pglTexCoord3dv:DWORD
COMM	_pglTexCoord3f:DWORD
COMM	_pglTexCoord3fv:DWORD
COMM	_pglTexCoord3i:DWORD
COMM	_pglTexCoord3iv:DWORD
COMM	_pglTexCoord3s:DWORD
COMM	_pglTexCoord3sv:DWORD
COMM	_pglTexCoord4d:DWORD
COMM	_pglTexCoord4dv:DWORD
COMM	_pglTexCoord4f:DWORD
COMM	_pglTexCoord4fv:DWORD
COMM	_pglTexCoord4i:DWORD
COMM	_pglTexCoord4iv:DWORD
COMM	_pglTexCoord4s:DWORD
COMM	_pglTexCoord4sv:DWORD
COMM	_pglTexCoordPointer:DWORD
COMM	_pglTexEnvf:DWORD
COMM	_pglTexEnvfv:DWORD
COMM	_pglTexEnvi:DWORD
COMM	_pglTexEnviv:DWORD
COMM	_pglTexGend:DWORD
COMM	_pglTexGendv:DWORD
COMM	_pglTexGenf:DWORD
COMM	_pglTexGenfv:DWORD
COMM	_pglTexGeni:DWORD
COMM	_pglTexGeniv:DWORD
COMM	_pglTexImage1D:DWORD
COMM	_pglTexImage2D:DWORD
COMM	_pglTexParameterf:DWORD
COMM	_pglTexParameterfv:DWORD
COMM	_pglTexParameteri:DWORD
COMM	_pglTexParameteriv:DWORD
COMM	_pglTexSubImage1D:DWORD
COMM	_pglTexSubImage2D:DWORD
COMM	_pglTranslated:DWORD
COMM	_pglTranslatef:DWORD
COMM	_pglVertex2d:DWORD
COMM	_pglVertex2dv:DWORD
COMM	_pglVertex2f:DWORD
COMM	_pglVertex2fv:DWORD
COMM	_pglVertex2i:DWORD
COMM	_pglVertex2iv:DWORD
COMM	_pglVertex2s:DWORD
COMM	_pglVertex2sv:DWORD
COMM	_pglVertex3d:DWORD
COMM	_pglVertex3dv:DWORD
COMM	_pglVertex3f:DWORD
COMM	_pglVertex3fv:DWORD
COMM	_pglVertex3i:DWORD
COMM	_pglVertex3iv:DWORD
COMM	_pglVertex3s:DWORD
COMM	_pglVertex3sv:DWORD
COMM	_pglVertex4d:DWORD
COMM	_pglVertex4dv:DWORD
COMM	_pglVertex4f:DWORD
COMM	_pglVertex4fv:DWORD
COMM	_pglVertex4i:DWORD
COMM	_pglVertex4iv:DWORD
COMM	_pglVertex4s:DWORD
COMM	_pglVertex4sv:DWORD
COMM	_pglVertexPointer:DWORD
COMM	_pglViewport:DWORD
COMM	_pglPointParameterfEXT:DWORD
COMM	_pglPointParameterfvEXT:DWORD
COMM	_pglLockArraysEXT:DWORD
COMM	_pglUnlockArraysEXT:DWORD
COMM	_pglActiveTextureARB:DWORD
COMM	_pglClientActiveTextureARB:DWORD
COMM	_pglGetCompressedTexImage:DWORD
COMM	_pglDrawRangeElements:DWORD
COMM	_pglDrawRangeElementsEXT:DWORD
COMM	_pglMultiTexCoord1f:DWORD
COMM	_pglMultiTexCoord2f:DWORD
COMM	_pglMultiTexCoord3f:DWORD
COMM	_pglMultiTexCoord4f:DWORD
COMM	_pglActiveTexture:DWORD
COMM	_pglClientActiveTexture:DWORD
COMM	_pglCompressedTexImage3DARB:DWORD
COMM	_pglCompressedTexImage2DARB:DWORD
COMM	_pglCompressedTexImage1DARB:DWORD
COMM	_pglCompressedTexSubImage3DARB:DWORD
COMM	_pglCompressedTexSubImage2DARB:DWORD
COMM	_pglCompressedTexSubImage1DARB:DWORD
COMM	_pglDeleteObjectARB:DWORD
COMM	_pglGetHandleARB:DWORD
COMM	_pglDetachObjectARB:DWORD
COMM	_pglCreateShaderObjectARB:DWORD
COMM	_pglShaderSourceARB:DWORD
COMM	_pglCompileShaderARB:DWORD
COMM	_pglCreateProgramObjectARB:DWORD
COMM	_pglAttachObjectARB:DWORD
COMM	_pglLinkProgramARB:DWORD
COMM	_pglUseProgramObjectARB:DWORD
COMM	_pglValidateProgramARB:DWORD
COMM	_pglBindProgramARB:DWORD
COMM	_pglDeleteProgramsARB:DWORD
COMM	_pglGenProgramsARB:DWORD
COMM	_pglProgramStringARB:DWORD
COMM	_pglProgramEnvParameter4fARB:DWORD
COMM	_pglProgramLocalParameter4fARB:DWORD
COMM	_pglUniform1fARB:DWORD
COMM	_pglUniform2fARB:DWORD
COMM	_pglUniform3fARB:DWORD
COMM	_pglUniform4fARB:DWORD
COMM	_pglUniform1iARB:DWORD
COMM	_pglUniform2iARB:DWORD
COMM	_pglUniform3iARB:DWORD
COMM	_pglUniform4iARB:DWORD
COMM	_pglUniform1fvARB:DWORD
COMM	_pglUniform2fvARB:DWORD
COMM	_pglUniform3fvARB:DWORD
COMM	_pglUniform4fvARB:DWORD
COMM	_pglUniform1ivARB:DWORD
COMM	_pglUniform2ivARB:DWORD
COMM	_pglUniform3ivARB:DWORD
COMM	_pglUniform4ivARB:DWORD
COMM	_pglUniformMatrix2fvARB:DWORD
COMM	_pglUniformMatrix3fvARB:DWORD
COMM	_pglUniformMatrix4fvARB:DWORD
COMM	_pglGetObjectParameterfvARB:DWORD
COMM	_pglGetObjectParameterivARB:DWORD
COMM	_pglGetInfoLogARB:DWORD
COMM	_pglGetAttachedObjectsARB:DWORD
COMM	_pglGetUniformLocationARB:DWORD
COMM	_pglGetActiveUniformARB:DWORD
COMM	_pglGetUniformfvARB:DWORD
COMM	_pglGetUniformivARB:DWORD
COMM	_pglGetShaderSourceARB:DWORD
COMM	_pglTexImage3D:DWORD
COMM	_pglTexSubImage3D:DWORD
COMM	_pglCopyTexSubImage3D:DWORD
COMM	_pglBlendEquationEXT:DWORD
COMM	_pglStencilOpSeparate:DWORD
COMM	_pglStencilFuncSeparate:DWORD
COMM	_pglActiveStencilFaceEXT:DWORD
COMM	_pglVertexAttribPointerARB:DWORD
COMM	_pglEnableVertexAttribArrayARB:DWORD
COMM	_pglDisableVertexAttribArrayARB:DWORD
COMM	_pglBindAttribLocationARB:DWORD
COMM	_pglGetActiveAttribARB:DWORD
COMM	_pglGetAttribLocationARB:DWORD
COMM	_pglBindFragDataLocation:DWORD
COMM	_pglVertexAttrib2fARB:DWORD
COMM	_pglVertexAttrib2fvARB:DWORD
COMM	_pglVertexAttrib3fvARB:DWORD
COMM	_pglBindBufferARB:DWORD
COMM	_pglDeleteBuffersARB:DWORD
COMM	_pglGenBuffersARB:DWORD
COMM	_pglIsBufferARB:DWORD
COMM	_pglMapBufferARB:DWORD
COMM	_pglUnmapBufferARB:DWORD
COMM	_pglBufferDataARB:DWORD
COMM	_pglBufferSubDataARB:DWORD
COMM	_pglGenQueriesARB:DWORD
COMM	_pglDeleteQueriesARB:DWORD
COMM	_pglIsQueryARB:DWORD
COMM	_pglBeginQueryARB:DWORD
COMM	_pglEndQueryARB:DWORD
COMM	_pglGetQueryivARB:DWORD
COMM	_pglGetQueryObjectivARB:DWORD
COMM	_pglGetQueryObjectuivARB:DWORD
COMM	_pglDebugMessageControlARB:DWORD
COMM	_pglDebugMessageInsertARB:DWORD
COMM	_pglDebugMessageCallbackARB:DWORD
COMM	_pglGetDebugMessageLogARB:DWORD
COMM	_pglIsRenderbuffer:DWORD
COMM	_pglBindRenderbuffer:DWORD
COMM	_pglDeleteRenderbuffers:DWORD
COMM	_pglGenRenderbuffers:DWORD
COMM	_pglRenderbufferStorage:DWORD
COMM	_pglRenderbufferStorageMultisample:DWORD
COMM	_pglGetRenderbufferParameteriv:DWORD
COMM	_pglIsFramebuffer:DWORD
COMM	_pglBindFramebuffer:DWORD
COMM	_pglDeleteFramebuffers:DWORD
COMM	_pglGenFramebuffers:DWORD
COMM	_pglCheckFramebufferStatus:DWORD
COMM	_pglFramebufferTexture1D:DWORD
COMM	_pglFramebufferTexture2D:DWORD
COMM	_pglFramebufferTexture3D:DWORD
COMM	_pglFramebufferTextureLayer:DWORD
COMM	_pglFramebufferRenderbuffer:DWORD
COMM	_pglGetFramebufferAttachmentParameteriv:DWORD
COMM	_pglBlitFramebuffer:DWORD
COMM	_pglDrawBuffersARB:DWORD
COMM	_pglGenerateMipmap:DWORD
COMM	_pglBindVertexArray:DWORD
COMM	_pglDeleteVertexArrays:DWORD
COMM	_pglGenVertexArrays:DWORD
COMM	_pglIsVertexArray:DWORD
COMM	_pglSwapInterval:DWORD
COMM	_pwglSwapBuffers:DWORD
COMM	_pwglCopyContext:DWORD
COMM	_pwglCreateContext:DWORD
COMM	_pwglCreateLayerContext:DWORD
COMM	_pwglDeleteContext:DWORD
COMM	_pwglGetCurrentContext:DWORD
COMM	_pwglGetProcAddress:DWORD
COMM	_pwglMakeCurrent:DWORD
COMM	_pwglShareLists:DWORD
COMM	_pwglUseFontBitmaps:DWORD
COMM	_pwglUseFontOutlines:DWORD
COMM	_pwglDescribeLayerPlane:DWORD
COMM	_pwglSetLayerPaletteEntries:DWORD
COMM	_pwglGetLayerPaletteEntries:DWORD
COMM	_pwglRealizeLayerPalette:DWORD
COMM	_pwglSwapLayerBuffers:DWORD
COMM	_pwglSwapIntervalEXT:DWORD
COMM	_pwglCreateContextAttribsARB:DWORD
COMM	_pwglGetPixelFormatAttribiv:DWORD
COMM	_pwglChoosePixelFormat:DWORD
COMM	_pwglGetExtensionsStringEXT:DWORD
_DATA	ENDS
PUBLIC	_SCR_Init
PUBLIC	_SCR_UpdateScreen
PUBLIC	_SCR_BeginLoadingPlaque
PUBLIC	_SCR_Shutdown
PUBLIC	_SCR_VidInit
PUBLIC	_SCR_TileClear
PUBLIC	_SCR_DirtyScreen
PUBLIC	_SCR_AddDirtyPoint
PUBLIC	_SCR_InstallParticlePalette
PUBLIC	_SCR_EndLoadingPlaque
PUBLIC	_SCR_RegisterTextures
PUBLIC	_SCR_LoadCreditsFont
PUBLIC	_SCR_MakeScreenShot
PUBLIC	_SCR_MakeLevelShot
PUBLIC	_SCR_NetSpeeds
PUBLIC	_SCR_RSpeeds
PUBLIC	_SCR_DrawFPS
PUBLIC	_SCR_DrawPlaque
PUBLIC	_SCR_LoadFixedWidthFont
PUBLIC	_SCR_LoadVariableWidthFont
PUBLIC	_SCR_SizeUp_f
PUBLIC	_SCR_SizeDown_f
PUBLIC	??_C@_07IHIBBHHA@?$CF4i?5spf@			; `string'
PUBLIC	??_C@_0CF@FLDICLEA@fps?3?5?$FO1?$CF4i?5min?0?5?$FO3?$CF4i?5cur?0?5?$FO2?$CF4@ ; `string'
PUBLIC	??_C@_07NHPDFGMJ@?$CF4i?5fps@			; `string'
PUBLIC	??_C@_0JO@KMBMJNBN@sv?5fps?3?5?$FO1?$CF4i?5min?0?5?$FO3?$CF4i?5cur?0?5?$FO@ ; `string'
PUBLIC	??_C@_0L@EAHKDLHJ@levelshot?6@			; `string'
PUBLIC	??_C@_09OMCHHOCB@Write?5?$CFs?6@		; `string'
PUBLIC	??_C@_0BP@DHKMKFKK@?$FO1Error?3?$FO7?5Unable?5to?5write?5?$CFs?6@ ; `string'
PUBLIC	??_C@_0CB@HJLOAGJC@SCR_UpdateScreen?3?5bad?5cls?4state@ ; `string'
PUBLIC	?__LINE__Var@?0??SCR_LoadVariableWidthFont@@9@9	; `SCR_LoadVariableWidthFont'::`1'::__LINE__Var
PUBLIC	??_C@_0DE@MGENFIEN@D?3?2DevDragon?2XashFE?2dev?2src?2eng@ ; `string'
PUBLIC	??_C@_0BI@EFDGHHKN@gfx?4wad?1creditsfont?4fnt@	; `string'
PUBLIC	??_C@_0N@POKADIKD@gfx?1conchars@		; `string'
PUBLIC	??_C@_0CE@PBGPNBKA@?$FO1Error?3?$FO7?5failed?5to?5load?5HUD?5f@ ; `string'
PUBLIC	??_C@_0BA@JKAKIGAD@gfx?1palette?4lmp@		; `string'
PUBLIC	??_C@_0BA@GPKIMKBN@gfx?1palette?4pal@		; `string'
PUBLIC	??_C@_0L@POBPLNLE@?$CDvalve?4pal@		; `string'
PUBLIC	??_C@_0P@HNGIGCBP@gfx?1paused?4lmp@		; `string'
PUBLIC	??_C@_0O@OCAJAJMG@gfx?1pause?4lmp@		; `string'
PUBLIC	??_C@_0P@IIDHHPMI@gfx?1lambda?4lmp@		; `string'
PUBLIC	??_C@_0BA@EKDDNEPK@gfx?1loading?4lmp@		; `string'
PUBLIC	??_C@_0BB@HGAODCMH@gfx?1backtile?4lmp@		; `string'
PUBLIC	??_C@_08CDPCOEFH@viewsize@			; `string'
PUBLIC	??_C@_0BG@HMGGPNNH@centerprint?5hold?5time@	; `string'
PUBLIC	??_C@_03BEHLLJJF@2?45@				; `string'
PUBLIC	??_C@_0P@JECIOGED@scr_centertime@		; `string'
PUBLIC	??_C@_0CD@CPMPLDOA@contains?5path?5to?5current?5levels@ ; `string'
PUBLIC	??_C@_06FPKCCFDN@?$CKblack@			; `string'
PUBLIC	??_C@_0BC@CBJAHLIN@cl_levelshot_name@		; `string'
PUBLIC	??_C@_0EE@FDDOJKDI@allow?5engine?5to?5use?5indivdual?5l@ ; `string'
PUBLIC	??_C@_01GBGANLPD@0@				; `string'
PUBLIC	??_C@_0BB@CCCFBDOM@allow_levelshots@		; `string'
PUBLIC	??_C@_0BF@GJFJPJKE@loading?5bar?5progress@	; `string'
PUBLIC	??_C@_0M@DKOEGGOG@scr_loading@			; `string'
PUBLIC	??_C@_0BJ@PDLEGELG@downloading?5bar?5progress@	; `string'
PUBLIC	??_C@_02PGHGPEOM@?91@				; `string'
PUBLIC	??_C@_0N@CCFOLBKF@scr_download@			; `string'
PUBLIC	??_C@_0BE@HFKEPML@test?5dynamic?5lights@	; `string'
PUBLIC	??_C@_0O@HNNIOCCG@cl_testlights@		; `string'
PUBLIC	??_C@_0BK@CDGCMGNE@envshot?5size?5of?5cube?5side@ ; `string'
PUBLIC	??_C@_03CPCFKGMH@256@				; `string'
PUBLIC	??_C@_0BA@BOPAOBIA@cl_envshot_size@		; `string'
PUBLIC	??_C@_0BO@MBGAKAJL@starts?5level?5from?5dark?5screen@ ; `string'
PUBLIC	??_C@_06COKHDAAL@v_dark@			; `string'
PUBLIC	??_C@_0M@HBOMHEA@screen?5size@			; `string'
PUBLIC	??_C@_03GOIFLICK@120@				; `string'
PUBLIC	??_C@_0CL@FDPKMBBB@turn?5quickly?5and?5print?5renderin@ ; `string'
PUBLIC	??_C@_0M@CHDNPKFN@timerefresh@			; `string'
PUBLIC	??_C@_0BL@GALGPJHD@set?5new?5skybox?5by?5basename@ ; `string'
PUBLIC	??_C@_07OAIDGMCI@skyname@			; `string'
PUBLIC	??_C@_07MIIENBA@loadsky@			; `string'
PUBLIC	??_C@_0BN@NPPGKBKN@prints?5current?5player?5origin@ ; `string'
PUBLIC	??_C@_07NBKBBFDF@viewpos@			; `string'
PUBLIC	??_C@_0BM@FKGHNADM@screen?5size?5up?5to?510?5points@ ; `string'
PUBLIC	??_C@_06FCHHJILH@sizeup@			; `string'
PUBLIC	??_C@_0BO@OENNDFIM@screen?5size?5down?5to?510?5points@ ; `string'
PUBLIC	??_C@_08KKGKLAHJ@sizedown@			; `string'
PUBLIC	??_C@_0CI@BDAJMAHM@?$FO1Error?3?$FO7?5can?8t?5initialize?5gam@ ; `string'
PUBLIC	??_C@_0L@DABMMCMG@?9toconsole@			; `string'
PUBLIC	??_C@_0P@NIHEOEIF@toggleconsole?6@		; `string'
PUBLIC	__real@00000000
PUBLIC	__real@3f000000
PUBLIC	__real@3f1a36e2e0000000
PUBLIC	__real@3f800000
PUBLIC	__real@3fe0000000000000
PUBLIC	__real@3ff0000000000000
PUBLIC	__real@40000000
PUBLIC	__real@404e000000000000
PUBLIC	__real@41200000
PUBLIC	__real@41f00000
PUBLIC	__real@42700000
PUBLIC	__real@42f00000
PUBLIC	__xmm@41f00000000000000000000000000000
EXTRN	___report_rangecheckfailure:PROC
EXTRN	_memset:PROC
EXTRN	_Sys_DoubleTime:PROC
EXTRN	_Sys_CheckParm:PROC
EXTRN	_Cbuf_AddText:PROC
EXTRN	_Cmd_AddCommand:PROC
EXTRN	_Cmd_RemoveCommand:PROC
EXTRN	_Q_strchr:PROC
EXTRN	_Q_snprintf:PROC
EXTRN	_Q_pretifymem:PROC
EXTRN	__Mem_Free:PROC
EXTRN	_Cvar_Get:PROC
EXTRN	_Cvar_SetValue:PROC
EXTRN	_FS_LoadFile:PROC
EXTRN	_FS_FileExists:PROC
EXTRN	_FS_LoadImage:PROC
EXTRN	_FS_FreeImage:PROC
EXTRN	_Host_Error:PROC
EXTRN	_Con_Reportf:PROC
EXTRN	_Con_DPrintf:PROC
EXTRN	_Con_Printf:PROC
EXTRN	_CL_IsInMenu:PROC
EXTRN	_UI_SetActiveMenu:PROC
EXTRN	_S_StopAllSounds:PROC
EXTRN	_fmod:PROC
EXTRN	_CL_SetSky_f:PROC
EXTRN	_SCR_Viewpos_f:PROC
EXTRN	_SCR_TimeRefresh_f:PROC
EXTRN	_CL_DrawHUD:PROC
EXTRN	_CL_ClearSpriteTextures:PROC
EXTRN	_CL_InitNetgraph:PROC
EXTRN	_V_PreRender:PROC
EXTRN	_V_PostRender:PROC
EXTRN	_V_RenderView:PROC
EXTRN	_Con_VidInit:PROC
EXTRN	_Con_ClearNotify:PROC
EXTRN	_Con_RunConsole:PROC
EXTRN	_Con_DrawStringLen:PROC
EXTRN	_Con_DrawString:PROC
EXTRN	_UI_UnloadProgs:PROC
EXTRN	_UI_LoadProgs:PROC
EXTRN	_SCR_InitCinematic:PROC
EXTRN	_SCR_DrawCinematic:PROC
EXTRN	_GL_SetRenderMode:PROC
EXTRN	_R_DrawTileClear:PROC
EXTRN	_GL_LoadTexture:PROC
EXTRN	_VID_ScreenShot:PROC
EXTRN	_VID_CubemapShot:PROC
EXTRN	_R_GetTextureParms:PROC
EXTRN	_R_DrawStretchPic:PROC
EXTRN	_R_SpeedsMessage:PROC
EXTRN	_VGui_Startup:PROC
EXTRN	_IN_MouseSavePos:PROC
EXTRN	@__security_check_cookie@4:PROC
EXTRN	__ftol2_sse:PROC
EXTRN	_host:BYTE
EXTRN	_net_speeds:DWORD
EXTRN	_cl:BYTE
EXTRN	_cls:BYTE
EXTRN	_clgame:BYTE
EXTRN	_gameui:BYTE
EXTRN	_cl_showfps:DWORD
EXTRN	_glState:BYTE
EXTRN	___security_cookie:DWORD
EXTRN	__fltused:DWORD
_BSS	SEGMENT
_scr_dirty DB	010H DUP (?)
_scr_old_dirty DB 020H DUP (?)
_scr_init DD	01H DUP (?)
	ALIGN	8

?nexttime@?1??SCR_DrawFPS@@9@9 DQ 01H DUP (?)		; `SCR_DrawFPS'::`2'::nexttime
?lasttime@?1??SCR_DrawFPS@@9@9 DQ 01H DUP (?)		; `SCR_DrawFPS'::`2'::lasttime
?framerate@?1??SCR_DrawFPS@@9@9 DQ 01H DUP (?)		; `SCR_DrawFPS'::`2'::framerate
?framecount@?1??SCR_DrawFPS@@9@9 DD 01H DUP (?)		; `SCR_DrawFPS'::`2'::framecount
?maxfps@?1??SCR_DrawFPS@@9@9 DD 01H DUP (?)		; `SCR_DrawFPS'::`2'::maxfps
?msg@?1??SCR_NetSpeeds@@9@9 DB 0400H DUP (?)		; `SCR_NetSpeeds'::`2'::msg
?max_svfps@?1??SCR_NetSpeeds@@9@9 DD 01H DUP (?)	; `SCR_NetSpeeds'::`2'::max_svfps
?max_clfps@?1??SCR_NetSpeeds@@9@9 DD 01H DUP (?)	; `SCR_NetSpeeds'::`2'::max_clfps
_BSS	ENDS
;	COMDAT __xmm@41f00000000000000000000000000000
CONST	SEGMENT
__xmm@41f00000000000000000000000000000 DB 00H, 00H, 00H, 00H, 00H, 00H, 00H
	DB	00H, 00H, 00H, 00H, 00H, 00H, 00H, 0f0H, 'A'
CONST	ENDS
;	COMDAT __real@42f00000
CONST	SEGMENT
__real@42f00000 DD 042f00000r			; 120
CONST	ENDS
;	COMDAT __real@42700000
CONST	SEGMENT
__real@42700000 DD 042700000r			; 60
CONST	ENDS
;	COMDAT __real@41f00000
CONST	SEGMENT
__real@41f00000 DD 041f00000r			; 30
CONST	ENDS
;	COMDAT __real@41200000
CONST	SEGMENT
__real@41200000 DD 041200000r			; 10
CONST	ENDS
;	COMDAT __real@404e000000000000
CONST	SEGMENT
__real@404e000000000000 DQ 0404e000000000000r	; 60
CONST	ENDS
;	COMDAT __real@40000000
CONST	SEGMENT
__real@40000000 DD 040000000r			; 2
CONST	ENDS
;	COMDAT __real@3ff0000000000000
CONST	SEGMENT
__real@3ff0000000000000 DQ 03ff0000000000000r	; 1
CONST	ENDS
;	COMDAT __real@3fe0000000000000
CONST	SEGMENT
__real@3fe0000000000000 DQ 03fe0000000000000r	; 0.5
CONST	ENDS
;	COMDAT __real@3f800000
CONST	SEGMENT
__real@3f800000 DD 03f800000r			; 1
CONST	ENDS
;	COMDAT __real@3f1a36e2e0000000
CONST	SEGMENT
__real@3f1a36e2e0000000 DQ 03f1a36e2e0000000r	; 0.0001
CONST	ENDS
;	COMDAT __real@3f000000
CONST	SEGMENT
__real@3f000000 DD 03f000000r			; 0.5
CONST	ENDS
;	COMDAT __real@00000000
CONST	SEGMENT
__real@00000000 DD 000000000r			; 0
CONST	ENDS
;	COMDAT ??_C@_0P@NIHEOEIF@toggleconsole?6@
CONST	SEGMENT
??_C@_0P@NIHEOEIF@toggleconsole?6@ DB 'toggleconsole', 0aH, 00H ; `string'
CONST	ENDS
;	COMDAT ??_C@_0L@DABMMCMG@?9toconsole@
CONST	SEGMENT
??_C@_0L@DABMMCMG@?9toconsole@ DB '-toconsole', 00H	; `string'
CONST	ENDS
;	COMDAT ??_C@_0CI@BDAJMAHM@?$FO1Error?3?$FO7?5can?8t?5initialize?5gam@
CONST	SEGMENT
??_C@_0CI@BDAJMAHM@?$FO1Error?3?$FO7?5can?8t?5initialize?5gam@ DB '^1Erro'
	DB	'r:^7 can''t initialize gameui.dll', 0aH, 00H ; `string'
CONST	ENDS
;	COMDAT ??_C@_08KKGKLAHJ@sizedown@
CONST	SEGMENT
??_C@_08KKGKLAHJ@sizedown@ DB 'sizedown', 00H		; `string'
CONST	ENDS
;	COMDAT ??_C@_0BO@OENNDFIM@screen?5size?5down?5to?510?5points@
CONST	SEGMENT
??_C@_0BO@OENNDFIM@screen?5size?5down?5to?510?5points@ DB 'screen size do'
	DB	'wn to 10 points', 00H			; `string'
CONST	ENDS
;	COMDAT ??_C@_06FCHHJILH@sizeup@
CONST	SEGMENT
??_C@_06FCHHJILH@sizeup@ DB 'sizeup', 00H		; `string'
CONST	ENDS
;	COMDAT ??_C@_0BM@FKGHNADM@screen?5size?5up?5to?510?5points@
CONST	SEGMENT
??_C@_0BM@FKGHNADM@screen?5size?5up?5to?510?5points@ DB 'screen size up t'
	DB	'o 10 points', 00H				; `string'
CONST	ENDS
;	COMDAT ??_C@_07NBKBBFDF@viewpos@
CONST	SEGMENT
??_C@_07NBKBBFDF@viewpos@ DB 'viewpos', 00H		; `string'
CONST	ENDS
;	COMDAT ??_C@_0BN@NPPGKBKN@prints?5current?5player?5origin@
CONST	SEGMENT
??_C@_0BN@NPPGKBKN@prints?5current?5player?5origin@ DB 'prints current pl'
	DB	'ayer origin', 00H				; `string'
CONST	ENDS
;	COMDAT ??_C@_07MIIENBA@loadsky@
CONST	SEGMENT
??_C@_07MIIENBA@loadsky@ DB 'loadsky', 00H		; `string'
CONST	ENDS
;	COMDAT ??_C@_07OAIDGMCI@skyname@
CONST	SEGMENT
??_C@_07OAIDGMCI@skyname@ DB 'skyname', 00H		; `string'
CONST	ENDS
;	COMDAT ??_C@_0BL@GALGPJHD@set?5new?5skybox?5by?5basename@
CONST	SEGMENT
??_C@_0BL@GALGPJHD@set?5new?5skybox?5by?5basename@ DB 'set new skybox by '
	DB	'basename', 00H				; `string'
CONST	ENDS
;	COMDAT ??_C@_0M@CHDNPKFN@timerefresh@
CONST	SEGMENT
??_C@_0M@CHDNPKFN@timerefresh@ DB 'timerefresh', 00H	; `string'
CONST	ENDS
;	COMDAT ??_C@_0CL@FDPKMBBB@turn?5quickly?5and?5print?5renderin@
CONST	SEGMENT
??_C@_0CL@FDPKMBBB@turn?5quickly?5and?5print?5renderin@ DB 'turn quickly '
	DB	'and print rendering statistcs', 00H		; `string'
CONST	ENDS
;	COMDAT ??_C@_03GOIFLICK@120@
CONST	SEGMENT
??_C@_03GOIFLICK@120@ DB '120', 00H			; `string'
CONST	ENDS
;	COMDAT ??_C@_0M@HBOMHEA@screen?5size@
CONST	SEGMENT
??_C@_0M@HBOMHEA@screen?5size@ DB 'screen size', 00H	; `string'
CONST	ENDS
;	COMDAT ??_C@_06COKHDAAL@v_dark@
CONST	SEGMENT
??_C@_06COKHDAAL@v_dark@ DB 'v_dark', 00H		; `string'
CONST	ENDS
;	COMDAT ??_C@_0BO@MBGAKAJL@starts?5level?5from?5dark?5screen@
CONST	SEGMENT
??_C@_0BO@MBGAKAJL@starts?5level?5from?5dark?5screen@ DB 'starts level fr'
	DB	'om dark screen', 00H			; `string'
CONST	ENDS
;	COMDAT ??_C@_0BA@BOPAOBIA@cl_envshot_size@
CONST	SEGMENT
??_C@_0BA@BOPAOBIA@cl_envshot_size@ DB 'cl_envshot_size', 00H ; `string'
CONST	ENDS
;	COMDAT ??_C@_03CPCFKGMH@256@
CONST	SEGMENT
??_C@_03CPCFKGMH@256@ DB '256', 00H			; `string'
CONST	ENDS
;	COMDAT ??_C@_0BK@CDGCMGNE@envshot?5size?5of?5cube?5side@
CONST	SEGMENT
??_C@_0BK@CDGCMGNE@envshot?5size?5of?5cube?5side@ DB 'envshot size of cub'
	DB	'e side', 00H				; `string'
CONST	ENDS
;	COMDAT ??_C@_0O@HNNIOCCG@cl_testlights@
CONST	SEGMENT
??_C@_0O@HNNIOCCG@cl_testlights@ DB 'cl_testlights', 00H ; `string'
CONST	ENDS
;	COMDAT ??_C@_0BE@HFKEPML@test?5dynamic?5lights@
CONST	SEGMENT
??_C@_0BE@HFKEPML@test?5dynamic?5lights@ DB 'test dynamic lights', 00H ; `string'
CONST	ENDS
;	COMDAT ??_C@_0N@CCFOLBKF@scr_download@
CONST	SEGMENT
??_C@_0N@CCFOLBKF@scr_download@ DB 'scr_download', 00H	; `string'
CONST	ENDS
;	COMDAT ??_C@_02PGHGPEOM@?91@
CONST	SEGMENT
??_C@_02PGHGPEOM@?91@ DB '-1', 00H			; `string'
CONST	ENDS
;	COMDAT ??_C@_0BJ@PDLEGELG@downloading?5bar?5progress@
CONST	SEGMENT
??_C@_0BJ@PDLEGELG@downloading?5bar?5progress@ DB 'downloading bar progre'
	DB	'ss', 00H					; `string'
CONST	ENDS
;	COMDAT ??_C@_0M@DKOEGGOG@scr_loading@
CONST	SEGMENT
??_C@_0M@DKOEGGOG@scr_loading@ DB 'scr_loading', 00H	; `string'
CONST	ENDS
;	COMDAT ??_C@_0BF@GJFJPJKE@loading?5bar?5progress@
CONST	SEGMENT
??_C@_0BF@GJFJPJKE@loading?5bar?5progress@ DB 'loading bar progress', 00H ; `string'
CONST	ENDS
;	COMDAT ??_C@_0BB@CCCFBDOM@allow_levelshots@
CONST	SEGMENT
??_C@_0BB@CCCFBDOM@allow_levelshots@ DB 'allow_levelshots', 00H ; `string'
CONST	ENDS
;	COMDAT ??_C@_01GBGANLPD@0@
CONST	SEGMENT
??_C@_01GBGANLPD@0@ DB '0', 00H				; `string'
CONST	ENDS
;	COMDAT ??_C@_0EE@FDDOJKDI@allow?5engine?5to?5use?5indivdual?5l@
CONST	SEGMENT
??_C@_0EE@FDDOJKDI@allow?5engine?5to?5use?5indivdual?5l@ DB 'allow engine'
	DB	' to use indivdual levelshots instead of ''loading'' image', 00H ; `string'
CONST	ENDS
;	COMDAT ??_C@_0BC@CBJAHLIN@cl_levelshot_name@
CONST	SEGMENT
??_C@_0BC@CBJAHLIN@cl_levelshot_name@ DB 'cl_levelshot_name', 00H ; `string'
CONST	ENDS
;	COMDAT ??_C@_06FPKCCFDN@?$CKblack@
CONST	SEGMENT
??_C@_06FPKCCFDN@?$CKblack@ DB '*black', 00H		; `string'
CONST	ENDS
;	COMDAT ??_C@_0CD@CPMPLDOA@contains?5path?5to?5current?5levels@
CONST	SEGMENT
??_C@_0CD@CPMPLDOA@contains?5path?5to?5current?5levels@ DB 'contains path'
	DB	' to current levelshot', 00H			; `string'
CONST	ENDS
;	COMDAT ??_C@_0P@JECIOGED@scr_centertime@
CONST	SEGMENT
??_C@_0P@JECIOGED@scr_centertime@ DB 'scr_centertime', 00H ; `string'
CONST	ENDS
;	COMDAT ??_C@_03BEHLLJJF@2?45@
CONST	SEGMENT
??_C@_03BEHLLJJF@2?45@ DB '2.5', 00H			; `string'
CONST	ENDS
;	COMDAT ??_C@_0BG@HMGGPNNH@centerprint?5hold?5time@
CONST	SEGMENT
??_C@_0BG@HMGGPNNH@centerprint?5hold?5time@ DB 'centerprint hold time', 00H ; `string'
CONST	ENDS
;	COMDAT ??_C@_08CDPCOEFH@viewsize@
CONST	SEGMENT
??_C@_08CDPCOEFH@viewsize@ DB 'viewsize', 00H		; `string'
CONST	ENDS
;	COMDAT ??_C@_0BB@HGAODCMH@gfx?1backtile?4lmp@
CONST	SEGMENT
??_C@_0BB@HGAODCMH@gfx?1backtile?4lmp@ DB 'gfx/backtile.lmp', 00H ; `string'
CONST	ENDS
;	COMDAT ??_C@_0BA@EKDDNEPK@gfx?1loading?4lmp@
CONST	SEGMENT
??_C@_0BA@EKDDNEPK@gfx?1loading?4lmp@ DB 'gfx/loading.lmp', 00H ; `string'
CONST	ENDS
;	COMDAT ??_C@_0P@IIDHHPMI@gfx?1lambda?4lmp@
CONST	SEGMENT
??_C@_0P@IIDHHPMI@gfx?1lambda?4lmp@ DB 'gfx/lambda.lmp', 00H ; `string'
CONST	ENDS
;	COMDAT ??_C@_0O@OCAJAJMG@gfx?1pause?4lmp@
CONST	SEGMENT
??_C@_0O@OCAJAJMG@gfx?1pause?4lmp@ DB 'gfx/pause.lmp', 00H ; `string'
CONST	ENDS
;	COMDAT ??_C@_0P@HNGIGCBP@gfx?1paused?4lmp@
CONST	SEGMENT
??_C@_0P@HNGIGCBP@gfx?1paused?4lmp@ DB 'gfx/paused.lmp', 00H ; `string'
CONST	ENDS
;	COMDAT ??_C@_0L@POBPLNLE@?$CDvalve?4pal@
CONST	SEGMENT
??_C@_0L@POBPLNLE@?$CDvalve?4pal@ DB '#valve.pal', 00H	; `string'
CONST	ENDS
;	COMDAT ??_C@_0BA@GPKIMKBN@gfx?1palette?4pal@
CONST	SEGMENT
??_C@_0BA@GPKIMKBN@gfx?1palette?4pal@ DB 'gfx/palette.pal', 00H ; `string'
CONST	ENDS
;	COMDAT ??_C@_0BA@JKAKIGAD@gfx?1palette?4lmp@
CONST	SEGMENT
??_C@_0BA@JKAKIGAD@gfx?1palette?4lmp@ DB 'gfx/palette.lmp', 00H ; `string'
CONST	ENDS
;	COMDAT ??_C@_0CE@PBGPNBKA@?$FO1Error?3?$FO7?5failed?5to?5load?5HUD?5f@
CONST	SEGMENT
??_C@_0CE@PBGPNBKA@?$FO1Error?3?$FO7?5failed?5to?5load?5HUD?5f@ DB '^1Err'
	DB	'or:^7 failed to load HUD font', 0aH, 00H	; `string'
CONST	ENDS
;	COMDAT ??_C@_0N@POKADIKD@gfx?1conchars@
CONST	SEGMENT
??_C@_0N@POKADIKD@gfx?1conchars@ DB 'gfx/conchars', 00H	; `string'
CONST	ENDS
;	COMDAT ??_C@_0BI@EFDGHHKN@gfx?4wad?1creditsfont?4fnt@
CONST	SEGMENT
??_C@_0BI@EFDGHHKN@gfx?4wad?1creditsfont?4fnt@ DB 'gfx.wad/creditsfont.fn'
	DB	't', 00H					; `string'
CONST	ENDS
;	COMDAT ??_C@_0DE@MGENFIEN@D?3?2DevDragon?2XashFE?2dev?2src?2eng@
CONST	SEGMENT
??_C@_0DE@MGENFIEN@D?3?2DevDragon?2XashFE?2dev?2src?2eng@ DB 'D:\DevDrago'
	DB	'n\XashFE\dev\src\engine\client\cl_scrn.c', 00H ; `string'
CONST	ENDS
;	COMDAT ?__LINE__Var@?0??SCR_LoadVariableWidthFont@@9@9
_DATA	SEGMENT
?__LINE__Var@?0??SCR_LoadVariableWidthFont@@9@9 DD 0206H ; `SCR_LoadVariableWidthFont'::`1'::__LINE__Var
_DATA	ENDS
;	COMDAT ??_C@_0CB@HJLOAGJC@SCR_UpdateScreen?3?5bad?5cls?4state@
CONST	SEGMENT
??_C@_0CB@HJLOAGJC@SCR_UpdateScreen?3?5bad?5cls?4state@ DB 'SCR_UpdateScr'
	DB	'een: bad cls.state', 0aH, 00H		; `string'
CONST	ENDS
;	COMDAT ??_C@_0BP@DHKMKFKK@?$FO1Error?3?$FO7?5Unable?5to?5write?5?$CFs?6@
CONST	SEGMENT
??_C@_0BP@DHKMKFKK@?$FO1Error?3?$FO7?5Unable?5to?5write?5?$CFs?6@ DB '^1E'
	DB	'rror:^7 Unable to write %s', 0aH, 00H	; `string'
CONST	ENDS
;	COMDAT ??_C@_09OMCHHOCB@Write?5?$CFs?6@
CONST	SEGMENT
??_C@_09OMCHHOCB@Write?5?$CFs?6@ DB 'Write %s', 0aH, 00H ; `string'
CONST	ENDS
;	COMDAT ??_C@_0L@EAHKDLHJ@levelshot?6@
CONST	SEGMENT
??_C@_0L@EAHKDLHJ@levelshot?6@ DB 'levelshot', 0aH, 00H	; `string'
CONST	ENDS
;	COMDAT ??_C@_0JO@KMBMJNBN@sv?5fps?3?5?$FO1?$CF4i?5min?0?5?$FO3?$CF4i?5cur?0?5?$FO@
CONST	SEGMENT
??_C@_0JO@KMBMJNBN@sv?5fps?3?5?$FO1?$CF4i?5min?0?5?$FO3?$CF4i?5cur?0?5?$FO@ DB 's'
	DB	'v fps: ^1%4i min, ^3%4i cur, ^2%4i max', 0aH, 'cl fps: ^1%4i '
	DB	'min, ^3%4i cur, ^2%4i max', 0aH, 'Game Time: %02d:%02d', 0aH, 'T'
	DB	'otal received from server: %s', 0aH, 'Total sent to server: %'
	DB	's', 0aH, 00H				; `string'
CONST	ENDS
;	COMDAT ??_C@_07NHPDFGMJ@?$CF4i?5fps@
CONST	SEGMENT
??_C@_07NHPDFGMJ@?$CF4i?5fps@ DB '%4i fps', 00H		; `string'
CONST	ENDS
;	COMDAT ??_C@_0CF@FLDICLEA@fps?3?5?$FO1?$CF4i?5min?0?5?$FO3?$CF4i?5cur?0?5?$FO2?$CF4@
CONST	SEGMENT
??_C@_0CF@FLDICLEA@fps?3?5?$FO1?$CF4i?5min?0?5?$FO3?$CF4i?5cur?0?5?$FO2?$CF4@ DB 'f'
	DB	'ps: ^1%4i min, ^3%4i cur, ^2%4i max', 00H	; `string'
CONST	ENDS
;	COMDAT ??_C@_07IHIBBHHA@?$CF4i?5spf@
CONST	SEGMENT
??_C@_07IHIBBHHA@?$CF4i?5spf@ DB '%4i spf', 00H		; `string'
CONST	ENDS
_DATA	SEGMENT
?minfps@?1??SCR_DrawFPS@@9@9 DD 0270fH			; `SCR_DrawFPS'::`2'::minfps
?min_svfps@?1??SCR_NetSpeeds@@9@9 DD 064H		; `SCR_NetSpeeds'::`2'::min_svfps
?min_clfps@?1??SCR_NetSpeeds@@9@9 DD 064H		; `SCR_NetSpeeds'::`2'::min_clfps
_DATA	ENDS
;	COMDAT voltbl
voltbl	SEGMENT
_volmd	DW	010H
	DW	02e9H
voltbl	ENDS
;	COMDAT voltbl
voltbl	SEGMENT
_volmd	DW	010H
	DW	0199H
voltbl	ENDS
;	COMDAT voltbl
voltbl	SEGMENT
_volmd	DW	0dH
	DW	0328H
voltbl	ENDS
; Function compile flags: /Odtp /ZI
; File D:\DevDragon\XashFE\dev\src\engine\client\cl_scrn.c
;	COMDAT _SCR_SizeDown_f
_TEXT	SEGMENT
tv71 = -68						; size = 4
_SCR_SizeDown_f PROC					; COMDAT

; 669  : {

	push	ebp
	mov	ebp, esp
	sub	esp, 68					; 00000044H
	push	ebx
	push	esi
	push	edi

; 670  : 	Cvar_SetValue( "viewsize", Q_max( scr_viewsize->value - 10, 30 ));

	mov	eax, DWORD PTR _scr_viewsize
	movss	xmm0, DWORD PTR [eax+12]
	subss	xmm0, DWORD PTR __real@41200000
	comiss	xmm0, DWORD PTR __real@41f00000
	jbe	SHORT $LN3@SCR_SizeDo
	mov	ecx, DWORD PTR _scr_viewsize
	movss	xmm0, DWORD PTR [ecx+12]
	subss	xmm0, DWORD PTR __real@41200000
	movss	DWORD PTR tv71[ebp], xmm0
	jmp	SHORT $LN4@SCR_SizeDo
$LN3@SCR_SizeDo:
	movss	xmm0, DWORD PTR __real@41f00000
	movss	DWORD PTR tv71[ebp], xmm0
$LN4@SCR_SizeDo:
	push	ecx
	movss	xmm0, DWORD PTR tv71[ebp]
	movss	DWORD PTR [esp], xmm0
	push	OFFSET ??_C@_08CDPCOEFH@viewsize@
	call	_Cvar_SetValue
	add	esp, 8

; 671  : }

	pop	edi
	pop	esi
	pop	ebx
	mov	esp, ebp
	pop	ebp
	ret	0
_SCR_SizeDown_f ENDP
_TEXT	ENDS
; Function compile flags: /Odtp /ZI
; File D:\DevDragon\XashFE\dev\src\engine\client\cl_scrn.c
;	COMDAT _SCR_SizeUp_f
_TEXT	SEGMENT
tv71 = -68						; size = 4
_SCR_SizeUp_f PROC					; COMDAT

; 656  : {

	push	ebp
	mov	ebp, esp
	sub	esp, 68					; 00000044H
	push	ebx
	push	esi
	push	edi

; 657  : 	Cvar_SetValue( "viewsize", Q_min( scr_viewsize->value + 10, 120 ));

	mov	eax, DWORD PTR _scr_viewsize
	movss	xmm0, DWORD PTR [eax+12]
	addss	xmm0, DWORD PTR __real@41200000
	movss	xmm1, DWORD PTR __real@42f00000
	comiss	xmm1, xmm0
	jbe	SHORT $LN3@SCR_SizeUp
	mov	ecx, DWORD PTR _scr_viewsize
	movss	xmm0, DWORD PTR [ecx+12]
	addss	xmm0, DWORD PTR __real@41200000
	movss	DWORD PTR tv71[ebp], xmm0
	jmp	SHORT $LN4@SCR_SizeUp
$LN3@SCR_SizeUp:
	movss	xmm0, DWORD PTR __real@42f00000
	movss	DWORD PTR tv71[ebp], xmm0
$LN4@SCR_SizeUp:
	push	ecx
	movss	xmm0, DWORD PTR tv71[ebp]
	movss	DWORD PTR [esp], xmm0
	push	OFFSET ??_C@_08CDPCOEFH@viewsize@
	call	_Cvar_SetValue
	add	esp, 8

; 658  : }

	pop	edi
	pop	esi
	pop	ebx
	mov	esp, ebp
	pop	ebp
	ret	0
_SCR_SizeUp_f ENDP
_TEXT	ENDS
; Function compile flags: /Odtp /ZI
; File D:\DevDragon\XashFE\dev\src\engine\client\cl_scrn.c
;	COMDAT _SCR_LoadVariableWidthFont
_TEXT	SEGMENT
_src$ = -20						; size = 4
_length$ = -16						; size = 4
_buffer$ = -12						; size = 4
_fontWidth$ = -8					; size = 4
_i$ = -4						; size = 4
_fontname$ = 8						; size = 4
_SCR_LoadVariableWidthFont PROC				; COMDAT

; 518  : {

	push	ebp
	mov	ebp, esp
	sub	esp, 84					; 00000054H
	push	ebx
	push	esi
	push	edi

; 519  : 	int	i, fontWidth;
; 520  : 	byte	*buffer;
; 521  : 	size_t	length;
; 522  : 	qfont_t	*src;
; 523  : 
; 524  : 	if( cls.creditsFont.valid )

	cmp	DWORD PTR _cls+294996, 0
	je	SHORT $LN5@SCR_LoadVa

; 525  : 		return true; // already loaded

	mov	eax, 1
	jmp	$LN1@SCR_LoadVa
$LN5@SCR_LoadVa:

; 526  : 
; 527  : 	if( !FS_FileExists( fontname, false ))

	push	0
	mov	eax, DWORD PTR _fontname$[ebp]
	push	eax
	call	_FS_FileExists
	add	esp, 8
	test	eax, eax
	jne	SHORT $LN6@SCR_LoadVa

; 528  : 		return false;

	xor	eax, eax
	jmp	$LN1@SCR_LoadVa
$LN6@SCR_LoadVa:

; 529  : 
; 530  : 	cls.creditsFont.hFontTexture = GL_LoadTexture( fontname, NULL, 0, TF_IMAGE );

	push	6144					; 00001800H
	push	0
	push	0
	mov	eax, DWORD PTR _fontname$[ebp]
	push	eax
	call	_GL_LoadTexture
	add	esp, 16					; 00000010H
	mov	DWORD PTR _cls+290632, eax

; 531  : 	R_GetTextureParms( &fontWidth, NULL, cls.creditsFont.hFontTexture );

	mov	eax, DWORD PTR _cls+290632
	push	eax
	push	0
	lea	ecx, DWORD PTR _fontWidth$[ebp]
	push	ecx
	call	_R_GetTextureParms
	add	esp, 12					; 0000000cH

; 532  : 
; 533  : 	// half-life font with variable chars witdh
; 534  : 	buffer = FS_LoadFile( fontname, &length, false );

	push	0
	lea	eax, DWORD PTR _length$[ebp]
	push	eax
	mov	ecx, DWORD PTR _fontname$[ebp]
	push	ecx
	call	_FS_LoadFile
	add	esp, 12					; 0000000cH
	mov	DWORD PTR _buffer$[ebp], eax

; 535  : 
; 536  : 	// setup creditsfont	
; 537  : 	if( buffer && length >= sizeof( qfont_t ))

	cmp	DWORD PTR _buffer$[ebp], 0
	je	$LN7@SCR_LoadVa
	cmp	DWORD PTR _length$[ebp], 1044		; 00000414H
	jb	$LN7@SCR_LoadVa

; 538  : 	{
; 539  : 		src = (qfont_t *)buffer;

	mov	eax, DWORD PTR _buffer$[ebp]
	mov	DWORD PTR _src$[ebp], eax

; 540  : 		cls.creditsFont.charHeight = clgame.scrInfo.iCharHeight = src->rowheight;

	mov	eax, DWORD PTR _src$[ebp]
	mov	ecx, DWORD PTR [eax+12]
	mov	DWORD PTR _clgame+217096, ecx
	mov	edx, DWORD PTR _clgame+217096
	mov	DWORD PTR _cls+294988, edx

; 541  : 		cls.creditsFont.type = FONT_VARIABLE;

	mov	DWORD PTR _cls+294992, 1

; 542  : 
; 543  : 		// build rectangles
; 544  : 		for( i = 0; i < 256; i++ )

	mov	DWORD PTR _i$[ebp], 0
	jmp	SHORT $LN4@SCR_LoadVa
$LN2@SCR_LoadVa:
	mov	eax, DWORD PTR _i$[ebp]
	add	eax, 1
	mov	DWORD PTR _i$[ebp], eax
$LN4@SCR_LoadVa:
	cmp	DWORD PTR _i$[ebp], 256			; 00000100H
	jge	$LN3@SCR_LoadVa

; 545  : 		{
; 546  : 			cls.creditsFont.fontRc[i].left = (word)src->fontinfo[i].startoffset % fontWidth;

	mov	eax, DWORD PTR _i$[ebp]
	mov	ecx, DWORD PTR _src$[ebp]
	movzx	eax, WORD PTR [ecx+eax*4+16]
	cdq
	idiv	DWORD PTR _fontWidth$[ebp]
	mov	eax, DWORD PTR _i$[ebp]
	shl	eax, 4
	mov	DWORD PTR _cls[eax+290636], edx

; 547  : 			cls.creditsFont.fontRc[i].right = cls.creditsFont.fontRc[i].left + src->fontinfo[i].charwidth;

	mov	eax, DWORD PTR _i$[ebp]
	shl	eax, 4
	mov	ecx, DWORD PTR _i$[ebp]
	mov	edx, DWORD PTR _src$[ebp]
	movsx	ecx, WORD PTR [edx+ecx*4+18]
	add	ecx, DWORD PTR _cls[eax+290636]
	mov	edx, DWORD PTR _i$[ebp]
	shl	edx, 4
	mov	DWORD PTR _cls[edx+290640], ecx

; 548  : 			cls.creditsFont.fontRc[i].top = (word)src->fontinfo[i].startoffset / fontWidth;

	mov	eax, DWORD PTR _i$[ebp]
	mov	ecx, DWORD PTR _src$[ebp]
	movzx	eax, WORD PTR [ecx+eax*4+16]
	cdq
	idiv	DWORD PTR _fontWidth$[ebp]
	mov	edx, DWORD PTR _i$[ebp]
	shl	edx, 4
	mov	DWORD PTR _cls[edx+290644], eax

; 549  : 			cls.creditsFont.fontRc[i].bottom = cls.creditsFont.fontRc[i].top + src->rowheight;

	mov	eax, DWORD PTR _i$[ebp]
	shl	eax, 4
	mov	ecx, DWORD PTR _cls[eax+290644]
	mov	edx, DWORD PTR _src$[ebp]
	add	ecx, DWORD PTR [edx+12]
	mov	eax, DWORD PTR _i$[ebp]
	shl	eax, 4
	mov	DWORD PTR _cls[eax+290648], ecx

; 550  : 			cls.creditsFont.charWidths[i] = clgame.scrInfo.charWidths[i] = src->fontinfo[i].charwidth;

	mov	eax, DWORD PTR _i$[ebp]
	mov	ecx, DWORD PTR _i$[ebp]
	mov	edx, DWORD PTR _src$[ebp]
	mov	cx, WORD PTR [edx+ecx*4+18]
	mov	WORD PTR _clgame[eax*2+217100], cx
	mov	edx, DWORD PTR _i$[ebp]
	mov	eax, DWORD PTR _i$[ebp]
	mov	cl, BYTE PTR _clgame[eax*2+217100]
	mov	BYTE PTR _cls[edx+294732], cl

; 551  : 		}

	jmp	$LN2@SCR_LoadVa
$LN3@SCR_LoadVa:

; 552  : 		cls.creditsFont.valid = true;

	mov	DWORD PTR _cls+294996, 1
$LN7@SCR_LoadVa:

; 553  : 	}
; 554  : 	if( buffer ) Mem_Free( buffer );

	cmp	DWORD PTR _buffer$[ebp], 0
	je	SHORT $LN8@SCR_LoadVa
	mov	eax, DWORD PTR ?__LINE__Var@?0??SCR_LoadVariableWidthFont@@9@9
	add	eax, 36					; 00000024H
	push	eax
	push	OFFSET ??_C@_0DE@MGENFIEN@D?3?2DevDragon?2XashFE?2dev?2src?2eng@
	mov	ecx, DWORD PTR _buffer$[ebp]
	push	ecx
	call	__Mem_Free
	add	esp, 12					; 0000000cH
$LN8@SCR_LoadVa:

; 555  : 
; 556  : 	return true;

	mov	eax, 1
$LN1@SCR_LoadVa:

; 557  : }

	pop	edi
	pop	esi
	pop	ebx
	mov	esp, ebp
	pop	ebp
	ret	0
_SCR_LoadVariableWidthFont ENDP
_TEXT	ENDS
; Function compile flags: /Odtp /ZI
; File D:\DevDragon\XashFE\dev\src\engine\client\cl_scrn.c
;	COMDAT _SCR_LoadFixedWidthFont
_TEXT	SEGMENT
tv144 = -76						; size = 4
_fontWidth$ = -8					; size = 4
_i$ = -4						; size = 4
_fontname$ = 8						; size = 4
_SCR_LoadFixedWidthFont PROC				; COMDAT

; 489  : {

	push	ebp
	mov	ebp, esp
	sub	esp, 76					; 0000004cH
	push	ebx
	push	esi
	push	edi

; 490  : 	int	i, fontWidth;
; 491  : 
; 492  : 	if( cls.creditsFont.valid )

	cmp	DWORD PTR _cls+294996, 0
	je	SHORT $LN5@SCR_LoadFi

; 493  : 		return true; // already loaded

	mov	eax, 1
	jmp	$LN1@SCR_LoadFi
$LN5@SCR_LoadFi:

; 494  : 
; 495  : 	if( !FS_FileExists( fontname, false ))

	push	0
	mov	eax, DWORD PTR _fontname$[ebp]
	push	eax
	call	_FS_FileExists
	add	esp, 8
	test	eax, eax
	jne	SHORT $LN6@SCR_LoadFi

; 496  : 		return false;

	xor	eax, eax
	jmp	$LN1@SCR_LoadFi
$LN6@SCR_LoadFi:

; 497  : 
; 498  : 	cls.creditsFont.hFontTexture = GL_LoadTexture( fontname, NULL, 0, TF_IMAGE|TF_KEEP_SOURCE );

	push	6146					; 00001802H
	push	0
	push	0
	mov	eax, DWORD PTR _fontname$[ebp]
	push	eax
	call	_GL_LoadTexture
	add	esp, 16					; 00000010H
	mov	DWORD PTR _cls+290632, eax

; 499  : 	R_GetTextureParms( &fontWidth, NULL, cls.creditsFont.hFontTexture );

	mov	eax, DWORD PTR _cls+290632
	push	eax
	push	0
	lea	ecx, DWORD PTR _fontWidth$[ebp]
	push	ecx
	call	_R_GetTextureParms
	add	esp, 12					; 0000000cH

; 500  : 	cls.creditsFont.charHeight = clgame.scrInfo.iCharHeight = fontWidth / 16;

	mov	eax, DWORD PTR _fontWidth$[ebp]
	cdq
	and	edx, 15					; 0000000fH
	add	eax, edx
	sar	eax, 4
	mov	DWORD PTR _clgame+217096, eax
	mov	eax, DWORD PTR _clgame+217096
	mov	DWORD PTR _cls+294988, eax

; 501  : 	cls.creditsFont.type = FONT_FIXED;

	mov	DWORD PTR _cls+294992, 0

; 502  : 	cls.creditsFont.valid = true;

	mov	DWORD PTR _cls+294996, 1

; 503  : 
; 504  : 	// build fixed rectangles
; 505  : 	for( i = 0; i < 256; i++ )

	mov	DWORD PTR _i$[ebp], 0
	jmp	SHORT $LN4@SCR_LoadFi
$LN2@SCR_LoadFi:
	mov	eax, DWORD PTR _i$[ebp]
	add	eax, 1
	mov	DWORD PTR _i$[ebp], eax
$LN4@SCR_LoadFi:
	cmp	DWORD PTR _i$[ebp], 256			; 00000100H
	jge	$LN3@SCR_LoadFi

; 506  : 	{
; 507  : 		cls.creditsFont.fontRc[i].left = (i * (fontWidth / 16)) % fontWidth;

	mov	eax, DWORD PTR _fontWidth$[ebp]
	cdq
	and	edx, 15					; 0000000fH
	add	eax, edx
	sar	eax, 4
	imul	eax, DWORD PTR _i$[ebp]
	cdq
	idiv	DWORD PTR _fontWidth$[ebp]
	mov	eax, DWORD PTR _i$[ebp]
	shl	eax, 4
	mov	DWORD PTR _cls[eax+290636], edx

; 508  : 		cls.creditsFont.fontRc[i].right = cls.creditsFont.fontRc[i].left + fontWidth / 16;

	mov	ecx, DWORD PTR _i$[ebp]
	shl	ecx, 4
	mov	eax, DWORD PTR _fontWidth$[ebp]
	cdq
	and	edx, 15					; 0000000fH
	add	eax, edx
	sar	eax, 4
	add	eax, DWORD PTR _cls[ecx+290636]
	mov	edx, DWORD PTR _i$[ebp]
	shl	edx, 4
	mov	DWORD PTR _cls[edx+290640], eax

; 509  : 		cls.creditsFont.fontRc[i].top = (i / 16) * (fontWidth / 16);

	mov	eax, DWORD PTR _i$[ebp]
	cdq
	and	edx, 15					; 0000000fH
	add	eax, edx
	mov	ecx, eax
	sar	ecx, 4
	mov	eax, DWORD PTR _fontWidth$[ebp]
	cdq
	and	edx, 15					; 0000000fH
	add	eax, edx
	sar	eax, 4
	imul	ecx, eax
	mov	edx, DWORD PTR _i$[ebp]
	shl	edx, 4
	mov	DWORD PTR _cls[edx+290644], ecx

; 510  : 		cls.creditsFont.fontRc[i].bottom = cls.creditsFont.fontRc[i].top + fontWidth / 16;

	mov	ecx, DWORD PTR _i$[ebp]
	shl	ecx, 4
	mov	eax, DWORD PTR _fontWidth$[ebp]
	cdq
	and	edx, 15					; 0000000fH
	add	eax, edx
	sar	eax, 4
	add	eax, DWORD PTR _cls[ecx+290644]
	mov	edx, DWORD PTR _i$[ebp]
	shl	edx, 4
	mov	DWORD PTR _cls[edx+290648], eax

; 511  : 		cls.creditsFont.charWidths[i] = clgame.scrInfo.charWidths[i] = fontWidth / 16;

	mov	eax, DWORD PTR _fontWidth$[ebp]
	cdq
	and	edx, 15					; 0000000fH
	add	eax, edx
	sar	eax, 4
	mov	DWORD PTR tv144[ebp], eax
	mov	eax, DWORD PTR _i$[ebp]
	mov	cx, WORD PTR tv144[ebp]
	mov	WORD PTR _clgame[eax*2+217100], cx
	mov	edx, DWORD PTR _i$[ebp]
	mov	al, BYTE PTR tv144[ebp]
	mov	BYTE PTR _cls[edx+294732], al

; 512  : 	}

	jmp	$LN2@SCR_LoadFi
$LN3@SCR_LoadFi:

; 513  : 
; 514  : 	return true;

	mov	eax, 1
$LN1@SCR_LoadFi:

; 515  : }

	pop	edi
	pop	esi
	pop	ebx
	mov	esp, ebp
	pop	ebp
	ret	0
_SCR_LoadFixedWidthFont ENDP
_TEXT	ENDS
; Function compile flags: /Odtp /ZI
; File D:\DevDragon\XashFE\dev\src\engine\client\cl_scrn.c
;	COMDAT _SCR_DrawPlaque
_TEXT	SEGMENT
_levelshot$1 = -4					; size = 4
_SCR_DrawPlaque PROC					; COMDAT

; 295  : {

	push	ebp
	mov	ebp, esp
	sub	esp, 68					; 00000044H
	push	ebx
	push	esi
	push	edi

; 296  : 	if(( cl_allow_levelshots->value && !cls.changelevel ) || cl.background )

	mov	eax, DWORD PTR _cl_allow_levelshots
	movss	xmm0, DWORD PTR [eax+12]
	ucomiss	xmm0, DWORD PTR __real@00000000
	lahf
	test	ah, 68					; 00000044H
	jnp	SHORT $LN4@SCR_DrawPl
	cmp	DWORD PTR _cls+8, 0
	je	SHORT $LN3@SCR_DrawPl
$LN4@SCR_DrawPl:
	cmp	DWORD PTR _cl+64, 0
	je	$LN5@SCR_DrawPl
$LN3@SCR_DrawPl:

; 297  : 	{
; 298  : 		int levelshot = GL_LoadTexture( cl_levelshot_name->string, NULL, 0, TF_IMAGE );

	push	6144					; 00001800H
	push	0
	push	0
	mov	eax, DWORD PTR _cl_levelshot_name
	mov	ecx, DWORD PTR [eax+4]
	push	ecx
	call	_GL_LoadTexture
	add	esp, 16					; 00000010H
	mov	DWORD PTR _levelshot$1[ebp], eax

; 299  : 		GL_SetRenderMode( kRenderNormal );

	push	0
	call	_GL_SetRenderMode
	add	esp, 4

; 300  : 		R_DrawStretchPic( 0, 0, glState.width, glState.height, 0, 0, 1, 1, levelshot );

	mov	eax, DWORD PTR _levelshot$1[ebp]
	push	eax
	push	ecx
	movss	xmm0, DWORD PTR __real@3f800000
	movss	DWORD PTR [esp], xmm0
	push	ecx
	movss	xmm0, DWORD PTR __real@3f800000
	movss	DWORD PTR [esp], xmm0
	push	ecx
	xorps	xmm0, xmm0
	movss	DWORD PTR [esp], xmm0
	push	ecx
	xorps	xmm0, xmm0
	movss	DWORD PTR [esp], xmm0
	cvtsi2ss xmm0, DWORD PTR _glState+4
	push	ecx
	movss	DWORD PTR [esp], xmm0
	cvtsi2ss xmm0, DWORD PTR _glState
	push	ecx
	movss	DWORD PTR [esp], xmm0
	push	ecx
	xorps	xmm0, xmm0
	movss	DWORD PTR [esp], xmm0
	push	ecx
	xorps	xmm0, xmm0
	movss	DWORD PTR [esp], xmm0
	call	_R_DrawStretchPic
	add	esp, 36					; 00000024H

; 301  : 		if( !cl.background ) CL_DrawHUD( CL_LOADING );

	cmp	DWORD PTR _cl+64, 0
	jne	SHORT $LN5@SCR_DrawPl
	push	1
	call	_CL_DrawHUD
	add	esp, 4
$LN5@SCR_DrawPl:

; 302  : 	}
; 303  : }

	pop	edi
	pop	esi
	pop	ebx
	mov	esp, ebp
	pop	ebp
	ret	0
_SCR_DrawPlaque ENDP
_TEXT	ENDS
; Function compile flags: /Odtp /ZI
; File D:\DevDragon\XashFE\dev\src\engine\client\cl_scrn.c
;	COMDAT _SCR_DrawFPS
_TEXT	SEGMENT
tv87 = -172						; size = 8
tv68 = -168						; size = 4
$T1 = -164						; size = 4
$T2 = -160						; size = 4
_curfps$3 = -92						; size = 4
_offset$ = -88						; size = 4
_fpsstring$ = -84					; size = 64
_newtime$ = -20						; size = 8
_color$ = -12						; size = 4
_calc$ = -8						; size = 4
__$ArrayPad$ = -4					; size = 4
_height$ = 8						; size = 4
_SCR_DrawFPS PROC					; COMDAT

; 47   : {

	push	ebp
	mov	ebp, esp
	sub	esp, 172				; 000000acH
	mov	eax, DWORD PTR ___security_cookie
	xor	eax, ebp
	mov	DWORD PTR __$ArrayPad$[ebp], eax
	push	ebx
	push	esi
	push	edi

; 48   : 	float		calc;
; 49   : 	rgba_t		color;
; 50   : 	double		newtime;
; 51   : 	static double	nexttime = 0, lasttime = 0;
; 52   : 	static double	framerate = 0;
; 53   : 	static int	framecount = 0;
; 54   : 	static int	minfps = 9999;
; 55   : 	static int	maxfps = 0;
; 56   : 	char		fpsstring[64];
; 57   : 	int		offset;
; 58   : 
; 59   : 	if( cls.state != ca_active || !cl_showfps->value || cl.background )

	cmp	DWORD PTR _cls, 4
	jne	SHORT $LN5@SCR_DrawFP
	mov	eax, DWORD PTR _cl_showfps
	movss	xmm0, DWORD PTR [eax+12]
	ucomiss	xmm0, DWORD PTR __real@00000000
	lahf
	test	ah, 68					; 00000044H
	jnp	SHORT $LN5@SCR_DrawFP
	cmp	DWORD PTR _cl+64, 0
	je	SHORT $LN4@SCR_DrawFP
$LN5@SCR_DrawFP:

; 60   : 		return; 

	jmp	$LN1@SCR_DrawFP
$LN4@SCR_DrawFP:

; 61   : 
; 62   : 	switch( cls.scrshot_action )

	mov	eax, DWORD PTR _cls+296308
	mov	DWORD PTR tv68[ebp], eax
	cmp	DWORD PTR tv68[ebp], 0
	je	SHORT $LN6@SCR_DrawFP
	cmp	DWORD PTR tv68[ebp], 1
	je	SHORT $LN6@SCR_DrawFP
	cmp	DWORD PTR tv68[ebp], 2
	je	SHORT $LN6@SCR_DrawFP
	jmp	SHORT $LN9@SCR_DrawFP
$LN6@SCR_DrawFP:

; 63   : 	{
; 64   : 	case scrshot_normal:
; 65   : 	case scrshot_snapshot:
; 66   : 	case scrshot_inactive:
; 67   : 		break;

	jmp	SHORT $LN2@SCR_DrawFP
$LN9@SCR_DrawFP:

; 68   : 	default: return;

	jmp	$LN1@SCR_DrawFP
$LN2@SCR_DrawFP:

; 69   : 	}
; 70   : 
; 71   : 	newtime = Sys_DoubleTime();

	call	_Sys_DoubleTime
	fstp	QWORD PTR _newtime$[ebp]

; 72   : 	if( newtime >= nexttime )

	movsd	xmm0, QWORD PTR _newtime$[ebp]
	comisd	xmm0, QWORD PTR ?nexttime@?1??SCR_DrawFPS@@9@9
	jb	$LN10@SCR_DrawFP

; 73   : 	{
; 74   : 		framerate = framecount / (newtime - lasttime);

	cvtsi2sd xmm0, DWORD PTR ?framecount@?1??SCR_DrawFPS@@9@9
	movsd	xmm1, QWORD PTR _newtime$[ebp]
	subsd	xmm1, QWORD PTR ?lasttime@?1??SCR_DrawFPS@@9@9
	divsd	xmm0, xmm1
	movsd	QWORD PTR ?framerate@?1??SCR_DrawFPS@@9@9, xmm0

; 75   : 		lasttime = newtime;

	movsd	xmm0, QWORD PTR _newtime$[ebp]
	movsd	QWORD PTR ?lasttime@?1??SCR_DrawFPS@@9@9, xmm0

; 76   : 		nexttime = Q_max( nexttime + 1.0, lasttime - 1.0 );

	movsd	xmm0, QWORD PTR ?nexttime@?1??SCR_DrawFPS@@9@9
	addsd	xmm0, QWORD PTR __real@3ff0000000000000
	movsd	xmm1, QWORD PTR ?lasttime@?1??SCR_DrawFPS@@9@9
	subsd	xmm1, QWORD PTR __real@3ff0000000000000
	comisd	xmm0, xmm1
	jbe	SHORT $LN18@SCR_DrawFP
	movsd	xmm0, QWORD PTR ?nexttime@?1??SCR_DrawFPS@@9@9
	addsd	xmm0, QWORD PTR __real@3ff0000000000000
	movsd	QWORD PTR tv87[ebp], xmm0
	jmp	SHORT $LN19@SCR_DrawFP
$LN18@SCR_DrawFP:
	movsd	xmm0, QWORD PTR ?lasttime@?1??SCR_DrawFPS@@9@9
	subsd	xmm0, QWORD PTR __real@3ff0000000000000
	movsd	QWORD PTR tv87[ebp], xmm0
$LN19@SCR_DrawFP:
	movsd	xmm0, QWORD PTR tv87[ebp]
	movsd	QWORD PTR ?nexttime@?1??SCR_DrawFPS@@9@9, xmm0

; 77   : 		framecount = 0;

	mov	DWORD PTR ?framecount@?1??SCR_DrawFPS@@9@9, 0
$LN10@SCR_DrawFP:

; 78   : 	}
; 79   : 
; 80   : 	calc = framerate;

	cvtsd2ss xmm0, QWORD PTR ?framerate@?1??SCR_DrawFPS@@9@9
	movss	DWORD PTR _calc$[ebp], xmm0

; 81   : 	framecount++;

	mov	eax, DWORD PTR ?framecount@?1??SCR_DrawFPS@@9@9
	add	eax, 1
	mov	DWORD PTR ?framecount@?1??SCR_DrawFPS@@9@9, eax

; 82   : 
; 83   : 	if( calc < 1.0f )

	movss	xmm0, DWORD PTR __real@3f800000
	comiss	xmm0, DWORD PTR _calc$[ebp]
	jbe	$LN11@SCR_DrawFP

; 84   : 	{
; 85   : 		Q_snprintf( fpsstring, sizeof( fpsstring ), "%4i spf", (int)(1.0f / calc + 0.5f));

	movss	xmm0, DWORD PTR __real@3f800000
	divss	xmm0, DWORD PTR _calc$[ebp]
	addss	xmm0, DWORD PTR __real@3f000000
	cvttss2si eax, xmm0
	push	eax
	push	OFFSET ??_C@_07IHIBBHHA@?$CF4i?5spf@
	push	64					; 00000040H
	lea	ecx, DWORD PTR _fpsstring$[ebp]
	push	ecx
	call	_Q_snprintf
	add	esp, 16					; 00000010H

; 86   : 		MakeRGBA( color, 255, 0, 0, 255 );

	mov	eax, 1
	imul	ecx, eax, 0
	mov	BYTE PTR _color$[ebp+ecx], 255		; 000000ffH
	mov	DWORD PTR $T2[ebp], 1
	cmp	DWORD PTR $T2[ebp], 4
	jae	SHORT $LN20@SCR_DrawFP
	jmp	SHORT $LN21@SCR_DrawFP
$LN20@SCR_DrawFP:
	call	___report_rangecheckfailure
$LN21@SCR_DrawFP:
	mov	edx, DWORD PTR $T2[ebp]
	mov	BYTE PTR _color$[ebp+edx], 0
	mov	eax, 1
	shl	eax, 1
	mov	DWORD PTR $T1[ebp], eax
	cmp	DWORD PTR $T1[ebp], 4
	jae	SHORT $LN22@SCR_DrawFP
	jmp	SHORT $LN23@SCR_DrawFP
$LN22@SCR_DrawFP:
	call	___report_rangecheckfailure
$LN23@SCR_DrawFP:
	mov	ecx, DWORD PTR $T1[ebp]
	mov	BYTE PTR _color$[ebp+ecx], 0
	mov	edx, 1
	imul	eax, edx, 3
	mov	BYTE PTR _color$[ebp+eax], 255		; 000000ffH

; 87   : 	}

	jmp	$LN12@SCR_DrawFP
$LN11@SCR_DrawFP:

; 88   : 	else
; 89   : 	{
; 90   : 		int	curfps = (int)(calc + 0.5f);

	movss	xmm0, DWORD PTR _calc$[ebp]
	addss	xmm0, DWORD PTR __real@3f000000
	cvttss2si eax, xmm0
	mov	DWORD PTR _curfps$3[ebp], eax

; 91   : 
; 92   : 		if( curfps < minfps ) minfps = curfps;

	mov	eax, DWORD PTR _curfps$3[ebp]
	cmp	eax, DWORD PTR ?minfps@?1??SCR_DrawFPS@@9@9
	jge	SHORT $LN13@SCR_DrawFP
	mov	eax, DWORD PTR _curfps$3[ebp]
	mov	DWORD PTR ?minfps@?1??SCR_DrawFPS@@9@9, eax
$LN13@SCR_DrawFP:

; 93   : 		if( curfps > maxfps ) maxfps = curfps;

	mov	eax, DWORD PTR _curfps$3[ebp]
	cmp	eax, DWORD PTR ?maxfps@?1??SCR_DrawFPS@@9@9
	jle	SHORT $LN14@SCR_DrawFP
	mov	eax, DWORD PTR _curfps$3[ebp]
	mov	DWORD PTR ?maxfps@?1??SCR_DrawFPS@@9@9, eax
$LN14@SCR_DrawFP:

; 94   : 
; 95   : 		if( cl_showfps->value == 2 )

	mov	eax, DWORD PTR _cl_showfps
	movss	xmm0, DWORD PTR [eax+12]
	ucomiss	xmm0, DWORD PTR __real@40000000
	lahf
	test	ah, 68					; 00000044H
	jp	SHORT $LN15@SCR_DrawFP

; 96   : 			Q_snprintf( fpsstring, sizeof( fpsstring ), "fps: ^1%4i min, ^3%4i cur, ^2%4i max", minfps, curfps, maxfps );

	mov	eax, DWORD PTR ?maxfps@?1??SCR_DrawFPS@@9@9
	push	eax
	mov	ecx, DWORD PTR _curfps$3[ebp]
	push	ecx
	mov	edx, DWORD PTR ?minfps@?1??SCR_DrawFPS@@9@9
	push	edx
	push	OFFSET ??_C@_0CF@FLDICLEA@fps?3?5?$FO1?$CF4i?5min?0?5?$FO3?$CF4i?5cur?0?5?$FO2?$CF4@
	push	64					; 00000040H
	lea	eax, DWORD PTR _fpsstring$[ebp]
	push	eax
	call	_Q_snprintf
	add	esp, 24					; 00000018H
	jmp	SHORT $LN16@SCR_DrawFP
$LN15@SCR_DrawFP:

; 97   : 		else Q_snprintf( fpsstring, sizeof( fpsstring ), "%4i fps", curfps );

	mov	eax, DWORD PTR _curfps$3[ebp]
	push	eax
	push	OFFSET ??_C@_07NHPDFGMJ@?$CF4i?5fps@
	push	64					; 00000040H
	lea	ecx, DWORD PTR _fpsstring$[ebp]
	push	ecx
	call	_Q_snprintf
	add	esp, 16					; 00000010H
$LN16@SCR_DrawFP:

; 98   : 		MakeRGBA( color, 255, 255, 255, 255 );

	mov	eax, 1
	imul	ecx, eax, 0
	mov	BYTE PTR _color$[ebp+ecx], 255		; 000000ffH
	mov	edx, 1
	shl	edx, 0
	mov	BYTE PTR _color$[ebp+edx], 255		; 000000ffH
	mov	eax, 1
	shl	eax, 1
	mov	BYTE PTR _color$[ebp+eax], 255		; 000000ffH
	mov	ecx, 1
	imul	edx, ecx, 3
	mov	BYTE PTR _color$[ebp+edx], 255		; 000000ffH
$LN12@SCR_DrawFP:

; 99   :           }
; 100  : 
; 101  : 	Con_DrawStringLen( fpsstring, &offset, NULL );

	push	0
	lea	eax, DWORD PTR _offset$[ebp]
	push	eax
	lea	ecx, DWORD PTR _fpsstring$[ebp]
	push	ecx
	call	_Con_DrawStringLen
	add	esp, 12					; 0000000cH

; 102  : 	Con_DrawString( glState.width - offset - 4, height, fpsstring, color );

	lea	eax, DWORD PTR _color$[ebp]
	push	eax
	lea	ecx, DWORD PTR _fpsstring$[ebp]
	push	ecx
	mov	edx, DWORD PTR _height$[ebp]
	push	edx
	mov	eax, DWORD PTR _glState
	sub	eax, DWORD PTR _offset$[ebp]
	sub	eax, 4
	push	eax
	call	_Con_DrawString
	add	esp, 16					; 00000010H
$LN1@SCR_DrawFP:

; 103  : }

	pop	edi
	pop	esi
	pop	ebx
	mov	ecx, DWORD PTR __$ArrayPad$[ebp]
	xor	ecx, ebp
	call	@__security_check_cookie@4
	mov	esp, ebp
	pop	ebp
	ret	0
_SCR_DrawFPS ENDP
_TEXT	ENDS
; Function compile flags: /Odtp /ZI
; File D:\DevDragon\XashFE\dev\src\engine\client\cl_scrn.c
;	COMDAT _SCR_RSpeeds
_TEXT	SEGMENT
$T1 = -2404						; size = 4
_color$2 = -2080					; size = 4
_end$3 = -2076						; size = 4
_start$4 = -2072					; size = 4
_p$5 = -2068						; size = 4
_height$6 = -2064					; size = 4
_y$7 = -2060						; size = 4
_x$8 = -2056						; size = 4
_msg$ = -2052						; size = 2048
__$ArrayPad$ = -4					; size = 4
_SCR_RSpeeds PROC					; COMDAT

; 178  : {

	push	ebp
	mov	ebp, esp
	sub	esp, 2404				; 00000964H
	mov	eax, DWORD PTR ___security_cookie
	xor	eax, ebp
	mov	DWORD PTR __$ArrayPad$[ebp], eax
	push	ebx
	push	esi
	push	edi

; 179  : 	char	msg[2048];
; 180  : 
; 181  : 	if( !host.allow_console )

	cmp	DWORD PTR _host+34336, 0
	jne	SHORT $LN5@SCR_RSpeed

; 182  : 		return;

	jmp	$LN11@SCR_RSpeed
$LN5@SCR_RSpeed:

; 183  : 
; 184  : 	if( R_SpeedsMessage( msg, sizeof( msg )))

	push	2048					; 00000800H
	lea	eax, DWORD PTR _msg$[ebp]
	push	eax
	call	_R_SpeedsMessage
	add	esp, 8
	test	eax, eax
	je	$LN11@SCR_RSpeed

; 185  : 	{
; 186  : 		int	x, y, height;
; 187  : 		char	*p, *start, *end;
; 188  : 		rgba_t	color;
; 189  : 
; 190  : 		x = glState.width - 340;

	mov	eax, DWORD PTR _glState
	sub	eax, 340				; 00000154H
	mov	DWORD PTR _x$8[ebp], eax

; 191  : 		y = 64;

	mov	DWORD PTR _y$7[ebp], 64			; 00000040H

; 192  : 
; 193  : 		Con_DrawStringLen( NULL, NULL, &height );

	lea	eax, DWORD PTR _height$6[ebp]
	push	eax
	push	0
	push	0
	call	_Con_DrawStringLen
	add	esp, 12					; 0000000cH

; 194  : 		MakeRGBA( color, 255, 255, 255, 255 );

	mov	eax, 1
	imul	ecx, eax, 0
	mov	BYTE PTR _color$2[ebp+ecx], 255		; 000000ffH
	mov	edx, 1
	shl	edx, 0
	mov	BYTE PTR _color$2[ebp+edx], 255		; 000000ffH
	mov	eax, 1
	shl	eax, 1
	mov	BYTE PTR _color$2[ebp+eax], 255		; 000000ffH
	mov	ecx, 1
	imul	edx, ecx, 3
	mov	BYTE PTR _color$2[ebp+edx], 255		; 000000ffH

; 195  : 
; 196  : 		p = start = msg;

	lea	eax, DWORD PTR _msg$[ebp]
	mov	DWORD PTR _start$4[ebp], eax
	mov	ecx, DWORD PTR _start$4[ebp]
	mov	DWORD PTR _p$5[ebp], ecx
$LN4@SCR_RSpeed:

; 197  : 		do
; 198  : 		{
; 199  : 			end = Q_strchr( p, '\n' );

	push	10					; 0000000aH
	mov	eax, DWORD PTR _p$5[ebp]
	push	eax
	call	_Q_strchr
	add	esp, 8
	mov	DWORD PTR _end$3[ebp], eax

; 200  : 			if( end ) msg[end-start] = '\0';

	cmp	DWORD PTR _end$3[ebp], 0
	je	SHORT $LN7@SCR_RSpeed
	mov	eax, DWORD PTR _end$3[ebp]
	sub	eax, DWORD PTR _start$4[ebp]
	mov	DWORD PTR $T1[ebp], eax
	cmp	DWORD PTR $T1[ebp], 2048		; 00000800H
	jae	SHORT $LN12@SCR_RSpeed
	jmp	SHORT $LN13@SCR_RSpeed
$LN12@SCR_RSpeed:
	call	___report_rangecheckfailure
$LN13@SCR_RSpeed:
	mov	ecx, DWORD PTR $T1[ebp]
	mov	BYTE PTR _msg$[ebp+ecx], 0
$LN7@SCR_RSpeed:

; 201  : 
; 202  : 			Con_DrawString( x, y, p, color );

	lea	eax, DWORD PTR _color$2[ebp]
	push	eax
	mov	ecx, DWORD PTR _p$5[ebp]
	push	ecx
	mov	edx, DWORD PTR _y$7[ebp]
	push	edx
	mov	eax, DWORD PTR _x$8[ebp]
	push	eax
	call	_Con_DrawString
	add	esp, 16					; 00000010H

; 203  : 			y += height;

	mov	eax, DWORD PTR _y$7[ebp]
	add	eax, DWORD PTR _height$6[ebp]
	mov	DWORD PTR _y$7[ebp], eax

; 204  : 
; 205  : 			// handle '\n\n'
; 206  : 			if( *p == '\n' ) 

	mov	eax, DWORD PTR _p$5[ebp]
	movsx	ecx, BYTE PTR [eax]
	cmp	ecx, 10					; 0000000aH
	jne	SHORT $LN8@SCR_RSpeed

; 207  : 				y += height;

	mov	eax, DWORD PTR _y$7[ebp]
	add	eax, DWORD PTR _height$6[ebp]
	mov	DWORD PTR _y$7[ebp], eax
$LN8@SCR_RSpeed:

; 208  : 			if( end ) p = end + 1;

	cmp	DWORD PTR _end$3[ebp], 0
	je	SHORT $LN9@SCR_RSpeed
	mov	eax, DWORD PTR _end$3[ebp]
	add	eax, 1
	mov	DWORD PTR _p$5[ebp], eax
	jmp	SHORT $LN2@SCR_RSpeed
$LN9@SCR_RSpeed:

; 209  : 			else break;

	jmp	SHORT $LN11@SCR_RSpeed
$LN2@SCR_RSpeed:

; 210  : 		} while( 1 );

	mov	eax, 1
	test	eax, eax
	jne	$LN4@SCR_RSpeed
$LN11@SCR_RSpeed:

; 211  : 	}
; 212  : }

	pop	edi
	pop	esi
	pop	ebx
	mov	ecx, DWORD PTR __$ArrayPad$[ebp]
	xor	ecx, ebp
	call	@__security_check_cookie@4
	mov	esp, ebp
	pop	ebp
	ret	0
_SCR_RSpeeds ENDP
_TEXT	ENDS
; Function compile flags: /Odtp /ZI
; File D:\DevDragon\XashFE\dev\src\engine\client\cl_scrn.c
;	COMDAT _SCR_NetSpeeds
_TEXT	SEGMENT
tv279 = -132						; size = 8
tv275 = -124						; size = 4
tv268 = -120						; size = 8
tv264 = -112						; size = 4
tv166 = -112						; size = 4
tv141 = -112						; size = 4
$T1 = -108						; size = 4
_color$ = -40						; size = 4
_cur_clfps$ = -36					; size = 4
_cur_svfps$ = -32					; size = 4
_time$ = -28						; size = 4
_end$ = -24						; size = 4
_start$ = -20						; size = 4
_p$ = -16						; size = 4
_height$ = -12						; size = 4
_y$ = -8						; size = 4
_x$ = -4						; size = 4
_SCR_NetSpeeds PROC					; COMDAT

; 113  : {

	push	ebp
	mov	ebp, esp
	sub	esp, 132				; 00000084H
	push	ebx
	push	esi
	push	edi

; 114  : 	static char	msg[MAX_SYSPATH];
; 115  : 	int		x, y, height;
; 116  : 	char		*p, *start, *end;
; 117  : 	float		time = cl.mtime[0];

	mov	eax, 8
	imul	ecx, eax, 0
	cvtsd2ss xmm0, QWORD PTR _cl[ecx+32]
	movss	DWORD PTR _time$[ebp], xmm0

; 118  : 	static int	min_svfps = 100;
; 119  : 	static int	max_svfps = 0;
; 120  : 	int		cur_svfps = 0;

	mov	DWORD PTR _cur_svfps$[ebp], 0

; 121  : 	static int	min_clfps = 100;
; 122  : 	static int	max_clfps = 0;
; 123  : 	int		cur_clfps = 0;

	mov	DWORD PTR _cur_clfps$[ebp], 0

; 124  : 	rgba_t		color;
; 125  : 
; 126  : 	if( !host.allow_console )

	cmp	DWORD PTR _host+34336, 0
	jne	SHORT $LN5@SCR_NetSpe

; 127  : 		return;

	jmp	$LN3@SCR_NetSpe
$LN5@SCR_NetSpe:

; 128  : 
; 129  : 	if( !net_speeds->value || cls.state != ca_active )

	mov	eax, DWORD PTR _net_speeds
	movss	xmm0, DWORD PTR [eax+12]
	ucomiss	xmm0, DWORD PTR __real@00000000
	lahf
	test	ah, 68					; 00000044H
	jnp	SHORT $LN7@SCR_NetSpe
	cmp	DWORD PTR _cls, 4
	je	SHORT $LN6@SCR_NetSpe
$LN7@SCR_NetSpe:

; 130  : 		return;

	jmp	$LN3@SCR_NetSpe
$LN6@SCR_NetSpe:

; 131  : 
; 132  : 	// prevent to get too big values at max
; 133  : 	if( cl_serverframetime() > 0.0001f )

	mov	eax, 8
	imul	ecx, eax, 0
	mov	edx, 8
	shl	edx, 0
	movsd	xmm0, QWORD PTR _cl[ecx+32]
	subsd	xmm0, QWORD PTR _cl[edx+32]
	comisd	xmm0, QWORD PTR __real@3f1a36e2e0000000
	jbe	$LN10@SCR_NetSpe

; 134  : 	{
; 135  : 		cur_svfps = Q_rint( 1.0f / cl_serverframetime( ));

	mov	eax, 8
	imul	ecx, eax, 0
	mov	edx, 8
	shl	edx, 0
	movsd	xmm0, QWORD PTR _cl[ecx+32]
	subsd	xmm0, QWORD PTR _cl[edx+32]
	movsd	xmm1, QWORD PTR __real@3ff0000000000000
	divsd	xmm1, xmm0
	xorps	xmm0, xmm0
	comisd	xmm0, xmm1
	jbe	SHORT $LN18@SCR_NetSpe
	mov	eax, 8
	imul	ecx, eax, 0
	mov	edx, 8
	shl	edx, 0
	movsd	xmm0, QWORD PTR _cl[ecx+32]
	subsd	xmm0, QWORD PTR _cl[edx+32]
	movsd	xmm1, QWORD PTR __real@3ff0000000000000
	divsd	xmm1, xmm0
	subsd	xmm1, QWORD PTR __real@3fe0000000000000
	cvttsd2si eax, xmm1
	mov	DWORD PTR tv141[ebp], eax
	jmp	SHORT $LN19@SCR_NetSpe
$LN18@SCR_NetSpe:
	mov	ecx, 8
	imul	edx, ecx, 0
	mov	eax, 8
	shl	eax, 0
	movsd	xmm0, QWORD PTR _cl[edx+32]
	subsd	xmm0, QWORD PTR _cl[eax+32]
	movsd	xmm1, QWORD PTR __real@3ff0000000000000
	divsd	xmm1, xmm0
	addsd	xmm1, QWORD PTR __real@3fe0000000000000
	cvttsd2si ecx, xmm1
	mov	DWORD PTR tv141[ebp], ecx
$LN19@SCR_NetSpe:
	mov	edx, DWORD PTR tv141[ebp]
	mov	DWORD PTR _cur_svfps$[ebp], edx

; 136  : 		if( cur_svfps < min_svfps ) min_svfps = cur_svfps;

	mov	eax, DWORD PTR _cur_svfps$[ebp]
	cmp	eax, DWORD PTR ?min_svfps@?1??SCR_NetSpeeds@@9@9
	jge	SHORT $LN9@SCR_NetSpe
	mov	eax, DWORD PTR _cur_svfps$[ebp]
	mov	DWORD PTR ?min_svfps@?1??SCR_NetSpeeds@@9@9, eax
$LN9@SCR_NetSpe:

; 137  : 		if( cur_svfps > max_svfps ) max_svfps = cur_svfps;

	mov	eax, DWORD PTR _cur_svfps$[ebp]
	cmp	eax, DWORD PTR ?max_svfps@?1??SCR_NetSpeeds@@9@9
	jle	SHORT $LN10@SCR_NetSpe
	mov	eax, DWORD PTR _cur_svfps$[ebp]
	mov	DWORD PTR ?max_svfps@?1??SCR_NetSpeeds@@9@9, eax
$LN10@SCR_NetSpe:

; 138  : 	}
; 139  : 
; 140  : 	// prevent to get too big values at max
; 141  : 	if( cl_clientframetime() > 0.0001f )

	movsd	xmm0, QWORD PTR _cl+2167640
	subsd	xmm0, QWORD PTR _cl+2167648
	comisd	xmm0, QWORD PTR __real@3f1a36e2e0000000
	jbe	$LN13@SCR_NetSpe

; 142  : 	{
; 143  : 		cur_clfps = Q_rint( 1.0f / cl_clientframetime( ));

	movsd	xmm0, QWORD PTR _cl+2167640
	subsd	xmm0, QWORD PTR _cl+2167648
	movsd	xmm1, QWORD PTR __real@3ff0000000000000
	divsd	xmm1, xmm0
	xorps	xmm0, xmm0
	comisd	xmm0, xmm1
	jbe	SHORT $LN20@SCR_NetSpe
	movsd	xmm0, QWORD PTR _cl+2167640
	subsd	xmm0, QWORD PTR _cl+2167648
	movsd	xmm1, QWORD PTR __real@3ff0000000000000
	divsd	xmm1, xmm0
	subsd	xmm1, QWORD PTR __real@3fe0000000000000
	cvttsd2si eax, xmm1
	mov	DWORD PTR tv166[ebp], eax
	jmp	SHORT $LN21@SCR_NetSpe
$LN20@SCR_NetSpe:
	movsd	xmm0, QWORD PTR _cl+2167640
	subsd	xmm0, QWORD PTR _cl+2167648
	movsd	xmm1, QWORD PTR __real@3ff0000000000000
	divsd	xmm1, xmm0
	addsd	xmm1, QWORD PTR __real@3fe0000000000000
	cvttsd2si ecx, xmm1
	mov	DWORD PTR tv166[ebp], ecx
$LN21@SCR_NetSpe:
	mov	edx, DWORD PTR tv166[ebp]
	mov	DWORD PTR _cur_clfps$[ebp], edx

; 144  : 		if( cur_clfps < min_clfps ) min_clfps = cur_clfps;

	mov	eax, DWORD PTR _cur_clfps$[ebp]
	cmp	eax, DWORD PTR ?min_clfps@?1??SCR_NetSpeeds@@9@9
	jge	SHORT $LN12@SCR_NetSpe
	mov	eax, DWORD PTR _cur_clfps$[ebp]
	mov	DWORD PTR ?min_clfps@?1??SCR_NetSpeeds@@9@9, eax
$LN12@SCR_NetSpe:

; 145  : 		if( cur_clfps > max_clfps ) max_clfps = cur_clfps;

	mov	eax, DWORD PTR _cur_clfps$[ebp]
	cmp	eax, DWORD PTR ?max_clfps@?1??SCR_NetSpeeds@@9@9
	jle	SHORT $LN13@SCR_NetSpe
	mov	eax, DWORD PTR _cur_clfps$[ebp]
	mov	DWORD PTR ?max_clfps@?1??SCR_NetSpeeds@@9@9, eax
$LN13@SCR_NetSpe:

; 146  : 	}
; 147  : 
; 148  : 	Q_snprintf( msg, sizeof( msg ), "sv fps: ^1%4i min, ^3%4i cur, ^2%4i max\ncl fps: ^1%4i min, ^3%4i cur, ^2%4i max\nGame Time: %02d:%02d\nTotal received from server: %s\nTotal sent to server: %s\n",

	push	2
	mov	eax, DWORD PTR _cls+290560
	mov	DWORD PTR tv264[ebp], eax
	cvtsi2sd xmm0, DWORD PTR tv264[ebp]
	mov	ecx, DWORD PTR tv264[ebp]
	shr	ecx, 31					; 0000001fH
	addsd	xmm0, QWORD PTR __xmm@41f00000000000000000000000000000[ecx*8]
	movsd	QWORD PTR tv268[ebp], xmm0
	cvtsd2ss xmm0, QWORD PTR tv268[ebp]
	push	ecx
	movss	DWORD PTR [esp], xmm0
	call	_Q_pretifymem
	add	esp, 8
	push	eax
	push	2
	mov	edx, DWORD PTR _cls+290564
	mov	DWORD PTR tv275[ebp], edx
	cvtsi2sd xmm0, DWORD PTR tv275[ebp]
	mov	eax, DWORD PTR tv275[ebp]
	shr	eax, 31					; 0000001fH
	addsd	xmm0, QWORD PTR __xmm@41f00000000000000000000000000000[eax*8]
	movsd	QWORD PTR tv279[ebp], xmm0
	cvtsd2ss xmm0, QWORD PTR tv279[ebp]
	push	ecx
	movss	DWORD PTR [esp], xmm0
	call	_Q_pretifymem
	add	esp, 8
	push	eax
	sub	esp, 8
	movsd	xmm0, QWORD PTR __real@404e000000000000
	movsd	QWORD PTR [esp], xmm0
	cvtss2sd xmm0, DWORD PTR _time$[ebp]
	sub	esp, 8
	movsd	QWORD PTR [esp], xmm0
	call	_fmod
	add	esp, 16					; 00000010H
	call	__ftol2_sse
	push	eax
	movss	xmm0, DWORD PTR _time$[ebp]
	divss	xmm0, DWORD PTR __real@42700000
	cvttss2si ecx, xmm0
	push	ecx
	mov	edx, DWORD PTR ?max_clfps@?1??SCR_NetSpeeds@@9@9
	push	edx
	mov	eax, DWORD PTR _cur_clfps$[ebp]
	push	eax
	mov	ecx, DWORD PTR ?min_clfps@?1??SCR_NetSpeeds@@9@9
	push	ecx
	mov	edx, DWORD PTR ?max_svfps@?1??SCR_NetSpeeds@@9@9
	push	edx
	mov	eax, DWORD PTR _cur_svfps$[ebp]
	push	eax
	mov	ecx, DWORD PTR ?min_svfps@?1??SCR_NetSpeeds@@9@9
	push	ecx
	push	OFFSET ??_C@_0JO@KMBMJNBN@sv?5fps?3?5?$FO1?$CF4i?5min?0?5?$FO3?$CF4i?5cur?0?5?$FO@
	push	1024					; 00000400H
	push	OFFSET ?msg@?1??SCR_NetSpeeds@@9@9
	call	_Q_snprintf
	add	esp, 52					; 00000034H

; 149  : 	min_svfps, cur_svfps, max_svfps, min_clfps, cur_clfps, max_clfps, (int)(time / 60.0f ), (int)fmod( time, 60.0f ), Q_memprint( cls.netchan.total_received ), Q_memprint( cls.netchan.total_sended ));
; 150  : 
; 151  : 	x = glState.width - 320;

	mov	eax, DWORD PTR _glState
	sub	eax, 320				; 00000140H
	mov	DWORD PTR _x$[ebp], eax

; 152  : 	y = 384;

	mov	DWORD PTR _y$[ebp], 384			; 00000180H

; 153  : 
; 154  : 	Con_DrawStringLen( NULL, NULL, &height );

	lea	eax, DWORD PTR _height$[ebp]
	push	eax
	push	0
	push	0
	call	_Con_DrawStringLen
	add	esp, 12					; 0000000cH

; 155  : 	MakeRGBA( color, 255, 255, 255, 255 );

	mov	eax, 1
	imul	ecx, eax, 0
	mov	BYTE PTR _color$[ebp+ecx], 255		; 000000ffH
	mov	edx, 1
	shl	edx, 0
	mov	BYTE PTR _color$[ebp+edx], 255		; 000000ffH
	mov	eax, 1
	shl	eax, 1
	mov	BYTE PTR _color$[ebp+eax], 255		; 000000ffH
	mov	ecx, 1
	imul	edx, ecx, 3
	mov	BYTE PTR _color$[ebp+edx], 255		; 000000ffH

; 156  : 
; 157  : 	p = start = msg;

	mov	DWORD PTR _start$[ebp], OFFSET ?msg@?1??SCR_NetSpeeds@@9@9
	mov	eax, DWORD PTR _start$[ebp]
	mov	DWORD PTR _p$[ebp], eax
$LN4@SCR_NetSpe:

; 158  : 
; 159  : 	do
; 160  : 	{
; 161  : 		end = Q_strchr( p, '\n' );

	push	10					; 0000000aH
	mov	eax, DWORD PTR _p$[ebp]
	push	eax
	call	_Q_strchr
	add	esp, 8
	mov	DWORD PTR _end$[ebp], eax

; 162  : 		if( end ) msg[end-start] = '\0';

	cmp	DWORD PTR _end$[ebp], 0
	je	SHORT $LN14@SCR_NetSpe
	mov	eax, DWORD PTR _end$[ebp]
	sub	eax, DWORD PTR _start$[ebp]
	mov	DWORD PTR $T1[ebp], eax
	cmp	DWORD PTR $T1[ebp], 1024		; 00000400H
	jae	SHORT $LN22@SCR_NetSpe
	jmp	SHORT $LN23@SCR_NetSpe
$LN22@SCR_NetSpe:
	call	___report_rangecheckfailure
$LN23@SCR_NetSpe:
	mov	ecx, DWORD PTR $T1[ebp]
	mov	BYTE PTR ?msg@?1??SCR_NetSpeeds@@9@9[ecx], 0
$LN14@SCR_NetSpe:

; 163  : 
; 164  : 		Con_DrawString( x, y, p, color );

	lea	eax, DWORD PTR _color$[ebp]
	push	eax
	mov	ecx, DWORD PTR _p$[ebp]
	push	ecx
	mov	edx, DWORD PTR _y$[ebp]
	push	edx
	mov	eax, DWORD PTR _x$[ebp]
	push	eax
	call	_Con_DrawString
	add	esp, 16					; 00000010H

; 165  : 		y += height;

	mov	eax, DWORD PTR _y$[ebp]
	add	eax, DWORD PTR _height$[ebp]
	mov	DWORD PTR _y$[ebp], eax

; 166  : 
; 167  : 		if( end ) p = end + 1;

	cmp	DWORD PTR _end$[ebp], 0
	je	SHORT $LN15@SCR_NetSpe
	mov	eax, DWORD PTR _end$[ebp]
	add	eax, 1
	mov	DWORD PTR _p$[ebp], eax
	jmp	SHORT $LN16@SCR_NetSpe
$LN15@SCR_NetSpe:

; 168  : 		else break;

	jmp	SHORT $LN3@SCR_NetSpe
$LN16@SCR_NetSpe:

; 169  : 	} while( 1 );

	mov	eax, 1
	test	eax, eax
	jne	SHORT $LN4@SCR_NetSpe
$LN3@SCR_NetSpe:

; 170  : }

	pop	edi
	pop	esi
	pop	ebx
	mov	esp, ebp
	pop	ebp
	ret	0
_SCR_NetSpeeds ENDP
_TEXT	ENDS
; Function compile flags: /Odtp /ZI
; File D:\DevDragon\XashFE\dev\src\engine\client\cl_scrn.c
;	COMDAT _SCR_MakeLevelShot
_TEXT	SEGMENT
_SCR_MakeLevelShot PROC					; COMDAT

; 222  : {

	push	ebp
	mov	ebp, esp
	sub	esp, 64					; 00000040H
	push	ebx
	push	esi
	push	edi

; 223  : 	if( cls.scrshot_request != scrshot_plaque )

	cmp	DWORD PTR _cls+296304, 3
	je	SHORT $LN2@SCR_MakeLe

; 224  : 		return;

	jmp	SHORT $LN1@SCR_MakeLe
$LN2@SCR_MakeLe:

; 225  : 
; 226  : 	// make levelshot at nextframe()
; 227  : 	Cbuf_AddText( "levelshot\n" );

	push	OFFSET ??_C@_0L@EAHKDLHJ@levelshot?6@
	call	_Cbuf_AddText
	add	esp, 4
$LN1@SCR_MakeLe:

; 228  : }

	pop	edi
	pop	esi
	pop	ebx
	mov	esp, ebp
	pop	ebp
	ret	0
_SCR_MakeLevelShot ENDP
_TEXT	ENDS
; Function compile flags: /Odtp /ZI
; File D:\DevDragon\XashFE\dev\src\engine\client\cl_scrn.c
;	COMDAT _SCR_MakeScreenShot
_TEXT	SEGMENT
tv67 = -76						; size = 4
_viewsize$ = -8						; size = 4
_iRet$ = -4						; size = 4
_SCR_MakeScreenShot PROC				; COMDAT

; 238  : {

	push	ebp
	mov	ebp, esp
	sub	esp, 76					; 0000004cH
	push	ebx
	push	esi
	push	edi

; 239  : 	qboolean	iRet = false;

	mov	DWORD PTR _iRet$[ebp], 0

; 240  : 	int	viewsize;
; 241  : 
; 242  : 	if( cls.envshot_viewsize > 0 )

	cmp	DWORD PTR _cls+296316, 0
	jle	SHORT $LN4@SCR_MakeSc

; 243  : 		viewsize = cls.envshot_viewsize;

	mov	eax, DWORD PTR _cls+296316
	mov	DWORD PTR _viewsize$[ebp], eax
	jmp	SHORT $LN5@SCR_MakeSc
$LN4@SCR_MakeSc:

; 244  : 	else viewsize = cl_envshot_size->value;

	mov	eax, DWORD PTR _cl_envshot_size
	cvttss2si ecx, DWORD PTR [eax+12]
	mov	DWORD PTR _viewsize$[ebp], ecx
$LN5@SCR_MakeSc:

; 245  : 
; 246  : 	switch( cls.scrshot_action )

	mov	eax, DWORD PTR _cls+296308
	mov	DWORD PTR tv67[ebp], eax
	cmp	DWORD PTR tv67[ebp], 7
	ja	$LN2@SCR_MakeSc
	mov	ecx, DWORD PTR tv67[ebp]
	jmp	DWORD PTR $LN18@SCR_MakeSc[ecx*4]
$LN6@SCR_MakeSc:

; 247  : 	{
; 248  : 	case scrshot_normal:
; 249  : 		iRet = VID_ScreenShot( cls.shotname, VID_SCREENSHOT );

	push	0
	push	OFFSET _cls+296324
	call	_VID_ScreenShot
	add	esp, 8
	mov	DWORD PTR _iRet$[ebp], eax

; 250  : 		break;

	jmp	$LN2@SCR_MakeSc
$LN7@SCR_MakeSc:

; 251  : 	case scrshot_snapshot:
; 252  : 		iRet = VID_ScreenShot( cls.shotname, VID_SNAPSHOT );

	push	4
	push	OFFSET _cls+296324
	call	_VID_ScreenShot
	add	esp, 8
	mov	DWORD PTR _iRet$[ebp], eax

; 253  : 		break;

	jmp	SHORT $LN2@SCR_MakeSc
$LN8@SCR_MakeSc:

; 254  : 	case scrshot_plaque:
; 255  : 		iRet = VID_ScreenShot( cls.shotname, VID_LEVELSHOT );

	push	1
	push	OFFSET _cls+296324
	call	_VID_ScreenShot
	add	esp, 8
	mov	DWORD PTR _iRet$[ebp], eax

; 256  : 		break;

	jmp	SHORT $LN2@SCR_MakeSc
$LN9@SCR_MakeSc:

; 257  : 	case scrshot_savegame:
; 258  : 		iRet = VID_ScreenShot( cls.shotname, VID_MINISHOT );

	push	2
	push	OFFSET _cls+296324
	call	_VID_ScreenShot
	add	esp, 8
	mov	DWORD PTR _iRet$[ebp], eax

; 259  : 		break;

	jmp	SHORT $LN2@SCR_MakeSc
$LN10@SCR_MakeSc:

; 260  : 	case scrshot_envshot:
; 261  : 		iRet = VID_CubemapShot( cls.shotname, viewsize, cls.envshot_vieworg, false );

	push	0
	mov	eax, DWORD PTR _cls+296312
	push	eax
	mov	ecx, DWORD PTR _viewsize$[ebp]
	push	ecx
	push	OFFSET _cls+296324
	call	_VID_CubemapShot
	add	esp, 16					; 00000010H
	mov	DWORD PTR _iRet$[ebp], eax

; 262  : 		break;

	jmp	SHORT $LN2@SCR_MakeSc
$LN11@SCR_MakeSc:

; 263  : 	case scrshot_skyshot:
; 264  : 		iRet = VID_CubemapShot( cls.shotname, viewsize, cls.envshot_vieworg, true );

	push	1
	mov	eax, DWORD PTR _cls+296312
	push	eax
	mov	ecx, DWORD PTR _viewsize$[ebp]
	push	ecx
	push	OFFSET _cls+296324
	call	_VID_CubemapShot
	add	esp, 16					; 00000010H
	mov	DWORD PTR _iRet$[ebp], eax

; 265  : 		break;

	jmp	SHORT $LN2@SCR_MakeSc
$LN12@SCR_MakeSc:

; 266  : 	case scrshot_mapshot:
; 267  : 		iRet = VID_ScreenShot( cls.shotname, VID_MAPSHOT );

	push	3
	push	OFFSET _cls+296324
	call	_VID_ScreenShot
	add	esp, 8
	mov	DWORD PTR _iRet$[ebp], eax

; 268  : 		break;

	jmp	SHORT $LN2@SCR_MakeSc
$LN13@SCR_MakeSc:

; 269  : 	case scrshot_inactive:
; 270  : 		return;

	jmp	SHORT $LN1@SCR_MakeSc
$LN2@SCR_MakeSc:

; 271  : 	}
; 272  : 
; 273  : 	// report
; 274  : 	if( iRet )

	cmp	DWORD PTR _iRet$[ebp], 0
	je	SHORT $LN14@SCR_MakeSc

; 275  : 	{
; 276  : 		// snapshots don't writes message about image		
; 277  : 		if( cls.scrshot_action != scrshot_snapshot )

	cmp	DWORD PTR _cls+296308, 2
	je	SHORT $LN16@SCR_MakeSc

; 278  : 			Con_Reportf( "Write %s\n", cls.shotname );

	push	OFFSET _cls+296324
	push	OFFSET ??_C@_09OMCHHOCB@Write?5?$CFs?6@
	call	_Con_Reportf
	add	esp, 8
$LN16@SCR_MakeSc:

; 279  : 	}

	jmp	SHORT $LN15@SCR_MakeSc
$LN14@SCR_MakeSc:

; 280  : 	else Con_Printf( S_ERROR "Unable to write %s\n", cls.shotname );

	push	OFFSET _cls+296324
	push	OFFSET ??_C@_0BP@DHKMKFKK@?$FO1Error?3?$FO7?5Unable?5to?5write?5?$CFs?6@
	call	_Con_Printf
	add	esp, 8
$LN15@SCR_MakeSc:

; 281  : 
; 282  : 	cls.envshot_vieworg = NULL;

	mov	DWORD PTR _cls+296312, 0

; 283  : 	cls.scrshot_action = scrshot_inactive;

	mov	DWORD PTR _cls+296308, 0

; 284  : 	cls.envshot_disable_vis = false;

	mov	DWORD PTR _cls+296320, 0

; 285  : 	cls.envshot_viewsize = 0;

	mov	DWORD PTR _cls+296316, 0

; 286  : 	cls.shotname[0] = '\0';

	mov	eax, 1
	imul	ecx, eax, 0
	mov	BYTE PTR _cls[ecx+296324], 0
$LN1@SCR_MakeSc:

; 287  : }

	pop	edi
	pop	esi
	pop	ebx
	mov	esp, ebp
	pop	ebp
	ret	0
$LN18@SCR_MakeSc:
	DD	$LN13@SCR_MakeSc
	DD	$LN6@SCR_MakeSc
	DD	$LN7@SCR_MakeSc
	DD	$LN8@SCR_MakeSc
	DD	$LN9@SCR_MakeSc
	DD	$LN10@SCR_MakeSc
	DD	$LN11@SCR_MakeSc
	DD	$LN12@SCR_MakeSc
_SCR_MakeScreenShot ENDP
_TEXT	ENDS
; Function compile flags: /Odtp /ZI
; File D:\DevDragon\XashFE\dev\src\engine\client\cl_scrn.c
;	COMDAT _SCR_LoadCreditsFont
_TEXT	SEGMENT
_SCR_LoadCreditsFont PROC				; COMDAT

; 567  : {

	push	ebp
	mov	ebp, esp
	sub	esp, 64					; 00000040H
	push	ebx
	push	esi
	push	edi

; 568  : 	if( !SCR_LoadVariableWidthFont( "gfx.wad/creditsfont.fnt" ))

	push	OFFSET ??_C@_0BI@EFDGHHKN@gfx?4wad?1creditsfont?4fnt@
	call	_SCR_LoadVariableWidthFont
	add	esp, 4
	test	eax, eax
	jne	SHORT $LN1@SCR_LoadCr

; 569  : 	{
; 570  : 		if( !SCR_LoadFixedWidthFont( "gfx/conchars" ))

	push	OFFSET ??_C@_0N@POKADIKD@gfx?1conchars@
	call	_SCR_LoadFixedWidthFont
	add	esp, 4
	test	eax, eax
	jne	SHORT $LN1@SCR_LoadCr

; 571  : 			Con_DPrintf( S_ERROR "failed to load HUD font\n" );

	push	OFFSET ??_C@_0CE@PBGPNBKA@?$FO1Error?3?$FO7?5failed?5to?5load?5HUD?5f@
	call	_Con_DPrintf
	add	esp, 4
$LN1@SCR_LoadCr:

; 572  : 	}
; 573  : }

	pop	edi
	pop	esi
	pop	ebx
	mov	esp, ebp
	pop	ebp
	ret	0
_SCR_LoadCreditsFont ENDP
_TEXT	ENDS
; Function compile flags: /Odtp /ZI
; File D:\DevDragon\XashFE\dev\src\engine\client\cl_scrn.c
;	COMDAT _SCR_RegisterTextures
_TEXT	SEGMENT
_SCR_RegisterTextures PROC				; COMDAT

; 624  : {

	push	ebp
	mov	ebp, esp
	sub	esp, 64					; 00000040H
	push	ebx
	push	esi
	push	edi

; 625  : 	// register gfx.wad images
; 626  : 
; 627  : 	if( FS_FileExists( "gfx/paused.lmp", false ))

	push	0
	push	OFFSET ??_C@_0P@HNGIGCBP@gfx?1paused?4lmp@
	call	_FS_FileExists
	add	esp, 8
	test	eax, eax
	je	SHORT $LN2@SCR_Regist

; 628  : 		cls.pauseIcon = GL_LoadTexture( "gfx/paused.lmp", NULL, 0, TF_IMAGE );

	push	6144					; 00001800H
	push	0
	push	0
	push	OFFSET ??_C@_0P@HNGIGCBP@gfx?1paused?4lmp@
	call	_GL_LoadTexture
	add	esp, 16					; 00000010H
	mov	DWORD PTR _cls+290620, eax
	jmp	SHORT $LN4@SCR_Regist
$LN2@SCR_Regist:

; 629  : 	else if( FS_FileExists( "gfx/pause.lmp", false ))

	push	0
	push	OFFSET ??_C@_0O@OCAJAJMG@gfx?1pause?4lmp@
	call	_FS_FileExists
	add	esp, 8
	test	eax, eax
	je	SHORT $LN4@SCR_Regist

; 630  : 		cls.pauseIcon = GL_LoadTexture( "gfx/pause.lmp", NULL, 0, TF_IMAGE );

	push	6144					; 00001800H
	push	0
	push	0
	push	OFFSET ??_C@_0O@OCAJAJMG@gfx?1pause?4lmp@
	call	_GL_LoadTexture
	add	esp, 16					; 00000010H
	mov	DWORD PTR _cls+290620, eax
$LN4@SCR_Regist:

; 631  : 
; 632  : 	if( FS_FileExists( "gfx/lambda.lmp", false ))

	push	0
	push	OFFSET ??_C@_0P@IIDHHPMI@gfx?1lambda?4lmp@
	call	_FS_FileExists
	add	esp, 8
	test	eax, eax
	je	SHORT $LN5@SCR_Regist

; 633  : 	{
; 634  : 		if( cl_allow_levelshots->value )

	mov	eax, DWORD PTR _cl_allow_levelshots
	movss	xmm0, DWORD PTR [eax+12]
	ucomiss	xmm0, DWORD PTR __real@00000000
	lahf
	test	ah, 68					; 00000044H
	jnp	SHORT $LN7@SCR_Regist

; 635  : 			cls.loadingBar = GL_LoadTexture( "gfx/lambda.lmp", NULL, 0, TF_IMAGE|TF_LUMINANCE );

	push	6656					; 00001a00H
	push	0
	push	0
	push	OFFSET ??_C@_0P@IIDHHPMI@gfx?1lambda?4lmp@
	call	_GL_LoadTexture
	add	esp, 16					; 00000010H
	mov	DWORD PTR _cls+290628, eax
	jmp	SHORT $LN8@SCR_Regist
$LN7@SCR_Regist:

; 636  : 		else cls.loadingBar = GL_LoadTexture( "gfx/lambda.lmp", NULL, 0, TF_IMAGE ); 

	push	6144					; 00001800H
	push	0
	push	0
	push	OFFSET ??_C@_0P@IIDHHPMI@gfx?1lambda?4lmp@
	call	_GL_LoadTexture
	add	esp, 16					; 00000010H
	mov	DWORD PTR _cls+290628, eax
$LN8@SCR_Regist:

; 637  : 	}

	jmp	SHORT $LN11@SCR_Regist
$LN5@SCR_Regist:

; 638  : 	else if( FS_FileExists( "gfx/loading.lmp", false ))

	push	0
	push	OFFSET ??_C@_0BA@EKDDNEPK@gfx?1loading?4lmp@
	call	_FS_FileExists
	add	esp, 8
	test	eax, eax
	je	SHORT $LN11@SCR_Regist

; 639  : 	{
; 640  : 		if( cl_allow_levelshots->value )

	mov	eax, DWORD PTR _cl_allow_levelshots
	movss	xmm0, DWORD PTR [eax+12]
	ucomiss	xmm0, DWORD PTR __real@00000000
	lahf
	test	ah, 68					; 00000044H
	jnp	SHORT $LN10@SCR_Regist

; 641  : 			cls.loadingBar = GL_LoadTexture( "gfx/loading.lmp", NULL, 0, TF_IMAGE|TF_LUMINANCE );

	push	6656					; 00001a00H
	push	0
	push	0
	push	OFFSET ??_C@_0BA@EKDDNEPK@gfx?1loading?4lmp@
	call	_GL_LoadTexture
	add	esp, 16					; 00000010H
	mov	DWORD PTR _cls+290628, eax
	jmp	SHORT $LN11@SCR_Regist
$LN10@SCR_Regist:

; 642  : 		else cls.loadingBar = GL_LoadTexture( "gfx/loading.lmp", NULL, 0, TF_IMAGE ); 

	push	6144					; 00001800H
	push	0
	push	0
	push	OFFSET ??_C@_0BA@EKDDNEPK@gfx?1loading?4lmp@
	call	_GL_LoadTexture
	add	esp, 16					; 00000010H
	mov	DWORD PTR _cls+290628, eax
$LN11@SCR_Regist:

; 643  : 	}
; 644  : 	
; 645  : 	cls.tileImage = GL_LoadTexture( "gfx/backtile.lmp", NULL, 0, TF_NOMIPMAP );

	push	4096					; 00001000H
	push	0
	push	0
	push	OFFSET ??_C@_0BB@HGAODCMH@gfx?1backtile?4lmp@
	call	_GL_LoadTexture
	add	esp, 16					; 00000010H
	mov	DWORD PTR _cls+290624, eax

; 646  : }

	pop	edi
	pop	esi
	pop	ebx
	mov	esp, ebp
	pop	ebp
	ret	0
_SCR_RegisterTextures ENDP
_TEXT	ENDS
; Function compile flags: /Odtp /ZI
; File D:\DevDragon\XashFE\dev\src\engine\client\cl_scrn.c
;	COMDAT _SCR_EndLoadingPlaque
_TEXT	SEGMENT
_SCR_EndLoadingPlaque PROC				; COMDAT

; 343  : {

	push	ebp
	mov	ebp, esp
	sub	esp, 64					; 00000040H
	push	ebx
	push	esi
	push	edi

; 344  : 	cls.disable_screen = 0.0f;

	xorps	xmm0, xmm0
	movss	DWORD PTR _cls+24, xmm0

; 345  : 	Con_ClearNotify();

	call	_Con_ClearNotify

; 346  : //	SNDDMA_UnlockSound();
; 347  : }

	pop	edi
	pop	esi
	pop	ebx
	mov	esp, ebp
	pop	ebp
	ret	0
_SCR_EndLoadingPlaque ENDP
_TEXT	ENDS
; Function compile flags: /Odtp /ZI
; File D:\DevDragon\XashFE\dev\src\engine\client\cl_scrn.c
;	COMDAT _SCR_InstallParticlePalette
_TEXT	SEGMENT
_i$ = -8						; size = 4
_pic$ = -4						; size = 4
_SCR_InstallParticlePalette PROC			; COMDAT

; 583  : {

	push	ebp
	mov	ebp, esp
	sub	esp, 72					; 00000048H
	push	ebx
	push	esi
	push	edi

; 584  : 	rgbdata_t	*pic;
; 585  : 	int	i;
; 586  : 
; 587  : 	// first check 'palette.lmp' then 'palette.pal'
; 588  : 	pic = FS_LoadImage( DEFAULT_INTERNAL_PALETTE, NULL, 0 );

	push	0
	push	0
	push	OFFSET ??_C@_0BA@JKAKIGAD@gfx?1palette?4lmp@
	call	_FS_LoadImage
	add	esp, 12					; 0000000cH
	mov	DWORD PTR _pic$[ebp], eax

; 589  : 	if( !pic ) pic = FS_LoadImage( DEFAULT_EXTERNAL_PALETTE, NULL, 0 );

	cmp	DWORD PTR _pic$[ebp], 0
	jne	SHORT $LN8@SCR_Instal
	push	0
	push	0
	push	OFFSET ??_C@_0BA@GPKIMKBN@gfx?1palette?4pal@
	call	_FS_LoadImage
	add	esp, 12					; 0000000cH
	mov	DWORD PTR _pic$[ebp], eax
$LN8@SCR_Instal:

; 590  : 
; 591  : 	// NOTE: imagelib required this fakebuffer for loading internal palette
; 592  : 	if( !pic ) pic = FS_LoadImage( "#valve.pal", (byte *)&i, 768 );

	cmp	DWORD PTR _pic$[ebp], 0
	jne	SHORT $LN9@SCR_Instal
	push	768					; 00000300H
	lea	eax, DWORD PTR _i$[ebp]
	push	eax
	push	OFFSET ??_C@_0L@POBPLNLE@?$CDvalve?4pal@
	call	_FS_LoadImage
	add	esp, 12					; 0000000cH
	mov	DWORD PTR _pic$[ebp], eax
$LN9@SCR_Instal:

; 593  : 
; 594  : 	if( pic )

	cmp	DWORD PTR _pic$[ebp], 0
	je	SHORT $LN10@SCR_Instal

; 595  : 	{
; 596  : 		for( i = 0; i < 256; i++ )

	mov	DWORD PTR _i$[ebp], 0
	jmp	SHORT $LN4@SCR_Instal
$LN2@SCR_Instal:
	mov	eax, DWORD PTR _i$[ebp]
	add	eax, 1
	mov	DWORD PTR _i$[ebp], eax
$LN4@SCR_Instal:
	cmp	DWORD PTR _i$[ebp], 256			; 00000100H
	jge	SHORT $LN3@SCR_Instal

; 597  : 		{
; 598  : 			clgame.palette[i].r = pic->palette[i*4+0];

	mov	eax, DWORD PTR _pic$[ebp]
	mov	ecx, DWORD PTR [eax+20]
	imul	edx, DWORD PTR _i$[ebp], 3
	mov	eax, DWORD PTR _i$[ebp]
	mov	cl, BYTE PTR [ecx+eax*4]
	mov	BYTE PTR _clgame[edx+217656], cl

; 599  : 			clgame.palette[i].g = pic->palette[i*4+1];

	mov	eax, DWORD PTR _pic$[ebp]
	mov	ecx, DWORD PTR [eax+20]
	imul	edx, DWORD PTR _i$[ebp], 3
	mov	eax, DWORD PTR _i$[ebp]
	mov	cl, BYTE PTR [ecx+eax*4+1]
	mov	BYTE PTR _clgame[edx+217657], cl

; 600  : 			clgame.palette[i].b = pic->palette[i*4+2];

	mov	eax, DWORD PTR _pic$[ebp]
	mov	ecx, DWORD PTR [eax+20]
	imul	edx, DWORD PTR _i$[ebp], 3
	mov	eax, DWORD PTR _i$[ebp]
	mov	cl, BYTE PTR [ecx+eax*4+2]
	mov	BYTE PTR _clgame[edx+217658], cl

; 601  : 		}

	jmp	SHORT $LN2@SCR_Instal
$LN3@SCR_Instal:

; 602  : 		FS_FreeImage( pic );

	mov	eax, DWORD PTR _pic$[ebp]
	push	eax
	call	_FS_FreeImage
	add	esp, 4

; 603  : 	}

	jmp	SHORT $LN1@SCR_Instal
$LN10@SCR_Instal:

; 604  : 	else
; 605  : 	{
; 606  : 		// someone deleted internal palette from code...
; 607  : 		for( i = 0; i < 256; i++ )

	mov	DWORD PTR _i$[ebp], 0
	jmp	SHORT $LN7@SCR_Instal
$LN5@SCR_Instal:
	mov	eax, DWORD PTR _i$[ebp]
	add	eax, 1
	mov	DWORD PTR _i$[ebp], eax
$LN7@SCR_Instal:
	cmp	DWORD PTR _i$[ebp], 256			; 00000100H
	jge	SHORT $LN1@SCR_Instal

; 608  : 		{
; 609  : 			clgame.palette[i].r = i;

	imul	eax, DWORD PTR _i$[ebp], 3
	mov	cl, BYTE PTR _i$[ebp]
	mov	BYTE PTR _clgame[eax+217656], cl

; 610  : 			clgame.palette[i].g = i;

	imul	eax, DWORD PTR _i$[ebp], 3
	mov	cl, BYTE PTR _i$[ebp]
	mov	BYTE PTR _clgame[eax+217657], cl

; 611  : 			clgame.palette[i].b = i;

	imul	eax, DWORD PTR _i$[ebp], 3
	mov	cl, BYTE PTR _i$[ebp]
	mov	BYTE PTR _clgame[eax+217658], cl

; 612  : 		}

	jmp	SHORT $LN5@SCR_Instal
$LN1@SCR_Instal:

; 613  : 	}
; 614  : }

	pop	edi
	pop	esi
	pop	ebx
	mov	esp, ebp
	pop	ebp
	ret	0
_SCR_InstallParticlePalette ENDP
_TEXT	ENDS
; Function compile flags: /Odtp /ZI
; File D:\DevDragon\XashFE\dev\src\engine\client\cl_scrn.c
;	COMDAT _SCR_AddDirtyPoint
_TEXT	SEGMENT
_x$ = 8							; size = 4
_y$ = 12						; size = 4
_SCR_AddDirtyPoint PROC					; COMDAT

; 355  : {

	push	ebp
	mov	ebp, esp
	sub	esp, 64					; 00000040H
	push	ebx
	push	esi
	push	edi

; 356  : 	if( x < scr_dirty.x1 ) scr_dirty.x1 = x;

	mov	eax, DWORD PTR _x$[ebp]
	cmp	eax, DWORD PTR _scr_dirty
	jge	SHORT $LN2@SCR_AddDir
	mov	eax, DWORD PTR _x$[ebp]
	mov	DWORD PTR _scr_dirty, eax
$LN2@SCR_AddDir:

; 357  : 	if( x > scr_dirty.x2 ) scr_dirty.x2 = x;

	mov	eax, DWORD PTR _x$[ebp]
	cmp	eax, DWORD PTR _scr_dirty+8
	jle	SHORT $LN3@SCR_AddDir
	mov	eax, DWORD PTR _x$[ebp]
	mov	DWORD PTR _scr_dirty+8, eax
$LN3@SCR_AddDir:

; 358  : 	if( y < scr_dirty.y1 ) scr_dirty.y1 = y;

	mov	eax, DWORD PTR _y$[ebp]
	cmp	eax, DWORD PTR _scr_dirty+4
	jge	SHORT $LN4@SCR_AddDir
	mov	eax, DWORD PTR _y$[ebp]
	mov	DWORD PTR _scr_dirty+4, eax
$LN4@SCR_AddDir:

; 359  : 	if( y > scr_dirty.y2 ) scr_dirty.y2 = y;

	mov	eax, DWORD PTR _y$[ebp]
	cmp	eax, DWORD PTR _scr_dirty+12
	jle	SHORT $LN1@SCR_AddDir
	mov	eax, DWORD PTR _y$[ebp]
	mov	DWORD PTR _scr_dirty+12, eax
$LN1@SCR_AddDir:

; 360  : }

	pop	edi
	pop	esi
	pop	ebx
	mov	esp, ebp
	pop	ebp
	ret	0
_SCR_AddDirtyPoint ENDP
_TEXT	ENDS
; Function compile flags: /Odtp /ZI
; File D:\DevDragon\XashFE\dev\src\engine\client\cl_scrn.c
;	COMDAT _SCR_DirtyScreen
_TEXT	SEGMENT
_SCR_DirtyScreen PROC					; COMDAT

; 368  : {

	push	ebp
	mov	ebp, esp
	sub	esp, 64					; 00000040H
	push	ebx
	push	esi
	push	edi

; 369  : 	SCR_AddDirtyPoint( 0, 0 );

	push	0
	push	0
	call	_SCR_AddDirtyPoint
	add	esp, 8

; 370  : 	SCR_AddDirtyPoint( glState.width - 1, glState.height - 1 );

	mov	eax, DWORD PTR _glState+4
	sub	eax, 1
	push	eax
	mov	ecx, DWORD PTR _glState
	sub	ecx, 1
	push	ecx
	call	_SCR_AddDirtyPoint
	add	esp, 8

; 371  : }

	pop	edi
	pop	esi
	pop	ebx
	mov	esp, ebp
	pop	ebp
	ret	0
_SCR_DirtyScreen ENDP
_TEXT	ENDS
; Function compile flags: /Odtp /ZI
; File D:\DevDragon\XashFE\dev\src\engine\client\cl_scrn.c
;	COMDAT _SCR_TileClear
_TEXT	SEGMENT
tv191 = -108						; size = 4
tv178 = -108						; size = 4
tv165 = -108						; size = 4
tv152 = -108						; size = 4
_clear$ = -40						; size = 16
_right$ = -24						; size = 4
_left$ = -20						; size = 4
_bottom$ = -16						; size = 4
_top$ = -12						; size = 4
_i$ = -8						; size = 4
__$ArrayPad$ = -4					; size = 4
_SCR_TileClear PROC					; COMDAT

; 379  : {

	push	ebp
	mov	ebp, esp
	sub	esp, 108				; 0000006cH
	mov	eax, DWORD PTR ___security_cookie
	xor	eax, ebp
	mov	DWORD PTR __$ArrayPad$[ebp], eax
	push	ebx
	push	esi
	push	edi

; 380  : 	int	i, top, bottom, left, right;
; 381  : 	dirty_t	clear;
; 382  : 
; 383  : 	if( scr_viewsize->value >= 120 )

	mov	eax, DWORD PTR _scr_viewsize
	movss	xmm0, DWORD PTR [eax+12]
	comiss	xmm0, DWORD PTR __real@42f00000
	jb	SHORT $LN5@SCR_TileCl

; 384  : 		return; // full screen rendering

	jmp	$LN14@SCR_TileCl
$LN5@SCR_TileCl:

; 385  : 
; 386  : 	// erase rect will be the union of the past three frames
; 387  : 	// so tripple buffering works properly
; 388  : 	clear = scr_dirty;

	mov	eax, DWORD PTR _scr_dirty
	mov	DWORD PTR _clear$[ebp], eax
	mov	ecx, DWORD PTR _scr_dirty+4
	mov	DWORD PTR _clear$[ebp+4], ecx
	mov	edx, DWORD PTR _scr_dirty+8
	mov	DWORD PTR _clear$[ebp+8], edx
	mov	eax, DWORD PTR _scr_dirty+12
	mov	DWORD PTR _clear$[ebp+12], eax

; 389  : 
; 390  : 	for( i = 0; i < 2; i++ )

	mov	DWORD PTR _i$[ebp], 0
	jmp	SHORT $LN4@SCR_TileCl
$LN2@SCR_TileCl:
	mov	eax, DWORD PTR _i$[ebp]
	add	eax, 1
	mov	DWORD PTR _i$[ebp], eax
$LN4@SCR_TileCl:
	cmp	DWORD PTR _i$[ebp], 2
	jge	$LN3@SCR_TileCl

; 391  : 	{
; 392  : 		if( scr_old_dirty[i].x1 < clear.x1 )

	mov	eax, DWORD PTR _i$[ebp]
	shl	eax, 4
	mov	ecx, DWORD PTR _scr_old_dirty[eax]
	cmp	ecx, DWORD PTR _clear$[ebp]
	jge	SHORT $LN6@SCR_TileCl

; 393  : 			clear.x1 = scr_old_dirty[i].x1;

	mov	eax, DWORD PTR _i$[ebp]
	shl	eax, 4
	mov	ecx, DWORD PTR _scr_old_dirty[eax]
	mov	DWORD PTR _clear$[ebp], ecx
$LN6@SCR_TileCl:

; 394  : 		if( scr_old_dirty[i].x2 > clear.x2 )

	mov	eax, DWORD PTR _i$[ebp]
	shl	eax, 4
	mov	ecx, DWORD PTR _scr_old_dirty[eax+8]
	cmp	ecx, DWORD PTR _clear$[ebp+8]
	jle	SHORT $LN7@SCR_TileCl

; 395  : 			clear.x2 = scr_old_dirty[i].x2;

	mov	eax, DWORD PTR _i$[ebp]
	shl	eax, 4
	mov	ecx, DWORD PTR _scr_old_dirty[eax+8]
	mov	DWORD PTR _clear$[ebp+8], ecx
$LN7@SCR_TileCl:

; 396  : 		if( scr_old_dirty[i].y1 < clear.y1 )

	mov	eax, DWORD PTR _i$[ebp]
	shl	eax, 4
	mov	ecx, DWORD PTR _scr_old_dirty[eax+4]
	cmp	ecx, DWORD PTR _clear$[ebp+4]
	jge	SHORT $LN8@SCR_TileCl

; 397  : 			clear.y1 = scr_old_dirty[i].y1;

	mov	eax, DWORD PTR _i$[ebp]
	shl	eax, 4
	mov	ecx, DWORD PTR _scr_old_dirty[eax+4]
	mov	DWORD PTR _clear$[ebp+4], ecx
$LN8@SCR_TileCl:

; 398  : 		if( scr_old_dirty[i].y2 > clear.y2 )

	mov	eax, DWORD PTR _i$[ebp]
	shl	eax, 4
	mov	ecx, DWORD PTR _scr_old_dirty[eax+12]
	cmp	ecx, DWORD PTR _clear$[ebp+12]
	jle	SHORT $LN9@SCR_TileCl

; 399  : 			clear.y2 = scr_old_dirty[i].y2;

	mov	eax, DWORD PTR _i$[ebp]
	shl	eax, 4
	mov	ecx, DWORD PTR _scr_old_dirty[eax+12]
	mov	DWORD PTR _clear$[ebp+12], ecx
$LN9@SCR_TileCl:

; 400  : 	}

	jmp	$LN2@SCR_TileCl
$LN3@SCR_TileCl:

; 401  : 
; 402  : 	scr_old_dirty[1] = scr_old_dirty[0];

	mov	eax, 16					; 00000010H
	imul	ecx, eax, 0
	add	ecx, OFFSET _scr_old_dirty
	mov	edx, 16					; 00000010H
	shl	edx, 0
	add	edx, OFFSET _scr_old_dirty
	mov	eax, DWORD PTR [ecx]
	mov	DWORD PTR [edx], eax
	mov	eax, DWORD PTR [ecx+4]
	mov	DWORD PTR [edx+4], eax
	mov	eax, DWORD PTR [ecx+8]
	mov	DWORD PTR [edx+8], eax
	mov	ecx, DWORD PTR [ecx+12]
	mov	DWORD PTR [edx+12], ecx

; 403  : 	scr_old_dirty[0] = scr_dirty;

	mov	eax, 16					; 00000010H
	imul	ecx, eax, 0
	add	ecx, OFFSET _scr_old_dirty
	mov	edx, DWORD PTR _scr_dirty
	mov	DWORD PTR [ecx], edx
	mov	eax, DWORD PTR _scr_dirty+4
	mov	DWORD PTR [ecx+4], eax
	mov	edx, DWORD PTR _scr_dirty+8
	mov	DWORD PTR [ecx+8], edx
	mov	eax, DWORD PTR _scr_dirty+12
	mov	DWORD PTR [ecx+12], eax

; 404  : 
; 405  : 	scr_dirty.x1 = 9999;

	mov	DWORD PTR _scr_dirty, 9999		; 0000270fH

; 406  : 	scr_dirty.x2 = -9999;

	mov	DWORD PTR _scr_dirty+8, -9999		; ffffd8f1H

; 407  : 	scr_dirty.y1 = 9999;

	mov	DWORD PTR _scr_dirty+4, 9999		; 0000270fH

; 408  : 	scr_dirty.y2 = -9999;

	mov	DWORD PTR _scr_dirty+12, -9999		; ffffd8f1H

; 409  : 
; 410  : 	if( clear.y2 <= clear.y1 )

	mov	eax, DWORD PTR _clear$[ebp+12]
	cmp	eax, DWORD PTR _clear$[ebp+4]
	jg	SHORT $LN10@SCR_TileCl

; 411  : 		return; // nothing disturbed

	jmp	$LN14@SCR_TileCl
$LN10@SCR_TileCl:

; 412  : 
; 413  : 	top = clgame.viewport[1];

	mov	eax, 4
	shl	eax, 0
	mov	ecx, DWORD PTR _clgame[eax+214828]
	mov	DWORD PTR _top$[ebp], ecx

; 414  : 	bottom = top + clgame.viewport[3] - 1;

	mov	eax, 4
	imul	ecx, eax, 3
	mov	edx, DWORD PTR _clgame[ecx+214828]
	mov	eax, DWORD PTR _top$[ebp]
	lea	ecx, DWORD PTR [eax+edx-1]
	mov	DWORD PTR _bottom$[ebp], ecx

; 415  : 	left = clgame.viewport[0];

	mov	eax, 4
	imul	ecx, eax, 0
	mov	edx, DWORD PTR _clgame[ecx+214828]
	mov	DWORD PTR _left$[ebp], edx

; 416  : 	right = left + clgame.viewport[2] - 1;

	mov	eax, 4
	shl	eax, 1
	mov	ecx, DWORD PTR _clgame[eax+214828]
	mov	edx, DWORD PTR _left$[ebp]
	lea	eax, DWORD PTR [edx+ecx-1]
	mov	DWORD PTR _right$[ebp], eax

; 417  : 
; 418  : 	if( clear.y1 < top )

	mov	eax, DWORD PTR _clear$[ebp+4]
	cmp	eax, DWORD PTR _top$[ebp]
	jge	SHORT $LN11@SCR_TileCl

; 419  : 	{	
; 420  : 		// clear above view screen
; 421  : 		i = clear.y2 < top-1 ? clear.y2 : top - 1;

	mov	eax, DWORD PTR _top$[ebp]
	sub	eax, 1
	cmp	DWORD PTR _clear$[ebp+12], eax
	jge	SHORT $LN16@SCR_TileCl
	mov	ecx, DWORD PTR _clear$[ebp+12]
	mov	DWORD PTR tv152[ebp], ecx
	jmp	SHORT $LN17@SCR_TileCl
$LN16@SCR_TileCl:
	mov	edx, DWORD PTR _top$[ebp]
	sub	edx, 1
	mov	DWORD PTR tv152[ebp], edx
$LN17@SCR_TileCl:
	mov	eax, DWORD PTR tv152[ebp]
	mov	DWORD PTR _i$[ebp], eax

; 422  : 		R_DrawTileClear( clear.x1, clear.y1, clear.x2 - clear.x1 + 1, i - clear.y1 + 1 );

	mov	eax, DWORD PTR _i$[ebp]
	sub	eax, DWORD PTR _clear$[ebp+4]
	add	eax, 1
	push	eax
	mov	ecx, DWORD PTR _clear$[ebp+8]
	sub	ecx, DWORD PTR _clear$[ebp]
	add	ecx, 1
	push	ecx
	mov	edx, DWORD PTR _clear$[ebp+4]
	push	edx
	mov	eax, DWORD PTR _clear$[ebp]
	push	eax
	call	_R_DrawTileClear
	add	esp, 16					; 00000010H

; 423  : 		clear.y1 = top;

	mov	eax, DWORD PTR _top$[ebp]
	mov	DWORD PTR _clear$[ebp+4], eax
$LN11@SCR_TileCl:

; 424  : 	}
; 425  : 
; 426  : 	if( clear.y2 > bottom )

	mov	eax, DWORD PTR _clear$[ebp+12]
	cmp	eax, DWORD PTR _bottom$[ebp]
	jle	SHORT $LN12@SCR_TileCl

; 427  : 	{	
; 428  : 		// clear below view screen
; 429  : 		i = clear.y1 > bottom + 1 ? clear.y1 : bottom + 1;

	mov	eax, DWORD PTR _bottom$[ebp]
	add	eax, 1
	cmp	DWORD PTR _clear$[ebp+4], eax
	jle	SHORT $LN18@SCR_TileCl
	mov	ecx, DWORD PTR _clear$[ebp+4]
	mov	DWORD PTR tv165[ebp], ecx
	jmp	SHORT $LN19@SCR_TileCl
$LN18@SCR_TileCl:
	mov	edx, DWORD PTR _bottom$[ebp]
	add	edx, 1
	mov	DWORD PTR tv165[ebp], edx
$LN19@SCR_TileCl:
	mov	eax, DWORD PTR tv165[ebp]
	mov	DWORD PTR _i$[ebp], eax

; 430  : 		R_DrawTileClear( clear.x1, i, clear.x2 - clear.x1 + 1, clear.y2 - i + 1 );

	mov	eax, DWORD PTR _clear$[ebp+12]
	sub	eax, DWORD PTR _i$[ebp]
	add	eax, 1
	push	eax
	mov	ecx, DWORD PTR _clear$[ebp+8]
	sub	ecx, DWORD PTR _clear$[ebp]
	add	ecx, 1
	push	ecx
	mov	edx, DWORD PTR _i$[ebp]
	push	edx
	mov	eax, DWORD PTR _clear$[ebp]
	push	eax
	call	_R_DrawTileClear
	add	esp, 16					; 00000010H

; 431  : 		clear.y2 = bottom;

	mov	eax, DWORD PTR _bottom$[ebp]
	mov	DWORD PTR _clear$[ebp+12], eax
$LN12@SCR_TileCl:

; 432  : 	}
; 433  : 
; 434  : 	if( clear.x1 < left )

	mov	eax, DWORD PTR _clear$[ebp]
	cmp	eax, DWORD PTR _left$[ebp]
	jge	SHORT $LN13@SCR_TileCl

; 435  : 	{
; 436  : 		// clear left of view screen
; 437  : 		i = clear.x2 < left - 1 ? clear.x2 : left - 1;

	mov	eax, DWORD PTR _left$[ebp]
	sub	eax, 1
	cmp	DWORD PTR _clear$[ebp+8], eax
	jge	SHORT $LN20@SCR_TileCl
	mov	ecx, DWORD PTR _clear$[ebp+8]
	mov	DWORD PTR tv178[ebp], ecx
	jmp	SHORT $LN21@SCR_TileCl
$LN20@SCR_TileCl:
	mov	edx, DWORD PTR _left$[ebp]
	sub	edx, 1
	mov	DWORD PTR tv178[ebp], edx
$LN21@SCR_TileCl:
	mov	eax, DWORD PTR tv178[ebp]
	mov	DWORD PTR _i$[ebp], eax

; 438  : 		R_DrawTileClear( clear.x1, clear.y1, i - clear.x1 + 1, clear.y2 - clear.y1 + 1 );

	mov	eax, DWORD PTR _clear$[ebp+12]
	sub	eax, DWORD PTR _clear$[ebp+4]
	add	eax, 1
	push	eax
	mov	ecx, DWORD PTR _i$[ebp]
	sub	ecx, DWORD PTR _clear$[ebp]
	add	ecx, 1
	push	ecx
	mov	edx, DWORD PTR _clear$[ebp+4]
	push	edx
	mov	eax, DWORD PTR _clear$[ebp]
	push	eax
	call	_R_DrawTileClear
	add	esp, 16					; 00000010H

; 439  : 		clear.x1 = left;

	mov	eax, DWORD PTR _left$[ebp]
	mov	DWORD PTR _clear$[ebp], eax
$LN13@SCR_TileCl:

; 440  : 	}
; 441  : 
; 442  : 	if( clear.x2 > right )

	mov	eax, DWORD PTR _clear$[ebp+8]
	cmp	eax, DWORD PTR _right$[ebp]
	jle	SHORT $LN14@SCR_TileCl

; 443  : 	{	
; 444  : 		// clear left of view screen
; 445  : 		i = clear.x1 > right + 1 ? clear.x1 : right + 1;

	mov	eax, DWORD PTR _right$[ebp]
	add	eax, 1
	cmp	DWORD PTR _clear$[ebp], eax
	jle	SHORT $LN22@SCR_TileCl
	mov	ecx, DWORD PTR _clear$[ebp]
	mov	DWORD PTR tv191[ebp], ecx
	jmp	SHORT $LN23@SCR_TileCl
$LN22@SCR_TileCl:
	mov	edx, DWORD PTR _right$[ebp]
	add	edx, 1
	mov	DWORD PTR tv191[ebp], edx
$LN23@SCR_TileCl:
	mov	eax, DWORD PTR tv191[ebp]
	mov	DWORD PTR _i$[ebp], eax

; 446  : 		R_DrawTileClear( i, clear.y1, clear.x2 - i + 1, clear.y2 - clear.y1 + 1 );

	mov	eax, DWORD PTR _clear$[ebp+12]
	sub	eax, DWORD PTR _clear$[ebp+4]
	add	eax, 1
	push	eax
	mov	ecx, DWORD PTR _clear$[ebp+8]
	sub	ecx, DWORD PTR _i$[ebp]
	add	ecx, 1
	push	ecx
	mov	edx, DWORD PTR _clear$[ebp+4]
	push	edx
	mov	eax, DWORD PTR _i$[ebp]
	push	eax
	call	_R_DrawTileClear
	add	esp, 16					; 00000010H

; 447  : 		clear.x2 = right;

	mov	eax, DWORD PTR _right$[ebp]
	mov	DWORD PTR _clear$[ebp+8], eax
$LN14@SCR_TileCl:

; 448  : 	}
; 449  : }

	pop	edi
	pop	esi
	pop	ebx
	mov	ecx, DWORD PTR __$ArrayPad$[ebp]
	xor	ecx, ebp
	call	@__security_check_cookie@4
	mov	esp, ebp
	pop	ebp
	ret	0
_SCR_TileClear ENDP
_TEXT	ENDS
; Function compile flags: /Odtp /ZI
; File D:\DevDragon\XashFE\dev\src\engine\client\cl_scrn.c
;	COMDAT _SCR_VidInit
_TEXT	SEGMENT
_SCR_VidInit PROC					; COMDAT

; 679  : {

	push	ebp
	mov	ebp, esp
	sub	esp, 64					; 00000040H
	push	ebx
	push	esi
	push	edi

; 680  : 	memset( &clgame.ds, 0, sizeof( clgame.ds )); // reset a draw state

	push	84					; 00000054H
	push	0
	push	OFFSET _clgame+214844
	call	_memset
	add	esp, 12					; 0000000cH

; 681  : 	memset( &gameui.ds, 0, sizeof( gameui.ds )); // reset a draw state

	push	28					; 0000001cH
	push	0
	push	OFFSET _gameui+3992
	call	_memset
	add	esp, 12					; 0000000cH

; 682  : 	memset( &clgame.centerPrint, 0, sizeof( clgame.centerPrint ));

	push	2068					; 00000814H
	push	0
	push	OFFSET _clgame+215004
	call	_memset
	add	esp, 12					; 0000000cH

; 683  : 
; 684  : 	// update screen sizes for menu
; 685  : 	gameui.globals->scrWidth = glState.width;

	mov	eax, DWORD PTR _gameui+7048
	mov	ecx, DWORD PTR _glState
	mov	DWORD PTR [eax+8], ecx

; 686  : 	gameui.globals->scrHeight = glState.height;

	mov	eax, DWORD PTR _gameui+7048
	mov	ecx, DWORD PTR _glState+4
	mov	DWORD PTR [eax+12], ecx

; 687  : 
; 688  : 	VGui_Startup ();

	call	_VGui_Startup

; 689  : 
; 690  : 	CL_ClearSpriteTextures(); // now all hud sprites are invalid

	call	_CL_ClearSpriteTextures

; 691  : 	
; 692  : 	// vid_state has changed
; 693  : 	if( gameui.hInstance ) gameui.dllFuncs.pfnVidInit();

	cmp	DWORD PTR _gameui, 0
	je	SHORT $LN2@SCR_VidIni
	call	DWORD PTR _gameui+4
$LN2@SCR_VidIni:

; 694  : 	if( clgame.hInstance ) clgame.dllFuncs.pfnVidInit();

	cmp	DWORD PTR _clgame, 0
	je	SHORT $LN3@SCR_VidIni
	call	DWORD PTR _clgame+12
$LN3@SCR_VidIni:

; 695  : 
; 696  : 	// restart console size
; 697  : 	Con_VidInit ();

	call	_Con_VidInit

; 698  : }

	pop	edi
	pop	esi
	pop	ebx
	mov	esp, ebp
	pop	ebp
	ret	0
_SCR_VidInit ENDP
_TEXT	ENDS
; Function compile flags: /Odtp /ZI
; File D:\DevDragon\XashFE\dev\src\engine\client\cl_scrn.c
;	COMDAT _SCR_Shutdown
_TEXT	SEGMENT
_SCR_Shutdown PROC					; COMDAT

; 748  : {

	push	ebp
	mov	ebp, esp
	sub	esp, 64					; 00000040H
	push	ebx
	push	esi
	push	edi

; 749  : 	if( !scr_init ) return;

	cmp	DWORD PTR _scr_init, 0
	jne	SHORT $LN2@SCR_Shutdo
	jmp	SHORT $LN1@SCR_Shutdo
$LN2@SCR_Shutdo:

; 750  : 
; 751  : 	Cmd_RemoveCommand( "timerefresh" );

	push	OFFSET ??_C@_0M@CHDNPKFN@timerefresh@
	call	_Cmd_RemoveCommand
	add	esp, 4

; 752  : 	Cmd_RemoveCommand( "skyname" );

	push	OFFSET ??_C@_07OAIDGMCI@skyname@
	call	_Cmd_RemoveCommand
	add	esp, 4

; 753  : 	Cmd_RemoveCommand( "viewpos" );

	push	OFFSET ??_C@_07NBKBBFDF@viewpos@
	call	_Cmd_RemoveCommand
	add	esp, 4

; 754  : 	UI_SetActiveMenu( false );

	push	0
	call	_UI_SetActiveMenu
	add	esp, 4

; 755  : 	UI_UnloadProgs();

	call	_UI_UnloadProgs

; 756  : 
; 757  : 	scr_init = false;

	mov	DWORD PTR _scr_init, 0
$LN1@SCR_Shutdo:

; 758  : }

	pop	edi
	pop	esi
	pop	ebx
	mov	esp, ebp
	pop	ebp
	ret	0
_SCR_Shutdown ENDP
_TEXT	ENDS
; Function compile flags: /Odtp /ZI
; File D:\DevDragon\XashFE\dev\src\engine\client\cl_scrn.c
;	COMDAT _SCR_BeginLoadingPlaque
_TEXT	SEGMENT
tv76 = -68						; size = 4
_is_background$ = 8					; size = 4
_SCR_BeginLoadingPlaque PROC				; COMDAT

; 311  : {

	push	ebp
	mov	ebp, esp
	sub	esp, 68					; 00000044H
	push	ebx
	push	esi
	push	edi

; 312  : 	S_StopAllSounds( true );

	push	1
	call	_S_StopAllSounds
	add	esp, 4

; 313  : 	cl.audio_prepped = false;			// don't play ambients

	mov	DWORD PTR _cl+20, 0

; 314  : 
; 315  : 	if( CL_IsInMenu( ) && !cls.changedemo && !is_background )

	call	_CL_IsInMenu
	test	eax, eax
	je	SHORT $LN3@SCR_BeginL
	cmp	DWORD PTR _cls+12, 0
	jne	SHORT $LN3@SCR_BeginL
	cmp	DWORD PTR _is_background$[ebp], 0
	jne	SHORT $LN3@SCR_BeginL

; 316  : 	{
; 317  : 		UI_SetActiveMenu( false );

	push	0
	call	_UI_SetActiveMenu
	add	esp, 4

; 318  : 		if( cls.state == ca_disconnected )

	cmp	DWORD PTR _cls, 0
	jne	SHORT $LN3@SCR_BeginL

; 319  : 			SCR_UpdateScreen();

	call	_SCR_UpdateScreen
$LN3@SCR_BeginL:

; 320  : 	}
; 321  : 
; 322  : 	if( cls.state == ca_disconnected || cls.disable_screen )

	cmp	DWORD PTR _cls, 0
	je	SHORT $LN5@SCR_BeginL
	movss	xmm0, DWORD PTR _cls+24
	ucomiss	xmm0, DWORD PTR __real@00000000
	lahf
	test	ah, 68					; 00000044H
	jnp	SHORT $LN4@SCR_BeginL
$LN5@SCR_BeginL:

; 323  : 		return; // already set

	jmp	SHORT $LN1@SCR_BeginL
$LN4@SCR_BeginL:

; 324  : 
; 325  : 	if( cls.key_dest == key_console )

	cmp	DWORD PTR _cls+36, 0
	jne	SHORT $LN6@SCR_BeginL

; 326  : 		return;

	jmp	SHORT $LN1@SCR_BeginL
$LN6@SCR_BeginL:

; 327  : 
; 328  : 	if( is_background ) IN_MouseSavePos( );

	cmp	DWORD PTR _is_background$[ebp], 0
	je	SHORT $LN7@SCR_BeginL
	call	_IN_MouseSavePos
$LN7@SCR_BeginL:

; 329  : 	cls.draw_changelevel = !is_background;

	cmp	DWORD PTR _is_background$[ebp], 0
	jne	SHORT $LN9@SCR_BeginL
	mov	DWORD PTR tv76[ebp], 1
	jmp	SHORT $LN10@SCR_BeginL
$LN9@SCR_BeginL:
	mov	DWORD PTR tv76[ebp], 0
$LN10@SCR_BeginL:
	mov	eax, DWORD PTR tv76[ebp]
	mov	DWORD PTR _cls+32, eax

; 330  : 	SCR_UpdateScreen();

	call	_SCR_UpdateScreen

; 331  : 	cls.disable_screen = host.realtime;

	cvtsd2ss xmm0, QWORD PTR _host+1440
	movss	DWORD PTR _cls+24, xmm0

; 332  : 	cls.disable_servercount = cl.servercount;

	mov	eax, DWORD PTR _cl
	mov	DWORD PTR _cls+28, eax

; 333  : 	cl.background = is_background;		// set right state before svc_serverdata is came

	mov	eax, DWORD PTR _is_background$[ebp]
	mov	DWORD PTR _cl+64, eax
$LN1@SCR_BeginL:

; 334  : //	SNDDMA_LockSound();
; 335  : }

	pop	edi
	pop	esi
	pop	ebx
	mov	esp, ebp
	pop	ebp
	ret	0
_SCR_BeginLoadingPlaque ENDP
_TEXT	ENDS
; Function compile flags: /Odtp /ZI
; File D:\DevDragon\XashFE\dev\src\engine\client\cl_scrn.c
;	COMDAT _SCR_UpdateScreen
_TEXT	SEGMENT
tv66 = -68						; size = 4
_SCR_UpdateScreen PROC					; COMDAT

; 460  : {

	push	ebp
	mov	ebp, esp
	sub	esp, 68					; 00000044H
	push	ebx
	push	esi
	push	edi

; 461  : 	if( !V_PreRender( )) return;

	call	_V_PreRender
	test	eax, eax
	jne	SHORT $LN4@SCR_Update
	jmp	SHORT $LN1@SCR_Update
$LN4@SCR_Update:

; 462  : 
; 463  : 	switch( cls.state )

	mov	eax, DWORD PTR _cls
	mov	DWORD PTR tv66[ebp], eax
	cmp	DWORD PTR tv66[ebp], 5
	ja	SHORT $LN11@SCR_Update
	mov	ecx, DWORD PTR tv66[ebp]
	jmp	DWORD PTR $LN13@SCR_Update[ecx*4]
$LN5@SCR_Update:

; 464  : 	{
; 465  : 	case ca_disconnected:
; 466  : 		Con_RunConsole ();

	call	_Con_RunConsole

; 467  : 		break;

	jmp	SHORT $LN2@SCR_Update
$LN8@SCR_Update:

; 468  : 	case ca_connecting:
; 469  : 	case ca_connected:
; 470  : 	case ca_validate:
; 471  : 		SCR_DrawPlaque();

	call	_SCR_DrawPlaque

; 472  : 		break;

	jmp	SHORT $LN2@SCR_Update
$LN9@SCR_Update:

; 473  : 	case ca_active:
; 474  : 		Con_RunConsole ();

	call	_Con_RunConsole

; 475  : 		V_RenderView();

	call	_V_RenderView

; 476  : 		break;

	jmp	SHORT $LN2@SCR_Update
$LN10@SCR_Update:

; 477  : 	case ca_cinematic:
; 478  : 		SCR_DrawCinematic();

	call	_SCR_DrawCinematic

; 479  : 		break;

	jmp	SHORT $LN2@SCR_Update
$LN11@SCR_Update:

; 480  : 	default:
; 481  : 		Host_Error( "SCR_UpdateScreen: bad cls.state\n" );

	push	OFFSET ??_C@_0CB@HJLOAGJC@SCR_UpdateScreen?3?5bad?5cls?4state@
	call	_Host_Error
	add	esp, 4
$LN2@SCR_Update:

; 482  : 		break;
; 483  : 	}
; 484  : 
; 485  : 	V_PostRender();

	call	_V_PostRender
$LN1@SCR_Update:

; 486  : }

	pop	edi
	pop	esi
	pop	ebx
	mov	esp, ebp
	pop	ebp
	ret	0
	npad	2
$LN13@SCR_Update:
	DD	$LN5@SCR_Update
	DD	$LN8@SCR_Update
	DD	$LN8@SCR_Update
	DD	$LN8@SCR_Update
	DD	$LN9@SCR_Update
	DD	$LN10@SCR_Update
_SCR_UpdateScreen ENDP
_TEXT	ENDS
; Function compile flags: /Odtp /ZI
; File D:\DevDragon\XashFE\dev\src\engine\client\cl_scrn.c
;	COMDAT _SCR_Init
_TEXT	SEGMENT
_SCR_Init PROC						; COMDAT

; 706  : {

	push	ebp
	mov	ebp, esp
	sub	esp, 64					; 00000040H
	push	ebx
	push	esi
	push	edi

; 707  : 	if( scr_init ) return;

	cmp	DWORD PTR _scr_init, 0
	je	SHORT $LN2@SCR_Init
	jmp	$LN1@SCR_Init
$LN2@SCR_Init:

; 708  : 
; 709  : 	scr_centertime = Cvar_Get( "scr_centertime", "2.5", 0, "centerprint hold time" );

	push	OFFSET ??_C@_0BG@HMGGPNNH@centerprint?5hold?5time@
	push	0
	push	OFFSET ??_C@_03BEHLLJJF@2?45@
	push	OFFSET ??_C@_0P@JECIOGED@scr_centertime@
	call	_Cvar_Get
	add	esp, 16					; 00000010H
	mov	DWORD PTR _scr_centertime, eax

; 710  : 	cl_levelshot_name = Cvar_Get( "cl_levelshot_name", "*black", 0, "contains path to current levelshot" );

	push	OFFSET ??_C@_0CD@CPMPLDOA@contains?5path?5to?5current?5levels@
	push	0
	push	OFFSET ??_C@_06FPKCCFDN@?$CKblack@
	push	OFFSET ??_C@_0BC@CBJAHLIN@cl_levelshot_name@
	call	_Cvar_Get
	add	esp, 16					; 00000010H
	mov	DWORD PTR _cl_levelshot_name, eax

; 711  : 	cl_allow_levelshots = Cvar_Get( "allow_levelshots", "0", FCVAR_ARCHIVE, "allow engine to use indivdual levelshots instead of 'loading' image" );

	push	OFFSET ??_C@_0EE@FDDOJKDI@allow?5engine?5to?5use?5indivdual?5l@
	push	1
	push	OFFSET ??_C@_01GBGANLPD@0@
	push	OFFSET ??_C@_0BB@CCCFBDOM@allow_levelshots@
	call	_Cvar_Get
	add	esp, 16					; 00000010H
	mov	DWORD PTR _cl_allow_levelshots, eax

; 712  : 	scr_loading = Cvar_Get( "scr_loading", "0", 0, "loading bar progress" );

	push	OFFSET ??_C@_0BF@GJFJPJKE@loading?5bar?5progress@
	push	0
	push	OFFSET ??_C@_01GBGANLPD@0@
	push	OFFSET ??_C@_0M@DKOEGGOG@scr_loading@
	call	_Cvar_Get
	add	esp, 16					; 00000010H
	mov	DWORD PTR _scr_loading, eax

; 713  : 	scr_download = Cvar_Get( "scr_download", "-1", 0, "downloading bar progress" );

	push	OFFSET ??_C@_0BJ@PDLEGELG@downloading?5bar?5progress@
	push	0
	push	OFFSET ??_C@_02PGHGPEOM@?91@
	push	OFFSET ??_C@_0N@CCFOLBKF@scr_download@
	call	_Cvar_Get
	add	esp, 16					; 00000010H
	mov	DWORD PTR _scr_download, eax

; 714  : 	cl_testlights = Cvar_Get( "cl_testlights", "0", 0, "test dynamic lights" );

	push	OFFSET ??_C@_0BE@HFKEPML@test?5dynamic?5lights@
	push	0
	push	OFFSET ??_C@_01GBGANLPD@0@
	push	OFFSET ??_C@_0O@HNNIOCCG@cl_testlights@
	call	_Cvar_Get
	add	esp, 16					; 00000010H
	mov	DWORD PTR _cl_testlights, eax

; 715  : 	cl_envshot_size = Cvar_Get( "cl_envshot_size", "256", FCVAR_ARCHIVE, "envshot size of cube side" );

	push	OFFSET ??_C@_0BK@CDGCMGNE@envshot?5size?5of?5cube?5side@
	push	1
	push	OFFSET ??_C@_03CPCFKGMH@256@
	push	OFFSET ??_C@_0BA@BOPAOBIA@cl_envshot_size@
	call	_Cvar_Get
	add	esp, 16					; 00000010H
	mov	DWORD PTR _cl_envshot_size, eax

; 716  : 	v_dark = Cvar_Get( "v_dark", "0", 0, "starts level from dark screen" );

	push	OFFSET ??_C@_0BO@MBGAKAJL@starts?5level?5from?5dark?5screen@
	push	0
	push	OFFSET ??_C@_01GBGANLPD@0@
	push	OFFSET ??_C@_06COKHDAAL@v_dark@
	call	_Cvar_Get
	add	esp, 16					; 00000010H
	mov	DWORD PTR _v_dark, eax

; 717  : 	scr_viewsize = Cvar_Get( "viewsize", "120", FCVAR_ARCHIVE, "screen size" );

	push	OFFSET ??_C@_0M@HBOMHEA@screen?5size@
	push	1
	push	OFFSET ??_C@_03GOIFLICK@120@
	push	OFFSET ??_C@_08CDPCOEFH@viewsize@
	call	_Cvar_Get
	add	esp, 16					; 00000010H
	mov	DWORD PTR _scr_viewsize, eax

; 718  : 	
; 719  : 	// register our commands
; 720  : 	Cmd_AddCommand( "timerefresh", SCR_TimeRefresh_f, "turn quickly and print rendering statistcs" );

	push	OFFSET ??_C@_0CL@FDPKMBBB@turn?5quickly?5and?5print?5renderin@
	push	OFFSET _SCR_TimeRefresh_f
	push	OFFSET ??_C@_0M@CHDNPKFN@timerefresh@
	call	_Cmd_AddCommand
	add	esp, 12					; 0000000cH

; 721  : 	Cmd_AddCommand( "skyname", CL_SetSky_f, "set new skybox by basename" );

	push	OFFSET ??_C@_0BL@GALGPJHD@set?5new?5skybox?5by?5basename@
	push	OFFSET _CL_SetSky_f
	push	OFFSET ??_C@_07OAIDGMCI@skyname@
	call	_Cmd_AddCommand
	add	esp, 12					; 0000000cH

; 722  : 	Cmd_AddCommand( "loadsky", CL_SetSky_f, "set new skybox by basename" );

	push	OFFSET ??_C@_0BL@GALGPJHD@set?5new?5skybox?5by?5basename@
	push	OFFSET _CL_SetSky_f
	push	OFFSET ??_C@_07MIIENBA@loadsky@
	call	_Cmd_AddCommand
	add	esp, 12					; 0000000cH

; 723  : 	Cmd_AddCommand( "viewpos", SCR_Viewpos_f, "prints current player origin" );

	push	OFFSET ??_C@_0BN@NPPGKBKN@prints?5current?5player?5origin@
	push	OFFSET _SCR_Viewpos_f
	push	OFFSET ??_C@_07NBKBBFDF@viewpos@
	call	_Cmd_AddCommand
	add	esp, 12					; 0000000cH

; 724  : 	Cmd_AddCommand( "sizeup", SCR_SizeUp_f, "screen size up to 10 points" );

	push	OFFSET ??_C@_0BM@FKGHNADM@screen?5size?5up?5to?510?5points@
	push	OFFSET _SCR_SizeUp_f
	push	OFFSET ??_C@_06FCHHJILH@sizeup@
	call	_Cmd_AddCommand
	add	esp, 12					; 0000000cH

; 725  : 	Cmd_AddCommand( "sizedown", SCR_SizeDown_f, "screen size down to 10 points" );

	push	OFFSET ??_C@_0BO@OENNDFIM@screen?5size?5down?5to?510?5points@
	push	OFFSET _SCR_SizeDown_f
	push	OFFSET ??_C@_08KKGKLAHJ@sizedown@
	call	_Cmd_AddCommand
	add	esp, 12					; 0000000cH

; 726  : 
; 727  : 	if( !UI_LoadProgs( ))

	call	_UI_LoadProgs
	test	eax, eax
	jne	SHORT $LN3@SCR_Init

; 728  : 	{
; 729  : 		Con_Printf( S_ERROR "can't initialize gameui.dll\n" ); // there is non fatal for us

	push	OFFSET ??_C@_0CI@BDAJMAHM@?$FO1Error?3?$FO7?5can?8t?5initialize?5gam@
	call	_Con_Printf
	add	esp, 4

; 730  : 		host.allow_console = true; // we need console, because menu is missing

	mov	DWORD PTR _host+34336, 1
$LN3@SCR_Init:

; 731  : 	}
; 732  : 
; 733  : 	SCR_VidInit();

	call	_SCR_VidInit

; 734  : 	SCR_LoadCreditsFont ();

	call	_SCR_LoadCreditsFont

; 735  : 	SCR_RegisterTextures ();

	call	_SCR_RegisterTextures

; 736  : 	SCR_InstallParticlePalette ();

	call	_SCR_InstallParticlePalette

; 737  : 	SCR_InitCinematic();

	call	_SCR_InitCinematic

; 738  : 	CL_InitNetgraph();

	call	_CL_InitNetgraph

; 739  : 
; 740  : 	if( host.allow_console && Sys_CheckParm( "-toconsole" ))

	cmp	DWORD PTR _host+34336, 0
	je	SHORT $LN4@SCR_Init
	push	OFFSET ??_C@_0L@DABMMCMG@?9toconsole@
	call	_Sys_CheckParm
	add	esp, 4
	test	eax, eax
	je	SHORT $LN4@SCR_Init

; 741  : 		Cbuf_AddText( "toggleconsole\n" );

	push	OFFSET ??_C@_0P@NIHEOEIF@toggleconsole?6@
	call	_Cbuf_AddText
	add	esp, 4
	jmp	SHORT $LN5@SCR_Init
$LN4@SCR_Init:

; 742  : 	else UI_SetActiveMenu( true );

	push	1
	call	_UI_SetActiveMenu
	add	esp, 4
$LN5@SCR_Init:

; 743  : 
; 744  : 	scr_init = true;

	mov	DWORD PTR _scr_init, 1
$LN1@SCR_Init:

; 745  : }

	pop	edi
	pop	esi
	pop	ebx
	mov	esp, ebp
	pop	ebp
	ret	0
_SCR_Init ENDP
_TEXT	ENDS
END
