; Listing generated by Microsoft (R) Optimizing Compiler Version 19.37.32705.0 

	TITLE	D:\DevDragon\XashFE\dev\src\temp\engine\!debug\cl_tent.obj
	.686P
	.XMM
	include listing.inc
	.model	flat

INCLUDELIB MSVCRTD
INCLUDELIB OLDNAMES

PUBLIC	_cl_sprite_dot
PUBLIC	_cl_sprite_shell
PUBLIC	_cl_tempents
PUBLIC	_cl_sprite_ricochet
PUBLIC	_cl_sprite_glow
PUBLIC	_cl_default_sprites
PUBLIC	??_C@_0BJ@EJELEIK@sprites?1muzzleflash1?4spr@	; `string'
PUBLIC	??_C@_0BJ@ICAAMGCE@sprites?1muzzleflash2?4spr@	; `string'
PUBLIC	??_C@_0BJ@EJFMBFIB@sprites?1muzzleflash3?4spr@	; `string'
PUBLIC	??_C@_0BA@NAEHANAC@sprites?1dot?4spr@		; `string'
PUBLIC	??_C@_0BH@MLJLEIH@sprites?1animglow01?4spr@	; `string'
PUBLIC	??_C@_0BD@JLHHJFDC@sprites?1richo1?4spr@	; `string'
PUBLIC	??_C@_0BI@EMLINFOG@sprites?1shellchrome?4spr@	; `string'
PUBLIC	_cl_player_shell_sounds
PUBLIC	??_C@_0BF@NLBBFLDH@player?1pl_shell1?4wav@	; `string'
PUBLIC	??_C@_0BF@FNIFCJJJ@player?1pl_shell2?4wav@	; `string'
PUBLIC	??_C@_0BF@JGNJPKDM@player?1pl_shell3?4wav@	; `string'
PUBLIC	_cl_weapon_shell_sounds
PUBLIC	??_C@_0BE@KBKMFHDL@weapons?1sshell1?4wav@	; `string'
PUBLIC	??_C@_0BE@CHDICFJF@weapons?1sshell2?4wav@	; `string'
PUBLIC	??_C@_0BE@OMGEPGDA@weapons?1sshell3?4wav@	; `string'
PUBLIC	_cl_ricochet_sounds
PUBLIC	??_C@_0BB@MNBCLJOD@weapons?1ric1?4wav@		; `string'
PUBLIC	??_C@_0BB@ELIGMLEN@weapons?1ric2?4wav@		; `string'
PUBLIC	??_C@_0BB@IANKBIOI@weapons?1ric3?4wav@		; `string'
PUBLIC	??_C@_0BB@JNNPCIFA@weapons?1ric4?4wav@		; `string'
PUBLIC	??_C@_0BB@FGIDPLPF@weapons?1ric5?4wav@		; `string'
PUBLIC	_cl_explode_sounds
PUBLIC	??_C@_0BF@JODNKDND@weapons?1explode3?4wav@	; `string'
PUBLIC	??_C@_0BF@IDDIJDGL@weapons?1explode4?4wav@	; `string'
PUBLIC	??_C@_0BF@EIGEEAMO@weapons?1explode5?4wav@	; `string'
_BSS	SEGMENT
_cl_sprite_dot DD 01H DUP (?)
_cl_sprite_shell DD 01H DUP (?)
_BSS	ENDS
_DATA	SEGMENT
COMM	_pglGetError:DWORD
COMM	_pglGetString:DWORD
COMM	_pglAccum:DWORD
COMM	_pglAlphaFunc:DWORD
COMM	_pglArrayElement:DWORD
COMM	_pglBegin:DWORD
COMM	_pglBindTexture:DWORD
COMM	_pglBitmap:DWORD
COMM	_pglBlendFunc:DWORD
COMM	_pglCallList:DWORD
COMM	_pglCallLists:DWORD
COMM	_pglClear:DWORD
COMM	_pglClearAccum:DWORD
COMM	_pglClearColor:DWORD
COMM	_pglClearDepth:DWORD
COMM	_pglClearIndex:DWORD
COMM	_pglClearStencil:DWORD
COMM	_pglIsEnabled:DWORD
COMM	_pglIsList:DWORD
COMM	_pglIsTexture:DWORD
COMM	_pglClipPlane:DWORD
COMM	_pglColor3b:DWORD
COMM	_pglColor3bv:DWORD
COMM	_pglColor3d:DWORD
COMM	_pglColor3dv:DWORD
COMM	_pglColor3f:DWORD
COMM	_pglColor3fv:DWORD
COMM	_pglColor3i:DWORD
COMM	_pglColor3iv:DWORD
COMM	_pglColor3s:DWORD
COMM	_pglColor3sv:DWORD
COMM	_pglColor3ub:DWORD
COMM	_pglColor3ubv:DWORD
COMM	_pglColor3ui:DWORD
COMM	_pglColor3uiv:DWORD
COMM	_pglColor3us:DWORD
COMM	_pglColor3usv:DWORD
COMM	_pglColor4b:DWORD
COMM	_pglColor4bv:DWORD
COMM	_pglColor4d:DWORD
COMM	_pglColor4dv:DWORD
COMM	_pglColor4f:DWORD
COMM	_pglColor4fv:DWORD
COMM	_pglColor4i:DWORD
COMM	_pglColor4iv:DWORD
COMM	_pglColor4s:DWORD
COMM	_pglColor4sv:DWORD
COMM	_pglColor4ub:DWORD
COMM	_pglColor4ubv:DWORD
COMM	_pglColor4ui:DWORD
COMM	_pglColor4uiv:DWORD
COMM	_pglColor4us:DWORD
COMM	_pglColor4usv:DWORD
COMM	_pglColorMask:DWORD
COMM	_pglColorMaterial:DWORD
COMM	_pglColorPointer:DWORD
COMM	_pglCopyPixels:DWORD
COMM	_pglCopyTexImage1D:DWORD
COMM	_pglCopyTexImage2D:DWORD
COMM	_pglCopyTexSubImage1D:DWORD
COMM	_pglCopyTexSubImage2D:DWORD
COMM	_pglCullFace:DWORD
COMM	_pglDeleteLists:DWORD
COMM	_pglDeleteTextures:DWORD
COMM	_pglDepthFunc:DWORD
COMM	_pglDepthMask:DWORD
COMM	_pglDepthRange:DWORD
COMM	_pglDisable:DWORD
COMM	_pglDisableClientState:DWORD
COMM	_pglDrawArrays:DWORD
COMM	_pglDrawBuffer:DWORD
COMM	_pglDrawElements:DWORD
COMM	_pglDrawPixels:DWORD
COMM	_pglEdgeFlag:DWORD
COMM	_pglEdgeFlagPointer:DWORD
COMM	_pglEdgeFlagv:DWORD
COMM	_pglEnable:DWORD
COMM	_pglEnableClientState:DWORD
COMM	_pglEnd:DWORD
COMM	_pglEndList:DWORD
COMM	_pglEvalCoord1d:DWORD
COMM	_pglEvalCoord1dv:DWORD
COMM	_pglEvalCoord1f:DWORD
COMM	_pglEvalCoord1fv:DWORD
COMM	_pglEvalCoord2d:DWORD
COMM	_pglEvalCoord2dv:DWORD
COMM	_pglEvalCoord2f:DWORD
COMM	_pglEvalCoord2fv:DWORD
COMM	_pglEvalMesh1:DWORD
COMM	_pglEvalMesh2:DWORD
COMM	_pglEvalPoint1:DWORD
COMM	_pglEvalPoint2:DWORD
COMM	_pglFeedbackBuffer:DWORD
COMM	_pglFinish:DWORD
COMM	_pglFlush:DWORD
COMM	_pglFogf:DWORD
COMM	_pglFogfv:DWORD
COMM	_pglFogi:DWORD
COMM	_pglFogiv:DWORD
COMM	_pglFrontFace:DWORD
COMM	_pglFrustum:DWORD
COMM	_pglGenTextures:DWORD
COMM	_pglGetBooleanv:DWORD
COMM	_pglGetClipPlane:DWORD
COMM	_pglGetDoublev:DWORD
COMM	_pglGetFloatv:DWORD
COMM	_pglGetIntegerv:DWORD
COMM	_pglGetLightfv:DWORD
COMM	_pglGetLightiv:DWORD
COMM	_pglGetMapdv:DWORD
COMM	_pglGetMapfv:DWORD
COMM	_pglGetMapiv:DWORD
COMM	_pglGetMaterialfv:DWORD
COMM	_pglGetMaterialiv:DWORD
COMM	_pglGetPixelMapfv:DWORD
COMM	_pglGetPixelMapuiv:DWORD
COMM	_pglGetPixelMapusv:DWORD
COMM	_pglGetPointerv:DWORD
COMM	_pglGetPolygonStipple:DWORD
COMM	_pglGetTexEnvfv:DWORD
COMM	_pglGetTexEnviv:DWORD
COMM	_pglGetTexGendv:DWORD
COMM	_pglGetTexGenfv:DWORD
COMM	_pglGetTexGeniv:DWORD
COMM	_pglGetTexImage:DWORD
COMM	_pglGetTexLevelParameterfv:DWORD
COMM	_pglGetTexLevelParameteriv:DWORD
COMM	_pglGetTexParameterfv:DWORD
COMM	_pglGetTexParameteriv:DWORD
COMM	_pglHint:DWORD
COMM	_pglIndexMask:DWORD
COMM	_pglIndexPointer:DWORD
COMM	_pglIndexd:DWORD
COMM	_pglIndexdv:DWORD
COMM	_pglIndexf:DWORD
COMM	_pglIndexfv:DWORD
COMM	_pglIndexi:DWORD
COMM	_pglIndexiv:DWORD
COMM	_pglIndexs:DWORD
COMM	_pglIndexsv:DWORD
COMM	_pglIndexub:DWORD
COMM	_pglIndexubv:DWORD
COMM	_pglInitNames:DWORD
COMM	_pglInterleavedArrays:DWORD
COMM	_pglLightModelf:DWORD
COMM	_pglLightModelfv:DWORD
COMM	_pglLightModeli:DWORD
COMM	_pglLightModeliv:DWORD
COMM	_pglLightf:DWORD
COMM	_pglLightfv:DWORD
COMM	_pglLighti:DWORD
COMM	_pglLightiv:DWORD
COMM	_pglLineStipple:DWORD
COMM	_pglLineWidth:DWORD
COMM	_pglListBase:DWORD
COMM	_pglLoadIdentity:DWORD
COMM	_pglLoadMatrixd:DWORD
COMM	_pglLoadMatrixf:DWORD
COMM	_pglLoadName:DWORD
COMM	_pglLogicOp:DWORD
COMM	_pglMap1d:DWORD
COMM	_pglMap1f:DWORD
COMM	_pglMap2d:DWORD
COMM	_pglMap2f:DWORD
COMM	_pglMapGrid1d:DWORD
COMM	_pglMapGrid1f:DWORD
COMM	_pglMapGrid2d:DWORD
COMM	_pglMapGrid2f:DWORD
COMM	_pglMaterialf:DWORD
COMM	_pglMaterialfv:DWORD
COMM	_pglMateriali:DWORD
COMM	_pglMaterialiv:DWORD
COMM	_pglMatrixMode:DWORD
COMM	_pglMultMatrixd:DWORD
COMM	_pglMultMatrixf:DWORD
COMM	_pglNewList:DWORD
COMM	_pglNormal3b:DWORD
COMM	_pglNormal3bv:DWORD
COMM	_pglNormal3d:DWORD
COMM	_pglNormal3dv:DWORD
COMM	_pglNormal3f:DWORD
COMM	_pglNormal3fv:DWORD
COMM	_pglNormal3i:DWORD
COMM	_pglNormal3iv:DWORD
COMM	_pglNormal3s:DWORD
COMM	_pglNormal3sv:DWORD
COMM	_pglNormalPointer:DWORD
COMM	_pglOrtho:DWORD
COMM	_pglPassThrough:DWORD
COMM	_pglPixelMapfv:DWORD
COMM	_pglPixelMapuiv:DWORD
COMM	_pglPixelMapusv:DWORD
COMM	_pglPixelStoref:DWORD
COMM	_pglPixelStorei:DWORD
COMM	_pglPixelTransferf:DWORD
COMM	_pglPixelTransferi:DWORD
COMM	_pglPixelZoom:DWORD
COMM	_pglPointSize:DWORD
COMM	_pglPolygonMode:DWORD
COMM	_pglPolygonOffset:DWORD
COMM	_pglPolygonStipple:DWORD
COMM	_pglPopAttrib:DWORD
COMM	_pglPopClientAttrib:DWORD
COMM	_pglPopMatrix:DWORD
COMM	_pglPopName:DWORD
COMM	_pglPushAttrib:DWORD
COMM	_pglPushClientAttrib:DWORD
COMM	_pglPushMatrix:DWORD
COMM	_pglPushName:DWORD
COMM	_pglRasterPos2d:DWORD
COMM	_pglRasterPos2dv:DWORD
COMM	_pglRasterPos2f:DWORD
COMM	_pglRasterPos2fv:DWORD
COMM	_pglRasterPos2i:DWORD
COMM	_pglRasterPos2iv:DWORD
COMM	_pglRasterPos2s:DWORD
COMM	_pglRasterPos2sv:DWORD
COMM	_pglRasterPos3d:DWORD
COMM	_pglRasterPos3dv:DWORD
COMM	_pglRasterPos3f:DWORD
COMM	_pglRasterPos3fv:DWORD
COMM	_pglRasterPos3i:DWORD
COMM	_pglRasterPos3iv:DWORD
COMM	_pglRasterPos3s:DWORD
COMM	_pglRasterPos3sv:DWORD
COMM	_pglRasterPos4d:DWORD
COMM	_pglRasterPos4dv:DWORD
COMM	_pglRasterPos4f:DWORD
COMM	_pglRasterPos4fv:DWORD
COMM	_pglRasterPos4i:DWORD
COMM	_pglRasterPos4iv:DWORD
COMM	_pglRasterPos4s:DWORD
COMM	_pglRasterPos4sv:DWORD
COMM	_pglReadBuffer:DWORD
COMM	_pglReadPixels:DWORD
COMM	_pglRectd:DWORD
COMM	_pglRectdv:DWORD
COMM	_pglRectf:DWORD
COMM	_pglRectfv:DWORD
COMM	_pglRecti:DWORD
COMM	_pglRectiv:DWORD
COMM	_pglRects:DWORD
COMM	_pglRectsv:DWORD
COMM	_pglRotated:DWORD
COMM	_pglRotatef:DWORD
COMM	_pglScaled:DWORD
COMM	_pglScalef:DWORD
COMM	_pglScissor:DWORD
COMM	_pglSelectBuffer:DWORD
COMM	_pglShadeModel:DWORD
COMM	_pglStencilFunc:DWORD
COMM	_pglStencilMask:DWORD
COMM	_pglStencilOp:DWORD
COMM	_pglTexCoord1d:DWORD
COMM	_pglTexCoord1dv:DWORD
COMM	_pglTexCoord1f:DWORD
COMM	_pglTexCoord1fv:DWORD
COMM	_pglTexCoord1i:DWORD
COMM	_pglTexCoord1iv:DWORD
COMM	_pglTexCoord1s:DWORD
COMM	_pglTexCoord1sv:DWORD
COMM	_pglTexCoord2d:DWORD
COMM	_pglTexCoord2dv:DWORD
COMM	_pglTexCoord2f:DWORD
COMM	_pglTexCoord2fv:DWORD
COMM	_pglTexCoord2i:DWORD
COMM	_pglTexCoord2iv:DWORD
COMM	_pglTexCoord2s:DWORD
COMM	_pglTexCoord2sv:DWORD
COMM	_pglTexCoord3d:DWORD
COMM	_pglTexCoord3dv:DWORD
COMM	_pglTexCoord3f:DWORD
COMM	_pglTexCoord3fv:DWORD
COMM	_pglTexCoord3i:DWORD
COMM	_pglTexCoord3iv:DWORD
COMM	_pglTexCoord3s:DWORD
COMM	_pglTexCoord3sv:DWORD
COMM	_pglTexCoord4d:DWORD
COMM	_pglTexCoord4dv:DWORD
COMM	_pglTexCoord4f:DWORD
COMM	_pglTexCoord4fv:DWORD
COMM	_pglTexCoord4i:DWORD
COMM	_pglTexCoord4iv:DWORD
COMM	_pglTexCoord4s:DWORD
COMM	_pglTexCoord4sv:DWORD
COMM	_pglTexCoordPointer:DWORD
COMM	_pglTexEnvf:DWORD
COMM	_pglTexEnvfv:DWORD
COMM	_pglTexEnvi:DWORD
COMM	_pglTexEnviv:DWORD
COMM	_pglTexGend:DWORD
COMM	_pglTexGendv:DWORD
COMM	_pglTexGenf:DWORD
COMM	_pglTexGenfv:DWORD
COMM	_pglTexGeni:DWORD
COMM	_pglTexGeniv:DWORD
COMM	_pglTexImage1D:DWORD
COMM	_pglTexImage2D:DWORD
COMM	_pglTexParameterf:DWORD
COMM	_pglTexParameterfv:DWORD
COMM	_pglTexParameteri:DWORD
COMM	_pglTexParameteriv:DWORD
COMM	_pglTexSubImage1D:DWORD
COMM	_pglTexSubImage2D:DWORD
COMM	_pglTranslated:DWORD
COMM	_pglTranslatef:DWORD
COMM	_pglVertex2d:DWORD
COMM	_pglVertex2dv:DWORD
COMM	_pglVertex2f:DWORD
COMM	_pglVertex2fv:DWORD
COMM	_pglVertex2i:DWORD
COMM	_pglVertex2iv:DWORD
COMM	_pglVertex2s:DWORD
COMM	_pglVertex2sv:DWORD
COMM	_pglVertex3d:DWORD
COMM	_pglVertex3dv:DWORD
COMM	_pglVertex3f:DWORD
COMM	_pglVertex3fv:DWORD
COMM	_pglVertex3i:DWORD
COMM	_pglVertex3iv:DWORD
COMM	_pglVertex3s:DWORD
COMM	_pglVertex3sv:DWORD
COMM	_pglVertex4d:DWORD
COMM	_pglVertex4dv:DWORD
COMM	_pglVertex4f:DWORD
COMM	_pglVertex4fv:DWORD
COMM	_pglVertex4i:DWORD
COMM	_pglVertex4iv:DWORD
COMM	_pglVertex4s:DWORD
COMM	_pglVertex4sv:DWORD
COMM	_pglVertexPointer:DWORD
COMM	_pglViewport:DWORD
COMM	_pglPointParameterfEXT:DWORD
COMM	_pglPointParameterfvEXT:DWORD
COMM	_pglLockArraysEXT:DWORD
COMM	_pglUnlockArraysEXT:DWORD
COMM	_pglActiveTextureARB:DWORD
COMM	_pglClientActiveTextureARB:DWORD
COMM	_pglGetCompressedTexImage:DWORD
COMM	_pglDrawRangeElements:DWORD
COMM	_pglDrawRangeElementsEXT:DWORD
COMM	_pglMultiTexCoord1f:DWORD
COMM	_pglMultiTexCoord2f:DWORD
COMM	_pglMultiTexCoord3f:DWORD
COMM	_pglMultiTexCoord4f:DWORD
COMM	_pglActiveTexture:DWORD
COMM	_pglClientActiveTexture:DWORD
COMM	_pglCompressedTexImage3DARB:DWORD
COMM	_pglCompressedTexImage2DARB:DWORD
COMM	_pglCompressedTexImage1DARB:DWORD
COMM	_pglCompressedTexSubImage3DARB:DWORD
COMM	_pglCompressedTexSubImage2DARB:DWORD
COMM	_pglCompressedTexSubImage1DARB:DWORD
COMM	_pglDeleteObjectARB:DWORD
COMM	_pglGetHandleARB:DWORD
COMM	_pglDetachObjectARB:DWORD
COMM	_pglCreateShaderObjectARB:DWORD
COMM	_pglShaderSourceARB:DWORD
COMM	_pglCompileShaderARB:DWORD
COMM	_pglCreateProgramObjectARB:DWORD
COMM	_pglAttachObjectARB:DWORD
COMM	_pglLinkProgramARB:DWORD
COMM	_pglUseProgramObjectARB:DWORD
COMM	_pglValidateProgramARB:DWORD
COMM	_pglBindProgramARB:DWORD
COMM	_pglDeleteProgramsARB:DWORD
COMM	_pglGenProgramsARB:DWORD
COMM	_pglProgramStringARB:DWORD
COMM	_pglProgramEnvParameter4fARB:DWORD
COMM	_pglProgramLocalParameter4fARB:DWORD
COMM	_pglUniform1fARB:DWORD
COMM	_pglUniform2fARB:DWORD
COMM	_pglUniform3fARB:DWORD
COMM	_pglUniform4fARB:DWORD
COMM	_pglUniform1iARB:DWORD
COMM	_pglUniform2iARB:DWORD
COMM	_pglUniform3iARB:DWORD
COMM	_pglUniform4iARB:DWORD
COMM	_pglUniform1fvARB:DWORD
COMM	_pglUniform2fvARB:DWORD
COMM	_pglUniform3fvARB:DWORD
COMM	_pglUniform4fvARB:DWORD
COMM	_pglUniform1ivARB:DWORD
COMM	_pglUniform2ivARB:DWORD
COMM	_pglUniform3ivARB:DWORD
COMM	_pglUniform4ivARB:DWORD
COMM	_pglUniformMatrix2fvARB:DWORD
COMM	_pglUniformMatrix3fvARB:DWORD
COMM	_pglUniformMatrix4fvARB:DWORD
COMM	_pglGetObjectParameterfvARB:DWORD
COMM	_pglGetObjectParameterivARB:DWORD
COMM	_pglGetInfoLogARB:DWORD
COMM	_pglGetAttachedObjectsARB:DWORD
COMM	_pglGetUniformLocationARB:DWORD
COMM	_pglGetActiveUniformARB:DWORD
COMM	_pglGetUniformfvARB:DWORD
COMM	_pglGetUniformivARB:DWORD
COMM	_pglGetShaderSourceARB:DWORD
COMM	_pglTexImage3D:DWORD
COMM	_pglTexSubImage3D:DWORD
COMM	_pglCopyTexSubImage3D:DWORD
COMM	_pglBlendEquationEXT:DWORD
COMM	_pglStencilOpSeparate:DWORD
COMM	_pglStencilFuncSeparate:DWORD
COMM	_pglActiveStencilFaceEXT:DWORD
COMM	_pglVertexAttribPointerARB:DWORD
COMM	_pglEnableVertexAttribArrayARB:DWORD
COMM	_pglDisableVertexAttribArrayARB:DWORD
COMM	_pglBindAttribLocationARB:DWORD
COMM	_pglGetActiveAttribARB:DWORD
COMM	_pglGetAttribLocationARB:DWORD
COMM	_pglBindFragDataLocation:DWORD
COMM	_pglVertexAttrib2fARB:DWORD
COMM	_pglVertexAttrib2fvARB:DWORD
COMM	_pglVertexAttrib3fvARB:DWORD
COMM	_pglBindBufferARB:DWORD
COMM	_pglDeleteBuffersARB:DWORD
COMM	_pglGenBuffersARB:DWORD
COMM	_pglIsBufferARB:DWORD
COMM	_pglMapBufferARB:DWORD
COMM	_pglUnmapBufferARB:DWORD
COMM	_pglBufferDataARB:DWORD
COMM	_pglBufferSubDataARB:DWORD
COMM	_pglGenQueriesARB:DWORD
COMM	_pglDeleteQueriesARB:DWORD
COMM	_pglIsQueryARB:DWORD
COMM	_pglBeginQueryARB:DWORD
COMM	_pglEndQueryARB:DWORD
COMM	_pglGetQueryivARB:DWORD
COMM	_pglGetQueryObjectivARB:DWORD
COMM	_pglGetQueryObjectuivARB:DWORD
COMM	_pglDebugMessageControlARB:DWORD
COMM	_pglDebugMessageInsertARB:DWORD
COMM	_pglDebugMessageCallbackARB:DWORD
COMM	_pglGetDebugMessageLogARB:DWORD
COMM	_pglIsRenderbuffer:DWORD
COMM	_pglBindRenderbuffer:DWORD
COMM	_pglDeleteRenderbuffers:DWORD
COMM	_pglGenRenderbuffers:DWORD
COMM	_pglRenderbufferStorage:DWORD
COMM	_pglRenderbufferStorageMultisample:DWORD
COMM	_pglGetRenderbufferParameteriv:DWORD
COMM	_pglIsFramebuffer:DWORD
COMM	_pglBindFramebuffer:DWORD
COMM	_pglDeleteFramebuffers:DWORD
COMM	_pglGenFramebuffers:DWORD
COMM	_pglCheckFramebufferStatus:DWORD
COMM	_pglFramebufferTexture1D:DWORD
COMM	_pglFramebufferTexture2D:DWORD
COMM	_pglFramebufferTexture3D:DWORD
COMM	_pglFramebufferTextureLayer:DWORD
COMM	_pglFramebufferRenderbuffer:DWORD
COMM	_pglGetFramebufferAttachmentParameteriv:DWORD
COMM	_pglBlitFramebuffer:DWORD
COMM	_pglDrawBuffersARB:DWORD
COMM	_pglGenerateMipmap:DWORD
COMM	_pglBindVertexArray:DWORD
COMM	_pglDeleteVertexArrays:DWORD
COMM	_pglGenVertexArrays:DWORD
COMM	_pglIsVertexArray:DWORD
COMM	_pglSwapInterval:DWORD
COMM	_pwglSwapBuffers:DWORD
COMM	_pwglCopyContext:DWORD
COMM	_pwglCreateContext:DWORD
COMM	_pwglCreateLayerContext:DWORD
COMM	_pwglDeleteContext:DWORD
COMM	_pwglGetCurrentContext:DWORD
COMM	_pwglGetProcAddress:DWORD
COMM	_pwglMakeCurrent:DWORD
COMM	_pwglShareLists:DWORD
COMM	_pwglUseFontBitmaps:DWORD
COMM	_pwglUseFontOutlines:DWORD
COMM	_pwglDescribeLayerPlane:DWORD
COMM	_pwglSetLayerPaletteEntries:DWORD
COMM	_pwglGetLayerPaletteEntries:DWORD
COMM	_pwglRealizeLayerPalette:DWORD
COMM	_pwglSwapLayerBuffers:DWORD
COMM	_pwglSwapIntervalEXT:DWORD
COMM	_pwglCreateContextAttribsARB:DWORD
COMM	_pwglGetPixelFormatAttribiv:DWORD
COMM	_pwglChoosePixelFormat:DWORD
COMM	_pwglGetExtensionsStringEXT:DWORD
COMM	_cl_dlights:BYTE:0500H
COMM	_cl_elights:BYTE:0a00H
COMM	_cl_active_tents:DWORD
COMM	_cl_free_tents:DWORD
_DATA	ENDS
_BSS	SEGMENT
_cl_tempents DD	01H DUP (?)
_BSS	ENDS
_DATA	SEGMENT
COMM	_cl_sprite_muzzleflash:DWORD:03H
_DATA	ENDS
_BSS	SEGMENT
_cl_sprite_ricochet DD 01H DUP (?)
_cl_sprite_glow DD 01H DUP (?)
_BSS	ENDS
_DATA	SEGMENT
COMM	_cl_efrags:BYTE:020000H
_DATA	ENDS
;	COMDAT ??_C@_0BF@EIGEEAMO@weapons?1explode5?4wav@
CONST	SEGMENT
??_C@_0BF@EIGEEAMO@weapons?1explode5?4wav@ DB 'weapons/explode5.wav', 00H ; `string'
CONST	ENDS
;	COMDAT ??_C@_0BF@IDDIJDGL@weapons?1explode4?4wav@
CONST	SEGMENT
??_C@_0BF@IDDIJDGL@weapons?1explode4?4wav@ DB 'weapons/explode4.wav', 00H ; `string'
CONST	ENDS
;	COMDAT ??_C@_0BF@JODNKDND@weapons?1explode3?4wav@
CONST	SEGMENT
??_C@_0BF@JODNKDND@weapons?1explode3?4wav@ DB 'weapons/explode3.wav', 00H ; `string'
CONST	ENDS
;	COMDAT ??_C@_0BB@FGIDPLPF@weapons?1ric5?4wav@
CONST	SEGMENT
??_C@_0BB@FGIDPLPF@weapons?1ric5?4wav@ DB 'weapons/ric5.wav', 00H ; `string'
CONST	ENDS
;	COMDAT ??_C@_0BB@JNNPCIFA@weapons?1ric4?4wav@
CONST	SEGMENT
??_C@_0BB@JNNPCIFA@weapons?1ric4?4wav@ DB 'weapons/ric4.wav', 00H ; `string'
CONST	ENDS
;	COMDAT ??_C@_0BB@IANKBIOI@weapons?1ric3?4wav@
CONST	SEGMENT
??_C@_0BB@IANKBIOI@weapons?1ric3?4wav@ DB 'weapons/ric3.wav', 00H ; `string'
CONST	ENDS
;	COMDAT ??_C@_0BB@ELIGMLEN@weapons?1ric2?4wav@
CONST	SEGMENT
??_C@_0BB@ELIGMLEN@weapons?1ric2?4wav@ DB 'weapons/ric2.wav', 00H ; `string'
CONST	ENDS
;	COMDAT ??_C@_0BB@MNBCLJOD@weapons?1ric1?4wav@
CONST	SEGMENT
??_C@_0BB@MNBCLJOD@weapons?1ric1?4wav@ DB 'weapons/ric1.wav', 00H ; `string'
CONST	ENDS
;	COMDAT ??_C@_0BE@OMGEPGDA@weapons?1sshell3?4wav@
CONST	SEGMENT
??_C@_0BE@OMGEPGDA@weapons?1sshell3?4wav@ DB 'weapons/sshell3.wav', 00H ; `string'
CONST	ENDS
;	COMDAT ??_C@_0BE@CHDICFJF@weapons?1sshell2?4wav@
CONST	SEGMENT
??_C@_0BE@CHDICFJF@weapons?1sshell2?4wav@ DB 'weapons/sshell2.wav', 00H ; `string'
CONST	ENDS
;	COMDAT ??_C@_0BE@KBKMFHDL@weapons?1sshell1?4wav@
CONST	SEGMENT
??_C@_0BE@KBKMFHDL@weapons?1sshell1?4wav@ DB 'weapons/sshell1.wav', 00H ; `string'
CONST	ENDS
;	COMDAT ??_C@_0BF@JGNJPKDM@player?1pl_shell3?4wav@
CONST	SEGMENT
??_C@_0BF@JGNJPKDM@player?1pl_shell3?4wav@ DB 'player/pl_shell3.wav', 00H ; `string'
CONST	ENDS
;	COMDAT ??_C@_0BF@FNIFCJJJ@player?1pl_shell2?4wav@
CONST	SEGMENT
??_C@_0BF@FNIFCJJJ@player?1pl_shell2?4wav@ DB 'player/pl_shell2.wav', 00H ; `string'
CONST	ENDS
;	COMDAT ??_C@_0BF@NLBBFLDH@player?1pl_shell1?4wav@
CONST	SEGMENT
??_C@_0BF@NLBBFLDH@player?1pl_shell1?4wav@ DB 'player/pl_shell1.wav', 00H ; `string'
CONST	ENDS
;	COMDAT ??_C@_0BI@EMLINFOG@sprites?1shellchrome?4spr@
CONST	SEGMENT
??_C@_0BI@EMLINFOG@sprites?1shellchrome?4spr@ DB 'sprites/shellchrome.spr'
	DB	00H						; `string'
CONST	ENDS
;	COMDAT ??_C@_0BD@JLHHJFDC@sprites?1richo1?4spr@
CONST	SEGMENT
??_C@_0BD@JLHHJFDC@sprites?1richo1?4spr@ DB 'sprites/richo1.spr', 00H ; `string'
CONST	ENDS
;	COMDAT ??_C@_0BH@MLJLEIH@sprites?1animglow01?4spr@
CONST	SEGMENT
??_C@_0BH@MLJLEIH@sprites?1animglow01?4spr@ DB 'sprites/animglow01.spr', 00H ; `string'
CONST	ENDS
;	COMDAT ??_C@_0BA@NAEHANAC@sprites?1dot?4spr@
CONST	SEGMENT
??_C@_0BA@NAEHANAC@sprites?1dot?4spr@ DB 'sprites/dot.spr', 00H ; `string'
CONST	ENDS
;	COMDAT ??_C@_0BJ@EJFMBFIB@sprites?1muzzleflash3?4spr@
CONST	SEGMENT
??_C@_0BJ@EJFMBFIB@sprites?1muzzleflash3?4spr@ DB 'sprites/muzzleflash3.s'
	DB	'pr', 00H					; `string'
CONST	ENDS
;	COMDAT ??_C@_0BJ@ICAAMGCE@sprites?1muzzleflash2?4spr@
CONST	SEGMENT
??_C@_0BJ@ICAAMGCE@sprites?1muzzleflash2?4spr@ DB 'sprites/muzzleflash2.s'
	DB	'pr', 00H					; `string'
CONST	ENDS
;	COMDAT ??_C@_0BJ@EJELEIK@sprites?1muzzleflash1?4spr@
CONST	SEGMENT
??_C@_0BJ@EJELEIK@sprites?1muzzleflash1?4spr@ DB 'sprites/muzzleflash1.sp'
	DB	'r', 00H					; `string'
CONST	ENDS
_DATA	SEGMENT
_cl_default_sprites DD FLAT:??_C@_0BJ@EJELEIK@sprites?1muzzleflash1?4spr@
	DD	FLAT:??_C@_0BJ@ICAAMGCE@sprites?1muzzleflash2?4spr@
	DD	FLAT:??_C@_0BJ@EJFMBFIB@sprites?1muzzleflash3?4spr@
	DD	FLAT:??_C@_0BA@NAEHANAC@sprites?1dot?4spr@
	DD	FLAT:??_C@_0BH@MLJLEIH@sprites?1animglow01?4spr@
	DD	FLAT:??_C@_0BD@JLHHJFDC@sprites?1richo1?4spr@
	DD	FLAT:??_C@_0BI@EMLINFOG@sprites?1shellchrome?4spr@
_cl_player_shell_sounds DD FLAT:??_C@_0BF@NLBBFLDH@player?1pl_shell1?4wav@
	DD	FLAT:??_C@_0BF@FNIFCJJJ@player?1pl_shell2?4wav@
	DD	FLAT:??_C@_0BF@JGNJPKDM@player?1pl_shell3?4wav@
_cl_weapon_shell_sounds DD FLAT:??_C@_0BE@KBKMFHDL@weapons?1sshell1?4wav@
	DD	FLAT:??_C@_0BE@CHDICFJF@weapons?1sshell2?4wav@
	DD	FLAT:??_C@_0BE@OMGEPGDA@weapons?1sshell3?4wav@
_cl_ricochet_sounds DD FLAT:??_C@_0BB@MNBCLJOD@weapons?1ric1?4wav@
	DD	FLAT:??_C@_0BB@ELIGMLEN@weapons?1ric2?4wav@
	DD	FLAT:??_C@_0BB@IANKBIOI@weapons?1ric3?4wav@
	DD	FLAT:??_C@_0BB@JNNPCIFA@weapons?1ric4?4wav@
	DD	FLAT:??_C@_0BB@FGIDPLPF@weapons?1ric5?4wav@
_cl_explode_sounds DD FLAT:??_C@_0BF@JODNKDND@weapons?1explode3?4wav@
	DD	FLAT:??_C@_0BF@IDDIJDGL@weapons?1explode4?4wav@
	DD	FLAT:??_C@_0BF@EIGEEAMO@weapons?1explode5?4wav@
_DATA	ENDS
PUBLIC	_CL_SetLightstyle
PUBLIC	_CL_DecayLights
PUBLIC	_CL_ParseTempEntity
PUBLIC	_CL_ClearEffects
PUBLIC	_CL_ClearEfrags
PUBLIC	_CL_TestLights
PUBLIC	_CL_FireCustomDecal
PUBLIC	_CL_DecalShoot
PUBLIC	_CL_PlayerDecal
PUBLIC	_CL_AddClientResource
PUBLIC	_CL_AddClientResources
PUBLIC	_CL_FxBlend
PUBLIC	_CL_InitTempEnts
PUBLIC	_CL_ClearTempEnts
PUBLIC	_CL_FreeTempEnts
PUBLIC	_CL_TempEntUpdate
PUBLIC	_CL_LoadClientSprites
PUBLIC	_R_Explosion
PUBLIC	_R_SparkShower
PUBLIC	_CL_TempEntAlloc
PUBLIC	_CL_TempEntAllocHigh
PUBLIC	_CL_TempEntAllocNoModel
PUBLIC	_CL_TempEntAllocCustom
PUBLIC	_R_FizzEffect
PUBLIC	_R_Bubbles
PUBLIC	_R_BubbleTrail
PUBLIC	_R_AttachTentToPlayer
PUBLIC	_R_KillAttachedTents
PUBLIC	_R_RicochetSprite
PUBLIC	_R_RocketFlare
PUBLIC	_R_MuzzleFlash
PUBLIC	_R_BloodSprite
PUBLIC	_R_BreakModel
PUBLIC	_R_TempModel
PUBLIC	_R_TempSprite
PUBLIC	_R_DefaultSprite
PUBLIC	_R_Sprite_Explode
PUBLIC	_R_Sprite_Smoke
PUBLIC	_R_Spray
PUBLIC	_R_Sprite_Spray
PUBLIC	_R_Sprite_Trail
PUBLIC	_R_FunnelSprite
PUBLIC	_R_SparkEffect
PUBLIC	_R_Projectile
PUBLIC	_R_TempSphereModel
PUBLIC	_R_MultiGunshot
PUBLIC	_R_FireField
PUBLIC	_R_PlayerSprites
PUBLIC	_R_Sprite_WallPuff
PUBLIC	_R_RicochetSound
PUBLIC	_CL_AllocDlight
PUBLIC	_CL_AllocElight
PUBLIC	_CL_UpdateFlashlight
PUBLIC	_CL_AddEntityEffects
PUBLIC	_CL_AddModelEffects
PUBLIC	_CL_DecalRemoveAll
PUBLIC	_CL_DecalIndexFromName
PUBLIC	_CL_DecalIndex
PUBLIC	_CL_PrepareTEnt
PUBLIC	_CL_TempEntPlaySound
PUBLIC	_CL_TempEntAddEntity
PUBLIC	_CL_FreeLowPriorityTempEnt
PUBLIC	_CL_ClearLightStyles
PUBLIC	_CL_ClearDlights
PUBLIC	?__LINE__Var@?0??CL_AddClientResource@@9@9	; `CL_AddClientResource'::`1'::__LINE__Var
PUBLIC	??_C@_0DE@EPAHEIKG@D?3?2DevDragon?2XashFE?2dev?2src?2eng@ ; `string'
PUBLIC	??_C@_06PBLIODKG@sound?1@			; `string'
PUBLIC	??_C@_04HDOCAJNK@?$CFs?$CFs@			; `string'
PUBLIC	?__LINE__Var@?0??CL_InitTempEnts@@9@9		; `CL_InitTempEnts'::`1'::__LINE__Var
PUBLIC	?__LINE__Var@?0??CL_FreeTempEnts@@9@9		; `CL_FreeTempEnts'::`1'::__LINE__Var
PUBLIC	?__LINE__Var@?0??CL_TempEntPlaySound@@9@9	; `CL_TempEntPlaySound'::`1'::__LINE__Var
PUBLIC	??_C@_0O@JHIJGBPP@pTemp?5?$CB?$DN?5NULL@	; `string'
PUBLIC	??_C@_0BD@LELGLKED@debris?1glass?$CFi?4wav@	; `string'
PUBLIC	??_C@_0BD@MDOGGPHL@debris?1metal?$CFi?4wav@	; `string'
PUBLIC	??_C@_0BD@HCJHLCL@debris?1flesh?$CFi?4wav@	; `string'
PUBLIC	??_C@_0BC@IGHOLFCC@debris?1wood?$CFi?4wav@	; `string'
PUBLIC	??_C@_02DKCKIIND@?$CFs@				; `string'
PUBLIC	??_C@_0BG@HDCPKBJB@debris?1concrete?$CFi?4wav@	; `string'
PUBLIC	?__LINE__Var@?0??CL_TempEntAddEntity@@9@9	; `CL_TempEntAddEntity'::`1'::__LINE__Var
PUBLIC	??_C@_0BA@LOGAJLJO@pEntity?5?$CB?$DN?5NULL@	; `string'
PUBLIC	??_C@_0BN@IBFHIBLB@Overflow?5?$CFd?5temporary?5ents?$CB?6@ ; `string'
PUBLIC	??_C@_0CG@FKBCOHFI@Couldn?8t?5alloc?5a?5high?5priority?5@ ; `string'
PUBLIC	??_C@_0P@FJBFKKAM@No?5Sprite?5?$CFd?$CB?6@	; `string'
PUBLIC	??_C@_0BJ@DIEJGHFK@?$FO1Error?3?$FO7?5No?5model?5?$CFd?$CB?6@ ; `string'
PUBLIC	??_C@_0O@ICEDCNLF@No?5model?5?$CFd?$CB?6@	; `string'
PUBLIC	??_C@_0BJ@PFCNBPIC@?$FO1Error?3?$FO7?5no?5model?5?$CFd?$CB?6@ ; `string'
PUBLIC	??_C@_0L@KJBJBAKD@TempEntity@			; `string'
PUBLIC	??_C@_0DF@GBPNOJNL@?$FO1Error?3?$FO7?5ParseTempEntity?3?5ill@ ; `string'
PUBLIC	??_C@_0DD@EGMOAPEI@?$FO3Warning?3?$FO7?5ParseTempEntity?3?5o@ ; `string'
PUBLIC	?__LINE__Var@?0??CL_SetLightstyle@@9@9		; `CL_SetLightstyle'::`1'::__LINE__Var
PUBLIC	??_C@_09EGGCOFMI@s?5?$CB?$DN?5NULL@		; `string'
PUBLIC	??_C@_0CG@IJIGLMMD@style?5?$DO?$DN?50?5?$CG?$CG?5style?5?$DM?5MAX_LIGHT@ ; `string'
PUBLIC	??_C@_03CCLAEDDF@Yes@				; `string'
PUBLIC	??_C@_02JINPPBEP@No@				; `string'
PUBLIC	??_C@_0BP@LJEJFAAK@Lightstyle?5?$CFi?5?$CI?$CFs?$CJ?0?5interp?5?$CFs?6@ ; `string'
PUBLIC	??_C@_0P@GPNCHLMC@player?$CFdlogo?$CFd@		; `string'
PUBLIC	__real@00000000
PUBLIC	__real@3b23d70a
PUBLIC	__real@3c23d70a
PUBLIC	__real@3c8efa35
PUBLIC	__real@3d4ccccd
PUBLIC	__real@3dcccccd
PUBLIC	__real@3e99999a
PUBLIC	__real@3ecccccd
PUBLIC	__real@3f000000
PUBLIC	__real@3f333333
PUBLIC	__real@3f400000
PUBLIC	__real@3f4ccccd
PUBLIC	__real@3f50624dd2f1a9fc
PUBLIC	__real@3f666666
PUBLIC	__real@3f800000
PUBLIC	__real@3f847ae140000000
PUBLIC	__real@3f847ae147ae147b
PUBLIC	__real@3f99999a
PUBLIC	__real@3fa00000
PUBLIC	__real@3fb40000
PUBLIC	__real@3fb999999999999a
PUBLIC	__real@3fb99999a0000000
PUBLIC	__real@3fc00000
PUBLIC	__real@3fd6666660000000
PUBLIC	__real@3fe0000000000000
PUBLIC	__real@3fe8000000000000
PUBLIC	__real@3ff0000000000000
PUBLIC	__real@40000000
PUBLIC	__real@4000000000000000
PUBLIC	__real@4008000000000000
PUBLIC	__real@4010000000000000
PUBLIC	__real@4020000000000000
PUBLIC	__real@4030000000000000
PUBLIC	__real@4031000000000000
PUBLIC	__real@4034000000000000
PUBLIC	__real@4037000000000000
PUBLIC	__real@40400000
PUBLIC	__real@4042000000000000
PUBLIC	__real@40490fdb
PUBLIC	__real@4050000000000000
PUBLIC	__real@4059000000000000
PUBLIC	__real@40800000
PUBLIC	__real@40a00000
PUBLIC	__real@41000000
PUBLIC	__real@41100000
PUBLIC	__real@41200000
PUBLIC	__real@41400000
PUBLIC	__real@41700000
PUBLIC	__real@41800000
PUBLIC	__real@41900000
PUBLIC	__real@41a00000
PUBLIC	__real@41c80000
PUBLIC	__real@41e00000
PUBLIC	__real@41f00000
PUBLIC	__real@42000000
PUBLIC	__real@420c0000
PUBLIC	__real@42100000
PUBLIC	__real@42340000
PUBLIC	__real@42700000
PUBLIC	__real@42800000
PUBLIC	__real@42a00000
PUBLIC	__real@42be0000
PUBLIC	__real@42c80000
PUBLIC	__real@43000000
PUBLIC	__real@43160000
PUBLIC	__real@43480000
PUBLIC	__real@43670000
PUBLIC	__real@437f0000
PUBLIC	__real@43800000
PUBLIC	__real@43960000
PUBLIC	__real@43af0000
PUBLIC	__real@43b40000
PUBLIC	__real@43b58000
PUBLIC	__real@43c80000
PUBLIC	__real@43d78000
PUBLIC	__real@43d80000
PUBLIC	__real@43e10000
PUBLIC	__real@43fa0000
PUBLIC	__real@43ff8000
PUBLIC	__real@44480000
PUBLIC	__real@44fa0000
PUBLIC	__real@45800000
PUBLIC	__real@be800000
PUBLIC	__real@bf000000
PUBLIC	__real@bf800000
PUBLIC	__real@c0490fdb
PUBLIC	__real@c1200000
PUBLIC	__real@c1a00000
PUBLIC	__real@c2000000
PUBLIC	__real@c2c00000
PUBLIC	__real@c2c80000
PUBLIC	__real@c2fe0000
PUBLIC	__real@c3480000
PUBLIC	__real@c37f0000
PUBLIC	__real@c3800000
PUBLIC	__real@c3960000
PUBLIC	__real@c4000000
PUBLIC	__xmm@80000000800000008000000080000000
EXTRN	_memset:PROC
EXTRN	_abs:PROC
EXTRN	_Q_strlen:PROC
EXTRN	_Q_strncpy:PROC
EXTRN	_Q_strnicmp:PROC
EXTRN	_Q_snprintf:PROC
EXTRN	_va:PROC
EXTRN	__Mem_Alloc:PROC
EXTRN	__Mem_Free:PROC
EXTRN	_DBG_AssertFunction:PROC
EXTRN	_COM_CheckString:PROC
EXTRN	_FS_FileExists:PROC
EXTRN	_Image_SetForceFlags:PROC
EXTRN	_Image_ClearForceFlags:PROC
EXTRN	_Con_Reportf:PROC
EXTRN	_Con_DPrintf:PROC
EXTRN	_CL_PointContents:PROC
EXTRN	_R_DecalRemoveAll:PROC
EXTRN	_CL_GetEntityByIndex:PROC
EXTRN	_CL_IsQuakeCompatible:PROC
EXTRN	_COM_RandomLong:PROC
EXTRN	_COM_RandomFloat:PROC
EXTRN	_fabs:PROC
EXTRN	_sin:PROC
EXTRN	_sqrt:PROC
EXTRN	_anglemod:PROC
EXTRN	_SinCos:PROC
EXTRN	_VectorNormalizeLength2:PROC
EXTRN	_VectorVectors:PROC
EXTRN	_VectorAngles:PROC
EXTRN	_AngleVectors:PROC
EXTRN	_Mod_AliasExtradata:PROC
EXTRN	_MSG_InitExt:PROC
EXTRN	_MSG_CheckOverflow:PROC
EXTRN	_MSG_ReadChar:PROC
EXTRN	_MSG_ReadByte:PROC
EXTRN	_MSG_ReadShort:PROC
EXTRN	_MSG_ReadWord:PROC
EXTRN	_MSG_ReadCoord:PROC
EXTRN	_MSG_ReadBytes:PROC
EXTRN	_CL_AddToResourceList:PROC
EXTRN	_CL_ParseTextMessage:PROC
EXTRN	_CL_ModelHandle:PROC
EXTRN	_CL_LoadClientSprite:PROC
EXTRN	_CL_VisTraceLine:PROC
EXTRN	_CL_TraceLine:PROC
EXTRN	_CL_AddVisibleEntity:PROC
EXTRN	_CL_ClearParticles:PROC
EXTRN	_CL_ClearViewBeams:PROC
EXTRN	_CL_ParseViewBeam:PROC
EXTRN	_S_RegisterSound:PROC
EXTRN	_S_StartSound:PROC
EXTRN	_R_ParticleExplosion2:PROC
EXTRN	_R_Implosion:PROC
EXTRN	_R_Blood:PROC
EXTRN	_R_BloodStream:PROC
EXTRN	_R_BlobExplosion:PROC
EXTRN	_R_EntityParticles:PROC
EXTRN	_R_FlickerParticles:PROC
EXTRN	_R_RunParticleEffect:PROC
EXTRN	_R_ParticleBurst:PROC
EXTRN	_R_LavaSplash:PROC
EXTRN	_R_TeleportSplash:PROC
EXTRN	_R_RocketTrail:PROC
EXTRN	_R_TracerEffect:PROC
EXTRN	_R_UserTracerParticle:PROC
EXTRN	_R_ParticleLine:PROC
EXTRN	_R_ParticleBox:PROC
EXTRN	_R_ShowLine:PROC
EXTRN	_R_BulletImpactParticles:PROC
EXTRN	_R_LargeFunnel:PROC
EXTRN	_R_StreakSplash:PROC
EXTRN	_R_SparkStreaks:PROC
EXTRN	_TriBoxInPVS:PROC
EXTRN	_GL_LoadTexture:PROC
EXTRN	_GL_LoadTextureFromBuffer:PROC
EXTRN	_R_DecalShoot:PROC
EXTRN	@__security_check_cookie@4:PROC
EXTRN	_host:BYTE
EXTRN	_SI:BYTE
EXTRN	_vec3_origin:BYTE
EXTRN	_cl:BYTE
EXTRN	_cls:BYTE
EXTRN	_clgame:BYTE
EXTRN	_cl_testlights:DWORD
EXTRN	_r_stats:BYTE
EXTRN	_RI:BYTE
EXTRN	___security_cookie:DWORD
EXTRN	__fltused:DWORD
;	COMDAT __xmm@80000000800000008000000080000000
CONST	SEGMENT
__xmm@80000000800000008000000080000000 DB 00H, 00H, 00H, 080H, 00H, 00H, 00H
	DB	080H, 00H, 00H, 00H, 080H, 00H, 00H, 00H, 080H
CONST	ENDS
;	COMDAT __real@c4000000
CONST	SEGMENT
__real@c4000000 DD 0c4000000r			; -512
CONST	ENDS
;	COMDAT __real@c3960000
CONST	SEGMENT
__real@c3960000 DD 0c3960000r			; -300
CONST	ENDS
;	COMDAT __real@c3800000
CONST	SEGMENT
__real@c3800000 DD 0c3800000r			; -256
CONST	ENDS
;	COMDAT __real@c37f0000
CONST	SEGMENT
__real@c37f0000 DD 0c37f0000r			; -255
CONST	ENDS
;	COMDAT __real@c3480000
CONST	SEGMENT
__real@c3480000 DD 0c3480000r			; -200
CONST	ENDS
;	COMDAT __real@c2fe0000
CONST	SEGMENT
__real@c2fe0000 DD 0c2fe0000r			; -127
CONST	ENDS
;	COMDAT __real@c2c80000
CONST	SEGMENT
__real@c2c80000 DD 0c2c80000r			; -100
CONST	ENDS
;	COMDAT __real@c2c00000
CONST	SEGMENT
__real@c2c00000 DD 0c2c00000r			; -96
CONST	ENDS
;	COMDAT __real@c2000000
CONST	SEGMENT
__real@c2000000 DD 0c2000000r			; -32
CONST	ENDS
;	COMDAT __real@c1a00000
CONST	SEGMENT
__real@c1a00000 DD 0c1a00000r			; -20
CONST	ENDS
;	COMDAT __real@c1200000
CONST	SEGMENT
__real@c1200000 DD 0c1200000r			; -10
CONST	ENDS
;	COMDAT __real@c0490fdb
CONST	SEGMENT
__real@c0490fdb DD 0c0490fdbr			; -3.14159
CONST	ENDS
;	COMDAT __real@bf800000
CONST	SEGMENT
__real@bf800000 DD 0bf800000r			; -1
CONST	ENDS
;	COMDAT __real@bf000000
CONST	SEGMENT
__real@bf000000 DD 0bf000000r			; -0.5
CONST	ENDS
;	COMDAT __real@be800000
CONST	SEGMENT
__real@be800000 DD 0be800000r			; -0.25
CONST	ENDS
;	COMDAT __real@45800000
CONST	SEGMENT
__real@45800000 DD 045800000r			; 4096
CONST	ENDS
;	COMDAT __real@44fa0000
CONST	SEGMENT
__real@44fa0000 DD 044fa0000r			; 2000
CONST	ENDS
;	COMDAT __real@44480000
CONST	SEGMENT
__real@44480000 DD 044480000r			; 800
CONST	ENDS
;	COMDAT __real@43ff8000
CONST	SEGMENT
__real@43ff8000 DD 043ff8000r			; 511
CONST	ENDS
;	COMDAT __real@43fa0000
CONST	SEGMENT
__real@43fa0000 DD 043fa0000r			; 500
CONST	ENDS
;	COMDAT __real@43e10000
CONST	SEGMENT
__real@43e10000 DD 043e10000r			; 450
CONST	ENDS
;	COMDAT __real@43d80000
CONST	SEGMENT
__real@43d80000 DD 043d80000r			; 432
CONST	ENDS
;	COMDAT __real@43d78000
CONST	SEGMENT
__real@43d78000 DD 043d78000r			; 431
CONST	ENDS
;	COMDAT __real@43c80000
CONST	SEGMENT
__real@43c80000 DD 043c80000r			; 400
CONST	ENDS
;	COMDAT __real@43b58000
CONST	SEGMENT
__real@43b58000 DD 043b58000r			; 363
CONST	ENDS
;	COMDAT __real@43b40000
CONST	SEGMENT
__real@43b40000 DD 043b40000r			; 360
CONST	ENDS
;	COMDAT __real@43af0000
CONST	SEGMENT
__real@43af0000 DD 043af0000r			; 350
CONST	ENDS
;	COMDAT __real@43960000
CONST	SEGMENT
__real@43960000 DD 043960000r			; 300
CONST	ENDS
;	COMDAT __real@43800000
CONST	SEGMENT
__real@43800000 DD 043800000r			; 256
CONST	ENDS
;	COMDAT __real@437f0000
CONST	SEGMENT
__real@437f0000 DD 0437f0000r			; 255
CONST	ENDS
;	COMDAT __real@43670000
CONST	SEGMENT
__real@43670000 DD 043670000r			; 231
CONST	ENDS
;	COMDAT __real@43480000
CONST	SEGMENT
__real@43480000 DD 043480000r			; 200
CONST	ENDS
;	COMDAT __real@43160000
CONST	SEGMENT
__real@43160000 DD 043160000r			; 150
CONST	ENDS
;	COMDAT __real@43000000
CONST	SEGMENT
__real@43000000 DD 043000000r			; 128
CONST	ENDS
;	COMDAT __real@42c80000
CONST	SEGMENT
__real@42c80000 DD 042c80000r			; 100
CONST	ENDS
;	COMDAT __real@42be0000
CONST	SEGMENT
__real@42be0000 DD 042be0000r			; 95
CONST	ENDS
;	COMDAT __real@42a00000
CONST	SEGMENT
__real@42a00000 DD 042a00000r			; 80
CONST	ENDS
;	COMDAT __real@42800000
CONST	SEGMENT
__real@42800000 DD 042800000r			; 64
CONST	ENDS
;	COMDAT __real@42700000
CONST	SEGMENT
__real@42700000 DD 042700000r			; 60
CONST	ENDS
;	COMDAT __real@42340000
CONST	SEGMENT
__real@42340000 DD 042340000r			; 45
CONST	ENDS
;	COMDAT __real@42100000
CONST	SEGMENT
__real@42100000 DD 042100000r			; 36
CONST	ENDS
;	COMDAT __real@420c0000
CONST	SEGMENT
__real@420c0000 DD 0420c0000r			; 35
CONST	ENDS
;	COMDAT __real@42000000
CONST	SEGMENT
__real@42000000 DD 042000000r			; 32
CONST	ENDS
;	COMDAT __real@41f00000
CONST	SEGMENT
__real@41f00000 DD 041f00000r			; 30
CONST	ENDS
;	COMDAT __real@41e00000
CONST	SEGMENT
__real@41e00000 DD 041e00000r			; 28
CONST	ENDS
;	COMDAT __real@41c80000
CONST	SEGMENT
__real@41c80000 DD 041c80000r			; 25
CONST	ENDS
;	COMDAT __real@41a00000
CONST	SEGMENT
__real@41a00000 DD 041a00000r			; 20
CONST	ENDS
;	COMDAT __real@41900000
CONST	SEGMENT
__real@41900000 DD 041900000r			; 18
CONST	ENDS
;	COMDAT __real@41800000
CONST	SEGMENT
__real@41800000 DD 041800000r			; 16
CONST	ENDS
;	COMDAT __real@41700000
CONST	SEGMENT
__real@41700000 DD 041700000r			; 15
CONST	ENDS
;	COMDAT __real@41400000
CONST	SEGMENT
__real@41400000 DD 041400000r			; 12
CONST	ENDS
;	COMDAT __real@41200000
CONST	SEGMENT
__real@41200000 DD 041200000r			; 10
CONST	ENDS
;	COMDAT __real@41100000
CONST	SEGMENT
__real@41100000 DD 041100000r			; 9
CONST	ENDS
;	COMDAT __real@41000000
CONST	SEGMENT
__real@41000000 DD 041000000r			; 8
CONST	ENDS
;	COMDAT __real@40a00000
CONST	SEGMENT
__real@40a00000 DD 040a00000r			; 5
CONST	ENDS
;	COMDAT __real@40800000
CONST	SEGMENT
__real@40800000 DD 040800000r			; 4
CONST	ENDS
;	COMDAT __real@4059000000000000
CONST	SEGMENT
__real@4059000000000000 DQ 04059000000000000r	; 100
CONST	ENDS
;	COMDAT __real@4050000000000000
CONST	SEGMENT
__real@4050000000000000 DQ 04050000000000000r	; 64
CONST	ENDS
;	COMDAT __real@40490fdb
CONST	SEGMENT
__real@40490fdb DD 040490fdbr			; 3.14159
CONST	ENDS
;	COMDAT __real@4042000000000000
CONST	SEGMENT
__real@4042000000000000 DQ 04042000000000000r	; 36
CONST	ENDS
;	COMDAT __real@40400000
CONST	SEGMENT
__real@40400000 DD 040400000r			; 3
CONST	ENDS
;	COMDAT __real@4037000000000000
CONST	SEGMENT
__real@4037000000000000 DQ 04037000000000000r	; 23
CONST	ENDS
;	COMDAT __real@4034000000000000
CONST	SEGMENT
__real@4034000000000000 DQ 04034000000000000r	; 20
CONST	ENDS
;	COMDAT __real@4031000000000000
CONST	SEGMENT
__real@4031000000000000 DQ 04031000000000000r	; 17
CONST	ENDS
;	COMDAT __real@4030000000000000
CONST	SEGMENT
__real@4030000000000000 DQ 04030000000000000r	; 16
CONST	ENDS
;	COMDAT __real@4020000000000000
CONST	SEGMENT
__real@4020000000000000 DQ 04020000000000000r	; 8
CONST	ENDS
;	COMDAT __real@4010000000000000
CONST	SEGMENT
__real@4010000000000000 DQ 04010000000000000r	; 4
CONST	ENDS
;	COMDAT __real@4008000000000000
CONST	SEGMENT
__real@4008000000000000 DQ 04008000000000000r	; 3
CONST	ENDS
;	COMDAT __real@4000000000000000
CONST	SEGMENT
__real@4000000000000000 DQ 04000000000000000r	; 2
CONST	ENDS
;	COMDAT __real@40000000
CONST	SEGMENT
__real@40000000 DD 040000000r			; 2
CONST	ENDS
;	COMDAT __real@3ff0000000000000
CONST	SEGMENT
__real@3ff0000000000000 DQ 03ff0000000000000r	; 1
CONST	ENDS
;	COMDAT __real@3fe8000000000000
CONST	SEGMENT
__real@3fe8000000000000 DQ 03fe8000000000000r	; 0.75
CONST	ENDS
;	COMDAT __real@3fe0000000000000
CONST	SEGMENT
__real@3fe0000000000000 DQ 03fe0000000000000r	; 0.5
CONST	ENDS
;	COMDAT __real@3fd6666660000000
CONST	SEGMENT
__real@3fd6666660000000 DQ 03fd6666660000000r	; 0.35
CONST	ENDS
;	COMDAT __real@3fc00000
CONST	SEGMENT
__real@3fc00000 DD 03fc00000r			; 1.5
CONST	ENDS
;	COMDAT __real@3fb99999a0000000
CONST	SEGMENT
__real@3fb99999a0000000 DQ 03fb99999a0000000r	; 0.1
CONST	ENDS
;	COMDAT __real@3fb999999999999a
CONST	SEGMENT
__real@3fb999999999999a DQ 03fb999999999999ar	; 0.1
CONST	ENDS
;	COMDAT __real@3fb40000
CONST	SEGMENT
__real@3fb40000 DD 03fb40000r			; 1.40625
CONST	ENDS
;	COMDAT __real@3fa00000
CONST	SEGMENT
__real@3fa00000 DD 03fa00000r			; 1.25
CONST	ENDS
;	COMDAT __real@3f99999a
CONST	SEGMENT
__real@3f99999a DD 03f99999ar			; 1.2
CONST	ENDS
;	COMDAT __real@3f847ae147ae147b
CONST	SEGMENT
__real@3f847ae147ae147b DQ 03f847ae147ae147br	; 0.01
CONST	ENDS
;	COMDAT __real@3f847ae140000000
CONST	SEGMENT
__real@3f847ae140000000 DQ 03f847ae140000000r	; 0.01
CONST	ENDS
;	COMDAT __real@3f800000
CONST	SEGMENT
__real@3f800000 DD 03f800000r			; 1
CONST	ENDS
;	COMDAT __real@3f666666
CONST	SEGMENT
__real@3f666666 DD 03f666666r			; 0.9
CONST	ENDS
;	COMDAT __real@3f50624dd2f1a9fc
CONST	SEGMENT
__real@3f50624dd2f1a9fc DQ 03f50624dd2f1a9fcr	; 0.001
CONST	ENDS
;	COMDAT __real@3f4ccccd
CONST	SEGMENT
__real@3f4ccccd DD 03f4ccccdr			; 0.8
CONST	ENDS
;	COMDAT __real@3f400000
CONST	SEGMENT
__real@3f400000 DD 03f400000r			; 0.75
CONST	ENDS
;	COMDAT __real@3f333333
CONST	SEGMENT
__real@3f333333 DD 03f333333r			; 0.7
CONST	ENDS
;	COMDAT __real@3f000000
CONST	SEGMENT
__real@3f000000 DD 03f000000r			; 0.5
CONST	ENDS
;	COMDAT __real@3ecccccd
CONST	SEGMENT
__real@3ecccccd DD 03ecccccdr			; 0.4
CONST	ENDS
;	COMDAT __real@3e99999a
CONST	SEGMENT
__real@3e99999a DD 03e99999ar			; 0.3
CONST	ENDS
;	COMDAT __real@3dcccccd
CONST	SEGMENT
__real@3dcccccd DD 03dcccccdr			; 0.1
CONST	ENDS
;	COMDAT __real@3d4ccccd
CONST	SEGMENT
__real@3d4ccccd DD 03d4ccccdr			; 0.05
CONST	ENDS
;	COMDAT __real@3c8efa35
CONST	SEGMENT
__real@3c8efa35 DD 03c8efa35r			; 0.0174533
CONST	ENDS
;	COMDAT __real@3c23d70a
CONST	SEGMENT
__real@3c23d70a DD 03c23d70ar			; 0.01
CONST	ENDS
;	COMDAT __real@3b23d70a
CONST	SEGMENT
__real@3b23d70a DD 03b23d70ar			; 0.0025
CONST	ENDS
;	COMDAT __real@00000000
CONST	SEGMENT
__real@00000000 DD 000000000r			; 0
CONST	ENDS
;	COMDAT ??_C@_0P@GPNCHLMC@player?$CFdlogo?$CFd@
CONST	SEGMENT
??_C@_0P@GPNCHLMC@player?$CFdlogo?$CFd@ DB 'player%dlogo%d', 00H ; `string'
CONST	ENDS
;	COMDAT ??_C@_0BP@LJEJFAAK@Lightstyle?5?$CFi?5?$CI?$CFs?$CJ?0?5interp?5?$CFs?6@
CONST	SEGMENT
??_C@_0BP@LJEJFAAK@Lightstyle?5?$CFi?5?$CI?$CFs?$CJ?0?5interp?5?$CFs?6@ DB 'L'
	DB	'ightstyle %i (%s), interp %s', 0aH, 00H	; `string'
CONST	ENDS
;	COMDAT ??_C@_02JINPPBEP@No@
CONST	SEGMENT
??_C@_02JINPPBEP@No@ DB 'No', 00H			; `string'
CONST	ENDS
;	COMDAT ??_C@_03CCLAEDDF@Yes@
CONST	SEGMENT
??_C@_03CCLAEDDF@Yes@ DB 'Yes', 00H			; `string'
CONST	ENDS
;	COMDAT ??_C@_0CG@IJIGLMMD@style?5?$DO?$DN?50?5?$CG?$CG?5style?5?$DM?5MAX_LIGHT@
CONST	SEGMENT
??_C@_0CG@IJIGLMMD@style?5?$DO?$DN?50?5?$CG?$CG?5style?5?$DM?5MAX_LIGHT@ DB 's'
	DB	'tyle >= 0 && style < MAX_LIGHTSTYLES', 00H	; `string'
CONST	ENDS
;	COMDAT ??_C@_09EGGCOFMI@s?5?$CB?$DN?5NULL@
CONST	SEGMENT
??_C@_09EGGCOFMI@s?5?$CB?$DN?5NULL@ DB 's != NULL', 00H	; `string'
CONST	ENDS
;	COMDAT ?__LINE__Var@?0??CL_SetLightstyle@@9@9
_DATA	SEGMENT
?__LINE__Var@?0??CL_SetLightstyle@@9@9 DD 09edH		; `CL_SetLightstyle'::`1'::__LINE__Var
_DATA	ENDS
;	COMDAT ??_C@_0DD@EGMOAPEI@?$FO3Warning?3?$FO7?5ParseTempEntity?3?5o@
CONST	SEGMENT
??_C@_0DD@EGMOAPEI@?$FO3Warning?3?$FO7?5ParseTempEntity?3?5o@ DB '^3Warni'
	DB	'ng:^7 ParseTempEntity: overflow TE message', 0aH, 00H ; `string'
CONST	ENDS
;	COMDAT ??_C@_0DF@GBPNOJNL@?$FO1Error?3?$FO7?5ParseTempEntity?3?5ill@
CONST	SEGMENT
??_C@_0DF@GBPNOJNL@?$FO1Error?3?$FO7?5ParseTempEntity?3?5ill@ DB '^1Error'
	DB	':^7 ParseTempEntity: illegible TE message %i', 0aH, 00H ; `string'
CONST	ENDS
;	COMDAT ??_C@_0L@KJBJBAKD@TempEntity@
CONST	SEGMENT
??_C@_0L@KJBJBAKD@TempEntity@ DB 'TempEntity', 00H	; `string'
CONST	ENDS
;	COMDAT ??_C@_0BJ@PFCNBPIC@?$FO1Error?3?$FO7?5no?5model?5?$CFd?$CB?6@
CONST	SEGMENT
??_C@_0BJ@PFCNBPIC@?$FO1Error?3?$FO7?5no?5model?5?$CFd?$CB?6@ DB '^1Error'
	DB	':^7 no model %d!', 0aH, 00H			; `string'
CONST	ENDS
;	COMDAT ??_C@_0O@ICEDCNLF@No?5model?5?$CFd?$CB?6@
CONST	SEGMENT
??_C@_0O@ICEDCNLF@No?5model?5?$CFd?$CB?6@ DB 'No model %d!', 0aH, 00H ; `string'
CONST	ENDS
;	COMDAT ??_C@_0BJ@DIEJGHFK@?$FO1Error?3?$FO7?5No?5model?5?$CFd?$CB?6@
CONST	SEGMENT
??_C@_0BJ@DIEJGHFK@?$FO1Error?3?$FO7?5No?5model?5?$CFd?$CB?6@ DB '^1Error'
	DB	':^7 No model %d!', 0aH, 00H			; `string'
CONST	ENDS
;	COMDAT ??_C@_0P@FJBFKKAM@No?5Sprite?5?$CFd?$CB?6@
CONST	SEGMENT
??_C@_0P@FJBFKKAM@No?5Sprite?5?$CFd?$CB?6@ DB 'No Sprite %d!', 0aH, 00H ; `string'
CONST	ENDS
;	COMDAT ??_C@_0CG@FKBCOHFI@Couldn?8t?5alloc?5a?5high?5priority?5@
CONST	SEGMENT
??_C@_0CG@FKBCOHFI@Couldn?8t?5alloc?5a?5high?5priority?5@ DB 'Couldn''t a'
	DB	'lloc a high priority TENT!', 0aH, 00H	; `string'
CONST	ENDS
;	COMDAT ??_C@_0BN@IBFHIBLB@Overflow?5?$CFd?5temporary?5ents?$CB?6@
CONST	SEGMENT
??_C@_0BN@IBFHIBLB@Overflow?5?$CFd?5temporary?5ents?$CB?6@ DB 'Overflow %'
	DB	'd temporary ents!', 0aH, 00H		; `string'
CONST	ENDS
;	COMDAT ??_C@_0BA@LOGAJLJO@pEntity?5?$CB?$DN?5NULL@
CONST	SEGMENT
??_C@_0BA@LOGAJLJO@pEntity?5?$CB?$DN?5NULL@ DB 'pEntity != NULL', 00H ; `string'
CONST	ENDS
;	COMDAT ?__LINE__Var@?0??CL_TempEntAddEntity@@9@9
_DATA	SEGMENT
?__LINE__Var@?0??CL_TempEntAddEntity@@9@9 DD 01feH	; `CL_TempEntAddEntity'::`1'::__LINE__Var
_DATA	ENDS
;	COMDAT ??_C@_0BG@HDCPKBJB@debris?1concrete?$CFi?4wav@
CONST	SEGMENT
??_C@_0BG@HDCPKBJB@debris?1concrete?$CFi?4wav@ DB 'debris/concrete%i.wav', 00H ; `string'
CONST	ENDS
;	COMDAT ??_C@_02DKCKIIND@?$CFs@
CONST	SEGMENT
??_C@_02DKCKIIND@?$CFs@ DB '%s', 00H			; `string'
CONST	ENDS
;	COMDAT ??_C@_0BC@IGHOLFCC@debris?1wood?$CFi?4wav@
CONST	SEGMENT
??_C@_0BC@IGHOLFCC@debris?1wood?$CFi?4wav@ DB 'debris/wood%i.wav', 00H ; `string'
CONST	ENDS
;	COMDAT ??_C@_0BD@HCJHLCL@debris?1flesh?$CFi?4wav@
CONST	SEGMENT
??_C@_0BD@HCJHLCL@debris?1flesh?$CFi?4wav@ DB 'debris/flesh%i.wav', 00H ; `string'
CONST	ENDS
;	COMDAT ??_C@_0BD@MDOGGPHL@debris?1metal?$CFi?4wav@
CONST	SEGMENT
??_C@_0BD@MDOGGPHL@debris?1metal?$CFi?4wav@ DB 'debris/metal%i.wav', 00H ; `string'
CONST	ENDS
;	COMDAT ??_C@_0BD@LELGLKED@debris?1glass?$CFi?4wav@
CONST	SEGMENT
??_C@_0BD@LELGLKED@debris?1glass?$CFi?4wav@ DB 'debris/glass%i.wav', 00H ; `string'
CONST	ENDS
;	COMDAT ??_C@_0O@JHIJGBPP@pTemp?5?$CB?$DN?5NULL@
CONST	SEGMENT
??_C@_0O@JHIJGBPP@pTemp?5?$CB?$DN?5NULL@ DB 'pTemp != NULL', 00H ; `string'
CONST	ENDS
;	COMDAT ?__LINE__Var@?0??CL_TempEntPlaySound@@9@9
_DATA	SEGMENT
?__LINE__Var@?0??CL_TempEntPlaySound@@9@9 DD 01aaH	; `CL_TempEntPlaySound'::`1'::__LINE__Var
_DATA	ENDS
;	COMDAT ?__LINE__Var@?0??CL_FreeTempEnts@@9@9
_DATA	SEGMENT
?__LINE__Var@?0??CL_FreeTempEnts@@9@9 DD 016dH		; `CL_FreeTempEnts'::`1'::__LINE__Var
_DATA	ENDS
;	COMDAT ?__LINE__Var@?0??CL_InitTempEnts@@9@9
_DATA	SEGMENT
?__LINE__Var@?0??CL_InitTempEnts@@9@9 DD 0147H		; `CL_InitTempEnts'::`1'::__LINE__Var
_DATA	ENDS
;	COMDAT ??_C@_04HDOCAJNK@?$CFs?$CFs@
CONST	SEGMENT
??_C@_04HDOCAJNK@?$CFs?$CFs@ DB '%s%s', 00H		; `string'
CONST	ENDS
;	COMDAT ??_C@_06PBLIODKG@sound?1@
CONST	SEGMENT
??_C@_06PBLIODKG@sound?1@ DB 'sound/', 00H		; `string'
CONST	ENDS
;	COMDAT ??_C@_0DE@EPAHEIKG@D?3?2DevDragon?2XashFE?2dev?2src?2eng@
CONST	SEGMENT
??_C@_0DE@EPAHEIKG@D?3?2DevDragon?2XashFE?2dev?2src?2eng@ DB 'D:\DevDrago'
	DB	'n\XashFE\dev\src\engine\client\cl_tent.c', 00H ; `string'
CONST	ENDS
;	COMDAT ?__LINE__Var@?0??CL_AddClientResource@@9@9
_DATA	SEGMENT
?__LINE__Var@?0??CL_AddClientResource@@9@9 DD 076H	; `CL_AddClientResource'::`1'::__LINE__Var
_DATA	ENDS
;	COMDAT voltbl
voltbl	SEGMENT
_volmd	DW	0dH
	DW	03acH
voltbl	ENDS
;	COMDAT voltbl
voltbl	SEGMENT
_volmd	DW	0dH
	DW	036aH
voltbl	ENDS
;	COMDAT voltbl
voltbl	SEGMENT
_volmd	DW	0dH
	DW	0459H
voltbl	ENDS
;	COMDAT voltbl
voltbl	SEGMENT
_volmd	DW	0dH
	DW	0527H
voltbl	ENDS
;	COMDAT voltbl
voltbl	SEGMENT
_volmd	DW	010H
	DW	05cfH
voltbl	ENDS
;	COMDAT voltbl
voltbl	SEGMENT
_volmd	DB	0dH
	DB	0b5H
voltbl	ENDS
;	COMDAT voltbl
voltbl	SEGMENT
_volmd	DW	0dH
	DW	05deH
voltbl	ENDS
;	COMDAT voltbl
voltbl	SEGMENT
_volmd	DW	0dH
	DW	035fH
voltbl	ENDS
;	COMDAT voltbl
voltbl	SEGMENT
_volmd	DW	010H
	DW	03bdH
voltbl	ENDS
;	COMDAT voltbl
voltbl	SEGMENT
_volmd	DW	0dH
	DW	02b6H
voltbl	ENDS
;	COMDAT voltbl
voltbl	SEGMENT
_volmd	DW	0dH
	DW	0513H
voltbl	ENDS
;	COMDAT voltbl
voltbl	SEGMENT
_volmd	DW	010H
	DW	0613H
voltbl	ENDS
;	COMDAT voltbl
voltbl	SEGMENT
_volmd	DW	0dH
	DW	052dH
voltbl	ENDS
;	COMDAT voltbl
voltbl	SEGMENT
_volmd	DW	0dH
	DW	056eH
voltbl	ENDS
;	COMDAT voltbl
voltbl	SEGMENT
_volmd	DW	0dH
	DW	01deH
voltbl	ENDS
;	COMDAT voltbl
voltbl	SEGMENT
_volmd	DW	0dH
	DW	0301H
voltbl	ENDS
;	COMDAT voltbl
voltbl	SEGMENT
_volmd	DW	0dH
	DW	02bdH
voltbl	ENDS
;	COMDAT voltbl
voltbl	SEGMENT
_volmd	DW	010H
	DW	0375H
voltbl	ENDS
;	COMDAT voltbl
voltbl	SEGMENT
_volmd	DW	0dH
	DW	0771H
voltbl	ENDS
;	COMDAT voltbl
voltbl	SEGMENT
_volmd	DW	010H
	DW	01a4H
voltbl	ENDS
;	COMDAT voltbl
voltbl	SEGMENT
_volmd	DW	010H
	DW	026b3H
voltbl	ENDS
; Function compile flags: /Odtp /ZI
; File D:\DevDragon\XashFE\dev\src\engine\client\cl_tent.c
;	COMDAT _CL_ClearDlights
_TEXT	SEGMENT
_CL_ClearDlights PROC					; COMDAT

; 2594 : {

	push	ebp
	mov	ebp, esp
	sub	esp, 64					; 00000040H
	push	ebx
	push	esi
	push	edi

; 2595 : 	memset( cl_dlights, 0, sizeof( cl_dlights ));

	push	1280					; 00000500H
	push	0
	push	OFFSET _cl_dlights
	call	_memset
	add	esp, 12					; 0000000cH

; 2596 : 	memset( cl_elights, 0, sizeof( cl_elights ));

	push	2560					; 00000a00H
	push	0
	push	OFFSET _cl_elights
	call	_memset
	add	esp, 12					; 0000000cH

; 2597 : }

	pop	edi
	pop	esi
	pop	ebx
	mov	esp, ebp
	pop	ebp
	ret	0
_CL_ClearDlights ENDP
_TEXT	ENDS
; Function compile flags: /Odtp /ZI
; File D:\DevDragon\XashFE\dev\src\engine\client\cl_tent.c
;	COMDAT _CL_ClearLightStyles
_TEXT	SEGMENT
_CL_ClearLightStyles PROC				; COMDAT

; 2536 : {

	push	ebp
	mov	ebp, esp
	sub	esp, 64					; 00000040H
	push	ebx
	push	esi
	push	edi

; 2537 : 	memset( cl.lightstyles, 0, sizeof( cl.lightstyles ));

	push	82944					; 00014400H
	push	0
	push	OFFSET _cl+2897300
	call	_memset
	add	esp, 12					; 0000000cH

; 2538 : }

	pop	edi
	pop	esi
	pop	ebx
	mov	esp, ebp
	pop	ebp
	ret	0
_CL_ClearLightStyles ENDP
_TEXT	ENDS
; Function compile flags: /Odtp /ZI
; File D:\DevDragon\XashFE\dev\src\engine\client\cl_tent.c
;	COMDAT _CL_FreeLowPriorityTempEnt
_TEXT	SEGMENT
_pPrev$ = -8						; size = 4
_pActive$ = -4						; size = 4
_CL_FreeLowPriorityTempEnt PROC				; COMDAT

; 563  : {

	push	ebp
	mov	ebp, esp
	sub	esp, 72					; 00000048H
	push	ebx
	push	esi
	push	edi

; 564  : 	TEMPENTITY	*pActive = cl_active_tents;

	mov	eax, DWORD PTR _cl_active_tents
	mov	DWORD PTR _pActive$[ebp], eax

; 565  : 	TEMPENTITY	*pPrev = NULL;

	mov	DWORD PTR _pPrev$[ebp], 0
$LN2@CL_FreeLow:

; 566  : 
; 567  : 	while( pActive )

	cmp	DWORD PTR _pActive$[ebp], 0
	je	SHORT $LN3@CL_FreeLow

; 568  : 	{
; 569  : 		if( pActive->priority == TENTPRIORITY_LOW )

	mov	eax, DWORD PTR _pActive$[ebp]
	cmp	DWORD PTR [eax+48], 0
	jne	SHORT $LN4@CL_FreeLow

; 570  : 		{
; 571  : 			// remove from the active list.
; 572  : 			if( pPrev ) pPrev->next = pActive->next;

	cmp	DWORD PTR _pPrev$[ebp], 0
	je	SHORT $LN5@CL_FreeLow
	mov	eax, DWORD PTR _pPrev$[ebp]
	mov	ecx, DWORD PTR _pActive$[ebp]
	mov	edx, DWORD PTR [ecx+44]
	mov	DWORD PTR [eax+44], edx
	jmp	SHORT $LN6@CL_FreeLow
$LN5@CL_FreeLow:

; 573  : 			else cl_active_tents = pActive->next;

	mov	eax, DWORD PTR _pActive$[ebp]
	mov	ecx, DWORD PTR [eax+44]
	mov	DWORD PTR _cl_active_tents, ecx
$LN6@CL_FreeLow:

; 574  : 
; 575  : 			// add to the free list.
; 576  : 			pActive->next = cl_free_tents;

	mov	eax, DWORD PTR _pActive$[ebp]
	mov	ecx, DWORD PTR _cl_free_tents
	mov	DWORD PTR [eax+44], ecx

; 577  : 			cl_free_tents = pActive;

	mov	eax, DWORD PTR _pActive$[ebp]
	mov	DWORD PTR _cl_free_tents, eax

; 578  : 
; 579  : 			return true;

	mov	eax, 1
	jmp	SHORT $LN1@CL_FreeLow
$LN4@CL_FreeLow:

; 580  : 		}
; 581  : 
; 582  : 		pPrev = pActive;

	mov	eax, DWORD PTR _pActive$[ebp]
	mov	DWORD PTR _pPrev$[ebp], eax

; 583  : 		pActive = pActive->next;

	mov	eax, DWORD PTR _pActive$[ebp]
	mov	ecx, DWORD PTR [eax+44]
	mov	DWORD PTR _pActive$[ebp], ecx

; 584  : 	}

	jmp	SHORT $LN2@CL_FreeLow
$LN3@CL_FreeLow:

; 585  : 
; 586  : 	return false;

	xor	eax, eax
$LN1@CL_FreeLow:

; 587  : }

	pop	edi
	pop	esi
	pop	ebx
	mov	esp, ebp
	pop	ebp
	ret	0
_CL_FreeLowPriorityTempEnt ENDP
_TEXT	ENDS
; Function compile flags: /Odtp /ZI
; File D:\DevDragon\XashFE\dev\src\engine\client\cl_tent.c
;	COMDAT _CL_TempEntAddEntity
_TEXT	SEGMENT
tv165 = -96						; size = 4
tv135 = -96						; size = 4
tv70 = -96						; size = 4
_maxs$ = -28						; size = 12
_mins$ = -16						; size = 12
__$ArrayPad$ = -4					; size = 4
_pEntity$ = 8						; size = 4
_CL_TempEntAddEntity PROC				; COMDAT

; 510  : {

	push	ebp
	mov	ebp, esp
	sub	esp, 96					; 00000060H
	mov	eax, DWORD PTR ___security_cookie
	xor	eax, ebp
	mov	DWORD PTR __$ArrayPad$[ebp], eax
	push	ebx
	push	esi
	push	edi

; 511  : 	vec3_t mins, maxs;
; 512  : 
; 513  : 	Assert( pEntity != NULL );

	cmp	DWORD PTR _pEntity$[ebp], 0
	je	SHORT $LN6@CL_TempEnt
	mov	DWORD PTR tv70[ebp], 1
	jmp	SHORT $LN7@CL_TempEnt
$LN6@CL_TempEnt:
	mov	DWORD PTR tv70[ebp], 0
$LN7@CL_TempEnt:
	push	0
	mov	eax, DWORD PTR ?__LINE__Var@?0??CL_TempEntAddEntity@@9@9
	add	eax, 3
	push	eax
	push	OFFSET ??_C@_0DE@EPAHEIKG@D?3?2DevDragon?2XashFE?2dev?2src?2eng@
	push	OFFSET ??_C@_0BA@LOGAJLJO@pEntity?5?$CB?$DN?5NULL@
	mov	ecx, DWORD PTR tv70[ebp]
	push	ecx
	call	_DBG_AssertFunction
	add	esp, 20					; 00000014H

; 514  : 
; 515  : 	if( !pEntity->model )

	mov	eax, DWORD PTR _pEntity$[ebp]
	cmp	DWORD PTR [eax+3300], 0
	jne	SHORT $LN2@CL_TempEnt

; 516  : 		return 0;

	xor	eax, eax
	jmp	$LN1@CL_TempEnt
$LN2@CL_TempEnt:

; 517  : 
; 518  : 	VectorAdd( pEntity->origin, pEntity->model->mins, mins );

	mov	eax, 4
	imul	ecx, eax, 0
	mov	edx, DWORD PTR _pEntity$[ebp]
	mov	eax, DWORD PTR [edx+3300]
	mov	edx, 4
	imul	edx, edx, 0
	mov	esi, DWORD PTR _pEntity$[ebp]
	movss	xmm0, DWORD PTR [esi+ecx+3224]
	addss	xmm0, DWORD PTR [eax+edx+84]
	mov	eax, 4
	imul	ecx, eax, 0
	movss	DWORD PTR _mins$[ebp+ecx], xmm0
	mov	edx, 4
	shl	edx, 0
	mov	eax, DWORD PTR _pEntity$[ebp]
	mov	ecx, DWORD PTR [eax+3300]
	mov	eax, 4
	shl	eax, 0
	mov	esi, DWORD PTR _pEntity$[ebp]
	movss	xmm0, DWORD PTR [esi+edx+3224]
	addss	xmm0, DWORD PTR [ecx+eax+84]
	mov	ecx, 4
	shl	ecx, 0
	movss	DWORD PTR _mins$[ebp+ecx], xmm0
	mov	edx, 4
	shl	edx, 1
	mov	eax, DWORD PTR _pEntity$[ebp]
	mov	ecx, DWORD PTR [eax+3300]
	mov	eax, 4
	shl	eax, 1
	mov	esi, DWORD PTR _pEntity$[ebp]
	movss	xmm0, DWORD PTR [esi+edx+3224]
	addss	xmm0, DWORD PTR [ecx+eax+84]
	movss	DWORD PTR tv135[ebp], xmm0
	mov	ecx, 4
	shl	ecx, 1
	movss	xmm0, DWORD PTR tv135[ebp]
	movss	DWORD PTR _mins$[ebp+ecx], xmm0

; 519  : 	VectorAdd( pEntity->origin, pEntity->model->maxs, maxs );

	mov	eax, 4
	imul	ecx, eax, 0
	mov	edx, DWORD PTR _pEntity$[ebp]
	mov	eax, DWORD PTR [edx+3300]
	mov	edx, 4
	imul	edx, edx, 0
	mov	esi, DWORD PTR _pEntity$[ebp]
	movss	xmm0, DWORD PTR [esi+ecx+3224]
	addss	xmm0, DWORD PTR [eax+edx+96]
	mov	eax, 4
	imul	ecx, eax, 0
	movss	DWORD PTR _maxs$[ebp+ecx], xmm0
	mov	edx, 4
	shl	edx, 0
	mov	eax, DWORD PTR _pEntity$[ebp]
	mov	ecx, DWORD PTR [eax+3300]
	mov	eax, 4
	shl	eax, 0
	mov	esi, DWORD PTR _pEntity$[ebp]
	movss	xmm0, DWORD PTR [esi+edx+3224]
	addss	xmm0, DWORD PTR [ecx+eax+96]
	mov	ecx, 4
	shl	ecx, 0
	movss	DWORD PTR _maxs$[ebp+ecx], xmm0
	mov	edx, 4
	shl	edx, 1
	mov	eax, DWORD PTR _pEntity$[ebp]
	mov	ecx, DWORD PTR [eax+3300]
	mov	eax, 4
	shl	eax, 1
	mov	esi, DWORD PTR _pEntity$[ebp]
	movss	xmm0, DWORD PTR [esi+edx+3224]
	addss	xmm0, DWORD PTR [ecx+eax+96]
	movss	DWORD PTR tv165[ebp], xmm0
	mov	ecx, 4
	shl	ecx, 1
	movss	xmm0, DWORD PTR tv165[ebp]
	movss	DWORD PTR _maxs$[ebp+ecx], xmm0

; 520  : 
; 521  : 	// g-cont. just use PVS from previous frame
; 522  : 	if( TriBoxInPVS( mins, maxs ))

	lea	eax, DWORD PTR _maxs$[ebp]
	push	eax
	lea	ecx, DWORD PTR _mins$[ebp]
	push	ecx
	call	_TriBoxInPVS
	add	esp, 8
	test	eax, eax
	je	$LN3@CL_TempEnt

; 523  : 	{
; 524  : 		VectorCopy( pEntity->angles, pEntity->curstate.angles );

	mov	eax, 4
	imul	ecx, eax, 0
	mov	edx, 4
	imul	eax, edx, 0
	mov	edx, DWORD PTR _pEntity$[ebp]
	mov	esi, DWORD PTR _pEntity$[ebp]
	mov	ecx, DWORD PTR [esi+ecx+3236]
	mov	DWORD PTR [edx+eax+940], ecx
	mov	edx, 4
	shl	edx, 0
	mov	eax, 4
	shl	eax, 0
	mov	ecx, DWORD PTR _pEntity$[ebp]
	mov	esi, DWORD PTR _pEntity$[ebp]
	mov	edx, DWORD PTR [esi+edx+3236]
	mov	DWORD PTR [ecx+eax+940], edx
	mov	eax, 4
	shl	eax, 1
	mov	ecx, 4
	shl	ecx, 1
	mov	edx, DWORD PTR _pEntity$[ebp]
	mov	esi, DWORD PTR _pEntity$[ebp]
	mov	eax, DWORD PTR [esi+eax+3236]
	mov	DWORD PTR [edx+ecx+940], eax

; 525  : 		VectorCopy( pEntity->origin, pEntity->curstate.origin );

	mov	eax, 4
	imul	ecx, eax, 0
	mov	edx, 4
	imul	eax, edx, 0
	mov	edx, DWORD PTR _pEntity$[ebp]
	mov	esi, DWORD PTR _pEntity$[ebp]
	mov	ecx, DWORD PTR [esi+ecx+3224]
	mov	DWORD PTR [edx+eax+928], ecx
	mov	edx, 4
	shl	edx, 0
	mov	eax, 4
	shl	eax, 0
	mov	ecx, DWORD PTR _pEntity$[ebp]
	mov	esi, DWORD PTR _pEntity$[ebp]
	mov	edx, DWORD PTR [esi+edx+3224]
	mov	DWORD PTR [ecx+eax+928], edx
	mov	eax, 4
	shl	eax, 1
	mov	ecx, 4
	shl	ecx, 1
	mov	edx, DWORD PTR _pEntity$[ebp]
	mov	esi, DWORD PTR _pEntity$[ebp]
	mov	eax, DWORD PTR [esi+eax+3224]
	mov	DWORD PTR [edx+ecx+928], eax

; 526  : 		VectorCopy( pEntity->angles, pEntity->latched.prevangles );

	mov	eax, 4
	imul	ecx, eax, 0
	mov	edx, 4
	imul	eax, edx, 0
	mov	edx, DWORD PTR _pEntity$[ebp]
	mov	esi, DWORD PTR _pEntity$[ebp]
	mov	ecx, DWORD PTR [esi+ecx+3236]
	mov	DWORD PTR [edx+eax+3192], ecx
	mov	edx, 4
	shl	edx, 0
	mov	eax, 4
	shl	eax, 0
	mov	ecx, DWORD PTR _pEntity$[ebp]
	mov	esi, DWORD PTR _pEntity$[ebp]
	mov	edx, DWORD PTR [esi+edx+3236]
	mov	DWORD PTR [ecx+eax+3192], edx
	mov	eax, 4
	shl	eax, 1
	mov	ecx, 4
	shl	ecx, 1
	mov	edx, DWORD PTR _pEntity$[ebp]
	mov	esi, DWORD PTR _pEntity$[ebp]
	mov	eax, DWORD PTR [esi+eax+3236]
	mov	DWORD PTR [edx+ecx+3192], eax

; 527  : 		VectorCopy( pEntity->origin, pEntity->latched.prevorigin );

	mov	eax, 4
	imul	ecx, eax, 0
	mov	edx, 4
	imul	eax, edx, 0
	mov	edx, DWORD PTR _pEntity$[ebp]
	mov	esi, DWORD PTR _pEntity$[ebp]
	mov	ecx, DWORD PTR [esi+ecx+3224]
	mov	DWORD PTR [edx+eax+3180], ecx
	mov	edx, 4
	shl	edx, 0
	mov	eax, 4
	shl	eax, 0
	mov	ecx, DWORD PTR _pEntity$[ebp]
	mov	esi, DWORD PTR _pEntity$[ebp]
	mov	edx, DWORD PTR [esi+edx+3224]
	mov	DWORD PTR [ecx+eax+3180], edx
	mov	eax, 4
	shl	eax, 1
	mov	ecx, 4
	shl	ecx, 1
	mov	edx, DWORD PTR _pEntity$[ebp]
	mov	esi, DWORD PTR _pEntity$[ebp]
	mov	eax, DWORD PTR [esi+eax+3224]
	mov	DWORD PTR [edx+ecx+3180], eax

; 528  : 	
; 529  : 		// add to list
; 530  : 		if( CL_AddVisibleEntity( pEntity, ET_TEMPENTITY ))

	push	2
	mov	eax, DWORD PTR _pEntity$[ebp]
	push	eax
	call	_CL_AddVisibleEntity
	add	esp, 8
	test	eax, eax
	je	SHORT $LN4@CL_TempEnt

; 531  : 			r_stats.c_active_tents_count++;

	mov	eax, DWORD PTR _r_stats+24
	add	eax, 1
	mov	DWORD PTR _r_stats+24, eax
$LN4@CL_TempEnt:

; 532  : 
; 533  : 		return 1;

	mov	eax, 1
	jmp	SHORT $LN1@CL_TempEnt
$LN3@CL_TempEnt:

; 534  : 	}
; 535  : 
; 536  : 	return 0;

	xor	eax, eax
$LN1@CL_TempEnt:

; 537  : }

	pop	edi
	pop	esi
	pop	ebx
	mov	ecx, DWORD PTR __$ArrayPad$[ebp]
	xor	ecx, ebp
	call	@__security_check_cookie@4
	mov	esp, ebp
	pop	ebp
	ret	0
_CL_TempEntAddEntity ENDP
_TEXT	ENDS
; Function compile flags: /Odtp /ZI
; File D:\DevDragon\XashFE\dev\src\engine\client\cl_tent.c
;	COMDAT _CL_TempEntPlaySound
_TEXT	SEGMENT
tv208 = -124						; size = 4
tv197 = -124						; size = 4
tv73 = -124						; size = 4
tv70 = -124						; size = 4
_handle$1 = -56						; size = 4
_pitch$2 = -52						; size = 4
_zvel$ = -48						; size = 4
_isshellcasing$ = -44					; size = 4
_soundname$ = -40					; size = 32
_fvol$ = -8						; size = 4
__$ArrayPad$ = -4					; size = 4
_pTemp$ = 8						; size = 4
_damp$ = 12						; size = 4
_CL_TempEntPlaySound PROC				; COMDAT

; 426  : {

	push	ebp
	mov	ebp, esp
	sub	esp, 124				; 0000007cH
	mov	eax, DWORD PTR ___security_cookie
	xor	eax, ebp
	mov	DWORD PTR __$ArrayPad$[ebp], eax
	push	ebx
	push	esi
	push	edi

; 427  : 	float	fvol;
; 428  : 	char	soundname[32];
; 429  : 	qboolean	isshellcasing = false;

	mov	DWORD PTR _isshellcasing$[ebp], 0

; 430  : 	int	zvel;
; 431  : 
; 432  : 	Assert( pTemp != NULL );

	cmp	DWORD PTR _pTemp$[ebp], 0
	je	SHORT $LN23@CL_TempEnt
	mov	DWORD PTR tv70[ebp], 1
	jmp	SHORT $LN24@CL_TempEnt
$LN23@CL_TempEnt:
	mov	DWORD PTR tv70[ebp], 0
$LN24@CL_TempEnt:
	push	0
	mov	eax, DWORD PTR ?__LINE__Var@?0??CL_TempEntPlaySound@@9@9
	add	eax, 6
	push	eax
	push	OFFSET ??_C@_0DE@EPAHEIKG@D?3?2DevDragon?2XashFE?2dev?2src?2eng@
	push	OFFSET ??_C@_0O@JHIJGBPP@pTemp?5?$CB?$DN?5NULL@
	mov	ecx, DWORD PTR tv70[ebp]
	push	ecx
	call	_DBG_AssertFunction
	add	esp, 20					; 00000014H

; 433  : 
; 434  : 	fvol = 0.8f;

	movss	xmm0, DWORD PTR __real@3f4ccccd
	movss	DWORD PTR _fvol$[ebp], xmm0

; 435  : 
; 436  : 	switch( pTemp->hitSound )

	mov	eax, DWORD PTR _pTemp$[ebp]
	mov	ecx, DWORD PTR [eax+32]
	mov	DWORD PTR tv73[ebp], ecx
	mov	edx, DWORD PTR tv73[ebp]
	sub	edx, 1
	mov	DWORD PTR tv73[ebp], edx
	cmp	DWORD PTR tv73[ebp], 127		; 0000007fH
	ja	$LN12@CL_TempEnt
	mov	eax, DWORD PTR tv73[ebp]
	movzx	ecx, BYTE PTR $LN29@CL_TempEnt[eax]
	jmp	DWORD PTR $LN30@CL_TempEnt[ecx*4]
$LN4@CL_TempEnt:

; 437  : 	{
; 438  : 	case BOUNCE_GLASS:
; 439  : 		Q_snprintf( soundname, sizeof( soundname ), "debris/glass%i.wav", COM_RandomLong( 1, 4 ));

	push	4
	push	1
	call	_COM_RandomLong
	add	esp, 8
	push	eax
	push	OFFSET ??_C@_0BD@LELGLKED@debris?1glass?$CFi?4wav@
	push	32					; 00000020H
	lea	eax, DWORD PTR _soundname$[ebp]
	push	eax
	call	_Q_snprintf
	add	esp, 16					; 00000010H

; 440  : 		break;

	jmp	$LN2@CL_TempEnt
$LN5@CL_TempEnt:

; 441  : 	case BOUNCE_METAL:
; 442  : 		Q_snprintf( soundname, sizeof( soundname ), "debris/metal%i.wav", COM_RandomLong( 1, 6 ));

	push	6
	push	1
	call	_COM_RandomLong
	add	esp, 8
	push	eax
	push	OFFSET ??_C@_0BD@MDOGGPHL@debris?1metal?$CFi?4wav@
	push	32					; 00000020H
	lea	eax, DWORD PTR _soundname$[ebp]
	push	eax
	call	_Q_snprintf
	add	esp, 16					; 00000010H

; 443  : 		break;

	jmp	$LN2@CL_TempEnt
$LN6@CL_TempEnt:

; 444  : 	case BOUNCE_FLESH:
; 445  : 		Q_snprintf( soundname, sizeof( soundname ), "debris/flesh%i.wav", COM_RandomLong( 1, 7 ));

	push	7
	push	1
	call	_COM_RandomLong
	add	esp, 8
	push	eax
	push	OFFSET ??_C@_0BD@HCJHLCL@debris?1flesh?$CFi?4wav@
	push	32					; 00000020H
	lea	eax, DWORD PTR _soundname$[ebp]
	push	eax
	call	_Q_snprintf
	add	esp, 16					; 00000010H

; 446  : 		break;

	jmp	$LN2@CL_TempEnt
$LN7@CL_TempEnt:

; 447  : 	case BOUNCE_WOOD:
; 448  : 		Q_snprintf( soundname, sizeof( soundname ), "debris/wood%i.wav", COM_RandomLong( 1, 4 ));

	push	4
	push	1
	call	_COM_RandomLong
	add	esp, 8
	push	eax
	push	OFFSET ??_C@_0BC@IGHOLFCC@debris?1wood?$CFi?4wav@
	push	32					; 00000020H
	lea	eax, DWORD PTR _soundname$[ebp]
	push	eax
	call	_Q_snprintf
	add	esp, 16					; 00000010H

; 449  : 		break;

	jmp	$LN2@CL_TempEnt
$LN8@CL_TempEnt:

; 450  : 	case BOUNCE_SHRAP:
; 451  : 		Q_snprintf( soundname, sizeof( soundname ), "%s", cl_ricochet_sounds[COM_RandomLong( 0, 4 )] );

	push	4
	push	0
	call	_COM_RandomLong
	add	esp, 8
	mov	eax, DWORD PTR _cl_ricochet_sounds[eax*4]
	push	eax
	push	OFFSET ??_C@_02DKCKIIND@?$CFs@
	push	32					; 00000020H
	lea	ecx, DWORD PTR _soundname$[ebp]
	push	ecx
	call	_Q_snprintf
	add	esp, 16					; 00000010H

; 452  : 		break;

	jmp	$LN2@CL_TempEnt
$LN9@CL_TempEnt:

; 453  : 	case BOUNCE_SHOTSHELL:
; 454  : 		Q_snprintf( soundname, sizeof( soundname ), "%s", cl_weapon_shell_sounds[COM_RandomLong( 0, 2 )] );

	push	2
	push	0
	call	_COM_RandomLong
	add	esp, 8
	mov	eax, DWORD PTR _cl_weapon_shell_sounds[eax*4]
	push	eax
	push	OFFSET ??_C@_02DKCKIIND@?$CFs@
	push	32					; 00000020H
	lea	ecx, DWORD PTR _soundname$[ebp]
	push	ecx
	call	_Q_snprintf
	add	esp, 16					; 00000010H

; 455  : 		isshellcasing = true; // shell casings have different playback parameters

	mov	DWORD PTR _isshellcasing$[ebp], 1

; 456  : 		fvol = 0.5f;

	movss	xmm0, DWORD PTR __real@3f000000
	movss	DWORD PTR _fvol$[ebp], xmm0

; 457  : 		break;

	jmp	SHORT $LN2@CL_TempEnt
$LN10@CL_TempEnt:

; 458  : 	case BOUNCE_SHELL:
; 459  : 		Q_snprintf( soundname, sizeof( soundname ), "%s", cl_player_shell_sounds[COM_RandomLong( 0, 2 )] );

	push	2
	push	0
	call	_COM_RandomLong
	add	esp, 8
	mov	eax, DWORD PTR _cl_player_shell_sounds[eax*4]
	push	eax
	push	OFFSET ??_C@_02DKCKIIND@?$CFs@
	push	32					; 00000020H
	lea	ecx, DWORD PTR _soundname$[ebp]
	push	ecx
	call	_Q_snprintf
	add	esp, 16					; 00000010H

; 460  : 		isshellcasing = true; // shell casings have different playback parameters

	mov	DWORD PTR _isshellcasing$[ebp], 1

; 461  : 		break;

	jmp	SHORT $LN2@CL_TempEnt
$LN11@CL_TempEnt:

; 462  : 	case BOUNCE_CONCRETE:
; 463  : 		Q_snprintf( soundname, sizeof( soundname ), "debris/concrete%i.wav", COM_RandomLong( 1, 3 ));

	push	3
	push	1
	call	_COM_RandomLong
	add	esp, 8
	push	eax
	push	OFFSET ??_C@_0BG@HDCPKBJB@debris?1concrete?$CFi?4wav@
	push	32					; 00000020H
	lea	eax, DWORD PTR _soundname$[ebp]
	push	eax
	call	_Q_snprintf
	add	esp, 16					; 00000010H

; 464  : 		break;

	jmp	SHORT $LN2@CL_TempEnt
$LN12@CL_TempEnt:

; 465  : 	default:	// null sound
; 466  : 		return;

	jmp	$LN17@CL_TempEnt
$LN2@CL_TempEnt:

; 467  : 	}
; 468  : 
; 469  : 	zvel = abs( pTemp->entity.baseline.origin[2] );

	mov	eax, 4
	shl	eax, 1
	mov	ecx, DWORD PTR _pTemp$[ebp]
	cvttss2si edx, DWORD PTR [ecx+eax+92]
	push	edx
	call	_abs
	add	esp, 4
	mov	DWORD PTR _zvel$[ebp], eax

; 470  : 		
; 471  : 	// only play one out of every n
; 472  : 	if( isshellcasing )

	cmp	DWORD PTR _isshellcasing$[ebp], 0
	je	SHORT $LN13@CL_TempEnt

; 473  : 	{	
; 474  : 		// play first bounce, then 1 out of 3		
; 475  : 		if( zvel < 200 && COM_RandomLong( 0, 3 ))

	cmp	DWORD PTR _zvel$[ebp], 200		; 000000c8H
	jge	SHORT $LN15@CL_TempEnt
	push	3
	push	0
	call	_COM_RandomLong
	add	esp, 8
	test	eax, eax
	je	SHORT $LN15@CL_TempEnt

; 476  : 			return;

	jmp	$LN17@CL_TempEnt
$LN15@CL_TempEnt:

; 477  : 	}

	jmp	SHORT $LN16@CL_TempEnt
$LN13@CL_TempEnt:

; 478  : 	else
; 479  : 	{
; 480  : 		if( COM_RandomLong( 0, 5 )) 

	push	5
	push	0
	call	_COM_RandomLong
	add	esp, 8
	test	eax, eax
	je	SHORT $LN16@CL_TempEnt

; 481  : 			return;

	jmp	$LN17@CL_TempEnt
$LN16@CL_TempEnt:

; 482  : 	}
; 483  : 
; 484  : 	if( damp > 0.0f )

	movss	xmm0, DWORD PTR _damp$[ebp]
	comiss	xmm0, DWORD PTR __real@00000000
	jbe	$LN17@CL_TempEnt

; 485  : 	{
; 486  : 		int	pitch;
; 487  : 		sound_t	handle;
; 488  : 		
; 489  : 		if( isshellcasing )

	cmp	DWORD PTR _isshellcasing$[ebp], 0
	je	SHORT $LN18@CL_TempEnt

; 490  : 			fvol *= min ( 1.0f, ((float)zvel) / 350.0f ); 

	cvtsi2ss xmm0, DWORD PTR _zvel$[ebp]
	divss	xmm0, DWORD PTR __real@43af0000
	comiss	xmm0, DWORD PTR __real@3f800000
	jbe	SHORT $LN25@CL_TempEnt
	movss	xmm0, DWORD PTR __real@3f800000
	movss	DWORD PTR tv197[ebp], xmm0
	jmp	SHORT $LN26@CL_TempEnt
$LN25@CL_TempEnt:
	cvtsi2ss xmm0, DWORD PTR _zvel$[ebp]
	divss	xmm0, DWORD PTR __real@43af0000
	movss	DWORD PTR tv197[ebp], xmm0
$LN26@CL_TempEnt:
	movss	xmm0, DWORD PTR _fvol$[ebp]
	mulss	xmm0, DWORD PTR tv197[ebp]
	movss	DWORD PTR _fvol$[ebp], xmm0
	jmp	SHORT $LN19@CL_TempEnt
$LN18@CL_TempEnt:

; 491  : 		else fvol *= min ( 1.0f, ((float)zvel) / 450.0f ); 

	cvtsi2ss xmm0, DWORD PTR _zvel$[ebp]
	divss	xmm0, DWORD PTR __real@43e10000
	comiss	xmm0, DWORD PTR __real@3f800000
	jbe	SHORT $LN27@CL_TempEnt
	movss	xmm0, DWORD PTR __real@3f800000
	movss	DWORD PTR tv208[ebp], xmm0
	jmp	SHORT $LN28@CL_TempEnt
$LN27@CL_TempEnt:
	cvtsi2ss xmm0, DWORD PTR _zvel$[ebp]
	divss	xmm0, DWORD PTR __real@43e10000
	movss	DWORD PTR tv208[ebp], xmm0
$LN28@CL_TempEnt:
	movss	xmm0, DWORD PTR _fvol$[ebp]
	mulss	xmm0, DWORD PTR tv208[ebp]
	movss	DWORD PTR _fvol$[ebp], xmm0
$LN19@CL_TempEnt:

; 492  : 		
; 493  : 		if( !COM_RandomLong( 0, 3 ) && !isshellcasing )

	push	3
	push	0
	call	_COM_RandomLong
	add	esp, 8
	test	eax, eax
	jne	SHORT $LN20@CL_TempEnt
	cmp	DWORD PTR _isshellcasing$[ebp], 0
	jne	SHORT $LN20@CL_TempEnt

; 494  : 			pitch = COM_RandomLong( 95, 105 );

	push	105					; 00000069H
	push	95					; 0000005fH
	call	_COM_RandomLong
	add	esp, 8
	mov	DWORD PTR _pitch$2[ebp], eax
	jmp	SHORT $LN21@CL_TempEnt
$LN20@CL_TempEnt:

; 495  : 		else pitch = PITCH_NORM;

	mov	DWORD PTR _pitch$2[ebp], 100		; 00000064H
$LN21@CL_TempEnt:

; 496  : 
; 497  : 		handle = S_RegisterSound( soundname );

	lea	eax, DWORD PTR _soundname$[ebp]
	push	eax
	call	_S_RegisterSound
	add	esp, 4
	mov	DWORD PTR _handle$1[ebp], eax

; 498  : 		S_StartSound( pTemp->entity.origin, -(pTemp - cl_tempents), CHAN_BODY, handle, fvol, ATTN_NORM, pitch, SND_STOP_LOOPING );

	push	1024					; 00000400H
	mov	eax, DWORD PTR _pitch$2[ebp]
	push	eax
	push	ecx
	movss	xmm0, DWORD PTR __real@3f4ccccd
	movss	DWORD PTR [esp], xmm0
	push	ecx
	movss	xmm0, DWORD PTR _fvol$[ebp]
	movss	DWORD PTR [esp], xmm0
	mov	ecx, DWORD PTR _handle$1[ebp]
	push	ecx
	push	4
	mov	eax, DWORD PTR _pTemp$[ebp]
	sub	eax, DWORD PTR _cl_tempents
	cdq
	mov	ecx, 3404				; 00000d4cH
	idiv	ecx
	neg	eax
	push	eax
	mov	edx, DWORD PTR _pTemp$[ebp]
	add	edx, 3292				; 00000cdcH
	push	edx
	call	_S_StartSound
	add	esp, 32					; 00000020H
$LN17@CL_TempEnt:

; 499  : 	}
; 500  : }

	pop	edi
	pop	esi
	pop	ebx
	mov	ecx, DWORD PTR __$ArrayPad$[ebp]
	xor	ecx, ebp
	call	@__security_check_cookie@4
	mov	esp, ebp
	pop	ebp
	ret	0
$LN30@CL_TempEnt:
	DD	$LN4@CL_TempEnt
	DD	$LN5@CL_TempEnt
	DD	$LN6@CL_TempEnt
	DD	$LN7@CL_TempEnt
	DD	$LN8@CL_TempEnt
	DD	$LN10@CL_TempEnt
	DD	$LN11@CL_TempEnt
	DD	$LN9@CL_TempEnt
	DD	$LN12@CL_TempEnt
$LN29@CL_TempEnt:
	DB	0
	DB	1
	DB	8
	DB	2
	DB	8
	DB	8
	DB	8
	DB	3
	DB	8
	DB	8
	DB	8
	DB	8
	DB	8
	DB	8
	DB	8
	DB	4
	DB	8
	DB	8
	DB	8
	DB	8
	DB	8
	DB	8
	DB	8
	DB	8
	DB	8
	DB	8
	DB	8
	DB	8
	DB	8
	DB	8
	DB	8
	DB	5
	DB	8
	DB	8
	DB	8
	DB	8
	DB	8
	DB	8
	DB	8
	DB	8
	DB	8
	DB	8
	DB	8
	DB	8
	DB	8
	DB	8
	DB	8
	DB	8
	DB	8
	DB	8
	DB	8
	DB	8
	DB	8
	DB	8
	DB	8
	DB	8
	DB	8
	DB	8
	DB	8
	DB	8
	DB	8
	DB	8
	DB	8
	DB	6
	DB	8
	DB	8
	DB	8
	DB	8
	DB	8
	DB	8
	DB	8
	DB	8
	DB	8
	DB	8
	DB	8
	DB	8
	DB	8
	DB	8
	DB	8
	DB	8
	DB	8
	DB	8
	DB	8
	DB	8
	DB	8
	DB	8
	DB	8
	DB	8
	DB	8
	DB	8
	DB	8
	DB	8
	DB	8
	DB	8
	DB	8
	DB	8
	DB	8
	DB	8
	DB	8
	DB	8
	DB	8
	DB	8
	DB	8
	DB	8
	DB	8
	DB	8
	DB	8
	DB	8
	DB	8
	DB	8
	DB	8
	DB	8
	DB	8
	DB	8
	DB	8
	DB	8
	DB	8
	DB	8
	DB	8
	DB	8
	DB	8
	DB	8
	DB	8
	DB	8
	DB	8
	DB	8
	DB	8
	DB	7
_CL_TempEntPlaySound ENDP
_TEXT	ENDS
; Function compile flags: /Odtp /ZI
; File D:\DevDragon\XashFE\dev\src\engine\client\cl_tent.c
;	COMDAT _CL_PrepareTEnt
_TEXT	SEGMENT
tv88 = -80						; size = 4
_modelHandle$ = -12					; size = 4
_modelIndex$ = -8					; size = 4
_frameCount$ = -4					; size = 4
_pTemp$ = 8						; size = 4
_pmodel$ = 12						; size = 4
_CL_PrepareTEnt PROC					; COMDAT

; 379  : {

	push	ebp
	mov	ebp, esp
	sub	esp, 80					; 00000050H
	push	ebx
	push	esi
	push	edi

; 380  : 	int	frameCount = 0;

	mov	DWORD PTR _frameCount$[ebp], 0

; 381  : 	int	modelIndex = 0;

	mov	DWORD PTR _modelIndex$[ebp], 0

; 382  : 	int	modelHandle = pTemp->entity.trivial_accept;

	mov	eax, DWORD PTR _pTemp$[ebp]
	mov	ecx, DWORD PTR [eax+3364]
	mov	DWORD PTR _modelHandle$[ebp], ecx

; 383  : 
; 384  : 	memset( pTemp, 0, sizeof( *pTemp ));

	push	3404					; 00000d4cH
	push	0
	mov	eax, DWORD PTR _pTemp$[ebp]
	push	eax
	call	_memset
	add	esp, 12					; 0000000cH

; 385  : 
; 386  : 	// use these to set per-frame and termination conditions / actions
; 387  : 	pTemp->entity.trivial_accept = modelHandle; // keep unchanged

	mov	eax, DWORD PTR _pTemp$[ebp]
	mov	ecx, DWORD PTR _modelHandle$[ebp]
	mov	DWORD PTR [eax+3364], ecx

; 388  : 	pTemp->flags = FTENT_NONE;		

	mov	eax, DWORD PTR _pTemp$[ebp]
	mov	DWORD PTR [eax], 0

; 389  : 	pTemp->die = cl.time + 0.75f;

	movsd	xmm0, QWORD PTR _cl+2167640
	addsd	xmm0, QWORD PTR __real@3fe8000000000000
	cvtsd2ss xmm0, xmm0
	mov	eax, DWORD PTR _pTemp$[ebp]
	movss	DWORD PTR [eax+4], xmm0

; 390  : 
; 391  : 	if( pmodel ) frameCount = pmodel->numframes;

	cmp	DWORD PTR _pmodel$[ebp], 0
	je	SHORT $LN2@CL_Prepare
	mov	eax, DWORD PTR _pmodel$[ebp]
	mov	ecx, DWORD PTR [eax+72]
	mov	DWORD PTR _frameCount$[ebp], ecx
	jmp	SHORT $LN3@CL_Prepare
$LN2@CL_Prepare:

; 392  : 	else pTemp->flags |= FTENT_NOMODEL;

	mov	eax, DWORD PTR _pTemp$[ebp]
	mov	ecx, DWORD PTR [eax]
	or	ecx, 262144				; 00040000H
	mov	edx, DWORD PTR _pTemp$[ebp]
	mov	DWORD PTR [edx], ecx
$LN3@CL_Prepare:

; 393  : 
; 394  : 	pTemp->entity.curstate.modelindex = modelIndex;

	mov	eax, DWORD PTR _pTemp$[ebp]
	mov	ecx, DWORD PTR _modelIndex$[ebp]
	mov	DWORD PTR [eax+1020], ecx

; 395  : 	pTemp->entity.curstate.rendermode = kRenderNormal;

	mov	eax, DWORD PTR _pTemp$[ebp]
	mov	DWORD PTR [eax+1052], 0

; 396  : 	pTemp->entity.curstate.renderfx = kRenderFxNone;

	mov	eax, DWORD PTR _pTemp$[ebp]
	mov	DWORD PTR [eax+1064], 0

; 397  : 	pTemp->entity.curstate.rendercolor.r = 255;

	mov	eax, DWORD PTR _pTemp$[ebp]
	mov	BYTE PTR [eax+1060], 255		; 000000ffH

; 398  : 	pTemp->entity.curstate.rendercolor.g = 255;

	mov	eax, DWORD PTR _pTemp$[ebp]
	mov	BYTE PTR [eax+1061], 255		; 000000ffH

; 399  : 	pTemp->entity.curstate.rendercolor.b = 255;

	mov	eax, DWORD PTR _pTemp$[ebp]
	mov	BYTE PTR [eax+1062], 255		; 000000ffH

; 400  : 	pTemp->frameMax = Q_max( 0, frameCount - 1 );

	mov	eax, DWORD PTR _frameCount$[ebp]
	sub	eax, 1
	jns	SHORT $LN5@CL_Prepare
	mov	DWORD PTR tv88[ebp], 0
	jmp	SHORT $LN6@CL_Prepare
$LN5@CL_Prepare:
	mov	ecx, DWORD PTR _frameCount$[ebp]
	sub	ecx, 1
	mov	DWORD PTR tv88[ebp], ecx
$LN6@CL_Prepare:
	cvtsi2ss xmm0, DWORD PTR tv88[ebp]
	mov	edx, DWORD PTR _pTemp$[ebp]
	movss	DWORD PTR [edx+8], xmm0

; 401  : 	pTemp->entity.curstate.renderamt = 255;

	mov	eax, DWORD PTR _pTemp$[ebp]
	mov	DWORD PTR [eax+1056], 255		; 000000ffH

; 402  : 	pTemp->entity.curstate.body = 0;

	mov	eax, DWORD PTR _pTemp$[ebp]
	mov	DWORD PTR [eax+1100], 0

; 403  : 	pTemp->entity.curstate.skin = 0;

	mov	eax, DWORD PTR _pTemp$[ebp]
	mov	DWORD PTR [eax+1116], 0

; 404  : 	pTemp->entity.curstate.viewmodelbody = 0;

	mov	eax, DWORD PTR _pTemp$[ebp]
	mov	DWORD PTR [eax+1104], 0

; 405  : 	pTemp->entity.curstate.armmodelbody = 0;

	mov	eax, DWORD PTR _pTemp$[ebp]
	mov	DWORD PTR [eax+1112], 0

; 406  : 	pTemp->entity.curstate.playmodelbody = 0;

	mov	eax, DWORD PTR _pTemp$[ebp]
	mov	DWORD PTR [eax+1108], 0

; 407  : 	pTemp->entity.curstate.viewmodelskin = 0;

	mov	eax, DWORD PTR _pTemp$[ebp]
	mov	DWORD PTR [eax+1120], 0

; 408  : 	pTemp->entity.curstate.armmodelskin = 0;

	mov	eax, DWORD PTR _pTemp$[ebp]
	mov	DWORD PTR [eax+1124], 0

; 409  : 	pTemp->entity.curstate.playmodelskin = 0;

	mov	eax, DWORD PTR _pTemp$[ebp]
	mov	DWORD PTR [eax+1128], 0

; 410  : 	pTemp->entity.model = pmodel;

	mov	eax, DWORD PTR _pTemp$[ebp]
	mov	ecx, DWORD PTR _pmodel$[ebp]
	mov	DWORD PTR [eax+3368], ecx

; 411  : 	pTemp->fadeSpeed = 0.5f;

	mov	eax, DWORD PTR _pTemp$[ebp]
	movss	xmm0, DWORD PTR __real@3f000000
	movss	DWORD PTR [eax+24], xmm0

; 412  : 	pTemp->hitSound = 0;

	mov	eax, DWORD PTR _pTemp$[ebp]
	mov	DWORD PTR [eax+32], 0

; 413  : 	pTemp->clientIndex = 0;

	xor	eax, eax
	mov	ecx, DWORD PTR _pTemp$[ebp]
	mov	WORD PTR [ecx+52], ax

; 414  : 	pTemp->bounceFactor = 1;

	mov	eax, DWORD PTR _pTemp$[ebp]
	movss	xmm0, DWORD PTR __real@3f800000
	movss	DWORD PTR [eax+28], xmm0

; 415  : 	pTemp->entity.curstate.scale = 1.0f;

	mov	eax, DWORD PTR _pTemp$[ebp]
	movss	xmm0, DWORD PTR __real@3f800000
	movss	DWORD PTR [eax+1044], xmm0

; 416  : }

	pop	edi
	pop	esi
	pop	ebx
	mov	esp, ebp
	pop	ebp
	ret	0
_CL_PrepareTEnt ENDP
_TEXT	ENDS
; Function compile flags: /Odtp /ZI
; File D:\DevDragon\XashFE\dev\src\engine\client\cl_tent.c
;	COMDAT _CL_DecalIndex
_TEXT	SEGMENT
tv67 = -72						; size = 4
tv66 = -68						; size = 4
_id$ = 8						; size = 4
_CL_DecalIndex PROC					; COMDAT

; 3067 : {

	push	ebp
	mov	ebp, esp
	sub	esp, 72					; 00000048H
	push	ebx
	push	esi
	push	edi

; 3068 : 	id = bound( 0, id, MAX_DECALS - 1 );

	cmp	DWORD PTR _id$[ebp], 0
	jl	SHORT $LN6@CL_DecalIn
	cmp	DWORD PTR _id$[ebp], 511		; 000001ffH
	jge	SHORT $LN4@CL_DecalIn
	mov	eax, DWORD PTR _id$[ebp]
	mov	DWORD PTR tv66[ebp], eax
	jmp	SHORT $LN5@CL_DecalIn
$LN4@CL_DecalIn:
	mov	DWORD PTR tv66[ebp], 511		; 000001ffH
$LN5@CL_DecalIn:
	mov	ecx, DWORD PTR tv66[ebp]
	mov	DWORD PTR tv67[ebp], ecx
	jmp	SHORT $LN7@CL_DecalIn
$LN6@CL_DecalIn:
	mov	DWORD PTR tv67[ebp], 0
$LN7@CL_DecalIn:
	mov	edx, DWORD PTR tv67[ebp]
	mov	DWORD PTR _id$[ebp], edx

; 3069 : 
; 3070 : 	if( cl.decal_index[id] == 0 )

	mov	eax, DWORD PTR _id$[ebp]
	movsx	ecx, WORD PTR _cl[eax*2+4577980]
	test	ecx, ecx
	jne	SHORT $LN2@CL_DecalIn

; 3071 : 	{
; 3072 : 		Image_SetForceFlags( IL_LOAD_DECAL );

	push	32					; 00000020H
	call	_Image_SetForceFlags
	add	esp, 4

; 3073 : 		cl.decal_index[id] = GL_LoadTexture( host.draw_decals[id], NULL, 0, TF_DECAL );

	push	2048					; 00000800H
	push	0
	push	0
	mov	eax, DWORD PTR _id$[ebp]
	shl	eax, 6
	add	eax, OFFSET _host+1468
	push	eax
	call	_GL_LoadTexture
	add	esp, 16					; 00000010H
	mov	ecx, DWORD PTR _id$[ebp]
	mov	WORD PTR _cl[ecx*2+4577980], ax

; 3074 : 		Image_ClearForceFlags();

	call	_Image_ClearForceFlags
$LN2@CL_DecalIn:

; 3075 : 	}
; 3076 : 
; 3077 : 	return cl.decal_index[id];

	mov	eax, DWORD PTR _id$[ebp]
	movsx	eax, WORD PTR _cl[eax*2+4577980]

; 3078 : }

	pop	edi
	pop	esi
	pop	ebx
	mov	esp, ebp
	pop	ebp
	ret	0
_CL_DecalIndex ENDP
_TEXT	ENDS
; Function compile flags: /Odtp /ZI
; File D:\DevDragon\XashFE\dev\src\engine\client\cl_tent.c
;	COMDAT _CL_DecalIndexFromName
_TEXT	SEGMENT
_i$ = -4						; size = 4
_name$ = 8						; size = 4
_CL_DecalIndexFromName PROC				; COMDAT

; 3044 : {

	push	ebp
	mov	ebp, esp
	sub	esp, 68					; 00000044H
	push	ebx
	push	esi
	push	edi

; 3045 : 	int	i;
; 3046 : 
; 3047 : 	if( !COM_CheckString( name ))

	mov	eax, DWORD PTR _name$[ebp]
	push	eax
	call	_COM_CheckString
	add	esp, 4
	test	eax, eax
	jne	SHORT $LN5@CL_DecalIn

; 3048 : 		return 0;

	xor	eax, eax
	jmp	SHORT $LN1@CL_DecalIn
$LN5@CL_DecalIn:

; 3049 : 
; 3050 : 	// look through the loaded sprite name list for SpriteName
; 3051 : 	for( i = 1; i < MAX_DECALS && host.draw_decals[i][0]; i++ )

	mov	DWORD PTR _i$[ebp], 1
	jmp	SHORT $LN4@CL_DecalIn
$LN2@CL_DecalIn:
	mov	eax, DWORD PTR _i$[ebp]
	add	eax, 1
	mov	DWORD PTR _i$[ebp], eax
$LN4@CL_DecalIn:
	cmp	DWORD PTR _i$[ebp], 512			; 00000200H
	jge	SHORT $LN3@CL_DecalIn
	mov	eax, DWORD PTR _i$[ebp]
	shl	eax, 6
	mov	ecx, 1
	imul	edx, ecx, 0
	movsx	eax, BYTE PTR _host[eax+edx+1468]
	test	eax, eax
	je	SHORT $LN3@CL_DecalIn

; 3052 : 	{
; 3053 : 		if( !Q_stricmp( name, host.draw_decals[i] ))

	push	99999					; 0001869fH
	mov	eax, DWORD PTR _i$[ebp]
	shl	eax, 6
	add	eax, OFFSET _host+1468
	push	eax
	mov	ecx, DWORD PTR _name$[ebp]
	push	ecx
	call	_Q_strnicmp
	add	esp, 12					; 0000000cH
	test	eax, eax
	jne	SHORT $LN6@CL_DecalIn

; 3054 : 			return i;

	mov	eax, DWORD PTR _i$[ebp]
	jmp	SHORT $LN1@CL_DecalIn
$LN6@CL_DecalIn:

; 3055 : 	}

	jmp	SHORT $LN2@CL_DecalIn
$LN3@CL_DecalIn:

; 3056 : 	return 0; // invalid decal

	xor	eax, eax
$LN1@CL_DecalIn:

; 3057 : }

	pop	edi
	pop	esi
	pop	ebx
	mov	esp, ebp
	pop	ebp
	ret	0
_CL_DecalIndexFromName ENDP
_TEXT	ENDS
; Function compile flags: /Odtp /ZI
; File D:\DevDragon\XashFE\dev\src\engine\client\cl_tent.c
;	COMDAT _CL_DecalRemoveAll
_TEXT	SEGMENT
tv67 = -76						; size = 4
tv66 = -72						; size = 4
_id$ = -4						; size = 4
_textureIndex$ = 8					; size = 4
_CL_DecalRemoveAll PROC					; COMDAT

; 3088 : {

	push	ebp
	mov	ebp, esp
	sub	esp, 76					; 0000004cH
	push	ebx
	push	esi
	push	edi

; 3089 : 	int id = bound( 0, textureIndex, MAX_DECALS - 1 );	

	cmp	DWORD PTR _textureIndex$[ebp], 0
	jl	SHORT $LN5@CL_DecalRe
	cmp	DWORD PTR _textureIndex$[ebp], 511	; 000001ffH
	jge	SHORT $LN3@CL_DecalRe
	mov	eax, DWORD PTR _textureIndex$[ebp]
	mov	DWORD PTR tv66[ebp], eax
	jmp	SHORT $LN4@CL_DecalRe
$LN3@CL_DecalRe:
	mov	DWORD PTR tv66[ebp], 511		; 000001ffH
$LN4@CL_DecalRe:
	mov	ecx, DWORD PTR tv66[ebp]
	mov	DWORD PTR tv67[ebp], ecx
	jmp	SHORT $LN6@CL_DecalRe
$LN5@CL_DecalRe:
	mov	DWORD PTR tv67[ebp], 0
$LN6@CL_DecalRe:
	mov	edx, DWORD PTR tv67[ebp]
	mov	DWORD PTR _id$[ebp], edx

; 3090 : 	R_DecalRemoveAll( cl.decal_index[id] );

	mov	eax, DWORD PTR _id$[ebp]
	movsx	ecx, WORD PTR _cl[eax*2+4577980]
	push	ecx
	call	_R_DecalRemoveAll
	add	esp, 4

; 3091 : }

	pop	edi
	pop	esi
	pop	ebx
	mov	esp, ebp
	pop	ebp
	ret	0
_CL_DecalRemoveAll ENDP
_TEXT	ENDS
; Function compile flags: /Odtp /ZI
; File D:\DevDragon\XashFE\dev\src\engine\client\cl_tent.c
;	COMDAT _CL_AddModelEffects
_TEXT	SEGMENT
tv257 = -100						; size = 4
tv68 = -100						; size = 4
_dl$1 = -32						; size = 4
_oldorigin$ = -28					; size = 12
_neworigin$ = -16					; size = 12
__$ArrayPad$ = -4					; size = 4
_ent$ = 8						; size = 4
_CL_AddModelEffects PROC				; COMDAT

; 2872 : {

	push	ebp
	mov	ebp, esp
	sub	esp, 100				; 00000064H
	mov	eax, DWORD PTR ___security_cookie
	xor	eax, ebp
	mov	DWORD PTR __$ArrayPad$[ebp], eax
	push	ebx
	push	esi
	push	edi

; 2873 : 	vec3_t	neworigin;
; 2874 : 	vec3_t	oldorigin;
; 2875 : 
; 2876 : 	if( !ent->model ) return;

	mov	eax, DWORD PTR _ent$[ebp]
	cmp	DWORD PTR [eax+3300], 0
	jne	SHORT $LN4@CL_AddMode
	jmp	$LN19@CL_AddMode
$LN4@CL_AddMode:

; 2877 : 
; 2878 : 	switch( ent->model->type )

	mov	eax, DWORD PTR _ent$[ebp]
	mov	ecx, DWORD PTR [eax+3300]
	mov	edx, DWORD PTR [ecx+68]
	mov	DWORD PTR tv68[ebp], edx
	cmp	DWORD PTR tv68[ebp], 2
	je	SHORT $LN5@CL_AddMode
	cmp	DWORD PTR tv68[ebp], 3
	je	SHORT $LN5@CL_AddMode
	jmp	SHORT $LN7@CL_AddMode
$LN5@CL_AddMode:

; 2879 : 	{
; 2880 : 	case mod_alias:
; 2881 : 	case mod_studio:
; 2882 : 		break;

	jmp	SHORT $LN2@CL_AddMode
$LN7@CL_AddMode:

; 2883 : 	default:	return;

	jmp	$LN19@CL_AddMode
$LN2@CL_AddMode:

; 2884 : 	}
; 2885 : 
; 2886 : 	if( cls.demoplayback == DEMO_QUAKE1 )

	cmp	DWORD PTR _cls+300828, 2
	jne	$LN8@CL_AddMode

; 2887 : 	{
; 2888 : 		VectorCopy( ent->baseline.vuser1, oldorigin );

	mov	eax, 4
	imul	ecx, eax, 0
	mov	edx, 4
	imul	eax, edx, 0
	mov	edx, DWORD PTR _ent$[ebp]
	mov	ecx, DWORD PTR [edx+ecx+412]
	mov	DWORD PTR _oldorigin$[ebp+eax], ecx
	mov	edx, 4
	shl	edx, 0
	mov	eax, 4
	shl	eax, 0
	mov	ecx, DWORD PTR _ent$[ebp]
	mov	edx, DWORD PTR [ecx+edx+412]
	mov	DWORD PTR _oldorigin$[ebp+eax], edx
	mov	eax, 4
	shl	eax, 1
	mov	ecx, 4
	shl	ecx, 1
	mov	edx, DWORD PTR _ent$[ebp]
	mov	eax, DWORD PTR [edx+eax+412]
	mov	DWORD PTR _oldorigin$[ebp+ecx], eax

; 2889 : 		VectorCopy( ent->origin, ent->baseline.vuser1 );

	mov	eax, 4
	imul	ecx, eax, 0
	mov	edx, 4
	imul	eax, edx, 0
	mov	edx, DWORD PTR _ent$[ebp]
	mov	esi, DWORD PTR _ent$[ebp]
	mov	ecx, DWORD PTR [esi+ecx+3224]
	mov	DWORD PTR [edx+eax+412], ecx
	mov	edx, 4
	shl	edx, 0
	mov	eax, 4
	shl	eax, 0
	mov	ecx, DWORD PTR _ent$[ebp]
	mov	esi, DWORD PTR _ent$[ebp]
	mov	edx, DWORD PTR [esi+edx+3224]
	mov	DWORD PTR [ecx+eax+412], edx
	mov	eax, 4
	shl	eax, 1
	mov	ecx, 4
	shl	ecx, 1
	mov	edx, DWORD PTR _ent$[ebp]
	mov	esi, DWORD PTR _ent$[ebp]
	mov	eax, DWORD PTR [esi+eax+3224]
	mov	DWORD PTR [edx+ecx+412], eax

; 2890 : 		VectorCopy( ent->origin, neworigin );

	mov	eax, 4
	imul	ecx, eax, 0
	mov	edx, 4
	imul	eax, edx, 0
	mov	edx, DWORD PTR _ent$[ebp]
	mov	ecx, DWORD PTR [edx+ecx+3224]
	mov	DWORD PTR _neworigin$[ebp+eax], ecx
	mov	edx, 4
	shl	edx, 0
	mov	eax, 4
	shl	eax, 0
	mov	ecx, DWORD PTR _ent$[ebp]
	mov	edx, DWORD PTR [ecx+edx+3224]
	mov	DWORD PTR _neworigin$[ebp+eax], edx
	mov	eax, 4
	shl	eax, 1
	mov	ecx, 4
	shl	ecx, 1
	mov	edx, DWORD PTR _ent$[ebp]
	mov	eax, DWORD PTR [edx+eax+3224]
	mov	DWORD PTR _neworigin$[ebp+ecx], eax

; 2891 : 	}

	jmp	$LN9@CL_AddMode
$LN8@CL_AddMode:

; 2892 : 	else
; 2893 : 	{
; 2894 : 		VectorCopy( ent->prevstate.origin, oldorigin );

	mov	eax, 4
	imul	ecx, eax, 0
	mov	edx, 4
	imul	eax, edx, 0
	mov	edx, DWORD PTR _ent$[ebp]
	mov	ecx, DWORD PTR [edx+ecx+476]
	mov	DWORD PTR _oldorigin$[ebp+eax], ecx
	mov	edx, 4
	shl	edx, 0
	mov	eax, 4
	shl	eax, 0
	mov	ecx, DWORD PTR _ent$[ebp]
	mov	edx, DWORD PTR [ecx+edx+476]
	mov	DWORD PTR _oldorigin$[ebp+eax], edx
	mov	eax, 4
	shl	eax, 1
	mov	ecx, 4
	shl	ecx, 1
	mov	edx, DWORD PTR _ent$[ebp]
	mov	eax, DWORD PTR [edx+eax+476]
	mov	DWORD PTR _oldorigin$[ebp+ecx], eax

; 2895 : 		VectorCopy( ent->curstate.origin, neworigin );

	mov	eax, 4
	imul	ecx, eax, 0
	mov	edx, 4
	imul	eax, edx, 0
	mov	edx, DWORD PTR _ent$[ebp]
	mov	ecx, DWORD PTR [edx+ecx+928]
	mov	DWORD PTR _neworigin$[ebp+eax], ecx
	mov	edx, 4
	shl	edx, 0
	mov	eax, 4
	shl	eax, 0
	mov	ecx, DWORD PTR _ent$[ebp]
	mov	edx, DWORD PTR [ecx+edx+928]
	mov	DWORD PTR _neworigin$[ebp+eax], edx
	mov	eax, 4
	shl	eax, 1
	mov	ecx, 4
	shl	ecx, 1
	mov	edx, DWORD PTR _ent$[ebp]
	mov	eax, DWORD PTR [edx+eax+928]
	mov	DWORD PTR _neworigin$[ebp+ecx], eax
$LN9@CL_AddMode:

; 2896 : 	}
; 2897 : 
; 2898 : 	// NOTE: this completely over control about angles and don't broke interpolation
; 2899 : 	if( FBitSet( ent->model->flags, STUDIO_ROTATE ))

	mov	eax, DWORD PTR _ent$[ebp]
	mov	ecx, DWORD PTR [eax+3300]
	mov	edx, DWORD PTR [ecx+80]
	and	edx, 8
	je	SHORT $LN10@CL_AddMode

; 2900 : 		ent->angles[1] = anglemod( 100.0f * cl.time );

	movsd	xmm0, QWORD PTR __real@4059000000000000
	mulsd	xmm0, QWORD PTR _cl+2167640
	cvtsd2ss xmm0, xmm0
	push	ecx
	movss	DWORD PTR [esp], xmm0
	call	_anglemod
	add	esp, 4
	mov	eax, 4
	shl	eax, 0
	mov	ecx, DWORD PTR _ent$[ebp]
	fstp	DWORD PTR [ecx+eax+3236]
$LN10@CL_AddMode:

; 2901 : 
; 2902 : 	if( FBitSet( ent->model->flags, STUDIO_GIB ))

	mov	eax, DWORD PTR _ent$[ebp]
	mov	ecx, DWORD PTR [eax+3300]
	mov	edx, DWORD PTR [ecx+80]
	and	edx, 4
	je	SHORT $LN11@CL_AddMode

; 2903 : 		R_RocketTrail( oldorigin, neworigin, 2 );

	push	2
	lea	eax, DWORD PTR _neworigin$[ebp]
	push	eax
	lea	ecx, DWORD PTR _oldorigin$[ebp]
	push	ecx
	call	_R_RocketTrail
	add	esp, 12					; 0000000cH
$LN11@CL_AddMode:

; 2904 : 
; 2905 : 	if( FBitSet( ent->model->flags, STUDIO_ZOMGIB ))

	mov	eax, DWORD PTR _ent$[ebp]
	mov	ecx, DWORD PTR [eax+3300]
	mov	edx, DWORD PTR [ecx+80]
	and	edx, 32					; 00000020H
	je	SHORT $LN12@CL_AddMode

; 2906 : 		R_RocketTrail( oldorigin, neworigin, 4 );

	push	4
	lea	eax, DWORD PTR _neworigin$[ebp]
	push	eax
	lea	ecx, DWORD PTR _oldorigin$[ebp]
	push	ecx
	call	_R_RocketTrail
	add	esp, 12					; 0000000cH
$LN12@CL_AddMode:

; 2907 : 
; 2908 : 	if( FBitSet( ent->model->flags, STUDIO_TRACER ))

	mov	eax, DWORD PTR _ent$[ebp]
	mov	ecx, DWORD PTR [eax+3300]
	mov	edx, DWORD PTR [ecx+80]
	and	edx, 16					; 00000010H
	je	SHORT $LN13@CL_AddMode

; 2909 : 		R_RocketTrail( oldorigin, neworigin, 3 );

	push	3
	lea	eax, DWORD PTR _neworigin$[ebp]
	push	eax
	lea	ecx, DWORD PTR _oldorigin$[ebp]
	push	ecx
	call	_R_RocketTrail
	add	esp, 12					; 0000000cH
$LN13@CL_AddMode:

; 2910 : 
; 2911 : 	if( FBitSet( ent->model->flags, STUDIO_TRACER2 ))

	mov	eax, DWORD PTR _ent$[ebp]
	mov	ecx, DWORD PTR [eax+3300]
	mov	edx, DWORD PTR [ecx+80]
	and	edx, 64					; 00000040H
	je	SHORT $LN14@CL_AddMode

; 2912 : 		R_RocketTrail( oldorigin, neworigin, 5 );

	push	5
	lea	eax, DWORD PTR _neworigin$[ebp]
	push	eax
	lea	ecx, DWORD PTR _oldorigin$[ebp]
	push	ecx
	call	_R_RocketTrail
	add	esp, 12					; 0000000cH
$LN14@CL_AddMode:

; 2913 : 
; 2914 : 	if( FBitSet( ent->model->flags, STUDIO_ROCKET ))

	mov	eax, DWORD PTR _ent$[ebp]
	mov	ecx, DWORD PTR [eax+3300]
	mov	edx, DWORD PTR [ecx+80]
	and	edx, 1
	je	$LN15@CL_AddMode

; 2915 : 	{
; 2916 : 		dlight_t	*dl = CL_AllocDlight( ent->index );

	mov	eax, DWORD PTR _ent$[ebp]
	mov	ecx, DWORD PTR [eax]
	push	ecx
	call	_CL_AllocDlight
	add	esp, 4
	mov	DWORD PTR _dl$1[ebp], eax

; 2917 : 
; 2918 : 		dl->color.r = dl->color.g = dl->color.b = 200;

	mov	eax, DWORD PTR _dl$1[ebp]
	mov	BYTE PTR [eax+18], 200			; 000000c8H
	mov	ecx, DWORD PTR _dl$1[ebp]
	mov	BYTE PTR [ecx+17], 200			; 000000c8H
	mov	edx, DWORD PTR _dl$1[ebp]
	mov	BYTE PTR [edx+16], 200			; 000000c8H

; 2919 : 		VectorCopy( ent->origin, dl->origin );

	mov	eax, 4
	imul	ecx, eax, 0
	mov	edx, 4
	imul	eax, edx, 0
	mov	edx, DWORD PTR _dl$1[ebp]
	mov	esi, DWORD PTR _ent$[ebp]
	mov	ecx, DWORD PTR [esi+ecx+3224]
	mov	DWORD PTR [edx+eax], ecx
	mov	edx, 4
	shl	edx, 0
	mov	eax, 4
	shl	eax, 0
	mov	ecx, DWORD PTR _dl$1[ebp]
	mov	esi, DWORD PTR _ent$[ebp]
	mov	edx, DWORD PTR [esi+edx+3224]
	mov	DWORD PTR [ecx+eax], edx
	mov	eax, 4
	shl	eax, 1
	mov	ecx, 4
	shl	ecx, 1
	mov	edx, DWORD PTR _dl$1[ebp]
	mov	esi, DWORD PTR _ent$[ebp]
	mov	eax, DWORD PTR [esi+eax+3224]
	mov	DWORD PTR [edx+ecx], eax

; 2920 : 
; 2921 : 		// XASH SPECIFIC: get radius from head entity
; 2922 : 		if( ent->curstate.rendermode != kRenderNormal )

	mov	eax, DWORD PTR _ent$[ebp]
	cmp	DWORD PTR [eax+984], 0
	je	SHORT $LN16@CL_AddMode

; 2923 : 			dl->radius = Q_max( 0, ent->curstate.renderamt - 55 );

	mov	eax, DWORD PTR _ent$[ebp]
	mov	ecx, DWORD PTR [eax+988]
	sub	ecx, 55					; 00000037H
	jns	SHORT $LN21@CL_AddMode
	mov	DWORD PTR tv257[ebp], 0
	jmp	SHORT $LN22@CL_AddMode
$LN21@CL_AddMode:
	mov	edx, DWORD PTR _ent$[ebp]
	mov	eax, DWORD PTR [edx+988]
	sub	eax, 55					; 00000037H
	mov	DWORD PTR tv257[ebp], eax
$LN22@CL_AddMode:
	cvtsi2ss xmm0, DWORD PTR tv257[ebp]
	mov	ecx, DWORD PTR _dl$1[ebp]
	movss	DWORD PTR [ecx+12], xmm0
	jmp	SHORT $LN17@CL_AddMode
$LN16@CL_AddMode:

; 2924 : 		else dl->radius = 200;

	mov	eax, DWORD PTR _dl$1[ebp]
	movss	xmm0, DWORD PTR __real@43480000
	movss	DWORD PTR [eax+12], xmm0
$LN17@CL_AddMode:

; 2925 : 
; 2926 : 		dl->die = cl.time + 0.01f;

	movsd	xmm0, QWORD PTR _cl+2167640
	addsd	xmm0, QWORD PTR __real@3f847ae140000000
	cvtsd2ss xmm0, xmm0
	mov	eax, DWORD PTR _dl$1[ebp]
	movss	DWORD PTR [eax+20], xmm0

; 2927 : 
; 2928 : 		R_RocketTrail( oldorigin, neworigin, 0 );

	push	0
	lea	eax, DWORD PTR _neworigin$[ebp]
	push	eax
	lea	ecx, DWORD PTR _oldorigin$[ebp]
	push	ecx
	call	_R_RocketTrail
	add	esp, 12					; 0000000cH
$LN15@CL_AddMode:

; 2929 : 	}
; 2930 : 
; 2931 : 	if( FBitSet( ent->model->flags, STUDIO_GRENADE ))

	mov	eax, DWORD PTR _ent$[ebp]
	mov	ecx, DWORD PTR [eax+3300]
	mov	edx, DWORD PTR [ecx+80]
	and	edx, 2
	je	SHORT $LN18@CL_AddMode

; 2932 : 		R_RocketTrail( oldorigin, neworigin, 1 );

	push	1
	lea	eax, DWORD PTR _neworigin$[ebp]
	push	eax
	lea	ecx, DWORD PTR _oldorigin$[ebp]
	push	ecx
	call	_R_RocketTrail
	add	esp, 12					; 0000000cH
$LN18@CL_AddMode:

; 2933 : 
; 2934 : 	if( FBitSet( ent->model->flags, STUDIO_TRACER3 ))

	mov	eax, DWORD PTR _ent$[ebp]
	mov	ecx, DWORD PTR [eax+3300]
	mov	edx, DWORD PTR [ecx+80]
	and	edx, 128				; 00000080H
	je	SHORT $LN19@CL_AddMode

; 2935 : 		R_RocketTrail( oldorigin, neworigin, 6 );

	push	6
	lea	eax, DWORD PTR _neworigin$[ebp]
	push	eax
	lea	ecx, DWORD PTR _oldorigin$[ebp]
	push	ecx
	call	_R_RocketTrail
	add	esp, 12					; 0000000cH
$LN19@CL_AddMode:

; 2936 : }

	pop	edi
	pop	esi
	pop	ebx
	mov	ecx, DWORD PTR __$ArrayPad$[ebp]
	xor	ecx, ebp
	call	@__security_check_cookie@4
	mov	esp, ebp
	pop	ebp
	ret	0
_CL_AddModelEffects ENDP
_TEXT	ENDS
; Function compile flags: /Odtp /ZI
; File D:\DevDragon\XashFE\dev\src\engine\client\cl_tent.c
;	COMDAT _CL_AddEntityEffects
_TEXT	SEGMENT
tv291 = -100						; size = 4
_fv$1 = -32						; size = 12
_dl$2 = -20						; size = 4
_dl$3 = -16						; size = 4
_dl$4 = -12						; size = 4
_dl$5 = -8						; size = 4
__$ArrayPad$ = -4					; size = 4
_ent$ = 8						; size = 4
_CL_AddEntityEffects PROC				; COMDAT

; 2803 : {

	push	ebp
	mov	ebp, esp
	sub	esp, 100				; 00000064H
	mov	eax, DWORD PTR ___security_cookie
	xor	eax, ebp
	mov	DWORD PTR __$ArrayPad$[ebp], eax
	push	ebx
	push	esi
	push	edi

; 2804 : 	// yellow flies effect 'monster stuck in the wall'
; 2805 : 	if( FBitSet( ent->curstate.effects, EF_BRIGHTFIELD ))

	mov	eax, DWORD PTR _ent$[ebp]
	mov	ecx, DWORD PTR [eax+972]
	and	ecx, 1
	je	SHORT $LN2@CL_AddEnti

; 2806 : 		R_EntityParticles( ent );

	mov	eax, DWORD PTR _ent$[ebp]
	push	eax
	call	_R_EntityParticles
	add	esp, 4
$LN2@CL_AddEnti:

; 2807 : 
; 2808 : 	if( FBitSet( ent->curstate.effects, EF_DIMLIGHT ))

	mov	eax, DWORD PTR _ent$[ebp]
	mov	ecx, DWORD PTR [eax+972]
	and	ecx, 8
	je	$LN5@CL_AddEnti

; 2809 : 	{
; 2810 : 		if( ent->player && !CL_IsQuakeCompatible( ))

	mov	eax, DWORD PTR _ent$[ebp]
	cmp	DWORD PTR [eax+4], 0
	je	SHORT $LN4@CL_AddEnti
	call	_CL_IsQuakeCompatible
	test	eax, eax
	jne	SHORT $LN4@CL_AddEnti

; 2811 : 		{
; 2812 : 			CL_UpdateFlashlight( ent );

	mov	eax, DWORD PTR _ent$[ebp]
	push	eax
	call	_CL_UpdateFlashlight
	add	esp, 4

; 2813 : 		}

	jmp	$LN5@CL_AddEnti
$LN4@CL_AddEnti:

; 2814 : 		else
; 2815 : 		{
; 2816 : 			dlight_t	*dl = CL_AllocDlight( ent->index );

	mov	eax, DWORD PTR _ent$[ebp]
	mov	ecx, DWORD PTR [eax]
	push	ecx
	call	_CL_AllocDlight
	add	esp, 4
	mov	DWORD PTR _dl$5[ebp], eax

; 2817 : 			dl->color.r = dl->color.g = dl->color.b = 100;

	mov	eax, DWORD PTR _dl$5[ebp]
	mov	BYTE PTR [eax+18], 100			; 00000064H
	mov	ecx, DWORD PTR _dl$5[ebp]
	mov	BYTE PTR [ecx+17], 100			; 00000064H
	mov	edx, DWORD PTR _dl$5[ebp]
	mov	BYTE PTR [edx+16], 100			; 00000064H

; 2818 : 			dl->radius = COM_RandomFloat( 200, 231 );

	push	ecx
	movss	xmm0, DWORD PTR __real@43670000
	movss	DWORD PTR [esp], xmm0
	push	ecx
	movss	xmm0, DWORD PTR __real@43480000
	movss	DWORD PTR [esp], xmm0
	call	_COM_RandomFloat
	add	esp, 8
	mov	eax, DWORD PTR _dl$5[ebp]
	fstp	DWORD PTR [eax+12]

; 2819 : 			VectorCopy( ent->origin, dl->origin );

	mov	eax, 4
	imul	ecx, eax, 0
	mov	edx, 4
	imul	eax, edx, 0
	mov	edx, DWORD PTR _dl$5[ebp]
	mov	esi, DWORD PTR _ent$[ebp]
	mov	ecx, DWORD PTR [esi+ecx+3224]
	mov	DWORD PTR [edx+eax], ecx
	mov	edx, 4
	shl	edx, 0
	mov	eax, 4
	shl	eax, 0
	mov	ecx, DWORD PTR _dl$5[ebp]
	mov	esi, DWORD PTR _ent$[ebp]
	mov	edx, DWORD PTR [esi+edx+3224]
	mov	DWORD PTR [ecx+eax], edx
	mov	eax, 4
	shl	eax, 1
	mov	ecx, 4
	shl	ecx, 1
	mov	edx, DWORD PTR _dl$5[ebp]
	mov	esi, DWORD PTR _ent$[ebp]
	mov	eax, DWORD PTR [esi+eax+3224]
	mov	DWORD PTR [edx+ecx], eax

; 2820 : 			dl->die = cl.time + 0.001;

	movsd	xmm0, QWORD PTR _cl+2167640
	addsd	xmm0, QWORD PTR __real@3f50624dd2f1a9fc
	cvtsd2ss xmm0, xmm0
	mov	eax, DWORD PTR _dl$5[ebp]
	movss	DWORD PTR [eax+20], xmm0
$LN5@CL_AddEnti:

; 2821 : 		}
; 2822 : 	}	
; 2823 : 
; 2824 : 	if( FBitSet( ent->curstate.effects, EF_BRIGHTLIGHT ))

	mov	eax, DWORD PTR _ent$[ebp]
	mov	ecx, DWORD PTR [eax+972]
	and	ecx, 4
	je	$LN6@CL_AddEnti

; 2825 : 	{			
; 2826 : 		dlight_t	*dl = CL_AllocDlight( ent->index );

	mov	eax, DWORD PTR _ent$[ebp]
	mov	ecx, DWORD PTR [eax]
	push	ecx
	call	_CL_AllocDlight
	add	esp, 4
	mov	DWORD PTR _dl$4[ebp], eax

; 2827 : 		dl->color.r = dl->color.g = dl->color.b = 250;

	mov	eax, DWORD PTR _dl$4[ebp]
	mov	BYTE PTR [eax+18], 250			; 000000faH
	mov	ecx, DWORD PTR _dl$4[ebp]
	mov	BYTE PTR [ecx+17], 250			; 000000faH
	mov	edx, DWORD PTR _dl$4[ebp]
	mov	BYTE PTR [edx+16], 250			; 000000faH

; 2828 : 		if( ent->player ) dl->radius = 400; // don't flickering

	mov	eax, DWORD PTR _ent$[ebp]
	cmp	DWORD PTR [eax+4], 0
	je	SHORT $LN7@CL_AddEnti
	mov	eax, DWORD PTR _dl$4[ebp]
	movss	xmm0, DWORD PTR __real@43c80000
	movss	DWORD PTR [eax+12], xmm0
	jmp	SHORT $LN8@CL_AddEnti
$LN7@CL_AddEnti:

; 2829 : 		else dl->radius = COM_RandomFloat( 400, 431 );

	push	ecx
	movss	xmm0, DWORD PTR __real@43d78000
	movss	DWORD PTR [esp], xmm0
	push	ecx
	movss	xmm0, DWORD PTR __real@43c80000
	movss	DWORD PTR [esp], xmm0
	call	_COM_RandomFloat
	add	esp, 8
	mov	eax, DWORD PTR _dl$4[ebp]
	fstp	DWORD PTR [eax+12]
$LN8@CL_AddEnti:

; 2830 : 		VectorCopy( ent->origin, dl->origin );

	mov	eax, 4
	imul	ecx, eax, 0
	mov	edx, 4
	imul	eax, edx, 0
	mov	edx, DWORD PTR _dl$4[ebp]
	mov	esi, DWORD PTR _ent$[ebp]
	mov	ecx, DWORD PTR [esi+ecx+3224]
	mov	DWORD PTR [edx+eax], ecx
	mov	edx, 4
	shl	edx, 0
	mov	eax, 4
	shl	eax, 0
	mov	ecx, DWORD PTR _dl$4[ebp]
	mov	esi, DWORD PTR _ent$[ebp]
	mov	edx, DWORD PTR [esi+edx+3224]
	mov	DWORD PTR [ecx+eax], edx
	mov	eax, 4
	shl	eax, 1
	mov	ecx, 4
	shl	ecx, 1
	mov	edx, DWORD PTR _dl$4[ebp]
	mov	esi, DWORD PTR _ent$[ebp]
	mov	eax, DWORD PTR [esi+eax+3224]
	mov	DWORD PTR [edx+ecx], eax

; 2831 : 		dl->die = cl.time + 0.001;

	movsd	xmm0, QWORD PTR _cl+2167640
	addsd	xmm0, QWORD PTR __real@3f50624dd2f1a9fc
	cvtsd2ss xmm0, xmm0
	mov	eax, DWORD PTR _dl$4[ebp]
	movss	DWORD PTR [eax+20], xmm0

; 2832 : 		dl->origin[2] += 16.0f;

	mov	eax, 4
	shl	eax, 1
	mov	ecx, DWORD PTR _dl$4[ebp]
	movss	xmm0, DWORD PTR [ecx+eax]
	addss	xmm0, DWORD PTR __real@41800000
	mov	edx, 4
	shl	edx, 1
	mov	eax, DWORD PTR _dl$4[ebp]
	movss	DWORD PTR [eax+edx], xmm0
$LN6@CL_AddEnti:

; 2833 : 	}
; 2834 : 
; 2835 : 	// add light effect
; 2836 : 	if( FBitSet( ent->curstate.effects, EF_LIGHT ))

	mov	eax, DWORD PTR _ent$[ebp]
	mov	ecx, DWORD PTR [eax+972]
	and	ecx, 64					; 00000040H
	je	$LN9@CL_AddEnti

; 2837 : 	{
; 2838 : 		dlight_t	*dl = CL_AllocDlight( ent->index );

	mov	eax, DWORD PTR _ent$[ebp]
	mov	ecx, DWORD PTR [eax]
	push	ecx
	call	_CL_AllocDlight
	add	esp, 4
	mov	DWORD PTR _dl$3[ebp], eax

; 2839 : 		dl->color.r = dl->color.g = dl->color.b = 100;

	mov	eax, DWORD PTR _dl$3[ebp]
	mov	BYTE PTR [eax+18], 100			; 00000064H
	mov	ecx, DWORD PTR _dl$3[ebp]
	mov	BYTE PTR [ecx+17], 100			; 00000064H
	mov	edx, DWORD PTR _dl$3[ebp]
	mov	BYTE PTR [edx+16], 100			; 00000064H

; 2840 : 		VectorCopy( ent->origin, dl->origin );

	mov	eax, 4
	imul	ecx, eax, 0
	mov	edx, 4
	imul	eax, edx, 0
	mov	edx, DWORD PTR _dl$3[ebp]
	mov	esi, DWORD PTR _ent$[ebp]
	mov	ecx, DWORD PTR [esi+ecx+3224]
	mov	DWORD PTR [edx+eax], ecx
	mov	edx, 4
	shl	edx, 0
	mov	eax, 4
	shl	eax, 0
	mov	ecx, DWORD PTR _dl$3[ebp]
	mov	esi, DWORD PTR _ent$[ebp]
	mov	edx, DWORD PTR [esi+edx+3224]
	mov	DWORD PTR [ecx+eax], edx
	mov	eax, 4
	shl	eax, 1
	mov	ecx, 4
	shl	ecx, 1
	mov	edx, DWORD PTR _dl$3[ebp]
	mov	esi, DWORD PTR _ent$[ebp]
	mov	eax, DWORD PTR [esi+eax+3224]
	mov	DWORD PTR [edx+ecx], eax

; 2841 : 		R_RocketFlare( ent->origin );

	mov	eax, DWORD PTR _ent$[ebp]
	add	eax, 3224				; 00000c98H
	push	eax
	call	_R_RocketFlare
	add	esp, 4

; 2842 : 		dl->die = cl.time + 0.001;

	movsd	xmm0, QWORD PTR _cl+2167640
	addsd	xmm0, QWORD PTR __real@3f50624dd2f1a9fc
	cvtsd2ss xmm0, xmm0
	mov	eax, DWORD PTR _dl$3[ebp]
	movss	DWORD PTR [eax+20], xmm0

; 2843 : 		dl->radius = 200;

	mov	eax, DWORD PTR _dl$3[ebp]
	movss	xmm0, DWORD PTR __real@43480000
	movss	DWORD PTR [eax+12], xmm0
$LN9@CL_AddEnti:

; 2844 : 	}
; 2845 : 
; 2846 : 	// studio models are handle muzzleflashes difference
; 2847 : 	if( FBitSet( ent->curstate.effects, EF_MUZZLEFLASH ) && Mod_AliasExtradata( ent->model ))

	mov	eax, DWORD PTR _ent$[ebp]
	mov	ecx, DWORD PTR [eax+972]
	and	ecx, 2
	je	$LN10@CL_AddEnti
	mov	eax, DWORD PTR _ent$[ebp]
	mov	ecx, DWORD PTR [eax+3300]
	push	ecx
	call	_Mod_AliasExtradata
	add	esp, 4
	test	eax, eax
	je	$LN10@CL_AddEnti

; 2848 : 	{
; 2849 : 		dlight_t	*dl = CL_AllocDlight( ent->index );

	mov	eax, DWORD PTR _ent$[ebp]
	mov	ecx, DWORD PTR [eax]
	push	ecx
	call	_CL_AllocDlight
	add	esp, 4
	mov	DWORD PTR _dl$2[ebp], eax

; 2850 : 		vec3_t	fv;
; 2851 : 
; 2852 : 		ClearBits( ent->curstate.effects, EF_MUZZLEFLASH );

	mov	eax, DWORD PTR _ent$[ebp]
	mov	ecx, DWORD PTR [eax+972]
	and	ecx, -3					; fffffffdH
	mov	edx, DWORD PTR _ent$[ebp]
	mov	DWORD PTR [edx+972], ecx

; 2853 : 		dl->color.r = dl->color.g = dl->color.b = 100;

	mov	eax, DWORD PTR _dl$2[ebp]
	mov	BYTE PTR [eax+18], 100			; 00000064H
	mov	ecx, DWORD PTR _dl$2[ebp]
	mov	BYTE PTR [ecx+17], 100			; 00000064H
	mov	edx, DWORD PTR _dl$2[ebp]
	mov	BYTE PTR [edx+16], 100			; 00000064H

; 2854 : 		VectorCopy( ent->origin, dl->origin );

	mov	eax, 4
	imul	ecx, eax, 0
	mov	edx, 4
	imul	eax, edx, 0
	mov	edx, DWORD PTR _dl$2[ebp]
	mov	esi, DWORD PTR _ent$[ebp]
	mov	ecx, DWORD PTR [esi+ecx+3224]
	mov	DWORD PTR [edx+eax], ecx
	mov	edx, 4
	shl	edx, 0
	mov	eax, 4
	shl	eax, 0
	mov	ecx, DWORD PTR _dl$2[ebp]
	mov	esi, DWORD PTR _ent$[ebp]
	mov	edx, DWORD PTR [esi+edx+3224]
	mov	DWORD PTR [ecx+eax], edx
	mov	eax, 4
	shl	eax, 1
	mov	ecx, 4
	shl	ecx, 1
	mov	edx, DWORD PTR _dl$2[ebp]
	mov	esi, DWORD PTR _ent$[ebp]
	mov	eax, DWORD PTR [esi+eax+3224]
	mov	DWORD PTR [edx+ecx], eax

; 2855 : 		AngleVectors( ent->angles, fv, NULL, NULL );

	push	0
	push	0
	lea	eax, DWORD PTR _fv$1[ebp]
	push	eax
	mov	ecx, DWORD PTR _ent$[ebp]
	add	ecx, 3236				; 00000ca4H
	push	ecx
	call	_AngleVectors
	add	esp, 16					; 00000010H

; 2856 : 		dl->origin[2] += 16.0f;

	mov	eax, 4
	shl	eax, 1
	mov	ecx, DWORD PTR _dl$2[ebp]
	movss	xmm0, DWORD PTR [ecx+eax]
	addss	xmm0, DWORD PTR __real@41800000
	mov	edx, 4
	shl	edx, 1
	mov	eax, DWORD PTR _dl$2[ebp]
	movss	DWORD PTR [eax+edx], xmm0

; 2857 : 		VectorMA( dl->origin, 18, fv, dl->origin );

	mov	eax, 4
	imul	ecx, eax, 0
	mov	edx, 4
	imul	eax, edx, 0
	movss	xmm0, DWORD PTR __real@41900000
	mulss	xmm0, DWORD PTR _fv$1[ebp+eax]
	mov	edx, DWORD PTR _dl$2[ebp]
	addss	xmm0, DWORD PTR [edx+ecx]
	mov	eax, 4
	imul	ecx, eax, 0
	mov	edx, DWORD PTR _dl$2[ebp]
	movss	DWORD PTR [edx+ecx], xmm0
	mov	eax, 4
	shl	eax, 0
	mov	ecx, 4
	shl	ecx, 0
	movss	xmm0, DWORD PTR __real@41900000
	mulss	xmm0, DWORD PTR _fv$1[ebp+ecx]
	mov	edx, DWORD PTR _dl$2[ebp]
	addss	xmm0, DWORD PTR [edx+eax]
	mov	eax, 4
	shl	eax, 0
	mov	ecx, DWORD PTR _dl$2[ebp]
	movss	DWORD PTR [ecx+eax], xmm0
	mov	edx, 4
	shl	edx, 1
	mov	eax, 4
	shl	eax, 1
	movss	xmm0, DWORD PTR __real@41900000
	mulss	xmm0, DWORD PTR _fv$1[ebp+eax]
	mov	ecx, DWORD PTR _dl$2[ebp]
	movss	xmm1, DWORD PTR [ecx+edx]
	addss	xmm1, xmm0
	movss	DWORD PTR tv291[ebp], xmm1
	mov	edx, 4
	shl	edx, 1
	mov	eax, DWORD PTR _dl$2[ebp]
	movss	xmm0, DWORD PTR tv291[ebp]
	movss	DWORD PTR [eax+edx], xmm0

; 2858 : 		dl->radius = COM_RandomFloat( 200, 231 );

	push	ecx
	movss	xmm0, DWORD PTR __real@43670000
	movss	DWORD PTR [esp], xmm0
	push	ecx
	movss	xmm0, DWORD PTR __real@43480000
	movss	DWORD PTR [esp], xmm0
	call	_COM_RandomFloat
	add	esp, 8
	mov	eax, DWORD PTR _dl$2[ebp]
	fstp	DWORD PTR [eax+12]

; 2859 : 		dl->die = cl.time + 0.1;

	movsd	xmm0, QWORD PTR _cl+2167640
	addsd	xmm0, QWORD PTR __real@3fb999999999999a
	cvtsd2ss xmm0, xmm0
	mov	eax, DWORD PTR _dl$2[ebp]
	movss	DWORD PTR [eax+20], xmm0

; 2860 : 		dl->minlight = 32;

	mov	eax, DWORD PTR _dl$2[ebp]
	movss	xmm0, DWORD PTR __real@42000000
	movss	DWORD PTR [eax+28], xmm0
$LN10@CL_AddEnti:

; 2861 : 	}
; 2862 : }

	pop	edi
	pop	esi
	pop	ebx
	mov	ecx, DWORD PTR __$ArrayPad$[ebp]
	xor	ecx, ebp
	call	@__security_check_cookie@4
	mov	esp, ebp
	pop	ebp
	ret	0
_CL_AddEntityEffects ENDP
_TEXT	ENDS
; Function compile flags: /Odtp /ZI
; File D:\DevDragon\XashFE\dev\src\engine\client\cl_tent.c
;	COMDAT _CL_UpdateFlashlight
_TEXT	SEGMENT
tv288 = -152						; size = 4
tv276 = -152						; size = 4
tv264 = -152						; size = 4
tv287 = -148						; size = 4
tv275 = -148						; size = 4
tv263 = -148						; size = 4
tv189 = -148						; size = 4
tv165 = -148						; size = 4
_v_angle$1 = -80					; size = 12
_dl$ = -68						; size = 4
_hit$ = -64						; size = 4
_trace$ = -60						; size = 4
_falloff$ = -56						; size = 4
_vecEnd$ = -52						; size = 12
_vecSrc$ = -40						; size = 12
_view_ofs$ = -28					; size = 12
_forward$ = -16						; size = 12
__$ArrayPad$ = -4					; size = 4
_ent$ = 8						; size = 4
_CL_UpdateFlashlight PROC				; COMDAT

; 2734 : {

	push	ebp
	mov	ebp, esp
	sub	esp, 152				; 00000098H
	mov	eax, DWORD PTR ___security_cookie
	xor	eax, ebp
	mov	DWORD PTR __$ArrayPad$[ebp], eax
	push	ebx
	push	esi
	push	edi

; 2735 : 	vec3_t		forward, view_ofs;
; 2736 : 	vec3_t		vecSrc, vecEnd;
; 2737 : 	float		falloff;
; 2738 : 	pmtrace_t		*trace;
; 2739 : 	cl_entity_t	*hit;
; 2740 : 	dlight_t		*dl;
; 2741 : 
; 2742 : 	if( ent->index == ( cl.playernum + 1 ))

	mov	eax, DWORD PTR _cl+2213000
	add	eax, 1
	mov	ecx, DWORD PTR _ent$[ebp]
	cmp	DWORD PTR [ecx], eax
	jne	SHORT $LN2@CL_UpdateF

; 2743 : 	{
; 2744 : 		// local player case
; 2745 : 		AngleVectors( cl.viewangles, forward, NULL, NULL );

	push	0
	push	0
	lea	eax, DWORD PTR _forward$[ebp]
	push	eax
	push	OFFSET _cl+2212784
	call	_AngleVectors
	add	esp, 16					; 00000010H

; 2746 : 		VectorCopy( cl.viewheight, view_ofs );

	mov	eax, 4
	imul	ecx, eax, 0
	mov	edx, 4
	imul	eax, edx, 0
	mov	ecx, DWORD PTR _cl[ecx+2212796]
	mov	DWORD PTR _view_ofs$[ebp+eax], ecx
	mov	edx, 4
	shl	edx, 0
	mov	eax, 4
	shl	eax, 0
	mov	ecx, DWORD PTR _cl[edx+2212796]
	mov	DWORD PTR _view_ofs$[ebp+eax], ecx
	mov	edx, 4
	shl	edx, 1
	mov	eax, 4
	shl	eax, 1
	mov	ecx, DWORD PTR _cl[edx+2212796]
	mov	DWORD PTR _view_ofs$[ebp+eax], ecx

; 2747 : 	}

	jmp	$LN5@CL_UpdateF
$LN2@CL_UpdateF:

; 2748 : 	else	// non-local player case
; 2749 : 	{
; 2750 : 		vec3_t	v_angle;
; 2751 : 
; 2752 : 		// NOTE: pitch divided by 3.0 twice. So we need apply 3^2 = 9
; 2753 : 		v_angle[PITCH] = ent->curstate.angles[PITCH] * 9.0f;

	mov	eax, 4
	imul	ecx, eax, 0
	mov	edx, DWORD PTR _ent$[ebp]
	movss	xmm0, DWORD PTR [edx+ecx+940]
	mulss	xmm0, DWORD PTR __real@41100000
	mov	eax, 4
	imul	ecx, eax, 0
	movss	DWORD PTR _v_angle$1[ebp+ecx], xmm0

; 2754 : 		v_angle[YAW] = ent->angles[YAW];

	mov	eax, 4
	shl	eax, 0
	mov	ecx, 4
	shl	ecx, 0
	mov	edx, DWORD PTR _ent$[ebp]
	mov	eax, DWORD PTR [edx+eax+3236]
	mov	DWORD PTR _v_angle$1[ebp+ecx], eax

; 2755 : 		v_angle[ROLL] = 0.0f; // roll not used

	mov	eax, 4
	shl	eax, 1
	xorps	xmm0, xmm0
	movss	DWORD PTR _v_angle$1[ebp+eax], xmm0

; 2756 : 
; 2757 : 		AngleVectors( v_angle, forward, NULL, NULL );

	push	0
	push	0
	lea	eax, DWORD PTR _forward$[ebp]
	push	eax
	lea	ecx, DWORD PTR _v_angle$1[ebp]
	push	ecx
	call	_AngleVectors
	add	esp, 16					; 00000010H

; 2758 : 		view_ofs[0] = view_ofs[1] = 0.0f;

	mov	eax, 4
	shl	eax, 0
	xorps	xmm0, xmm0
	movss	DWORD PTR _view_ofs$[ebp+eax], xmm0
	mov	ecx, 4
	imul	edx, ecx, 0
	xorps	xmm0, xmm0
	movss	DWORD PTR _view_ofs$[ebp+edx], xmm0

; 2759 : 
; 2760 : 		// FIXME: these values are hardcoded ...
; 2761 : 		if( ent->curstate.usehull == 1 )

	mov	eax, DWORD PTR _ent$[ebp]
	cmp	DWORD PTR [eax+1224], 1
	jne	SHORT $LN4@CL_UpdateF

; 2762 : 			view_ofs[2] = 12.0f;	// VEC_DUCK_VIEW;

	mov	eax, 4
	shl	eax, 1
	movss	xmm0, DWORD PTR __real@41400000
	movss	DWORD PTR _view_ofs$[ebp+eax], xmm0
	jmp	SHORT $LN5@CL_UpdateF
$LN4@CL_UpdateF:

; 2763 : 		else view_ofs[2] = 28.0f;		// DEFAULT_VIEWHEIGHT

	mov	eax, 4
	shl	eax, 1
	movss	xmm0, DWORD PTR __real@41e00000
	movss	DWORD PTR _view_ofs$[ebp+eax], xmm0
$LN5@CL_UpdateF:

; 2764 : 	}
; 2765 : 
; 2766 : 	VectorAdd( ent->origin, view_ofs, vecSrc );

	mov	eax, 4
	imul	ecx, eax, 0
	mov	edx, 4
	imul	eax, edx, 0
	mov	edx, DWORD PTR _ent$[ebp]
	movss	xmm0, DWORD PTR [edx+ecx+3224]
	addss	xmm0, DWORD PTR _view_ofs$[ebp+eax]
	mov	eax, 4
	imul	ecx, eax, 0
	movss	DWORD PTR _vecSrc$[ebp+ecx], xmm0
	mov	edx, 4
	shl	edx, 0
	mov	eax, 4
	shl	eax, 0
	mov	ecx, DWORD PTR _ent$[ebp]
	movss	xmm0, DWORD PTR [ecx+edx+3224]
	addss	xmm0, DWORD PTR _view_ofs$[ebp+eax]
	mov	edx, 4
	shl	edx, 0
	movss	DWORD PTR _vecSrc$[ebp+edx], xmm0
	mov	eax, 4
	shl	eax, 1
	mov	ecx, 4
	shl	ecx, 1
	mov	edx, DWORD PTR _ent$[ebp]
	movss	xmm0, DWORD PTR [edx+eax+3224]
	addss	xmm0, DWORD PTR _view_ofs$[ebp+ecx]
	movss	DWORD PTR tv165[ebp], xmm0
	mov	eax, 4
	shl	eax, 1
	movss	xmm0, DWORD PTR tv165[ebp]
	movss	DWORD PTR _vecSrc$[ebp+eax], xmm0

; 2767 : 	VectorMA( vecSrc, FLASHLIGHT_DISTANCE, forward, vecEnd );

	mov	eax, 4
	imul	ecx, eax, 0
	mov	edx, 4
	imul	eax, edx, 0
	movss	xmm0, DWORD PTR __real@44fa0000
	mulss	xmm0, DWORD PTR _forward$[ebp+eax]
	addss	xmm0, DWORD PTR _vecSrc$[ebp+ecx]
	mov	ecx, 4
	imul	edx, ecx, 0
	movss	DWORD PTR _vecEnd$[ebp+edx], xmm0
	mov	eax, 4
	shl	eax, 0
	mov	ecx, 4
	shl	ecx, 0
	movss	xmm0, DWORD PTR __real@44fa0000
	mulss	xmm0, DWORD PTR _forward$[ebp+ecx]
	addss	xmm0, DWORD PTR _vecSrc$[ebp+eax]
	mov	edx, 4
	shl	edx, 0
	movss	DWORD PTR _vecEnd$[ebp+edx], xmm0
	mov	eax, 4
	shl	eax, 1
	mov	ecx, 4
	shl	ecx, 1
	movss	xmm0, DWORD PTR __real@44fa0000
	mulss	xmm0, DWORD PTR _forward$[ebp+ecx]
	movss	xmm1, DWORD PTR _vecSrc$[ebp+eax]
	addss	xmm1, xmm0
	movss	DWORD PTR tv189[ebp], xmm1
	mov	edx, 4
	shl	edx, 1
	movss	xmm0, DWORD PTR tv189[ebp]
	movss	DWORD PTR _vecEnd$[ebp+edx], xmm0

; 2768 : 
; 2769 : 	trace = CL_VisTraceLine( vecSrc, vecEnd, PM_STUDIO_BOX );

	push	2
	lea	eax, DWORD PTR _vecEnd$[ebp]
	push	eax
	lea	ecx, DWORD PTR _vecSrc$[ebp]
	push	ecx
	call	_CL_VisTraceLine
	add	esp, 12					; 0000000cH
	mov	DWORD PTR _trace$[ebp], eax

; 2770 : 
; 2771 : 	// update flashlight endpos
; 2772 : 	dl = CL_AllocDlight( ent->index );

	mov	eax, DWORD PTR _ent$[ebp]
	mov	ecx, DWORD PTR [eax]
	push	ecx
	call	_CL_AllocDlight
	add	esp, 4
	mov	DWORD PTR _dl$[ebp], eax

; 2773 : #if 1
; 2774 : 	hit = CL_GetEntityByIndex( clgame.pmove->visents[trace->ent].info );

	mov	eax, DWORD PTR _trace$[ebp]
	imul	ecx, DWORD PTR [eax+48], 224
	mov	edx, DWORD PTR _clgame+1344
	mov	eax, DWORD PTR [edx+ecx+149416]
	push	eax
	call	_CL_GetEntityByIndex
	add	esp, 4
	mov	DWORD PTR _hit$[ebp], eax

; 2775 : 	if( hit && hit->model && ( hit->model->type == mod_alias || hit->model->type == mod_studio ))

	cmp	DWORD PTR _hit$[ebp], 0
	je	$LN6@CL_UpdateF
	mov	eax, DWORD PTR _hit$[ebp]
	cmp	DWORD PTR [eax+3300], 0
	je	SHORT $LN6@CL_UpdateF
	mov	eax, DWORD PTR _hit$[ebp]
	mov	ecx, DWORD PTR [eax+3300]
	cmp	DWORD PTR [ecx+68], 2
	je	SHORT $LN8@CL_UpdateF
	mov	eax, DWORD PTR _hit$[ebp]
	mov	ecx, DWORD PTR [eax+3300]
	cmp	DWORD PTR [ecx+68], 3
	jne	SHORT $LN6@CL_UpdateF
$LN8@CL_UpdateF:

; 2776 : 		VectorCopy( hit->origin, dl->origin );

	mov	eax, 4
	imul	ecx, eax, 0
	mov	edx, 4
	imul	eax, edx, 0
	mov	edx, DWORD PTR _dl$[ebp]
	mov	esi, DWORD PTR _hit$[ebp]
	mov	ecx, DWORD PTR [esi+ecx+3224]
	mov	DWORD PTR [edx+eax], ecx
	mov	edx, 4
	shl	edx, 0
	mov	eax, 4
	shl	eax, 0
	mov	ecx, DWORD PTR _dl$[ebp]
	mov	esi, DWORD PTR _hit$[ebp]
	mov	edx, DWORD PTR [esi+edx+3224]
	mov	DWORD PTR [ecx+eax], edx
	mov	eax, 4
	shl	eax, 1
	mov	ecx, 4
	shl	ecx, 1
	mov	edx, DWORD PTR _dl$[ebp]
	mov	esi, DWORD PTR _hit$[ebp]
	mov	eax, DWORD PTR [esi+eax+3224]
	mov	DWORD PTR [edx+ecx], eax
	jmp	SHORT $LN7@CL_UpdateF
$LN6@CL_UpdateF:

; 2777 : 	else VectorCopy( trace->endpos, dl->origin );

	mov	eax, 4
	imul	ecx, eax, 0
	mov	edx, 4
	imul	eax, edx, 0
	mov	edx, DWORD PTR _dl$[ebp]
	mov	esi, DWORD PTR _trace$[ebp]
	mov	ecx, DWORD PTR [esi+ecx+20]
	mov	DWORD PTR [edx+eax], ecx
	mov	edx, 4
	shl	edx, 0
	mov	eax, 4
	shl	eax, 0
	mov	ecx, DWORD PTR _dl$[ebp]
	mov	esi, DWORD PTR _trace$[ebp]
	mov	edx, DWORD PTR [esi+edx+20]
	mov	DWORD PTR [ecx+eax], edx
	mov	eax, 4
	shl	eax, 1
	mov	ecx, 4
	shl	ecx, 1
	mov	edx, DWORD PTR _dl$[ebp]
	mov	esi, DWORD PTR _trace$[ebp]
	mov	eax, DWORD PTR [esi+eax+20]
	mov	DWORD PTR [edx+ecx], eax
$LN7@CL_UpdateF:

; 2778 : #else
; 2779 : 	VectorCopy( trace->endpos, dl->origin );
; 2780 : #endif
; 2781 : 	// compute falloff
; 2782 : 	falloff = trace->fraction * FLASHLIGHT_DISTANCE;

	mov	eax, DWORD PTR _trace$[ebp]
	movss	xmm0, DWORD PTR [eax+16]
	mulss	xmm0, DWORD PTR __real@44fa0000
	movss	DWORD PTR _falloff$[ebp], xmm0

; 2783 : 	if( falloff < 500.0f ) falloff = 1.0f;

	movss	xmm0, DWORD PTR __real@43fa0000
	comiss	xmm0, DWORD PTR _falloff$[ebp]
	jbe	SHORT $LN9@CL_UpdateF
	movss	xmm0, DWORD PTR __real@3f800000
	movss	DWORD PTR _falloff$[ebp], xmm0
	jmp	SHORT $LN10@CL_UpdateF
$LN9@CL_UpdateF:

; 2784 : 	else falloff = 500.0f / falloff;

	movss	xmm0, DWORD PTR __real@43fa0000
	divss	xmm0, DWORD PTR _falloff$[ebp]
	movss	DWORD PTR _falloff$[ebp], xmm0
$LN10@CL_UpdateF:

; 2785 : 	falloff *= falloff;

	movss	xmm0, DWORD PTR _falloff$[ebp]
	mulss	xmm0, DWORD PTR _falloff$[ebp]
	movss	DWORD PTR _falloff$[ebp], xmm0

; 2786 : 
; 2787 : 	// apply brigthness to dlight			
; 2788 : 	dl->color.r = bound( 0, falloff * 255, 255 );

	movss	xmm0, DWORD PTR _falloff$[ebp]
	mulss	xmm0, DWORD PTR __real@437f0000
	comiss	xmm0, DWORD PTR __real@00000000
	jb	SHORT $LN14@CL_UpdateF
	movss	xmm0, DWORD PTR _falloff$[ebp]
	mulss	xmm0, DWORD PTR __real@437f0000
	movss	xmm1, DWORD PTR __real@437f0000
	comiss	xmm1, xmm0
	jbe	SHORT $LN12@CL_UpdateF
	movss	xmm0, DWORD PTR _falloff$[ebp]
	mulss	xmm0, DWORD PTR __real@437f0000
	movss	DWORD PTR tv263[ebp], xmm0
	jmp	SHORT $LN13@CL_UpdateF
$LN12@CL_UpdateF:
	movss	xmm0, DWORD PTR __real@437f0000
	movss	DWORD PTR tv263[ebp], xmm0
$LN13@CL_UpdateF:
	movss	xmm0, DWORD PTR tv263[ebp]
	movss	DWORD PTR tv264[ebp], xmm0
	jmp	SHORT $LN15@CL_UpdateF
$LN14@CL_UpdateF:
	xorps	xmm0, xmm0
	movss	DWORD PTR tv264[ebp], xmm0
$LN15@CL_UpdateF:
	cvttss2si eax, DWORD PTR tv264[ebp]
	mov	ecx, DWORD PTR _dl$[ebp]
	mov	BYTE PTR [ecx+16], al

; 2789 : 	dl->color.g = bound( 0, falloff * 255, 255 );

	movss	xmm0, DWORD PTR _falloff$[ebp]
	mulss	xmm0, DWORD PTR __real@437f0000
	comiss	xmm0, DWORD PTR __real@00000000
	jb	SHORT $LN18@CL_UpdateF
	movss	xmm0, DWORD PTR _falloff$[ebp]
	mulss	xmm0, DWORD PTR __real@437f0000
	movss	xmm1, DWORD PTR __real@437f0000
	comiss	xmm1, xmm0
	jbe	SHORT $LN16@CL_UpdateF
	movss	xmm0, DWORD PTR _falloff$[ebp]
	mulss	xmm0, DWORD PTR __real@437f0000
	movss	DWORD PTR tv275[ebp], xmm0
	jmp	SHORT $LN17@CL_UpdateF
$LN16@CL_UpdateF:
	movss	xmm0, DWORD PTR __real@437f0000
	movss	DWORD PTR tv275[ebp], xmm0
$LN17@CL_UpdateF:
	movss	xmm0, DWORD PTR tv275[ebp]
	movss	DWORD PTR tv276[ebp], xmm0
	jmp	SHORT $LN19@CL_UpdateF
$LN18@CL_UpdateF:
	xorps	xmm0, xmm0
	movss	DWORD PTR tv276[ebp], xmm0
$LN19@CL_UpdateF:
	cvttss2si eax, DWORD PTR tv276[ebp]
	mov	ecx, DWORD PTR _dl$[ebp]
	mov	BYTE PTR [ecx+17], al

; 2790 : 	dl->color.b = bound( 0, falloff * 255, 255 );

	movss	xmm0, DWORD PTR _falloff$[ebp]
	mulss	xmm0, DWORD PTR __real@437f0000
	comiss	xmm0, DWORD PTR __real@00000000
	jb	SHORT $LN22@CL_UpdateF
	movss	xmm0, DWORD PTR _falloff$[ebp]
	mulss	xmm0, DWORD PTR __real@437f0000
	movss	xmm1, DWORD PTR __real@437f0000
	comiss	xmm1, xmm0
	jbe	SHORT $LN20@CL_UpdateF
	movss	xmm0, DWORD PTR _falloff$[ebp]
	mulss	xmm0, DWORD PTR __real@437f0000
	movss	DWORD PTR tv287[ebp], xmm0
	jmp	SHORT $LN21@CL_UpdateF
$LN20@CL_UpdateF:
	movss	xmm0, DWORD PTR __real@437f0000
	movss	DWORD PTR tv287[ebp], xmm0
$LN21@CL_UpdateF:
	movss	xmm0, DWORD PTR tv287[ebp]
	movss	DWORD PTR tv288[ebp], xmm0
	jmp	SHORT $LN23@CL_UpdateF
$LN22@CL_UpdateF:
	xorps	xmm0, xmm0
	movss	DWORD PTR tv288[ebp], xmm0
$LN23@CL_UpdateF:
	cvttss2si eax, DWORD PTR tv288[ebp]
	mov	ecx, DWORD PTR _dl$[ebp]
	mov	BYTE PTR [ecx+18], al

; 2791 : 	dl->die = cl.time + 0.01f; // die on next frame

	movsd	xmm0, QWORD PTR _cl+2167640
	addsd	xmm0, QWORD PTR __real@3f847ae140000000
	cvtsd2ss xmm0, xmm0
	mov	eax, DWORD PTR _dl$[ebp]
	movss	DWORD PTR [eax+20], xmm0

; 2792 : 	dl->radius = 80;

	mov	eax, DWORD PTR _dl$[ebp]
	movss	xmm0, DWORD PTR __real@42a00000
	movss	DWORD PTR [eax+12], xmm0

; 2793 : }

	pop	edi
	pop	esi
	pop	ebx
	mov	ecx, DWORD PTR __$ArrayPad$[ebp]
	xor	ecx, ebp
	call	@__security_check_cookie@4
	mov	esp, ebp
	pop	ebp
	ret	0
_CL_UpdateFlashlight ENDP
_TEXT	ENDS
; Function compile flags: /Odtp /ZI
; File D:\DevDragon\XashFE\dev\src\engine\client\cl_tent.c
;	COMDAT _CL_AllocElight
_TEXT	SEGMENT
_i$ = -8						; size = 4
_dl$ = -4						; size = 4
_key$ = 8						; size = 4
_CL_AllocElight PROC					; COMDAT

; 2651 : {

	push	ebp
	mov	ebp, esp
	sub	esp, 72					; 00000048H
	push	ebx
	push	esi
	push	edi

; 2652 : 	dlight_t	*dl;
; 2653 : 	int	i;
; 2654 : 
; 2655 : 	// first look for an exact key match
; 2656 : 	if( key )

	cmp	DWORD PTR _key$[ebp], 0
	je	SHORT $LN3@CL_AllocEl

; 2657 : 	{
; 2658 : 		for( i = 0, dl = cl_elights; i < MAX_ELIGHTS; i++, dl++ )

	mov	DWORD PTR _i$[ebp], 0
	mov	DWORD PTR _dl$[ebp], OFFSET _cl_elights
	jmp	SHORT $LN4@CL_AllocEl
$LN2@CL_AllocEl:
	mov	eax, DWORD PTR _i$[ebp]
	add	eax, 1
	mov	DWORD PTR _i$[ebp], eax
	mov	ecx, DWORD PTR _dl$[ebp]
	add	ecx, 40					; 00000028H
	mov	DWORD PTR _dl$[ebp], ecx
$LN4@CL_AllocEl:
	cmp	DWORD PTR _i$[ebp], 64			; 00000040H
	jge	SHORT $LN3@CL_AllocEl

; 2659 : 		{
; 2660 : 			if( dl->key == key )

	mov	eax, DWORD PTR _dl$[ebp]
	mov	ecx, DWORD PTR [eax+32]
	cmp	ecx, DWORD PTR _key$[ebp]
	jne	SHORT $LN9@CL_AllocEl

; 2661 : 			{
; 2662 : 				// reuse this light
; 2663 : 				memset( dl, 0, sizeof( *dl ));

	push	40					; 00000028H
	push	0
	mov	eax, DWORD PTR _dl$[ebp]
	push	eax
	call	_memset
	add	esp, 12					; 0000000cH

; 2664 : 				dl->key = key;

	mov	eax, DWORD PTR _dl$[ebp]
	mov	ecx, DWORD PTR _key$[ebp]
	mov	DWORD PTR [eax+32], ecx

; 2665 : 				return dl;

	mov	eax, DWORD PTR _dl$[ebp]
	jmp	$LN1@CL_AllocEl
$LN9@CL_AllocEl:

; 2666 : 			}
; 2667 : 		}

	jmp	SHORT $LN2@CL_AllocEl
$LN3@CL_AllocEl:

; 2668 : 	}
; 2669 : 
; 2670 : 	// then look for anything else
; 2671 : 	for( i = 0, dl = cl_elights; i < MAX_ELIGHTS; i++, dl++ )

	mov	DWORD PTR _i$[ebp], 0
	mov	DWORD PTR _dl$[ebp], OFFSET _cl_elights
	jmp	SHORT $LN7@CL_AllocEl
$LN5@CL_AllocEl:
	mov	eax, DWORD PTR _i$[ebp]
	add	eax, 1
	mov	DWORD PTR _i$[ebp], eax
	mov	ecx, DWORD PTR _dl$[ebp]
	add	ecx, 40					; 00000028H
	mov	DWORD PTR _dl$[ebp], ecx
$LN7@CL_AllocEl:
	cmp	DWORD PTR _i$[ebp], 64			; 00000040H
	jge	SHORT $LN6@CL_AllocEl

; 2672 : 	{
; 2673 : 		if( dl->die < cl.time && dl->key == 0 )

	mov	eax, DWORD PTR _dl$[ebp]
	cvtss2sd xmm0, DWORD PTR [eax+20]
	movsd	xmm1, QWORD PTR _cl+2167640
	comisd	xmm1, xmm0
	jbe	SHORT $LN10@CL_AllocEl
	mov	eax, DWORD PTR _dl$[ebp]
	cmp	DWORD PTR [eax+32], 0
	jne	SHORT $LN10@CL_AllocEl

; 2674 : 		{
; 2675 : 			memset( dl, 0, sizeof( *dl ));

	push	40					; 00000028H
	push	0
	mov	eax, DWORD PTR _dl$[ebp]
	push	eax
	call	_memset
	add	esp, 12					; 0000000cH

; 2676 : 			dl->key = key;

	mov	eax, DWORD PTR _dl$[ebp]
	mov	ecx, DWORD PTR _key$[ebp]
	mov	DWORD PTR [eax+32], ecx

; 2677 : 			return dl;

	mov	eax, DWORD PTR _dl$[ebp]
	jmp	SHORT $LN1@CL_AllocEl
$LN10@CL_AllocEl:

; 2678 : 		}
; 2679 : 	}

	jmp	SHORT $LN5@CL_AllocEl
$LN6@CL_AllocEl:

; 2680 : 
; 2681 : 	// otherwise grab first dlight
; 2682 : 	dl = &cl_elights[0];

	mov	eax, 40					; 00000028H
	imul	ecx, eax, 0
	add	ecx, OFFSET _cl_elights
	mov	DWORD PTR _dl$[ebp], ecx

; 2683 : 	memset( dl, 0, sizeof( *dl ));

	push	40					; 00000028H
	push	0
	mov	eax, DWORD PTR _dl$[ebp]
	push	eax
	call	_memset
	add	esp, 12					; 0000000cH

; 2684 : 	dl->key = key;

	mov	eax, DWORD PTR _dl$[ebp]
	mov	ecx, DWORD PTR _key$[ebp]
	mov	DWORD PTR [eax+32], ecx

; 2685 : 
; 2686 : 	return dl;

	mov	eax, DWORD PTR _dl$[ebp]
$LN1@CL_AllocEl:

; 2687 : }

	pop	edi
	pop	esi
	pop	ebx
	mov	esp, ebp
	pop	ebp
	ret	0
_CL_AllocElight ENDP
_TEXT	ENDS
; Function compile flags: /Odtp /ZI
; File D:\DevDragon\XashFE\dev\src\engine\client\cl_tent.c
;	COMDAT _CL_AllocDlight
_TEXT	SEGMENT
_i$ = -8						; size = 4
_dl$ = -4						; size = 4
_key$ = 8						; size = 4
_CL_AllocDlight PROC					; COMDAT

; 2606 : {

	push	ebp
	mov	ebp, esp
	sub	esp, 72					; 00000048H
	push	ebx
	push	esi
	push	edi

; 2607 : 	dlight_t	*dl;
; 2608 : 	int	i;
; 2609 : 
; 2610 : 	// first look for an exact key match
; 2611 : 	if( key )

	cmp	DWORD PTR _key$[ebp], 0
	je	SHORT $LN3@CL_AllocDl

; 2612 : 	{
; 2613 : 		for( i = 0, dl = cl_dlights; i < MAX_DLIGHTS; i++, dl++ )

	mov	DWORD PTR _i$[ebp], 0
	mov	DWORD PTR _dl$[ebp], OFFSET _cl_dlights
	jmp	SHORT $LN4@CL_AllocDl
$LN2@CL_AllocDl:
	mov	eax, DWORD PTR _i$[ebp]
	add	eax, 1
	mov	DWORD PTR _i$[ebp], eax
	mov	ecx, DWORD PTR _dl$[ebp]
	add	ecx, 40					; 00000028H
	mov	DWORD PTR _dl$[ebp], ecx
$LN4@CL_AllocDl:
	cmp	DWORD PTR _i$[ebp], 32			; 00000020H
	jge	SHORT $LN3@CL_AllocDl

; 2614 : 		{
; 2615 : 			if( dl->key == key )

	mov	eax, DWORD PTR _dl$[ebp]
	mov	ecx, DWORD PTR [eax+32]
	cmp	ecx, DWORD PTR _key$[ebp]
	jne	SHORT $LN9@CL_AllocDl

; 2616 : 			{
; 2617 : 				// reuse this light
; 2618 : 				memset( dl, 0, sizeof( *dl ));

	push	40					; 00000028H
	push	0
	mov	eax, DWORD PTR _dl$[ebp]
	push	eax
	call	_memset
	add	esp, 12					; 0000000cH

; 2619 : 				dl->key = key;

	mov	eax, DWORD PTR _dl$[ebp]
	mov	ecx, DWORD PTR _key$[ebp]
	mov	DWORD PTR [eax+32], ecx

; 2620 : 				return dl;

	mov	eax, DWORD PTR _dl$[ebp]
	jmp	$LN1@CL_AllocDl
$LN9@CL_AllocDl:

; 2621 : 			}
; 2622 : 		}

	jmp	SHORT $LN2@CL_AllocDl
$LN3@CL_AllocDl:

; 2623 : 	}
; 2624 : 
; 2625 : 	// then look for anything else
; 2626 : 	for( i = 0, dl = cl_dlights; i < MAX_DLIGHTS; i++, dl++ )

	mov	DWORD PTR _i$[ebp], 0
	mov	DWORD PTR _dl$[ebp], OFFSET _cl_dlights
	jmp	SHORT $LN7@CL_AllocDl
$LN5@CL_AllocDl:
	mov	eax, DWORD PTR _i$[ebp]
	add	eax, 1
	mov	DWORD PTR _i$[ebp], eax
	mov	ecx, DWORD PTR _dl$[ebp]
	add	ecx, 40					; 00000028H
	mov	DWORD PTR _dl$[ebp], ecx
$LN7@CL_AllocDl:
	cmp	DWORD PTR _i$[ebp], 32			; 00000020H
	jge	SHORT $LN6@CL_AllocDl

; 2627 : 	{
; 2628 : 		if( dl->die < cl.time && dl->key == 0 )

	mov	eax, DWORD PTR _dl$[ebp]
	cvtss2sd xmm0, DWORD PTR [eax+20]
	movsd	xmm1, QWORD PTR _cl+2167640
	comisd	xmm1, xmm0
	jbe	SHORT $LN10@CL_AllocDl
	mov	eax, DWORD PTR _dl$[ebp]
	cmp	DWORD PTR [eax+32], 0
	jne	SHORT $LN10@CL_AllocDl

; 2629 : 		{
; 2630 : 			memset( dl, 0, sizeof( *dl ));

	push	40					; 00000028H
	push	0
	mov	eax, DWORD PTR _dl$[ebp]
	push	eax
	call	_memset
	add	esp, 12					; 0000000cH

; 2631 : 			dl->key = key;

	mov	eax, DWORD PTR _dl$[ebp]
	mov	ecx, DWORD PTR _key$[ebp]
	mov	DWORD PTR [eax+32], ecx

; 2632 : 			return dl;

	mov	eax, DWORD PTR _dl$[ebp]
	jmp	SHORT $LN1@CL_AllocDl
$LN10@CL_AllocDl:

; 2633 : 		}
; 2634 : 	}

	jmp	SHORT $LN5@CL_AllocDl
$LN6@CL_AllocDl:

; 2635 : 
; 2636 : 	// otherwise grab first dlight
; 2637 : 	dl = &cl_dlights[0];

	mov	eax, 40					; 00000028H
	imul	ecx, eax, 0
	add	ecx, OFFSET _cl_dlights
	mov	DWORD PTR _dl$[ebp], ecx

; 2638 : 	memset( dl, 0, sizeof( *dl ));

	push	40					; 00000028H
	push	0
	mov	eax, DWORD PTR _dl$[ebp]
	push	eax
	call	_memset
	add	esp, 12					; 0000000cH

; 2639 : 	dl->key = key;

	mov	eax, DWORD PTR _dl$[ebp]
	mov	ecx, DWORD PTR _key$[ebp]
	mov	DWORD PTR [eax+32], ecx

; 2640 : 
; 2641 : 	return dl;

	mov	eax, DWORD PTR _dl$[ebp]
$LN1@CL_AllocDl:

; 2642 : }

	pop	edi
	pop	esi
	pop	ebx
	mov	esp, ebp
	pop	ebp
	ret	0
_CL_AllocDlight ENDP
_TEXT	ENDS
; Function compile flags: /Odtp /ZI
; File D:\DevDragon\XashFE\dev\src\engine\client\cl_tent.c
;	COMDAT _R_RicochetSound
_TEXT	SEGMENT
_handle$ = -48						; size = 4
_soundpath$ = -44					; size = 32
_fvol$ = -12						; size = 4
_iPitch$ = -8						; size = 4
__$ArrayPad$ = -4					; size = 4
_pos$ = 8						; size = 4
_R_RicochetSound PROC					; COMDAT

; 1646 : {

	push	ebp
	mov	ebp, esp
	sub	esp, 112				; 00000070H
	mov	eax, DWORD PTR ___security_cookie
	xor	eax, ebp
	mov	DWORD PTR __$ArrayPad$[ebp], eax
	push	ebx
	push	esi
	push	edi

; 1647 : 	int	iPitch = COM_RandomLong( 90, 105 );

	push	105					; 00000069H
	push	90					; 0000005aH
	call	_COM_RandomLong
	add	esp, 8
	mov	DWORD PTR _iPitch$[ebp], eax

; 1648 : 	float	fvol = COM_RandomFloat( 0.7f, 0.9f );

	push	ecx
	movss	xmm0, DWORD PTR __real@3f666666
	movss	DWORD PTR [esp], xmm0
	push	ecx
	movss	xmm0, DWORD PTR __real@3f333333
	movss	DWORD PTR [esp], xmm0
	call	_COM_RandomFloat
	add	esp, 8
	fstp	DWORD PTR _fvol$[ebp]

; 1649 : 	char	soundpath[32];
; 1650 : 	sound_t	handle;
; 1651 : 
; 1652 : 	Q_snprintf( soundpath, sizeof( soundpath ), "%s", cl_ricochet_sounds[COM_RandomLong( 0, 4 )] );

	push	4
	push	0
	call	_COM_RandomLong
	add	esp, 8
	mov	eax, DWORD PTR _cl_ricochet_sounds[eax*4]
	push	eax
	push	OFFSET ??_C@_02DKCKIIND@?$CFs@
	push	32					; 00000020H
	lea	ecx, DWORD PTR _soundpath$[ebp]
	push	ecx
	call	_Q_snprintf
	add	esp, 16					; 00000010H

; 1653 : 	handle = S_RegisterSound( soundpath );

	lea	eax, DWORD PTR _soundpath$[ebp]
	push	eax
	call	_S_RegisterSound
	add	esp, 4
	mov	DWORD PTR _handle$[ebp], eax

; 1654 : 
; 1655 : 	S_StartSound( pos, 0, CHAN_AUTO, handle, fvol, ATTN_NORM, iPitch, 0 );

	push	0
	mov	eax, DWORD PTR _iPitch$[ebp]
	push	eax
	push	ecx
	movss	xmm0, DWORD PTR __real@3f4ccccd
	movss	DWORD PTR [esp], xmm0
	push	ecx
	movss	xmm0, DWORD PTR _fvol$[ebp]
	movss	DWORD PTR [esp], xmm0
	mov	ecx, DWORD PTR _handle$[ebp]
	push	ecx
	push	0
	push	0
	mov	edx, DWORD PTR _pos$[ebp]
	push	edx
	call	_S_StartSound
	add	esp, 32					; 00000020H

; 1656 : }

	pop	edi
	pop	esi
	pop	ebx
	mov	ecx, DWORD PTR __$ArrayPad$[ebp]
	xor	ecx, ebp
	call	@__security_check_cookie@4
	mov	esp, ebp
	pop	ebp
	ret	0
_R_RicochetSound ENDP
_TEXT	ENDS
; Function compile flags: /Odtp /ZI
; File D:\DevDragon\XashFE\dev\src\engine\client\cl_tent.c
;	COMDAT _R_Sprite_WallPuff
_TEXT	SEGMENT
_pTemp$ = 8						; size = 4
_scale$ = 12						; size = 4
_R_Sprite_WallPuff PROC					; COMDAT

; 2011 : {

	push	ebp
	mov	ebp, esp
	sub	esp, 64					; 00000040H
	push	ebx
	push	esi
	push	edi

; 2012 : 	if( !pTemp ) return;

	cmp	DWORD PTR _pTemp$[ebp], 0
	jne	SHORT $LN2@R_Sprite_W
	jmp	$LN1@R_Sprite_W
$LN2@R_Sprite_W:

; 2013 : 
; 2014 : 	pTemp->entity.curstate.renderamt = 255;

	mov	eax, DWORD PTR _pTemp$[ebp]
	mov	DWORD PTR [eax+1056], 255		; 000000ffH

; 2015 : 	pTemp->entity.curstate.rendermode = kRenderTransAlpha;

	mov	eax, DWORD PTR _pTemp$[ebp]
	mov	DWORD PTR [eax+1052], 4

; 2016 : 	pTemp->entity.angles[ROLL] = COM_RandomLong( 0, 359 );

	push	359					; 00000167H
	push	0
	call	_COM_RandomLong
	add	esp, 8
	mov	ecx, 4
	shl	ecx, 1
	cvtsi2ss xmm0, eax
	mov	edx, DWORD PTR _pTemp$[ebp]
	movss	DWORD PTR [edx+ecx+3304], xmm0

; 2017 : 	pTemp->entity.baseline.origin[2] = 30;

	mov	eax, 4
	shl	eax, 1
	mov	ecx, DWORD PTR _pTemp$[ebp]
	movss	xmm0, DWORD PTR __real@41f00000
	movss	DWORD PTR [ecx+eax+92], xmm0

; 2018 : 	pTemp->entity.curstate.scale = scale;

	mov	eax, DWORD PTR _pTemp$[ebp]
	movss	xmm0, DWORD PTR _scale$[ebp]
	movss	DWORD PTR [eax+1044], xmm0

; 2019 : 	pTemp->die = cl.time + 0.01f;

	movsd	xmm0, QWORD PTR _cl+2167640
	addsd	xmm0, QWORD PTR __real@3f847ae140000000
	cvtsd2ss xmm0, xmm0
	mov	eax, DWORD PTR _pTemp$[ebp]
	movss	DWORD PTR [eax+4], xmm0
$LN1@R_Sprite_W:

; 2020 : }

	pop	edi
	pop	esi
	pop	ebx
	mov	esp, ebp
	pop	ebp
	ret	0
_R_Sprite_WallPuff ENDP
_TEXT	ENDS
; Function compile flags: /Odtp /ZI
; File D:\DevDragon\XashFE\dev\src\engine\client\cl_tent.c
;	COMDAT _R_PlayerSprites
_TEXT	SEGMENT
tv360 = -116						; size = 4
tv349 = -116						; size = 4
tv338 = -116						; size = 4
tv260 = -116						; size = 4
tv206 = -116						; size = 4
tv177 = -116						; size = 4
_ilength$1 = -48					; size = 4
_i$ = -44						; size = 4
_vel$ = -40						; size = 4
_dir$ = -36						; size = 12
_position$ = -24					; size = 12
_pEnt$ = -12						; size = 4
_pTemp$ = -8						; size = 4
__$ArrayPad$ = -4					; size = 4
_client$ = 8						; size = 4
_modelIndex$ = 12					; size = 4
_count$ = 16						; size = 4
_size$ = 20						; size = 4
_R_PlayerSprites PROC					; COMDAT

; 1815 : {

	push	ebp
	mov	ebp, esp
	sub	esp, 116				; 00000074H
	mov	eax, DWORD PTR ___security_cookie
	xor	eax, ebp
	mov	DWORD PTR __$ArrayPad$[ebp], eax
	push	ebx
	push	esi
	push	edi

; 1816 : 	TEMPENTITY	*pTemp;
; 1817 : 	cl_entity_t	*pEnt;
; 1818 : 	vec3_t		position;
; 1819 : 	vec3_t		dir;
; 1820 : 	float		vel;
; 1821 : 	int		i;
; 1822 : 
; 1823 : 	pEnt = CL_GetEntityByIndex( client );

	mov	eax, DWORD PTR _client$[ebp]
	push	eax
	call	_CL_GetEntityByIndex
	add	esp, 4
	mov	DWORD PTR _pEnt$[ebp], eax

; 1824 : 
; 1825 : 	if( !pEnt || !pEnt->player )

	cmp	DWORD PTR _pEnt$[ebp], 0
	je	SHORT $LN6@R_PlayerSp
	mov	eax, DWORD PTR _pEnt$[ebp]
	cmp	DWORD PTR [eax+4], 0
	jne	SHORT $LN5@R_PlayerSp
$LN6@R_PlayerSp:

; 1826 : 		return;

	jmp	$LN3@R_PlayerSp
$LN5@R_PlayerSp:

; 1827 : 
; 1828 : 	vel = 128;

	movss	xmm0, DWORD PTR __real@43000000
	movss	DWORD PTR _vel$[ebp], xmm0

; 1829 : 
; 1830 : 	for( i = 0; i < count; i++ )

	mov	DWORD PTR _i$[ebp], 0
	jmp	SHORT $LN4@R_PlayerSp
$LN2@R_PlayerSp:
	mov	eax, DWORD PTR _i$[ebp]
	add	eax, 1
	mov	DWORD PTR _i$[ebp], eax
$LN4@R_PlayerSp:
	mov	eax, DWORD PTR _i$[ebp]
	cmp	eax, DWORD PTR _count$[ebp]
	jge	$LN3@R_PlayerSp

; 1831 : 	{
; 1832 : 		VectorCopy( pEnt->origin, position );

	mov	eax, 4
	imul	ecx, eax, 0
	mov	edx, 4
	imul	eax, edx, 0
	mov	edx, DWORD PTR _pEnt$[ebp]
	mov	ecx, DWORD PTR [edx+ecx+3224]
	mov	DWORD PTR _position$[ebp+eax], ecx
	mov	edx, 4
	shl	edx, 0
	mov	eax, 4
	shl	eax, 0
	mov	ecx, DWORD PTR _pEnt$[ebp]
	mov	edx, DWORD PTR [ecx+edx+3224]
	mov	DWORD PTR _position$[ebp+eax], edx
	mov	eax, 4
	shl	eax, 1
	mov	ecx, 4
	shl	ecx, 1
	mov	edx, DWORD PTR _pEnt$[ebp]
	mov	eax, DWORD PTR [edx+eax+3224]
	mov	DWORD PTR _position$[ebp+ecx], eax

; 1833 : 		position[0] += COM_RandomFloat( -10.0f, 10.0f );

	mov	eax, 4
	imul	esi, eax, 0
	push	ecx
	movss	xmm0, DWORD PTR __real@41200000
	movss	DWORD PTR [esp], xmm0
	push	ecx
	movss	xmm0, DWORD PTR __real@c1200000
	movss	DWORD PTR [esp], xmm0
	call	_COM_RandomFloat
	add	esp, 8
	fstp	DWORD PTR tv338[ebp]
	movss	xmm0, DWORD PTR tv338[ebp]
	addss	xmm0, DWORD PTR _position$[ebp+esi]
	mov	ecx, 4
	imul	edx, ecx, 0
	movss	DWORD PTR _position$[ebp+edx], xmm0

; 1834 : 		position[1] += COM_RandomFloat( -10.0f, 10.0f );

	mov	esi, 4
	shl	esi, 0
	push	ecx
	movss	xmm0, DWORD PTR __real@41200000
	movss	DWORD PTR [esp], xmm0
	push	ecx
	movss	xmm0, DWORD PTR __real@c1200000
	movss	DWORD PTR [esp], xmm0
	call	_COM_RandomFloat
	add	esp, 8
	fstp	DWORD PTR tv349[ebp]
	movss	xmm0, DWORD PTR tv349[ebp]
	addss	xmm0, DWORD PTR _position$[ebp+esi]
	mov	eax, 4
	shl	eax, 0
	movss	DWORD PTR _position$[ebp+eax], xmm0

; 1835 : 		position[2] += COM_RandomFloat( -20.0f, 36.0f );

	mov	esi, 4
	shl	esi, 1
	push	ecx
	movss	xmm0, DWORD PTR __real@42100000
	movss	DWORD PTR [esp], xmm0
	push	ecx
	movss	xmm0, DWORD PTR __real@c1a00000
	movss	DWORD PTR [esp], xmm0
	call	_COM_RandomFloat
	add	esp, 8
	fstp	DWORD PTR tv360[ebp]
	movss	xmm0, DWORD PTR tv360[ebp]
	addss	xmm0, DWORD PTR _position$[ebp+esi]
	mov	eax, 4
	shl	eax, 1
	movss	DWORD PTR _position$[ebp+eax], xmm0

; 1836 : 
; 1837 : 		pTemp = CL_TempEntAlloc( position, CL_ModelHandle( modelIndex ));

	mov	eax, DWORD PTR _modelIndex$[ebp]
	push	eax
	call	_CL_ModelHandle
	add	esp, 4
	push	eax
	lea	ecx, DWORD PTR _position$[ebp]
	push	ecx
	call	_CL_TempEntAlloc
	add	esp, 8
	mov	DWORD PTR _pTemp$[ebp], eax

; 1838 : 		if( !pTemp ) return;

	cmp	DWORD PTR _pTemp$[ebp], 0
	jne	SHORT $LN7@R_PlayerSp
	jmp	$LN3@R_PlayerSp
$LN7@R_PlayerSp:

; 1839 : 
; 1840 : 		VectorSubtract( pTemp->entity.origin, pEnt->origin, pTemp->tentOffset );

	mov	eax, 4
	imul	ecx, eax, 0
	mov	edx, 4
	imul	eax, edx, 0
	mov	edx, DWORD PTR _pTemp$[ebp]
	mov	esi, DWORD PTR _pEnt$[ebp]
	movss	xmm0, DWORD PTR [edx+ecx+3292]
	subss	xmm0, DWORD PTR [esi+eax+3224]
	mov	eax, 4
	imul	ecx, eax, 0
	mov	edx, DWORD PTR _pTemp$[ebp]
	movss	DWORD PTR [edx+ecx+56], xmm0
	mov	eax, 4
	shl	eax, 0
	mov	ecx, 4
	shl	ecx, 0
	mov	edx, DWORD PTR _pTemp$[ebp]
	mov	esi, DWORD PTR _pEnt$[ebp]
	movss	xmm0, DWORD PTR [edx+eax+3292]
	subss	xmm0, DWORD PTR [esi+ecx+3224]
	mov	eax, 4
	shl	eax, 0
	mov	ecx, DWORD PTR _pTemp$[ebp]
	movss	DWORD PTR [ecx+eax+56], xmm0
	mov	edx, 4
	shl	edx, 1
	mov	eax, 4
	shl	eax, 1
	mov	ecx, DWORD PTR _pTemp$[ebp]
	mov	esi, DWORD PTR _pEnt$[ebp]
	movss	xmm0, DWORD PTR [ecx+edx+3292]
	subss	xmm0, DWORD PTR [esi+eax+3224]
	movss	DWORD PTR tv177[ebp], xmm0
	mov	edx, 4
	shl	edx, 1
	mov	eax, DWORD PTR _pTemp$[ebp]
	movss	xmm0, DWORD PTR tv177[ebp]
	movss	DWORD PTR [eax+edx+56], xmm0

; 1841 : 
; 1842 : 		if ( i != 0 )

	cmp	DWORD PTR _i$[ebp], 0
	je	SHORT $LN8@R_PlayerSp

; 1843 : 		{
; 1844 : 			pTemp->flags |= FTENT_PLYRATTACHMENT;

	mov	eax, DWORD PTR _pTemp$[ebp]
	mov	ecx, DWORD PTR [eax]
	or	ecx, 32768				; 00008000H
	mov	edx, DWORD PTR _pTemp$[ebp]
	mov	DWORD PTR [edx], ecx

; 1845 : 			pTemp->clientIndex = client;

	mov	eax, DWORD PTR _pTemp$[ebp]
	mov	cx, WORD PTR _client$[ebp]
	mov	WORD PTR [eax+52], cx

; 1846 : 		}

	jmp	$LN9@R_PlayerSp
$LN8@R_PlayerSp:

; 1847 : 		else
; 1848 : 		{
; 1849 : 			VectorSubtract( position, pEnt->origin, dir );

	mov	eax, 4
	imul	ecx, eax, 0
	mov	edx, 4
	imul	eax, edx, 0
	mov	edx, DWORD PTR _pEnt$[ebp]
	movss	xmm0, DWORD PTR _position$[ebp+ecx]
	subss	xmm0, DWORD PTR [edx+eax+3224]
	mov	eax, 4
	imul	ecx, eax, 0
	movss	DWORD PTR _dir$[ebp+ecx], xmm0
	mov	edx, 4
	shl	edx, 0
	mov	eax, 4
	shl	eax, 0
	mov	ecx, DWORD PTR _pEnt$[ebp]
	movss	xmm0, DWORD PTR _position$[ebp+edx]
	subss	xmm0, DWORD PTR [ecx+eax+3224]
	mov	edx, 4
	shl	edx, 0
	movss	DWORD PTR _dir$[ebp+edx], xmm0
	mov	eax, 4
	shl	eax, 1
	mov	ecx, 4
	shl	ecx, 1
	mov	edx, DWORD PTR _pEnt$[ebp]
	movss	xmm0, DWORD PTR _position$[ebp+eax]
	subss	xmm0, DWORD PTR [edx+ecx+3224]
	movss	DWORD PTR tv206[ebp], xmm0
	mov	eax, 4
	shl	eax, 1
	movss	xmm0, DWORD PTR tv206[ebp]
	movss	DWORD PTR _dir$[ebp+eax], xmm0

; 1850 : 			VectorNormalize( dir );

	mov	eax, 4
	imul	ecx, eax, 0
	mov	edx, 4
	imul	eax, edx, 0
	movss	xmm0, DWORD PTR _dir$[ebp+ecx]
	mulss	xmm0, DWORD PTR _dir$[ebp+eax]
	mov	ecx, 4
	shl	ecx, 0
	mov	edx, 4
	shl	edx, 0
	movss	xmm1, DWORD PTR _dir$[ebp+ecx]
	mulss	xmm1, DWORD PTR _dir$[ebp+edx]
	addss	xmm0, xmm1
	mov	eax, 4
	shl	eax, 1
	mov	ecx, 4
	shl	ecx, 1
	movss	xmm1, DWORD PTR _dir$[ebp+eax]
	mulss	xmm1, DWORD PTR _dir$[ebp+ecx]
	addss	xmm0, xmm1
	cvtss2sd xmm0, xmm0
	sub	esp, 8
	movsd	QWORD PTR [esp], xmm0
	call	_sqrt
	add	esp, 8
	fstp	DWORD PTR _ilength$1[ebp]
	movss	xmm0, DWORD PTR _ilength$1[ebp]
	ucomiss	xmm0, DWORD PTR __real@00000000
	lahf
	test	ah, 68					; 00000044H
	jnp	SHORT $LN10@R_PlayerSp
	movss	xmm0, DWORD PTR __real@3f800000
	divss	xmm0, DWORD PTR _ilength$1[ebp]
	movss	DWORD PTR _ilength$1[ebp], xmm0
$LN10@R_PlayerSp:
	mov	eax, 4
	imul	ecx, eax, 0
	movss	xmm0, DWORD PTR _dir$[ebp+ecx]
	mulss	xmm0, DWORD PTR _ilength$1[ebp]
	mov	edx, 4
	imul	eax, edx, 0
	movss	DWORD PTR _dir$[ebp+eax], xmm0
	mov	eax, 4
	shl	eax, 0
	movss	xmm0, DWORD PTR _dir$[ebp+eax]
	mulss	xmm0, DWORD PTR _ilength$1[ebp]
	mov	ecx, 4
	shl	ecx, 0
	movss	DWORD PTR _dir$[ebp+ecx], xmm0
	mov	eax, 4
	shl	eax, 1
	movss	xmm0, DWORD PTR _dir$[ebp+eax]
	mulss	xmm0, DWORD PTR _ilength$1[ebp]
	mov	ecx, 4
	shl	ecx, 1
	movss	DWORD PTR _dir$[ebp+ecx], xmm0

; 1851 : 			VectorScale( dir, 60, dir );

	mov	eax, 4
	imul	ecx, eax, 0
	movss	xmm0, DWORD PTR _dir$[ebp+ecx]
	mulss	xmm0, DWORD PTR __real@42700000
	mov	edx, 4
	imul	eax, edx, 0
	movss	DWORD PTR _dir$[ebp+eax], xmm0
	mov	ecx, 4
	shl	ecx, 0
	movss	xmm0, DWORD PTR _dir$[ebp+ecx]
	mulss	xmm0, DWORD PTR __real@42700000
	mov	edx, 4
	shl	edx, 0
	movss	DWORD PTR _dir$[ebp+edx], xmm0
	mov	eax, 4
	shl	eax, 1
	movss	xmm0, DWORD PTR _dir$[ebp+eax]
	mulss	xmm0, DWORD PTR __real@42700000
	movss	DWORD PTR tv260[ebp], xmm0
	mov	ecx, 4
	shl	ecx, 1
	movss	xmm0, DWORD PTR tv260[ebp]
	movss	DWORD PTR _dir$[ebp+ecx], xmm0

; 1852 : 			VectorCopy( dir, pTemp->entity.baseline.origin );

	mov	eax, 4
	imul	ecx, eax, 0
	mov	edx, 4
	imul	eax, edx, 0
	mov	edx, DWORD PTR _pTemp$[ebp]
	mov	ecx, DWORD PTR _dir$[ebp+ecx]
	mov	DWORD PTR [edx+eax+92], ecx
	mov	edx, 4
	shl	edx, 0
	mov	eax, 4
	shl	eax, 0
	mov	ecx, DWORD PTR _pTemp$[ebp]
	mov	edx, DWORD PTR _dir$[ebp+edx]
	mov	DWORD PTR [ecx+eax+92], edx
	mov	eax, 4
	shl	eax, 1
	mov	ecx, 4
	shl	ecx, 1
	mov	edx, DWORD PTR _pTemp$[ebp]
	mov	eax, DWORD PTR _dir$[ebp+eax]
	mov	DWORD PTR [edx+ecx+92], eax

; 1853 : 			pTemp->entity.baseline.origin[1] = COM_RandomFloat( 20.0f, 60.0f );

	push	ecx
	movss	xmm0, DWORD PTR __real@42700000
	movss	DWORD PTR [esp], xmm0
	push	ecx
	movss	xmm0, DWORD PTR __real@41a00000
	movss	DWORD PTR [esp], xmm0
	call	_COM_RandomFloat
	add	esp, 8
	mov	eax, 4
	shl	eax, 0
	mov	ecx, DWORD PTR _pTemp$[ebp]
	fstp	DWORD PTR [ecx+eax+92]
$LN9@R_PlayerSp:

; 1854 : 		}
; 1855 : 
; 1856 : 		pTemp->entity.curstate.renderfx = kRenderFxNoDissipation;

	mov	eax, DWORD PTR _pTemp$[ebp]
	mov	DWORD PTR [eax+1064], 14		; 0000000eH

; 1857 : 		pTemp->entity.curstate.framerate = COM_RandomFloat( 1.0f - (size / 100.0f ), 1.0f );

	push	ecx
	movss	xmm0, DWORD PTR __real@3f800000
	movss	DWORD PTR [esp], xmm0
	cvtsi2ss xmm0, DWORD PTR _size$[ebp]
	divss	xmm0, DWORD PTR __real@42c80000
	movss	xmm1, DWORD PTR __real@3f800000
	subss	xmm1, xmm0
	push	ecx
	movss	DWORD PTR [esp], xmm1
	call	_COM_RandomFloat
	add	esp, 8
	mov	eax, DWORD PTR _pTemp$[ebp]
	fstp	DWORD PTR [eax+1076]

; 1858 : 
; 1859 : 		if( pTemp->frameMax > 1 )

	mov	eax, DWORD PTR _pTemp$[ebp]
	movss	xmm0, DWORD PTR [eax+8]
	comiss	xmm0, DWORD PTR __real@3f800000
	jbe	SHORT $LN11@R_PlayerSp

; 1860 : 		{
; 1861 : 			pTemp->flags |= FTENT_SPRANIMATE;

	mov	eax, DWORD PTR _pTemp$[ebp]
	mov	ecx, DWORD PTR [eax]
	or	ecx, 256				; 00000100H
	mov	edx, DWORD PTR _pTemp$[ebp]
	mov	DWORD PTR [edx], ecx

; 1862 : 			pTemp->entity.curstate.framerate = 20.0f;

	mov	eax, DWORD PTR _pTemp$[ebp]
	movss	xmm0, DWORD PTR __real@41a00000
	movss	DWORD PTR [eax+1076], xmm0

; 1863 : 			pTemp->die = cl.time + (pTemp->frameMax * 0.05f);

	mov	eax, DWORD PTR _pTemp$[ebp]
	movss	xmm0, DWORD PTR [eax+8]
	mulss	xmm0, DWORD PTR __real@3d4ccccd
	cvtss2sd xmm0, xmm0
	addsd	xmm0, QWORD PTR _cl+2167640
	cvtsd2ss xmm0, xmm0
	mov	ecx, DWORD PTR _pTemp$[ebp]
	movss	DWORD PTR [ecx+4], xmm0

; 1864 : 		}

	jmp	SHORT $LN12@R_PlayerSp
$LN11@R_PlayerSp:

; 1865 : 		else
; 1866 : 		{
; 1867 : 			pTemp->die = cl.time + 0.35f;

	movsd	xmm0, QWORD PTR _cl+2167640
	addsd	xmm0, QWORD PTR __real@3fd6666660000000
	cvtsd2ss xmm0, xmm0
	mov	eax, DWORD PTR _pTemp$[ebp]
	movss	DWORD PTR [eax+4], xmm0
$LN12@R_PlayerSp:

; 1868 : 		}
; 1869 : 	}

	jmp	$LN2@R_PlayerSp
$LN3@R_PlayerSp:

; 1870 : }

	pop	edi
	pop	esi
	pop	ebx
	mov	ecx, DWORD PTR __$ArrayPad$[ebp]
	xor	ecx, ebp
	call	@__security_check_cookie@4
	mov	esp, ebp
	pop	ebp
	ret	0
_R_PlayerSprites ENDP
_TEXT	ENDS
; Function compile flags: /Odtp /ZI
; File D:\DevDragon\XashFE\dev\src\engine\client\cl_tent.c
;	COMDAT _R_FireField
_TEXT	SEGMENT
tv285 = -100						; size = 4
tv253 = -100						; size = 4
tv242 = -100						; size = 4
tv232 = -100						; size = 4
_i$ = -32						; size = 4
_pos$ = -28						; size = 12
_time$ = -16						; size = 4
_pmodel$ = -12						; size = 4
_pTemp$ = -8						; size = 4
__$ArrayPad$ = -4					; size = 4
_org$ = 8						; size = 4
_radius$ = 12						; size = 4
_modelIndex$ = 16					; size = 4
_count$ = 20						; size = 4
_flags$ = 24						; size = 4
_life$ = 28						; size = 4
_R_FireField PROC					; COMDAT

; 1880 : {

	push	ebp
	mov	ebp, esp
	sub	esp, 100				; 00000064H
	mov	eax, DWORD PTR ___security_cookie
	xor	eax, ebp
	mov	DWORD PTR __$ArrayPad$[ebp], eax
	push	ebx
	push	esi
	push	edi

; 1881 : 	TEMPENTITY	*pTemp;
; 1882 : 	model_t		*pmodel;
; 1883 : 	float		time;
; 1884 : 	vec3_t		pos;
; 1885 : 	int		i;
; 1886 : 
; 1887 : 	if(( pmodel = CL_ModelHandle( modelIndex )) == NULL )

	mov	eax, DWORD PTR _modelIndex$[ebp]
	push	eax
	call	_CL_ModelHandle
	add	esp, 4
	mov	DWORD PTR _pmodel$[ebp], eax
	cmp	DWORD PTR _pmodel$[ebp], 0
	jne	SHORT $LN5@R_FireFiel

; 1888 : 		return;

	jmp	$LN3@R_FireFiel
$LN5@R_FireFiel:

; 1889 : 
; 1890 : 	for( i = 0; i < count; i++ )

	mov	DWORD PTR _i$[ebp], 0
	jmp	SHORT $LN4@R_FireFiel
$LN2@R_FireFiel:
	mov	eax, DWORD PTR _i$[ebp]
	add	eax, 1
	mov	DWORD PTR _i$[ebp], eax
$LN4@R_FireFiel:
	mov	eax, DWORD PTR _i$[ebp]
	cmp	eax, DWORD PTR _count$[ebp]
	jge	$LN3@R_FireFiel

; 1891 : 	{
; 1892 : 		VectorCopy( org, pos );

	mov	eax, 4
	imul	ecx, eax, 0
	mov	edx, 4
	imul	eax, edx, 0
	mov	edx, DWORD PTR _org$[ebp]
	mov	ecx, DWORD PTR [edx+ecx]
	mov	DWORD PTR _pos$[ebp+eax], ecx
	mov	edx, 4
	shl	edx, 0
	mov	eax, 4
	shl	eax, 0
	mov	ecx, DWORD PTR _org$[ebp]
	mov	edx, DWORD PTR [ecx+edx]
	mov	DWORD PTR _pos$[ebp+eax], edx
	mov	eax, 4
	shl	eax, 1
	mov	ecx, 4
	shl	ecx, 1
	mov	edx, DWORD PTR _org$[ebp]
	mov	eax, DWORD PTR [edx+eax]
	mov	DWORD PTR _pos$[ebp+ecx], eax

; 1893 : 		pos[0] += COM_RandomFloat( -radius, radius );

	mov	eax, 4
	imul	esi, eax, 0
	cvtsi2ss xmm0, DWORD PTR _radius$[ebp]
	push	ecx
	movss	DWORD PTR [esp], xmm0
	mov	ecx, DWORD PTR _radius$[ebp]
	neg	ecx
	cvtsi2ss xmm0, ecx
	push	ecx
	movss	DWORD PTR [esp], xmm0
	call	_COM_RandomFloat
	add	esp, 8
	fstp	DWORD PTR tv232[ebp]
	movss	xmm0, DWORD PTR tv232[ebp]
	addss	xmm0, DWORD PTR _pos$[ebp+esi]
	mov	edx, 4
	imul	eax, edx, 0
	movss	DWORD PTR _pos$[ebp+eax], xmm0

; 1894 : 		pos[1] += COM_RandomFloat( -radius, radius );

	mov	esi, 4
	shl	esi, 0
	cvtsi2ss xmm0, DWORD PTR _radius$[ebp]
	push	ecx
	movss	DWORD PTR [esp], xmm0
	mov	eax, DWORD PTR _radius$[ebp]
	neg	eax
	cvtsi2ss xmm0, eax
	push	ecx
	movss	DWORD PTR [esp], xmm0
	call	_COM_RandomFloat
	add	esp, 8
	fstp	DWORD PTR tv242[ebp]
	movss	xmm0, DWORD PTR tv242[ebp]
	addss	xmm0, DWORD PTR _pos$[ebp+esi]
	mov	ecx, 4
	shl	ecx, 0
	movss	DWORD PTR _pos$[ebp+ecx], xmm0

; 1895 : 
; 1896 : 		if( !FBitSet( flags, TEFIRE_FLAG_PLANAR ))

	mov	eax, DWORD PTR _flags$[ebp]
	and	eax, 16					; 00000010H
	jne	SHORT $LN6@R_FireFiel

; 1897 : 			pos[2] += COM_RandomFloat( -radius, radius );

	mov	esi, 4
	shl	esi, 1
	cvtsi2ss xmm0, DWORD PTR _radius$[ebp]
	push	ecx
	movss	DWORD PTR [esp], xmm0
	mov	eax, DWORD PTR _radius$[ebp]
	neg	eax
	cvtsi2ss xmm0, eax
	push	ecx
	movss	DWORD PTR [esp], xmm0
	call	_COM_RandomFloat
	add	esp, 8
	fstp	DWORD PTR tv253[ebp]
	movss	xmm0, DWORD PTR tv253[ebp]
	addss	xmm0, DWORD PTR _pos$[ebp+esi]
	mov	ecx, 4
	shl	ecx, 1
	movss	DWORD PTR _pos$[ebp+ecx], xmm0
$LN6@R_FireFiel:

; 1898 : 
; 1899 : 		pTemp = CL_TempEntAlloc( pos, pmodel );

	mov	eax, DWORD PTR _pmodel$[ebp]
	push	eax
	lea	ecx, DWORD PTR _pos$[ebp]
	push	ecx
	call	_CL_TempEntAlloc
	add	esp, 8
	mov	DWORD PTR _pTemp$[ebp], eax

; 1900 : 		if( !pTemp ) return;

	cmp	DWORD PTR _pTemp$[ebp], 0
	jne	SHORT $LN7@R_FireFiel
	jmp	$LN3@R_FireFiel
$LN7@R_FireFiel:

; 1901 : 
; 1902 : 		if( FBitSet( flags, TEFIRE_FLAG_ALPHA ))

	mov	eax, DWORD PTR _flags$[ebp]
	and	eax, 8
	je	SHORT $LN8@R_FireFiel

; 1903 : 		{
; 1904 : 			pTemp->entity.curstate.rendermode = kRenderTransAlpha;

	mov	eax, DWORD PTR _pTemp$[ebp]
	mov	DWORD PTR [eax+1052], 4

; 1905 : 			pTemp->entity.curstate.renderfx = kRenderFxNoDissipation;

	mov	eax, DWORD PTR _pTemp$[ebp]
	mov	DWORD PTR [eax+1064], 14		; 0000000eH

; 1906 : 			pTemp->entity.baseline.renderamt = pTemp->entity.curstate.renderamt = 128;

	mov	eax, DWORD PTR _pTemp$[ebp]
	mov	DWORD PTR [eax+1056], 128		; 00000080H
	mov	ecx, DWORD PTR _pTemp$[ebp]
	mov	DWORD PTR [ecx+152], 128		; 00000080H

; 1907 : 		}

	jmp	SHORT $LN11@R_FireFiel
$LN8@R_FireFiel:

; 1908 : 		else if( FBitSet( flags, TEFIRE_FLAG_ADDITIVE ))

	mov	eax, DWORD PTR _flags$[ebp]
	and	eax, 32					; 00000020H
	je	SHORT $LN10@R_FireFiel

; 1909 : 		{
; 1910 : 			pTemp->entity.curstate.rendermode = kRenderTransAdd;

	mov	eax, DWORD PTR _pTemp$[ebp]
	mov	DWORD PTR [eax+1052], 5

; 1911 : 			pTemp->entity.curstate.renderamt = 80;

	mov	eax, DWORD PTR _pTemp$[ebp]
	mov	DWORD PTR [eax+1056], 80		; 00000050H

; 1912 : 		}

	jmp	SHORT $LN11@R_FireFiel
$LN10@R_FireFiel:

; 1913 : 		else
; 1914 : 		{
; 1915 : 			pTemp->entity.curstate.rendermode = kRenderNormal;

	mov	eax, DWORD PTR _pTemp$[ebp]
	mov	DWORD PTR [eax+1052], 0

; 1916 : 			pTemp->entity.curstate.renderfx = kRenderFxNoDissipation;

	mov	eax, DWORD PTR _pTemp$[ebp]
	mov	DWORD PTR [eax+1064], 14		; 0000000eH

; 1917 : 			pTemp->entity.baseline.renderamt = pTemp->entity.curstate.renderamt = 255;

	mov	eax, DWORD PTR _pTemp$[ebp]
	mov	DWORD PTR [eax+1056], 255		; 000000ffH
	mov	ecx, DWORD PTR _pTemp$[ebp]
	mov	DWORD PTR [ecx+152], 255		; 000000ffH
$LN11@R_FireFiel:

; 1918 : 		}
; 1919 : 
; 1920 : 		pTemp->entity.curstate.framerate = COM_RandomFloat( 0.75f, 1.25f );

	push	ecx
	movss	xmm0, DWORD PTR __real@3fa00000
	movss	DWORD PTR [esp], xmm0
	push	ecx
	movss	xmm0, DWORD PTR __real@3f400000
	movss	DWORD PTR [esp], xmm0
	call	_COM_RandomFloat
	add	esp, 8
	mov	eax, DWORD PTR _pTemp$[ebp]
	fstp	DWORD PTR [eax+1076]

; 1921 : 		time = life + COM_RandomFloat( -0.25f, 0.5f );

	push	ecx
	movss	xmm0, DWORD PTR __real@3f000000
	movss	DWORD PTR [esp], xmm0
	push	ecx
	movss	xmm0, DWORD PTR __real@be800000
	movss	DWORD PTR [esp], xmm0
	call	_COM_RandomFloat
	add	esp, 8
	fstp	DWORD PTR tv285[ebp]
	movss	xmm0, DWORD PTR tv285[ebp]
	addss	xmm0, DWORD PTR _life$[ebp]
	movss	DWORD PTR _time$[ebp], xmm0

; 1922 : 		pTemp->die = cl.time + time;

	cvtss2sd xmm0, DWORD PTR _time$[ebp]
	addsd	xmm0, QWORD PTR _cl+2167640
	cvtsd2ss xmm0, xmm0
	mov	eax, DWORD PTR _pTemp$[ebp]
	movss	DWORD PTR [eax+4], xmm0

; 1923 : 
; 1924 : 		if( pTemp->frameMax > 1 )

	mov	eax, DWORD PTR _pTemp$[ebp]
	movss	xmm0, DWORD PTR [eax+8]
	comiss	xmm0, DWORD PTR __real@3f800000
	jbe	SHORT $LN14@R_FireFiel

; 1925 : 		{
; 1926 : 			pTemp->flags |= FTENT_SPRANIMATE;

	mov	eax, DWORD PTR _pTemp$[ebp]
	mov	ecx, DWORD PTR [eax]
	or	ecx, 256				; 00000100H
	mov	edx, DWORD PTR _pTemp$[ebp]
	mov	DWORD PTR [edx], ecx

; 1927 : 
; 1928 : 			if( FBitSet( flags, TEFIRE_FLAG_LOOP ))

	mov	eax, DWORD PTR _flags$[ebp]
	and	eax, 4
	je	SHORT $LN13@R_FireFiel

; 1929 : 			{
; 1930 : 				pTemp->entity.curstate.framerate = 15.0f;

	mov	eax, DWORD PTR _pTemp$[ebp]
	movss	xmm0, DWORD PTR __real@41700000
	movss	DWORD PTR [eax+1076], xmm0

; 1931 : 				pTemp->flags |= FTENT_SPRANIMATELOOP;

	mov	eax, DWORD PTR _pTemp$[ebp]
	mov	ecx, DWORD PTR [eax]
	or	ecx, 65536				; 00010000H
	mov	edx, DWORD PTR _pTemp$[ebp]
	mov	DWORD PTR [edx], ecx

; 1932 : 			}

	jmp	SHORT $LN14@R_FireFiel
$LN13@R_FireFiel:

; 1933 : 			else
; 1934 : 			{
; 1935 : 				pTemp->entity.curstate.framerate = pTemp->frameMax / time;

	mov	eax, DWORD PTR _pTemp$[ebp]
	movss	xmm0, DWORD PTR [eax+8]
	divss	xmm0, DWORD PTR _time$[ebp]
	mov	ecx, DWORD PTR _pTemp$[ebp]
	movss	DWORD PTR [ecx+1076], xmm0
$LN14@R_FireFiel:

; 1936 : 			}
; 1937 : 		}
; 1938 : 
; 1939 : 		if( FBitSet( flags, TEFIRE_FLAG_ALLFLOAT ) || ( FBitSet( flags, TEFIRE_FLAG_SOMEFLOAT ) && !COM_RandomLong( 0, 1 )))

	mov	eax, DWORD PTR _flags$[ebp]
	and	eax, 1
	jne	SHORT $LN16@R_FireFiel
	mov	eax, DWORD PTR _flags$[ebp]
	and	eax, 2
	je	SHORT $LN15@R_FireFiel
	push	1
	push	0
	call	_COM_RandomLong
	add	esp, 8
	test	eax, eax
	jne	SHORT $LN15@R_FireFiel
$LN16@R_FireFiel:

; 1940 : 		{
; 1941 : 			// drift sprite upward
; 1942 : 			pTemp->entity.baseline.origin[2] = COM_RandomFloat( 10.0f, 30.0f );

	push	ecx
	movss	xmm0, DWORD PTR __real@41f00000
	movss	DWORD PTR [esp], xmm0
	push	ecx
	movss	xmm0, DWORD PTR __real@41200000
	movss	DWORD PTR [esp], xmm0
	call	_COM_RandomFloat
	add	esp, 8
	mov	eax, 4
	shl	eax, 1
	mov	ecx, DWORD PTR _pTemp$[ebp]
	fstp	DWORD PTR [ecx+eax+92]
$LN15@R_FireFiel:

; 1943 : 		}
; 1944 : 	}

	jmp	$LN2@R_FireFiel
$LN3@R_FireFiel:

; 1945 : }

	pop	edi
	pop	esi
	pop	ebx
	mov	ecx, DWORD PTR __$ArrayPad$[ebp]
	xor	ecx, ebp
	call	@__security_check_cookie@4
	mov	esp, ebp
	pop	ebp
	ret	0
_R_FireField ENDP
_TEXT	ENDS
; Function compile flags: /Odtp /ZI
; File D:\DevDragon\XashFE\dev\src\engine\client\cl_tent.c
;	COMDAT _R_MultiGunshot
_TEXT	SEGMENT
tv249 = -308						; size = 4
tv233 = -308						; size = 4
tv304 = -304						; size = 4
tv302 = -304						; size = 4
tv241 = -300						; size = 4
tv225 = -300						; size = 4
$T1 = -296						; size = 68
_e$2 = -164						; size = 4
_pe$3 = -160						; size = 4
_z$4 = -156						; size = 4
_y$5 = -152						; size = 4
_x$6 = -148						; size = 4
_decalIndex$ = -144					; size = 4
_j$ = -140						; size = 4
_i$ = -136						; size = 4
_vecEnd$ = -132						; size = 12
_vecDir$ = -120						; size = 12
_vecSrc$ = -108						; size = 12
_up$ = -96						; size = 12
_right$ = -84						; size = 12
_trace$ = -72						; size = 68
__$ArrayPad$ = -4					; size = 4
_org$ = 8						; size = 4
_dir$ = 12						; size = 4
_noise$ = 16						; size = 4
_count$ = 20						; size = 4
_decalCount$ = 24					; size = 4
_decalIndices$ = 28					; size = 4
_R_MultiGunshot PROC					; COMDAT

; 1955 : {

	push	ebp
	mov	ebp, esp
	sub	esp, 308				; 00000134H
	mov	eax, DWORD PTR ___security_cookie
	xor	eax, ebp
	mov	DWORD PTR __$ArrayPad$[ebp], eax
	push	ebx
	push	esi
	push	edi

; 1956 : 	pmtrace_t	trace;
; 1957 : 	vec3_t	right, up;
; 1958 : 	vec3_t	vecSrc, vecDir, vecEnd;
; 1959 : 	int	i, j, decalIndex;
; 1960 : 
; 1961 : 	VectorVectors( dir, right, up );

	lea	eax, DWORD PTR _up$[ebp]
	push	eax
	lea	ecx, DWORD PTR _right$[ebp]
	push	ecx
	mov	edx, DWORD PTR _dir$[ebp]
	push	edx
	call	_VectorVectors
	add	esp, 12					; 0000000cH

; 1962 : 	VectorCopy( org, vecSrc );

	mov	eax, 4
	imul	ecx, eax, 0
	mov	edx, 4
	imul	eax, edx, 0
	mov	edx, DWORD PTR _org$[ebp]
	mov	ecx, DWORD PTR [edx+ecx]
	mov	DWORD PTR _vecSrc$[ebp+eax], ecx
	mov	edx, 4
	shl	edx, 0
	mov	eax, 4
	shl	eax, 0
	mov	ecx, DWORD PTR _org$[ebp]
	mov	edx, DWORD PTR [ecx+edx]
	mov	DWORD PTR _vecSrc$[ebp+eax], edx
	mov	eax, 4
	shl	eax, 1
	mov	ecx, 4
	shl	ecx, 1
	mov	edx, DWORD PTR _org$[ebp]
	mov	eax, DWORD PTR [edx+eax]
	mov	DWORD PTR _vecSrc$[ebp+ecx], eax

; 1963 : 
; 1964 : 	for( i = 0; i < count; i++ )

	mov	DWORD PTR _i$[ebp], 0
	jmp	SHORT $LN4@R_MultiGun
$LN2@R_MultiGun:
	mov	eax, DWORD PTR _i$[ebp]
	add	eax, 1
	mov	DWORD PTR _i$[ebp], eax
$LN4@R_MultiGun:
	mov	eax, DWORD PTR _i$[ebp]
	cmp	eax, DWORD PTR _count$[ebp]
	jge	$LN3@R_MultiGun
$LN7@R_MultiGun:

; 1965 : 	{
; 1966 : 		// get circular gaussian spread
; 1967 : 		float x, y, z;
; 1968 : 		do {
; 1969 : 			x = COM_RandomFloat( -0.5f, 0.5f ) + COM_RandomFloat( -0.5f, 0.5f );

	push	ecx
	movss	xmm0, DWORD PTR __real@3f000000
	movss	DWORD PTR [esp], xmm0
	push	ecx
	movss	xmm0, DWORD PTR __real@bf000000
	movss	DWORD PTR [esp], xmm0
	call	_COM_RandomFloat
	add	esp, 8
	fstp	DWORD PTR tv225[ebp]
	movss	xmm0, DWORD PTR tv225[ebp]
	push	ecx
	movss	xmm1, DWORD PTR __real@3f000000
	movss	DWORD PTR [esp], xmm1
	push	ecx
	movss	xmm1, DWORD PTR __real@bf000000
	movss	DWORD PTR [esp], xmm1
	movss	DWORD PTR tv302[ebp], xmm0
	call	_COM_RandomFloat
	add	esp, 8
	fstp	DWORD PTR tv233[ebp]
	movss	xmm0, DWORD PTR tv302[ebp]
	addss	xmm0, DWORD PTR tv233[ebp]
	movss	DWORD PTR _x$6[ebp], xmm0

; 1970 : 			y = COM_RandomFloat( -0.5f, 0.5f ) + COM_RandomFloat( -0.5f, 0.5f );

	push	ecx
	movss	xmm0, DWORD PTR __real@3f000000
	movss	DWORD PTR [esp], xmm0
	push	ecx
	movss	xmm0, DWORD PTR __real@bf000000
	movss	DWORD PTR [esp], xmm0
	call	_COM_RandomFloat
	add	esp, 8
	fstp	DWORD PTR tv241[ebp]
	movss	xmm0, DWORD PTR tv241[ebp]
	push	ecx
	movss	xmm1, DWORD PTR __real@3f000000
	movss	DWORD PTR [esp], xmm1
	push	ecx
	movss	xmm1, DWORD PTR __real@bf000000
	movss	DWORD PTR [esp], xmm1
	movss	DWORD PTR tv304[ebp], xmm0
	call	_COM_RandomFloat
	add	esp, 8
	fstp	DWORD PTR tv249[ebp]
	movss	xmm0, DWORD PTR tv304[ebp]
	addss	xmm0, DWORD PTR tv249[ebp]
	movss	DWORD PTR _y$5[ebp], xmm0

; 1971 : 			z = x * x + y * y;

	movss	xmm0, DWORD PTR _x$6[ebp]
	mulss	xmm0, DWORD PTR _x$6[ebp]
	movss	xmm1, DWORD PTR _y$5[ebp]
	mulss	xmm1, DWORD PTR _y$5[ebp]
	addss	xmm0, xmm1
	movss	DWORD PTR _z$4[ebp], xmm0

; 1972 : 		} while( z > 1.0f );

	movss	xmm0, DWORD PTR _z$4[ebp]
	comiss	xmm0, DWORD PTR __real@3f800000
	ja	$LN7@R_MultiGun

; 1973 : 
; 1974 : 		for( j = 0; j < 3; j++ )

	mov	DWORD PTR _j$[ebp], 0
	jmp	SHORT $LN10@R_MultiGun
$LN8@R_MultiGun:
	mov	eax, DWORD PTR _j$[ebp]
	add	eax, 1
	mov	DWORD PTR _j$[ebp], eax
$LN10@R_MultiGun:
	cmp	DWORD PTR _j$[ebp], 3
	jge	$LN9@R_MultiGun

; 1975 : 		{
; 1976 : 			vecDir[j] = dir[j] + x * noise[0] * right[j] + y * noise[1] * up[j];

	mov	eax, 4
	imul	ecx, eax, 0
	mov	edx, DWORD PTR _noise$[ebp]
	movss	xmm0, DWORD PTR _x$6[ebp]
	mulss	xmm0, DWORD PTR [edx+ecx]
	mov	eax, DWORD PTR _j$[ebp]
	mulss	xmm0, DWORD PTR _right$[ebp+eax*4]
	mov	ecx, DWORD PTR _j$[ebp]
	mov	edx, DWORD PTR _dir$[ebp]
	addss	xmm0, DWORD PTR [edx+ecx*4]
	mov	eax, 4
	shl	eax, 0
	mov	ecx, DWORD PTR _noise$[ebp]
	movss	xmm1, DWORD PTR _y$5[ebp]
	mulss	xmm1, DWORD PTR [ecx+eax]
	mov	edx, DWORD PTR _j$[ebp]
	mulss	xmm1, DWORD PTR _up$[ebp+edx*4]
	addss	xmm0, xmm1
	mov	eax, DWORD PTR _j$[ebp]
	movss	DWORD PTR _vecDir$[ebp+eax*4], xmm0

; 1977 : 			vecEnd[j] = vecSrc[j] + 4096.0f * vecDir[j];

	mov	eax, DWORD PTR _j$[ebp]
	movss	xmm0, DWORD PTR __real@45800000
	mulss	xmm0, DWORD PTR _vecDir$[ebp+eax*4]
	mov	ecx, DWORD PTR _j$[ebp]
	addss	xmm0, DWORD PTR _vecSrc$[ebp+ecx*4]
	mov	edx, DWORD PTR _j$[ebp]
	movss	DWORD PTR _vecEnd$[ebp+edx*4], xmm0

; 1978 : 		}

	jmp	$LN8@R_MultiGun
$LN9@R_MultiGun:

; 1979 : 
; 1980 : 		trace = CL_TraceLine( vecSrc, vecEnd, PM_STUDIO_IGNORE );

	push	1
	lea	eax, DWORD PTR _vecEnd$[ebp]
	push	eax
	lea	ecx, DWORD PTR _vecSrc$[ebp]
	push	ecx
	lea	edx, DWORD PTR $T1[ebp]
	push	edx
	call	_CL_TraceLine
	add	esp, 16					; 00000010H
	mov	ecx, 17					; 00000011H
	mov	esi, eax
	lea	edi, DWORD PTR _trace$[ebp]
	rep movsd

; 1981 : 
; 1982 : 		// paint decals
; 1983 : 		if( trace.fraction != 1.0f )

	movss	xmm0, DWORD PTR _trace$[ebp+16]
	ucomiss	xmm0, DWORD PTR __real@3f800000
	lahf
	test	ah, 68					; 00000044H
	jnp	$LN14@R_MultiGun

; 1984 : 		{
; 1985 : 			physent_t	*pe = NULL;

	mov	DWORD PTR _pe$3[ebp], 0

; 1986 : 
; 1987 : 			if( i & 2 ) R_RicochetSound( trace.endpos );

	mov	eax, DWORD PTR _i$[ebp]
	and	eax, 2
	je	SHORT $LN12@R_MultiGun
	lea	eax, DWORD PTR _trace$[ebp+20]
	push	eax
	call	_R_RicochetSound
	add	esp, 4
$LN12@R_MultiGun:

; 1988 : 			R_BulletImpactParticles( trace.endpos );

	lea	eax, DWORD PTR _trace$[ebp+20]
	push	eax
	call	_R_BulletImpactParticles
	add	esp, 4

; 1989 : 
; 1990 : 			if( trace.ent >= 0 && trace.ent < clgame.pmove->numphysent )

	cmp	DWORD PTR _trace$[ebp+48], 0
	jl	SHORT $LN13@R_MultiGun
	mov	eax, DWORD PTR _clgame+1344
	mov	ecx, DWORD PTR _trace$[ebp+48]
	cmp	ecx, DWORD PTR [eax+588]
	jge	SHORT $LN13@R_MultiGun

; 1991 : 				pe = &clgame.pmove->physents[trace.ent];

	imul	eax, DWORD PTR _trace$[ebp+48], 224
	mov	ecx, DWORD PTR _clgame+1344
	lea	edx, DWORD PTR [ecx+eax+592]
	mov	DWORD PTR _pe$3[ebp], edx
$LN13@R_MultiGun:

; 1992 : 
; 1993 : 			if( pe && ( pe->solid == SOLID_BSP || pe->movetype == MOVETYPE_PUSHSTEP ))

	cmp	DWORD PTR _pe$3[ebp], 0
	je	SHORT $LN14@R_MultiGun
	mov	eax, DWORD PTR _pe$3[ebp]
	cmp	DWORD PTR [eax+96], 4
	je	SHORT $LN15@R_MultiGun
	mov	eax, DWORD PTR _pe$3[ebp]
	cmp	DWORD PTR [eax+124], 13			; 0000000dH
	jne	SHORT $LN14@R_MultiGun
$LN15@R_MultiGun:

; 1994 : 			{
; 1995 : 				cl_entity_t *e = CL_GetEntityByIndex( pe->info );

	mov	eax, DWORD PTR _pe$3[ebp]
	mov	ecx, DWORD PTR [eax+80]
	push	ecx
	call	_CL_GetEntityByIndex
	add	esp, 4
	mov	DWORD PTR _e$2[ebp], eax

; 1996 : 				decalIndex = CL_DecalIndex( decalIndices[COM_RandomLong( 0, decalCount-1 )] );

	mov	eax, DWORD PTR _decalCount$[ebp]
	sub	eax, 1
	push	eax
	push	0
	call	_COM_RandomLong
	add	esp, 8
	mov	ecx, DWORD PTR _decalIndices$[ebp]
	mov	edx, DWORD PTR [ecx+eax*4]
	push	edx
	call	_CL_DecalIndex
	add	esp, 4
	mov	DWORD PTR _decalIndex$[ebp], eax

; 1997 : 				CL_DecalShoot( decalIndex, e->index, 0, trace.endpos, 0 );

	push	0
	lea	eax, DWORD PTR _trace$[ebp+20]
	push	eax
	push	0
	mov	ecx, DWORD PTR _e$2[ebp]
	mov	edx, DWORD PTR [ecx]
	push	edx
	mov	eax, DWORD PTR _decalIndex$[ebp]
	push	eax
	call	_CL_DecalShoot
	add	esp, 20					; 00000014H
$LN14@R_MultiGun:

; 1998 : 			}
; 1999 : 		}
; 2000 : 	}

	jmp	$LN2@R_MultiGun
$LN3@R_MultiGun:

; 2001 : }

	pop	edi
	pop	esi
	pop	ebx
	mov	ecx, DWORD PTR __$ArrayPad$[ebp]
	xor	ecx, ebp
	call	@__security_check_cookie@4
	mov	esp, ebp
	pop	ebp
	ret	0
_R_MultiGunshot ENDP
_TEXT	ENDS
; Function compile flags: /Odtp /ZI
; File D:\DevDragon\XashFE\dev\src\engine\client\cl_tent.c
;	COMDAT _R_TempSphereModel
_TEXT	SEGMENT
tv247 = -80						; size = 4
_ilength$1 = -12					; size = 4
_i$ = -8						; size = 4
_pTemp$ = -4						; size = 4
_pos$ = 8						; size = 4
_speed$ = 12						; size = 4
_life$ = 16						; size = 4
_count$ = 20						; size = 4
_modelIndex$ = 24					; size = 4
_R_TempSphereModel PROC					; COMDAT

; 1715 : {

	push	ebp
	mov	ebp, esp
	sub	esp, 80					; 00000050H
	push	ebx
	push	esi
	push	edi

; 1716 : 	TEMPENTITY	*pTemp;
; 1717 : 	int		i;
; 1718 : 
; 1719 : 	// create temp models
; 1720 : 	for( i = 0; i < count; i++ )

	mov	DWORD PTR _i$[ebp], 0
	jmp	SHORT $LN4@R_TempSphe
$LN2@R_TempSphe:
	mov	eax, DWORD PTR _i$[ebp]
	add	eax, 1
	mov	DWORD PTR _i$[ebp], eax
$LN4@R_TempSphe:
	mov	eax, DWORD PTR _i$[ebp]
	cmp	eax, DWORD PTR _count$[ebp]
	jge	$LN3@R_TempSphe

; 1721 : 	{
; 1722 : 		pTemp = CL_TempEntAlloc( pos, CL_ModelHandle( modelIndex ));

	mov	eax, DWORD PTR _modelIndex$[ebp]
	push	eax
	call	_CL_ModelHandle
	add	esp, 4
	push	eax
	mov	ecx, DWORD PTR _pos$[ebp]
	push	ecx
	call	_CL_TempEntAlloc
	add	esp, 8
	mov	DWORD PTR _pTemp$[ebp], eax

; 1723 : 		if( !pTemp ) return;

	cmp	DWORD PTR _pTemp$[ebp], 0
	jne	SHORT $LN5@R_TempSphe
	jmp	$LN3@R_TempSphe
$LN5@R_TempSphe:

; 1724 : 
; 1725 : 		pTemp->entity.curstate.body = COM_RandomLong( 0, pTemp->frameMax );

	mov	eax, DWORD PTR _pTemp$[ebp]
	cvttss2si ecx, DWORD PTR [eax+8]
	push	ecx
	push	0
	call	_COM_RandomLong
	add	esp, 8
	mov	edx, DWORD PTR _pTemp$[ebp]
	mov	DWORD PTR [edx+1100], eax

; 1726 : 
; 1727 : 		if( COM_RandomLong( 0, 255 ) < 10 )

	push	255					; 000000ffH
	push	0
	call	_COM_RandomLong
	add	esp, 8
	cmp	eax, 10					; 0000000aH
	jge	SHORT $LN6@R_TempSphe

; 1728 : 			pTemp->flags |= FTENT_SLOWGRAVITY;

	mov	eax, DWORD PTR _pTemp$[ebp]
	mov	ecx, DWORD PTR [eax]
	or	ecx, 8
	mov	edx, DWORD PTR _pTemp$[ebp]
	mov	DWORD PTR [edx], ecx
	jmp	SHORT $LN7@R_TempSphe
$LN6@R_TempSphe:

; 1729 : 		else pTemp->flags |= FTENT_GRAVITY;

	mov	eax, DWORD PTR _pTemp$[ebp]
	mov	ecx, DWORD PTR [eax]
	or	ecx, 2
	mov	edx, DWORD PTR _pTemp$[ebp]
	mov	DWORD PTR [edx], ecx
$LN7@R_TempSphe:

; 1730 : 
; 1731 : 		if( COM_RandomLong( 0, 255 ) < 200 )

	push	255					; 000000ffH
	push	0
	call	_COM_RandomLong
	add	esp, 8
	cmp	eax, 200				; 000000c8H
	jge	$LN8@R_TempSphe

; 1732 : 		{
; 1733 : 			pTemp->flags |= FTENT_ROTATE;

	mov	eax, DWORD PTR _pTemp$[ebp]
	mov	ecx, DWORD PTR [eax]
	or	ecx, 4
	mov	edx, DWORD PTR _pTemp$[ebp]
	mov	DWORD PTR [edx], ecx

; 1734 : 			pTemp->entity.baseline.angles[0] = COM_RandomFloat( -256.0f, -255.0f );

	push	ecx
	movss	xmm0, DWORD PTR __real@c37f0000
	movss	DWORD PTR [esp], xmm0
	push	ecx
	movss	xmm0, DWORD PTR __real@c3800000
	movss	DWORD PTR [esp], xmm0
	call	_COM_RandomFloat
	add	esp, 8
	mov	eax, 4
	imul	ecx, eax, 0
	mov	edx, DWORD PTR _pTemp$[ebp]
	fstp	DWORD PTR [edx+ecx+104]

; 1735 : 			pTemp->entity.baseline.angles[1] = COM_RandomFloat( -256.0f, -255.0f );

	push	ecx
	movss	xmm0, DWORD PTR __real@c37f0000
	movss	DWORD PTR [esp], xmm0
	push	ecx
	movss	xmm0, DWORD PTR __real@c3800000
	movss	DWORD PTR [esp], xmm0
	call	_COM_RandomFloat
	add	esp, 8
	mov	eax, 4
	shl	eax, 0
	mov	ecx, DWORD PTR _pTemp$[ebp]
	fstp	DWORD PTR [ecx+eax+104]

; 1736 : 			pTemp->entity.baseline.angles[2] = COM_RandomFloat( -256.0f, -255.0f );

	push	ecx
	movss	xmm0, DWORD PTR __real@c37f0000
	movss	DWORD PTR [esp], xmm0
	push	ecx
	movss	xmm0, DWORD PTR __real@c3800000
	movss	DWORD PTR [esp], xmm0
	call	_COM_RandomFloat
	add	esp, 8
	mov	eax, 4
	shl	eax, 1
	mov	ecx, DWORD PTR _pTemp$[ebp]
	fstp	DWORD PTR [ecx+eax+104]
$LN8@R_TempSphe:

; 1737 : 		}
; 1738 : 
; 1739 : 		if( COM_RandomLong( 0, 255 ) < 100 )

	push	255					; 000000ffH
	push	0
	call	_COM_RandomLong
	add	esp, 8
	cmp	eax, 100				; 00000064H
	jge	SHORT $LN9@R_TempSphe

; 1740 : 			pTemp->flags |= FTENT_SMOKETRAIL;

	mov	eax, DWORD PTR _pTemp$[ebp]
	mov	ecx, DWORD PTR [eax]
	or	ecx, 16					; 00000010H
	mov	edx, DWORD PTR _pTemp$[ebp]
	mov	DWORD PTR [edx], ecx
$LN9@R_TempSphe:

; 1741 : 
; 1742 : 		pTemp->flags |= FTENT_FLICKER | FTENT_COLLIDEWORLD;

	mov	eax, DWORD PTR _pTemp$[ebp]
	mov	ecx, DWORD PTR [eax]
	or	ecx, 96					; 00000060H
	mov	edx, DWORD PTR _pTemp$[ebp]
	mov	DWORD PTR [edx], ecx

; 1743 : 		pTemp->entity.curstate.rendermode = kRenderNormal;

	mov	eax, DWORD PTR _pTemp$[ebp]
	mov	DWORD PTR [eax+1052], 0

; 1744 : 		pTemp->entity.curstate.effects = i & 31;

	mov	eax, DWORD PTR _i$[ebp]
	and	eax, 31					; 0000001fH
	mov	ecx, DWORD PTR _pTemp$[ebp]
	mov	DWORD PTR [ecx+1040], eax

; 1745 : 		pTemp->entity.baseline.origin[0] = COM_RandomFloat( -1.0f, 1.0f );

	push	ecx
	movss	xmm0, DWORD PTR __real@3f800000
	movss	DWORD PTR [esp], xmm0
	push	ecx
	movss	xmm0, DWORD PTR __real@bf800000
	movss	DWORD PTR [esp], xmm0
	call	_COM_RandomFloat
	add	esp, 8
	mov	eax, 4
	imul	ecx, eax, 0
	mov	edx, DWORD PTR _pTemp$[ebp]
	fstp	DWORD PTR [edx+ecx+92]

; 1746 : 		pTemp->entity.baseline.origin[1] = COM_RandomFloat( -1.0f, 1.0f );

	push	ecx
	movss	xmm0, DWORD PTR __real@3f800000
	movss	DWORD PTR [esp], xmm0
	push	ecx
	movss	xmm0, DWORD PTR __real@bf800000
	movss	DWORD PTR [esp], xmm0
	call	_COM_RandomFloat
	add	esp, 8
	mov	eax, 4
	shl	eax, 0
	mov	ecx, DWORD PTR _pTemp$[ebp]
	fstp	DWORD PTR [ecx+eax+92]

; 1747 : 		pTemp->entity.baseline.origin[2] = COM_RandomFloat( -1.0f, 1.0f );

	push	ecx
	movss	xmm0, DWORD PTR __real@3f800000
	movss	DWORD PTR [esp], xmm0
	push	ecx
	movss	xmm0, DWORD PTR __real@bf800000
	movss	DWORD PTR [esp], xmm0
	call	_COM_RandomFloat
	add	esp, 8
	mov	eax, 4
	shl	eax, 1
	mov	ecx, DWORD PTR _pTemp$[ebp]
	fstp	DWORD PTR [ecx+eax+92]

; 1748 : 
; 1749 : 		VectorNormalize( pTemp->entity.baseline.origin );

	mov	eax, 4
	imul	ecx, eax, 0
	mov	edx, 4
	imul	eax, edx, 0
	mov	edx, DWORD PTR _pTemp$[ebp]
	mov	esi, DWORD PTR _pTemp$[ebp]
	movss	xmm0, DWORD PTR [edx+ecx+92]
	mulss	xmm0, DWORD PTR [esi+eax+92]
	mov	eax, 4
	shl	eax, 0
	mov	ecx, 4
	shl	ecx, 0
	mov	edx, DWORD PTR _pTemp$[ebp]
	mov	esi, DWORD PTR _pTemp$[ebp]
	movss	xmm1, DWORD PTR [edx+eax+92]
	mulss	xmm1, DWORD PTR [esi+ecx+92]
	addss	xmm0, xmm1
	mov	eax, 4
	shl	eax, 1
	mov	ecx, 4
	shl	ecx, 1
	mov	edx, DWORD PTR _pTemp$[ebp]
	mov	esi, DWORD PTR _pTemp$[ebp]
	movss	xmm1, DWORD PTR [edx+eax+92]
	mulss	xmm1, DWORD PTR [esi+ecx+92]
	addss	xmm0, xmm1
	cvtss2sd xmm0, xmm0
	sub	esp, 8
	movsd	QWORD PTR [esp], xmm0
	call	_sqrt
	add	esp, 8
	fstp	DWORD PTR _ilength$1[ebp]
	movss	xmm0, DWORD PTR _ilength$1[ebp]
	ucomiss	xmm0, DWORD PTR __real@00000000
	lahf
	test	ah, 68					; 00000044H
	jnp	SHORT $LN10@R_TempSphe
	movss	xmm0, DWORD PTR __real@3f800000
	divss	xmm0, DWORD PTR _ilength$1[ebp]
	movss	DWORD PTR _ilength$1[ebp], xmm0
$LN10@R_TempSphe:
	mov	eax, 4
	imul	ecx, eax, 0
	mov	edx, DWORD PTR _pTemp$[ebp]
	movss	xmm0, DWORD PTR [edx+ecx+92]
	mulss	xmm0, DWORD PTR _ilength$1[ebp]
	mov	eax, 4
	imul	ecx, eax, 0
	mov	edx, DWORD PTR _pTemp$[ebp]
	movss	DWORD PTR [edx+ecx+92], xmm0
	mov	eax, 4
	shl	eax, 0
	mov	ecx, DWORD PTR _pTemp$[ebp]
	movss	xmm0, DWORD PTR [ecx+eax+92]
	mulss	xmm0, DWORD PTR _ilength$1[ebp]
	mov	edx, 4
	shl	edx, 0
	mov	eax, DWORD PTR _pTemp$[ebp]
	movss	DWORD PTR [eax+edx+92], xmm0
	mov	eax, 4
	shl	eax, 1
	mov	ecx, DWORD PTR _pTemp$[ebp]
	movss	xmm0, DWORD PTR [ecx+eax+92]
	mulss	xmm0, DWORD PTR _ilength$1[ebp]
	mov	edx, 4
	shl	edx, 1
	mov	eax, DWORD PTR _pTemp$[ebp]
	movss	DWORD PTR [eax+edx+92], xmm0

; 1750 : 		VectorScale( pTemp->entity.baseline.origin, speed, pTemp->entity.baseline.origin );

	mov	eax, 4
	imul	ecx, eax, 0
	mov	edx, DWORD PTR _pTemp$[ebp]
	movss	xmm0, DWORD PTR [edx+ecx+92]
	mulss	xmm0, DWORD PTR _speed$[ebp]
	mov	eax, 4
	imul	ecx, eax, 0
	mov	edx, DWORD PTR _pTemp$[ebp]
	movss	DWORD PTR [edx+ecx+92], xmm0
	mov	eax, 4
	shl	eax, 0
	mov	ecx, DWORD PTR _pTemp$[ebp]
	movss	xmm0, DWORD PTR [ecx+eax+92]
	mulss	xmm0, DWORD PTR _speed$[ebp]
	mov	edx, 4
	shl	edx, 0
	mov	eax, DWORD PTR _pTemp$[ebp]
	movss	DWORD PTR [eax+edx+92], xmm0
	mov	ecx, 4
	shl	ecx, 1
	mov	edx, DWORD PTR _pTemp$[ebp]
	movss	xmm0, DWORD PTR [edx+ecx+92]
	mulss	xmm0, DWORD PTR _speed$[ebp]
	movss	DWORD PTR tv247[ebp], xmm0
	mov	eax, 4
	shl	eax, 1
	mov	ecx, DWORD PTR _pTemp$[ebp]
	movss	xmm0, DWORD PTR tv247[ebp]
	movss	DWORD PTR [ecx+eax+92], xmm0

; 1751 : 		pTemp->die = cl.time + life;

	cvtss2sd xmm0, DWORD PTR _life$[ebp]
	addsd	xmm0, QWORD PTR _cl+2167640
	cvtsd2ss xmm0, xmm0
	mov	eax, DWORD PTR _pTemp$[ebp]
	movss	DWORD PTR [eax+4], xmm0

; 1752 : 	}

	jmp	$LN2@R_TempSphe
$LN3@R_TempSphe:

; 1753 : }

	pop	edi
	pop	esi
	pop	ebx
	mov	esp, ebp
	pop	ebp
	ret	0
_R_TempSphereModel ENDP
_TEXT	ENDS
; Function compile flags: /Odtp /ZI
; File D:\DevDragon\XashFE\dev\src\engine\client\cl_tent.c
;	COMDAT _R_Projectile
_TEXT	SEGMENT
tv183 = -100						; size = 4
tv182 = -96						; size = 4
_ilength$1 = -28					; size = 4
_dir$ = -24						; size = 12
_pmodel$ = -12						; size = 4
_pTemp$ = -8						; size = 4
__$ArrayPad$ = -4					; size = 4
_origin$ = 8						; size = 4
_velocity$ = 12						; size = 4
_modelIndex$ = 16					; size = 4
_life$ = 20						; size = 4
_owner$ = 24						; size = 4
_hitcallback$ = 28					; size = 4
_R_Projectile PROC					; COMDAT

; 1666 : {

	push	ebp
	mov	ebp, esp
	sub	esp, 100				; 00000064H
	mov	eax, DWORD PTR ___security_cookie
	xor	eax, ebp
	mov	DWORD PTR __$ArrayPad$[ebp], eax
	push	ebx
	push	esi
	push	edi

; 1667 : 	TEMPENTITY	*pTemp;
; 1668 : 	model_t		*pmodel;
; 1669 : 	vec3_t		dir;
; 1670 : 
; 1671 : 	if(( pmodel = CL_ModelHandle( modelIndex )) == NULL )

	mov	eax, DWORD PTR _modelIndex$[ebp]
	push	eax
	call	_CL_ModelHandle
	add	esp, 4
	mov	DWORD PTR _pmodel$[ebp], eax
	cmp	DWORD PTR _pmodel$[ebp], 0
	jne	SHORT $LN2@R_Projecti

; 1672 : 		return;

	jmp	$LN1@R_Projecti
$LN2@R_Projecti:

; 1673 : 
; 1674 : 	pTemp = CL_TempEntAllocHigh( origin, pmodel );

	mov	eax, DWORD PTR _pmodel$[ebp]
	push	eax
	mov	ecx, DWORD PTR _origin$[ebp]
	push	ecx
	call	_CL_TempEntAllocHigh
	add	esp, 8
	mov	DWORD PTR _pTemp$[ebp], eax

; 1675 : 	if( !pTemp ) return;

	cmp	DWORD PTR _pTemp$[ebp], 0
	jne	SHORT $LN3@R_Projecti
	jmp	$LN1@R_Projecti
$LN3@R_Projecti:

; 1676 : 
; 1677 : 	VectorCopy( velocity, pTemp->entity.baseline.origin );

	mov	eax, 4
	imul	ecx, eax, 0
	mov	edx, 4
	imul	eax, edx, 0
	mov	edx, DWORD PTR _pTemp$[ebp]
	mov	esi, DWORD PTR _velocity$[ebp]
	mov	ecx, DWORD PTR [esi+ecx]
	mov	DWORD PTR [edx+eax+92], ecx
	mov	edx, 4
	shl	edx, 0
	mov	eax, 4
	shl	eax, 0
	mov	ecx, DWORD PTR _pTemp$[ebp]
	mov	esi, DWORD PTR _velocity$[ebp]
	mov	edx, DWORD PTR [esi+edx]
	mov	DWORD PTR [ecx+eax+92], edx
	mov	eax, 4
	shl	eax, 1
	mov	ecx, 4
	shl	ecx, 1
	mov	edx, DWORD PTR _pTemp$[ebp]
	mov	esi, DWORD PTR _velocity$[ebp]
	mov	eax, DWORD PTR [esi+eax]
	mov	DWORD PTR [edx+ecx+92], eax

; 1678 : 
; 1679 : 	if( pmodel->type == mod_sprite )

	mov	eax, DWORD PTR _pmodel$[ebp]
	cmp	DWORD PTR [eax+68], 1
	jne	SHORT $LN4@R_Projecti

; 1680 : 	{
; 1681 : 		SetBits( pTemp->flags, FTENT_SPRANIMATE );

	mov	eax, DWORD PTR _pTemp$[ebp]
	mov	ecx, DWORD PTR [eax]
	or	ecx, 256				; 00000100H
	mov	edx, DWORD PTR _pTemp$[ebp]
	mov	DWORD PTR [edx], ecx

; 1682 : 
; 1683 : 		if( pTemp->frameMax < 10 )

	mov	eax, DWORD PTR _pTemp$[ebp]
	movss	xmm0, DWORD PTR __real@41200000
	comiss	xmm0, DWORD PTR [eax+8]
	jbe	SHORT $LN6@R_Projecti

; 1684 : 		{
; 1685 : 			SetBits( pTemp->flags, FTENT_SPRANIMATE|FTENT_SPRANIMATELOOP );

	mov	eax, DWORD PTR _pTemp$[ebp]
	mov	ecx, DWORD PTR [eax]
	or	ecx, 65792				; 00010100H
	mov	edx, DWORD PTR _pTemp$[ebp]
	mov	DWORD PTR [edx], ecx

; 1686 : 			pTemp->entity.curstate.framerate = 10;

	mov	eax, DWORD PTR _pTemp$[ebp]
	movss	xmm0, DWORD PTR __real@41200000
	movss	DWORD PTR [eax+1076], xmm0

; 1687 : 		}

	jmp	SHORT $LN7@R_Projecti
$LN6@R_Projecti:

; 1688 : 		else
; 1689 : 		{
; 1690 : 			pTemp->entity.curstate.framerate = pTemp->frameMax / life;

	cvtsi2ss xmm0, DWORD PTR _life$[ebp]
	mov	eax, DWORD PTR _pTemp$[ebp]
	movss	xmm1, DWORD PTR [eax+8]
	divss	xmm1, xmm0
	mov	ecx, DWORD PTR _pTemp$[ebp]
	movss	DWORD PTR [ecx+1076], xmm1
$LN7@R_Projecti:

; 1691 : 		}
; 1692 : 	}

	jmp	$LN5@R_Projecti
$LN4@R_Projecti:

; 1693 : 	else
; 1694 : 	{
; 1695 : 		pTemp->frameMax = 0;

	mov	eax, DWORD PTR _pTemp$[ebp]
	xorps	xmm0, xmm0
	movss	DWORD PTR [eax+8], xmm0

; 1696 : 		VectorNormalize2( velocity, dir );

	mov	eax, 4
	imul	ecx, eax, 0
	mov	edx, 4
	imul	eax, edx, 0
	mov	edx, DWORD PTR _velocity$[ebp]
	mov	esi, DWORD PTR _velocity$[ebp]
	movss	xmm0, DWORD PTR [edx+ecx]
	mulss	xmm0, DWORD PTR [esi+eax]
	mov	eax, 4
	shl	eax, 0
	mov	ecx, 4
	shl	ecx, 0
	mov	edx, DWORD PTR _velocity$[ebp]
	mov	esi, DWORD PTR _velocity$[ebp]
	movss	xmm1, DWORD PTR [edx+eax]
	mulss	xmm1, DWORD PTR [esi+ecx]
	addss	xmm0, xmm1
	mov	eax, 4
	shl	eax, 1
	mov	ecx, 4
	shl	ecx, 1
	mov	edx, DWORD PTR _velocity$[ebp]
	mov	esi, DWORD PTR _velocity$[ebp]
	movss	xmm1, DWORD PTR [edx+eax]
	mulss	xmm1, DWORD PTR [esi+ecx]
	addss	xmm0, xmm1
	cvtss2sd xmm0, xmm0
	sub	esp, 8
	movsd	QWORD PTR [esp], xmm0
	call	_sqrt
	add	esp, 8
	fstp	DWORD PTR _ilength$1[ebp]
	movss	xmm0, DWORD PTR _ilength$1[ebp]
	ucomiss	xmm0, DWORD PTR __real@00000000
	lahf
	test	ah, 68					; 00000044H
	jnp	SHORT $LN8@R_Projecti
	movss	xmm0, DWORD PTR __real@3f800000
	divss	xmm0, DWORD PTR _ilength$1[ebp]
	movss	DWORD PTR _ilength$1[ebp], xmm0
$LN8@R_Projecti:
	mov	eax, 4
	imul	ecx, eax, 0
	mov	edx, DWORD PTR _velocity$[ebp]
	movss	xmm0, DWORD PTR [edx+ecx]
	mulss	xmm0, DWORD PTR _ilength$1[ebp]
	mov	eax, 4
	imul	ecx, eax, 0
	movss	DWORD PTR _dir$[ebp+ecx], xmm0
	mov	eax, 4
	shl	eax, 0
	mov	ecx, DWORD PTR _velocity$[ebp]
	movss	xmm0, DWORD PTR [ecx+eax]
	mulss	xmm0, DWORD PTR _ilength$1[ebp]
	mov	edx, 4
	shl	edx, 0
	movss	DWORD PTR _dir$[ebp+edx], xmm0
	mov	eax, 4
	shl	eax, 1
	mov	ecx, DWORD PTR _velocity$[ebp]
	movss	xmm0, DWORD PTR [ecx+eax]
	mulss	xmm0, DWORD PTR _ilength$1[ebp]
	mov	edx, 4
	shl	edx, 1
	movss	DWORD PTR _dir$[ebp+edx], xmm0

; 1697 : 		VectorAngles( dir, pTemp->entity.angles );

	mov	eax, DWORD PTR _pTemp$[ebp]
	add	eax, 3304				; 00000ce8H
	push	eax
	lea	ecx, DWORD PTR _dir$[ebp]
	push	ecx
	call	_VectorAngles
	add	esp, 8
$LN5@R_Projecti:

; 1698 : 	}
; 1699 : 
; 1700 : 	pTemp->flags |= FTENT_COLLIDEALL|FTENT_PERSIST|FTENT_COLLIDEKILL;

	mov	eax, DWORD PTR _pTemp$[ebp]
	mov	ecx, DWORD PTR [eax]
	or	ecx, 28672				; 00007000H
	mov	edx, DWORD PTR _pTemp$[ebp]
	mov	DWORD PTR [edx], ecx

; 1701 : 	pTemp->clientIndex = bound( 1, owner, cl.maxclients );

	cmp	DWORD PTR _owner$[ebp], 1
	jl	SHORT $LN12@R_Projecti
	mov	eax, DWORD PTR _owner$[ebp]
	cmp	eax, DWORD PTR _cl+2213004
	jge	SHORT $LN10@R_Projecti
	mov	ecx, DWORD PTR _owner$[ebp]
	mov	DWORD PTR tv182[ebp], ecx
	jmp	SHORT $LN11@R_Projecti
$LN10@R_Projecti:
	mov	edx, DWORD PTR _cl+2213004
	mov	DWORD PTR tv182[ebp], edx
$LN11@R_Projecti:
	mov	eax, DWORD PTR tv182[ebp]
	mov	DWORD PTR tv183[ebp], eax
	jmp	SHORT $LN13@R_Projecti
$LN12@R_Projecti:
	mov	DWORD PTR tv183[ebp], 1
$LN13@R_Projecti:
	mov	ecx, DWORD PTR _pTemp$[ebp]
	mov	dx, WORD PTR tv183[ebp]
	mov	WORD PTR [ecx+52], dx

; 1702 : 	pTemp->entity.baseline.renderamt = 255;

	mov	eax, DWORD PTR _pTemp$[ebp]
	mov	DWORD PTR [eax+152], 255		; 000000ffH

; 1703 : 	pTemp->hitcallback = hitcallback;

	mov	eax, DWORD PTR _pTemp$[ebp]
	mov	ecx, DWORD PTR _hitcallback$[ebp]
	mov	DWORD PTR [eax+36], ecx

; 1704 : 	pTemp->die = cl.time + life;

	cvtsi2sd xmm0, DWORD PTR _life$[ebp]
	addsd	xmm0, QWORD PTR _cl+2167640
	cvtsd2ss xmm0, xmm0
	mov	eax, DWORD PTR _pTemp$[ebp]
	movss	DWORD PTR [eax+4], xmm0
$LN1@R_Projecti:

; 1705 : }

	pop	edi
	pop	esi
	pop	ebx
	mov	ecx, DWORD PTR __$ArrayPad$[ebp]
	xor	ecx, ebp
	call	@__security_check_cookie@4
	mov	esp, ebp
	pop	ebp
	ret	0
_R_Projectile ENDP
_TEXT	ENDS
; Function compile flags: /Odtp /ZI
; File D:\DevDragon\XashFE\dev\src\engine\client\cl_tent.c
;	COMDAT _R_SparkEffect
_TEXT	SEGMENT
_pos$ = 8						; size = 4
_count$ = 12						; size = 4
_velocityMin$ = 16					; size = 4
_velocityMax$ = 20					; size = 4
_R_SparkEffect PROC					; COMDAT

; 1633 : {

	push	ebp
	mov	ebp, esp
	sub	esp, 64					; 00000040H
	push	ebx
	push	esi
	push	edi

; 1634 : 	R_RicochetSprite( pos, cl_sprite_ricochet, 0.1f, COM_RandomFloat( 0.5f, 1.0f ));

	push	ecx
	movss	xmm0, DWORD PTR __real@3f800000
	movss	DWORD PTR [esp], xmm0
	push	ecx
	movss	xmm0, DWORD PTR __real@3f000000
	movss	DWORD PTR [esp], xmm0
	call	_COM_RandomFloat
	add	esp, 4
	fstp	DWORD PTR [esp]
	push	ecx
	movss	xmm0, DWORD PTR __real@3dcccccd
	movss	DWORD PTR [esp], xmm0
	mov	eax, DWORD PTR _cl_sprite_ricochet
	push	eax
	mov	ecx, DWORD PTR _pos$[ebp]
	push	ecx
	call	_R_RicochetSprite
	add	esp, 16					; 00000010H

; 1635 : 	R_SparkStreaks( pos, count, velocityMin, velocityMax );

	mov	eax, DWORD PTR _velocityMax$[ebp]
	push	eax
	mov	ecx, DWORD PTR _velocityMin$[ebp]
	push	ecx
	mov	edx, DWORD PTR _count$[ebp]
	push	edx
	mov	eax, DWORD PTR _pos$[ebp]
	push	eax
	call	_R_SparkStreaks
	add	esp, 16					; 00000010H

; 1636 : }

	pop	edi
	pop	esi
	pop	ebx
	mov	esp, ebp
	pop	ebp
	ret	0
_R_SparkEffect ENDP
_TEXT	ENDS
; Function compile flags: /Odtp /ZI
; File D:\DevDragon\XashFE\dev\src\engine\client\cl_tent.c
;	COMDAT _R_FunnelSprite
_TEXT	SEGMENT
tv398 = -120						; size = 4
tv291 = -120						; size = 4
tv256 = -120						; size = 4
tv211 = -120						; size = 4
tv172 = -120						; size = 4
_j$ = -52						; size = 4
_i$ = -48						; size = 4
_pmodel$ = -44						; size = 4
_vel$ = -40						; size = 4
_dist$ = -36						; size = 4
_dest$ = -32						; size = 12
_dir$ = -20						; size = 12
_pTemp$ = -8						; size = 4
__$ArrayPad$ = -4					; size = 4
_org$ = 8						; size = 4
_modelIndex$ = 12					; size = 4
_reverse$ = 16						; size = 4
_R_FunnelSprite PROC					; COMDAT

; 1571 : {

	push	ebp
	mov	ebp, esp
	sub	esp, 120				; 00000078H
	mov	eax, DWORD PTR ___security_cookie
	xor	eax, ebp
	mov	DWORD PTR __$ArrayPad$[ebp], eax
	push	ebx
	push	esi
	push	edi

; 1572 : 	TEMPENTITY	*pTemp;
; 1573 : 	vec3_t		dir, dest;
; 1574 : 	float		dist, vel;
; 1575 : 	model_t		*pmodel;
; 1576 : 	int		i, j;
; 1577 : 
; 1578 : 	if(( pmodel = CL_ModelHandle( modelIndex )) == NULL )

	mov	eax, DWORD PTR _modelIndex$[ebp]
	push	eax
	call	_CL_ModelHandle
	add	esp, 4
	mov	DWORD PTR _pmodel$[ebp], eax
	cmp	DWORD PTR _pmodel$[ebp], 0
	jne	SHORT $LN8@R_FunnelSp

; 1579 : 	{
; 1580 : 		Con_Reportf( S_ERROR "no model %d!\n", modelIndex );

	mov	eax, DWORD PTR _modelIndex$[ebp]
	push	eax
	push	OFFSET ??_C@_0BJ@PFCNBPIC@?$FO1Error?3?$FO7?5no?5model?5?$CFd?$CB?6@
	call	_Con_Reportf
	add	esp, 8

; 1581 : 		return;

	jmp	$LN3@R_FunnelSp
$LN8@R_FunnelSp:

; 1582 : 	}
; 1583 : 
; 1584 : 	for( i = -8; i < 8; i++ )

	mov	DWORD PTR _i$[ebp], -8			; fffffff8H
	jmp	SHORT $LN4@R_FunnelSp
$LN2@R_FunnelSp:
	mov	eax, DWORD PTR _i$[ebp]
	add	eax, 1
	mov	DWORD PTR _i$[ebp], eax
$LN4@R_FunnelSp:
	cmp	DWORD PTR _i$[ebp], 8
	jge	$LN3@R_FunnelSp

; 1585 : 	{
; 1586 : 		for( j = -8; j < 8; j++ )

	mov	DWORD PTR _j$[ebp], -8			; fffffff8H
	jmp	SHORT $LN7@R_FunnelSp
$LN5@R_FunnelSp:
	mov	eax, DWORD PTR _j$[ebp]
	add	eax, 1
	mov	DWORD PTR _j$[ebp], eax
$LN7@R_FunnelSp:
	cmp	DWORD PTR _j$[ebp], 8
	jge	$LN6@R_FunnelSp

; 1587 : 		{
; 1588 : 			pTemp = CL_TempEntAlloc( org, pmodel );

	mov	eax, DWORD PTR _pmodel$[ebp]
	push	eax
	mov	ecx, DWORD PTR _org$[ebp]
	push	ecx
	call	_CL_TempEntAlloc
	add	esp, 8
	mov	DWORD PTR _pTemp$[ebp], eax

; 1589 : 			if( !pTemp ) return;

	cmp	DWORD PTR _pTemp$[ebp], 0
	jne	SHORT $LN9@R_FunnelSp
	jmp	$LN3@R_FunnelSp
$LN9@R_FunnelSp:

; 1590 : 
; 1591 : 			dest[0] = (i * 32.0f) + org[0];

	cvtsi2ss xmm0, DWORD PTR _i$[ebp]
	mulss	xmm0, DWORD PTR __real@42000000
	mov	eax, 4
	imul	ecx, eax, 0
	mov	edx, DWORD PTR _org$[ebp]
	addss	xmm0, DWORD PTR [edx+ecx]
	mov	eax, 4
	imul	ecx, eax, 0
	movss	DWORD PTR _dest$[ebp+ecx], xmm0

; 1592 : 			dest[1] = (j * 32.0f) + org[1];

	cvtsi2ss xmm0, DWORD PTR _j$[ebp]
	mulss	xmm0, DWORD PTR __real@42000000
	mov	eax, 4
	shl	eax, 0
	mov	ecx, DWORD PTR _org$[ebp]
	addss	xmm0, DWORD PTR [ecx+eax]
	mov	edx, 4
	shl	edx, 0
	movss	DWORD PTR _dest$[ebp+edx], xmm0

; 1593 : 			dest[2] = org[2] + COM_RandomFloat( 100.0f, 800.0f );

	mov	esi, 4
	shl	esi, 1
	push	ecx
	movss	xmm0, DWORD PTR __real@44480000
	movss	DWORD PTR [esp], xmm0
	push	ecx
	movss	xmm0, DWORD PTR __real@42c80000
	movss	DWORD PTR [esp], xmm0
	call	_COM_RandomFloat
	add	esp, 8
	fstp	DWORD PTR tv291[ebp]
	mov	eax, DWORD PTR _org$[ebp]
	movss	xmm0, DWORD PTR tv291[ebp]
	addss	xmm0, DWORD PTR [eax+esi]
	mov	ecx, 4
	shl	ecx, 1
	movss	DWORD PTR _dest$[ebp+ecx], xmm0

; 1594 : 
; 1595 : 			if( reverse )

	cmp	DWORD PTR _reverse$[ebp], 0
	je	$LN10@R_FunnelSp

; 1596 : 			{
; 1597 : 				VectorCopy( org, pTemp->entity.origin );

	mov	eax, 4
	imul	ecx, eax, 0
	mov	edx, 4
	imul	eax, edx, 0
	mov	edx, DWORD PTR _pTemp$[ebp]
	mov	esi, DWORD PTR _org$[ebp]
	mov	ecx, DWORD PTR [esi+ecx]
	mov	DWORD PTR [edx+eax+3292], ecx
	mov	edx, 4
	shl	edx, 0
	mov	eax, 4
	shl	eax, 0
	mov	ecx, DWORD PTR _pTemp$[ebp]
	mov	esi, DWORD PTR _org$[ebp]
	mov	edx, DWORD PTR [esi+edx]
	mov	DWORD PTR [ecx+eax+3292], edx
	mov	eax, 4
	shl	eax, 1
	mov	ecx, 4
	shl	ecx, 1
	mov	edx, DWORD PTR _pTemp$[ebp]
	mov	esi, DWORD PTR _org$[ebp]
	mov	eax, DWORD PTR [esi+eax]
	mov	DWORD PTR [edx+ecx+3292], eax

; 1598 : 				VectorSubtract( dest, pTemp->entity.origin, dir );

	mov	eax, 4
	imul	ecx, eax, 0
	mov	edx, 4
	imul	eax, edx, 0
	mov	edx, DWORD PTR _pTemp$[ebp]
	movss	xmm0, DWORD PTR _dest$[ebp+ecx]
	subss	xmm0, DWORD PTR [edx+eax+3292]
	mov	eax, 4
	imul	ecx, eax, 0
	movss	DWORD PTR _dir$[ebp+ecx], xmm0
	mov	edx, 4
	shl	edx, 0
	mov	eax, 4
	shl	eax, 0
	mov	ecx, DWORD PTR _pTemp$[ebp]
	movss	xmm0, DWORD PTR _dest$[ebp+edx]
	subss	xmm0, DWORD PTR [ecx+eax+3292]
	mov	edx, 4
	shl	edx, 0
	movss	DWORD PTR _dir$[ebp+edx], xmm0
	mov	eax, 4
	shl	eax, 1
	mov	ecx, 4
	shl	ecx, 1
	mov	edx, DWORD PTR _pTemp$[ebp]
	movss	xmm0, DWORD PTR _dest$[ebp+eax]
	subss	xmm0, DWORD PTR [edx+ecx+3292]
	movss	DWORD PTR tv172[ebp], xmm0
	mov	eax, 4
	shl	eax, 1
	movss	xmm0, DWORD PTR tv172[ebp]
	movss	DWORD PTR _dir$[ebp+eax], xmm0

; 1599 : 			}

	jmp	$LN11@R_FunnelSp
$LN10@R_FunnelSp:

; 1600 : 			else
; 1601 : 			{
; 1602 : 				VectorCopy( dest, pTemp->entity.origin );

	mov	eax, 4
	imul	ecx, eax, 0
	mov	edx, 4
	imul	eax, edx, 0
	mov	edx, DWORD PTR _pTemp$[ebp]
	mov	ecx, DWORD PTR _dest$[ebp+ecx]
	mov	DWORD PTR [edx+eax+3292], ecx
	mov	edx, 4
	shl	edx, 0
	mov	eax, 4
	shl	eax, 0
	mov	ecx, DWORD PTR _pTemp$[ebp]
	mov	edx, DWORD PTR _dest$[ebp+edx]
	mov	DWORD PTR [ecx+eax+3292], edx
	mov	eax, 4
	shl	eax, 1
	mov	ecx, 4
	shl	ecx, 1
	mov	edx, DWORD PTR _pTemp$[ebp]
	mov	eax, DWORD PTR _dest$[ebp+eax]
	mov	DWORD PTR [edx+ecx+3292], eax

; 1603 : 				VectorSubtract( org, pTemp->entity.origin, dir );

	mov	eax, 4
	imul	ecx, eax, 0
	mov	edx, 4
	imul	eax, edx, 0
	mov	edx, DWORD PTR _org$[ebp]
	mov	esi, DWORD PTR _pTemp$[ebp]
	movss	xmm0, DWORD PTR [edx+ecx]
	subss	xmm0, DWORD PTR [esi+eax+3292]
	mov	eax, 4
	imul	ecx, eax, 0
	movss	DWORD PTR _dir$[ebp+ecx], xmm0
	mov	edx, 4
	shl	edx, 0
	mov	eax, 4
	shl	eax, 0
	mov	ecx, DWORD PTR _org$[ebp]
	mov	esi, DWORD PTR _pTemp$[ebp]
	movss	xmm0, DWORD PTR [ecx+edx]
	subss	xmm0, DWORD PTR [esi+eax+3292]
	mov	edx, 4
	shl	edx, 0
	movss	DWORD PTR _dir$[ebp+edx], xmm0
	mov	eax, 4
	shl	eax, 1
	mov	ecx, 4
	shl	ecx, 1
	mov	edx, DWORD PTR _org$[ebp]
	mov	esi, DWORD PTR _pTemp$[ebp]
	movss	xmm0, DWORD PTR [edx+eax]
	subss	xmm0, DWORD PTR [esi+ecx+3292]
	movss	DWORD PTR tv211[ebp], xmm0
	mov	eax, 4
	shl	eax, 1
	movss	xmm0, DWORD PTR tv211[ebp]
	movss	DWORD PTR _dir$[ebp+eax], xmm0
$LN11@R_FunnelSp:

; 1604 : 			}
; 1605 : 
; 1606 : 			pTemp->entity.curstate.rendermode = kRenderGlow;

	mov	eax, DWORD PTR _pTemp$[ebp]
	mov	DWORD PTR [eax+1052], 3

; 1607 : 			pTemp->entity.curstate.renderfx = kRenderFxNoDissipation;

	mov	eax, DWORD PTR _pTemp$[ebp]
	mov	DWORD PTR [eax+1064], 14		; 0000000eH

; 1608 : 			pTemp->entity.baseline.renderamt = pTemp->entity.curstate.renderamt = 200;

	mov	eax, DWORD PTR _pTemp$[ebp]
	mov	DWORD PTR [eax+1056], 200		; 000000c8H
	mov	ecx, DWORD PTR _pTemp$[ebp]
	mov	DWORD PTR [ecx+152], 200		; 000000c8H

; 1609 : 			pTemp->entity.baseline.angles[2] = COM_RandomFloat( -100.0f, 100.0f );

	push	ecx
	movss	xmm0, DWORD PTR __real@42c80000
	movss	DWORD PTR [esp], xmm0
	push	ecx
	movss	xmm0, DWORD PTR __real@c2c80000
	movss	DWORD PTR [esp], xmm0
	call	_COM_RandomFloat
	add	esp, 8
	mov	eax, 4
	shl	eax, 1
	mov	ecx, DWORD PTR _pTemp$[ebp]
	fstp	DWORD PTR [ecx+eax+104]

; 1610 : 			pTemp->entity.curstate.framerate = COM_RandomFloat( 0.1f, 0.4f );

	push	ecx
	movss	xmm0, DWORD PTR __real@3ecccccd
	movss	DWORD PTR [esp], xmm0
	push	ecx
	movss	xmm0, DWORD PTR __real@3dcccccd
	movss	DWORD PTR [esp], xmm0
	call	_COM_RandomFloat
	add	esp, 8
	mov	eax, DWORD PTR _pTemp$[ebp]
	fstp	DWORD PTR [eax+1076]

; 1611 : 			pTemp->flags = FTENT_ROTATE|FTENT_FADEOUT;

	mov	eax, DWORD PTR _pTemp$[ebp]
	mov	DWORD PTR [eax], 132			; 00000084H

; 1612 : 			pTemp->entity.curstate.framerate = 10;

	mov	eax, DWORD PTR _pTemp$[ebp]
	movss	xmm0, DWORD PTR __real@41200000
	movss	DWORD PTR [eax+1076], xmm0

; 1613 : 
; 1614 : 			vel = dest[2] / 8.0f;

	mov	eax, 4
	shl	eax, 1
	movss	xmm0, DWORD PTR _dest$[ebp+eax]
	divss	xmm0, DWORD PTR __real@41000000
	movss	DWORD PTR _vel$[ebp], xmm0

; 1615 : 			if( vel < 64.0f ) vel = 64.0f;

	movss	xmm0, DWORD PTR __real@42800000
	comiss	xmm0, DWORD PTR _vel$[ebp]
	jbe	SHORT $LN12@R_FunnelSp
	movss	xmm0, DWORD PTR __real@42800000
	movss	DWORD PTR _vel$[ebp], xmm0
$LN12@R_FunnelSp:

; 1616 : 			dist = VectorNormalizeLength( dir );

	lea	eax, DWORD PTR _dir$[ebp]
	push	eax
	lea	ecx, DWORD PTR _dir$[ebp]
	push	ecx
	call	_VectorNormalizeLength2
	add	esp, 8
	fstp	DWORD PTR _dist$[ebp]

; 1617 : 			vel += COM_RandomFloat( 64.0f, 128.0f );

	push	ecx
	movss	xmm0, DWORD PTR __real@43000000
	movss	DWORD PTR [esp], xmm0
	push	ecx
	movss	xmm0, DWORD PTR __real@42800000
	movss	DWORD PTR [esp], xmm0
	call	_COM_RandomFloat
	add	esp, 8
	fstp	DWORD PTR tv398[ebp]
	movss	xmm0, DWORD PTR tv398[ebp]
	addss	xmm0, DWORD PTR _vel$[ebp]
	movss	DWORD PTR _vel$[ebp], xmm0

; 1618 : 			VectorScale( dir, vel, pTemp->entity.baseline.origin );

	mov	eax, 4
	imul	ecx, eax, 0
	movss	xmm0, DWORD PTR _dir$[ebp+ecx]
	mulss	xmm0, DWORD PTR _vel$[ebp]
	mov	edx, 4
	imul	eax, edx, 0
	mov	ecx, DWORD PTR _pTemp$[ebp]
	movss	DWORD PTR [ecx+eax+92], xmm0
	mov	edx, 4
	shl	edx, 0
	movss	xmm0, DWORD PTR _dir$[ebp+edx]
	mulss	xmm0, DWORD PTR _vel$[ebp]
	mov	eax, 4
	shl	eax, 0
	mov	ecx, DWORD PTR _pTemp$[ebp]
	movss	DWORD PTR [ecx+eax+92], xmm0
	mov	edx, 4
	shl	edx, 1
	movss	xmm0, DWORD PTR _dir$[ebp+edx]
	mulss	xmm0, DWORD PTR _vel$[ebp]
	movss	DWORD PTR tv256[ebp], xmm0
	mov	eax, 4
	shl	eax, 1
	mov	ecx, DWORD PTR _pTemp$[ebp]
	movss	xmm0, DWORD PTR tv256[ebp]
	movss	DWORD PTR [ecx+eax+92], xmm0

; 1619 : 			pTemp->die = cl.time + (dist / vel) - 0.5f;

	movss	xmm0, DWORD PTR _dist$[ebp]
	divss	xmm0, DWORD PTR _vel$[ebp]
	cvtss2sd xmm0, xmm0
	addsd	xmm0, QWORD PTR _cl+2167640
	subsd	xmm0, QWORD PTR __real@3fe0000000000000
	cvtsd2ss xmm0, xmm0
	mov	eax, DWORD PTR _pTemp$[ebp]
	movss	DWORD PTR [eax+4], xmm0

; 1620 : 			pTemp->fadeSpeed = 2.0f;

	mov	eax, DWORD PTR _pTemp$[ebp]
	movss	xmm0, DWORD PTR __real@40000000
	movss	DWORD PTR [eax+24], xmm0

; 1621 : 		}

	jmp	$LN5@R_FunnelSp
$LN6@R_FunnelSp:

; 1622 : 	}

	jmp	$LN2@R_FunnelSp
$LN3@R_FunnelSp:

; 1623 : }

	pop	edi
	pop	esi
	pop	ebx
	mov	ecx, DWORD PTR __$ArrayPad$[ebp]
	xor	ecx, ebp
	call	@__security_check_cookie@4
	mov	esp, ebp
	pop	ebp
	ret	0
_R_FunnelSprite ENDP
_TEXT	ENDS
; Function compile flags: /Odtp /ZI
; File D:\DevDragon\XashFE\dev\src\engine\client\cl_tent.c
;	COMDAT _R_Sprite_Trail
_TEXT	SEGMENT
tv499 = -148						; size = 8
tv502 = -140						; size = 8
tv452 = -136						; size = 4
tv441 = -136						; size = 4
tv430 = -136						; size = 4
tv239 = -136						; size = 4
tv219 = -136						; size = 4
tv87 = -136						; size = 4
_vel$1 = -68						; size = 12
_pos$2 = -56						; size = 12
_ilength$3 = -44					; size = 4
_i$ = -40						; size = 4
_pmodel$ = -36						; size = 4
_dir$ = -32						; size = 12
_delta$ = -20						; size = 12
_pTemp$ = -8						; size = 4
__$ArrayPad$ = -4					; size = 4
_type$ = 8						; size = 4
_start$ = 12						; size = 4
_end$ = 16						; size = 4
_modelIndex$ = 20					; size = 4
_count$ = 24						; size = 4
_life$ = 28						; size = 4
_size$ = 32						; size = 4
_amp$ = 36						; size = 4
_renderamt$ = 40					; size = 4
_speed$ = 44						; size = 4
_R_Sprite_Trail PROC					; COMDAT

; 1519 : {

	push	ebp
	mov	ebp, esp
	sub	esp, 148				; 00000094H
	mov	eax, DWORD PTR ___security_cookie
	xor	eax, ebp
	mov	DWORD PTR __$ArrayPad$[ebp], eax
	push	ebx
	push	esi
	push	edi

; 1520 : 	TEMPENTITY	*pTemp;
; 1521 : 	vec3_t		delta, dir;
; 1522 : 	model_t		*pmodel;
; 1523 : 	int		i;
; 1524 : 
; 1525 : 	if(( pmodel = CL_ModelHandle( modelIndex )) == NULL )

	mov	eax, DWORD PTR _modelIndex$[ebp]
	push	eax
	call	_CL_ModelHandle
	add	esp, 4
	mov	DWORD PTR _pmodel$[ebp], eax
	cmp	DWORD PTR _pmodel$[ebp], 0
	jne	SHORT $LN5@R_Sprite_T

; 1526 : 		return;

	jmp	$LN3@R_Sprite_T
$LN5@R_Sprite_T:

; 1527 : 
; 1528 : 	VectorSubtract( end, start, delta );

	mov	eax, 4
	imul	ecx, eax, 0
	mov	edx, 4
	imul	eax, edx, 0
	mov	edx, DWORD PTR _end$[ebp]
	mov	esi, DWORD PTR _start$[ebp]
	movss	xmm0, DWORD PTR [edx+ecx]
	subss	xmm0, DWORD PTR [esi+eax]
	mov	eax, 4
	imul	ecx, eax, 0
	movss	DWORD PTR _delta$[ebp+ecx], xmm0
	mov	edx, 4
	shl	edx, 0
	mov	eax, 4
	shl	eax, 0
	mov	ecx, DWORD PTR _end$[ebp]
	mov	esi, DWORD PTR _start$[ebp]
	movss	xmm0, DWORD PTR [ecx+edx]
	subss	xmm0, DWORD PTR [esi+eax]
	mov	edx, 4
	shl	edx, 0
	movss	DWORD PTR _delta$[ebp+edx], xmm0
	mov	eax, 4
	shl	eax, 1
	mov	ecx, 4
	shl	ecx, 1
	mov	edx, DWORD PTR _end$[ebp]
	mov	esi, DWORD PTR _start$[ebp]
	movss	xmm0, DWORD PTR [edx+eax]
	subss	xmm0, DWORD PTR [esi+ecx]
	movss	DWORD PTR tv87[ebp], xmm0
	mov	eax, 4
	shl	eax, 1
	movss	xmm0, DWORD PTR tv87[ebp]
	movss	DWORD PTR _delta$[ebp+eax], xmm0

; 1529 : 	VectorNormalize2( delta, dir );

	mov	eax, 4
	imul	ecx, eax, 0
	mov	edx, 4
	imul	eax, edx, 0
	movss	xmm0, DWORD PTR _delta$[ebp+ecx]
	mulss	xmm0, DWORD PTR _delta$[ebp+eax]
	mov	ecx, 4
	shl	ecx, 0
	mov	edx, 4
	shl	edx, 0
	movss	xmm1, DWORD PTR _delta$[ebp+ecx]
	mulss	xmm1, DWORD PTR _delta$[ebp+edx]
	addss	xmm0, xmm1
	mov	eax, 4
	shl	eax, 1
	mov	ecx, 4
	shl	ecx, 1
	movss	xmm1, DWORD PTR _delta$[ebp+eax]
	mulss	xmm1, DWORD PTR _delta$[ebp+ecx]
	addss	xmm0, xmm1
	cvtss2sd xmm0, xmm0
	sub	esp, 8
	movsd	QWORD PTR [esp], xmm0
	call	_sqrt
	add	esp, 8
	fstp	DWORD PTR _ilength$3[ebp]
	movss	xmm0, DWORD PTR _ilength$3[ebp]
	ucomiss	xmm0, DWORD PTR __real@00000000
	lahf
	test	ah, 68					; 00000044H
	jnp	SHORT $LN6@R_Sprite_T
	movss	xmm0, DWORD PTR __real@3f800000
	divss	xmm0, DWORD PTR _ilength$3[ebp]
	movss	DWORD PTR _ilength$3[ebp], xmm0
$LN6@R_Sprite_T:
	mov	eax, 4
	imul	ecx, eax, 0
	movss	xmm0, DWORD PTR _delta$[ebp+ecx]
	mulss	xmm0, DWORD PTR _ilength$3[ebp]
	mov	edx, 4
	imul	eax, edx, 0
	movss	DWORD PTR _dir$[ebp+eax], xmm0
	mov	eax, 4
	shl	eax, 0
	movss	xmm0, DWORD PTR _delta$[ebp+eax]
	mulss	xmm0, DWORD PTR _ilength$3[ebp]
	mov	ecx, 4
	shl	ecx, 0
	movss	DWORD PTR _dir$[ebp+ecx], xmm0
	mov	eax, 4
	shl	eax, 1
	movss	xmm0, DWORD PTR _delta$[ebp+eax]
	mulss	xmm0, DWORD PTR _ilength$3[ebp]
	mov	ecx, 4
	shl	ecx, 1
	movss	DWORD PTR _dir$[ebp+ecx], xmm0

; 1530 : 
; 1531 : 	amp /= 256.0f;

	movss	xmm0, DWORD PTR _amp$[ebp]
	divss	xmm0, DWORD PTR __real@43800000
	movss	DWORD PTR _amp$[ebp], xmm0

; 1532 : 
; 1533 : 	for( i = 0; i < count; i++ )

	mov	DWORD PTR _i$[ebp], 0
	jmp	SHORT $LN4@R_Sprite_T
$LN2@R_Sprite_T:
	mov	eax, DWORD PTR _i$[ebp]
	add	eax, 1
	mov	DWORD PTR _i$[ebp], eax
$LN4@R_Sprite_T:
	mov	eax, DWORD PTR _i$[ebp]
	cmp	eax, DWORD PTR _count$[ebp]
	jge	$LN3@R_Sprite_T

; 1534 : 	{
; 1535 : 		vec3_t	pos, vel;
; 1536 : 
; 1537 : 		// Be careful of divide by 0 when using 'count' here...
; 1538 : 		if( i == 0 ) VectorCopy( start, pos );

	cmp	DWORD PTR _i$[ebp], 0
	jne	SHORT $LN7@R_Sprite_T
	mov	eax, 4
	imul	ecx, eax, 0
	mov	edx, 4
	imul	eax, edx, 0
	mov	edx, DWORD PTR _start$[ebp]
	mov	ecx, DWORD PTR [edx+ecx]
	mov	DWORD PTR _pos$2[ebp+eax], ecx
	mov	edx, 4
	shl	edx, 0
	mov	eax, 4
	shl	eax, 0
	mov	ecx, DWORD PTR _start$[ebp]
	mov	edx, DWORD PTR [ecx+edx]
	mov	DWORD PTR _pos$2[ebp+eax], edx
	mov	eax, 4
	shl	eax, 1
	mov	ecx, 4
	shl	ecx, 1
	mov	edx, DWORD PTR _start$[ebp]
	mov	eax, DWORD PTR [edx+eax]
	mov	DWORD PTR _pos$2[ebp+ecx], eax
	jmp	$LN8@R_Sprite_T
$LN7@R_Sprite_T:

; 1539 : 		else VectorMA( start, ( i / ( count - 1.0f )), delta, pos );

	mov	eax, 4
	imul	ecx, eax, 0
	cvtsi2ss xmm0, DWORD PTR _i$[ebp]
	cvtsi2ss xmm1, DWORD PTR _count$[ebp]
	subss	xmm1, DWORD PTR __real@3f800000
	divss	xmm0, xmm1
	mov	edx, 4
	imul	eax, edx, 0
	mulss	xmm0, DWORD PTR _delta$[ebp+eax]
	mov	edx, DWORD PTR _start$[ebp]
	addss	xmm0, DWORD PTR [edx+ecx]
	mov	eax, 4
	imul	ecx, eax, 0
	movss	DWORD PTR _pos$2[ebp+ecx], xmm0
	mov	edx, 4
	shl	edx, 0
	cvtsi2ss xmm0, DWORD PTR _i$[ebp]
	cvtsi2ss xmm1, DWORD PTR _count$[ebp]
	subss	xmm1, DWORD PTR __real@3f800000
	divss	xmm0, xmm1
	mov	eax, 4
	shl	eax, 0
	mulss	xmm0, DWORD PTR _delta$[ebp+eax]
	mov	ecx, DWORD PTR _start$[ebp]
	addss	xmm0, DWORD PTR [ecx+edx]
	mov	edx, 4
	shl	edx, 0
	movss	DWORD PTR _pos$2[ebp+edx], xmm0
	mov	eax, 4
	shl	eax, 1
	cvtsi2ss xmm0, DWORD PTR _i$[ebp]
	cvtsi2ss xmm1, DWORD PTR _count$[ebp]
	subss	xmm1, DWORD PTR __real@3f800000
	divss	xmm0, xmm1
	mov	ecx, 4
	shl	ecx, 1
	mulss	xmm0, DWORD PTR _delta$[ebp+ecx]
	mov	edx, DWORD PTR _start$[ebp]
	movss	xmm1, DWORD PTR [edx+eax]
	addss	xmm1, xmm0
	movss	DWORD PTR tv219[ebp], xmm1
	mov	eax, 4
	shl	eax, 1
	movss	xmm0, DWORD PTR tv219[ebp]
	movss	DWORD PTR _pos$2[ebp+eax], xmm0
$LN8@R_Sprite_T:

; 1540 : 
; 1541 : 		pTemp = CL_TempEntAlloc( pos, pmodel );

	mov	eax, DWORD PTR _pmodel$[ebp]
	push	eax
	lea	ecx, DWORD PTR _pos$2[ebp]
	push	ecx
	call	_CL_TempEntAlloc
	add	esp, 8
	mov	DWORD PTR _pTemp$[ebp], eax

; 1542 : 		if( !pTemp ) return;

	cmp	DWORD PTR _pTemp$[ebp], 0
	jne	SHORT $LN9@R_Sprite_T
	jmp	$LN3@R_Sprite_T
$LN9@R_Sprite_T:

; 1543 : 
; 1544 : 		pTemp->flags = (FTENT_COLLIDEWORLD|FTENT_SPRCYCLE|FTENT_FADEOUT|FTENT_SLOWGRAVITY);

	mov	eax, DWORD PTR _pTemp$[ebp]
	mov	DWORD PTR [eax], 2216			; 000008a8H

; 1545 : 
; 1546 : 		VectorScale( dir, speed, vel );

	mov	eax, 4
	imul	ecx, eax, 0
	movss	xmm0, DWORD PTR _dir$[ebp+ecx]
	mulss	xmm0, DWORD PTR _speed$[ebp]
	mov	edx, 4
	imul	eax, edx, 0
	movss	DWORD PTR _vel$1[ebp+eax], xmm0
	mov	ecx, 4
	shl	ecx, 0
	movss	xmm0, DWORD PTR _dir$[ebp+ecx]
	mulss	xmm0, DWORD PTR _speed$[ebp]
	mov	edx, 4
	shl	edx, 0
	movss	DWORD PTR _vel$1[ebp+edx], xmm0
	mov	eax, 4
	shl	eax, 1
	movss	xmm0, DWORD PTR _dir$[ebp+eax]
	mulss	xmm0, DWORD PTR _speed$[ebp]
	movss	DWORD PTR tv239[ebp], xmm0
	mov	ecx, 4
	shl	ecx, 1
	movss	xmm0, DWORD PTR tv239[ebp]
	movss	DWORD PTR _vel$1[ebp+ecx], xmm0

; 1547 : 		vel[0] += COM_RandomFloat( -127.0f, 128.0f ) * amp;

	mov	eax, 4
	imul	esi, eax, 0
	push	ecx
	movss	xmm0, DWORD PTR __real@43000000
	movss	DWORD PTR [esp], xmm0
	push	ecx
	movss	xmm0, DWORD PTR __real@c2fe0000
	movss	DWORD PTR [esp], xmm0
	call	_COM_RandomFloat
	add	esp, 8
	fstp	DWORD PTR tv430[ebp]
	movss	xmm0, DWORD PTR tv430[ebp]
	mulss	xmm0, DWORD PTR _amp$[ebp]
	addss	xmm0, DWORD PTR _vel$1[ebp+esi]
	mov	ecx, 4
	imul	edx, ecx, 0
	movss	DWORD PTR _vel$1[ebp+edx], xmm0

; 1548 : 		vel[1] += COM_RandomFloat( -127.0f, 128.0f ) * amp;

	mov	esi, 4
	shl	esi, 0
	push	ecx
	movss	xmm0, DWORD PTR __real@43000000
	movss	DWORD PTR [esp], xmm0
	push	ecx
	movss	xmm0, DWORD PTR __real@c2fe0000
	movss	DWORD PTR [esp], xmm0
	call	_COM_RandomFloat
	add	esp, 8
	fstp	DWORD PTR tv441[ebp]
	movss	xmm0, DWORD PTR tv441[ebp]
	mulss	xmm0, DWORD PTR _amp$[ebp]
	addss	xmm0, DWORD PTR _vel$1[ebp+esi]
	mov	eax, 4
	shl	eax, 0
	movss	DWORD PTR _vel$1[ebp+eax], xmm0

; 1549 : 		vel[2] += COM_RandomFloat( -127.0f, 128.0f ) * amp;

	mov	esi, 4
	shl	esi, 1
	push	ecx
	movss	xmm0, DWORD PTR __real@43000000
	movss	DWORD PTR [esp], xmm0
	push	ecx
	movss	xmm0, DWORD PTR __real@c2fe0000
	movss	DWORD PTR [esp], xmm0
	call	_COM_RandomFloat
	add	esp, 8
	fstp	DWORD PTR tv452[ebp]
	movss	xmm0, DWORD PTR tv452[ebp]
	mulss	xmm0, DWORD PTR _amp$[ebp]
	addss	xmm0, DWORD PTR _vel$1[ebp+esi]
	mov	eax, 4
	shl	eax, 1
	movss	DWORD PTR _vel$1[ebp+eax], xmm0

; 1550 : 		VectorCopy( vel, pTemp->entity.baseline.origin );

	mov	eax, 4
	imul	ecx, eax, 0
	mov	edx, 4
	imul	eax, edx, 0
	mov	edx, DWORD PTR _pTemp$[ebp]
	mov	ecx, DWORD PTR _vel$1[ebp+ecx]
	mov	DWORD PTR [edx+eax+92], ecx
	mov	edx, 4
	shl	edx, 0
	mov	eax, 4
	shl	eax, 0
	mov	ecx, DWORD PTR _pTemp$[ebp]
	mov	edx, DWORD PTR _vel$1[ebp+edx]
	mov	DWORD PTR [ecx+eax+92], edx
	mov	eax, 4
	shl	eax, 1
	mov	ecx, 4
	shl	ecx, 1
	mov	edx, DWORD PTR _pTemp$[ebp]
	mov	eax, DWORD PTR _vel$1[ebp+eax]
	mov	DWORD PTR [edx+ecx+92], eax

; 1551 : 		VectorCopy( pos, pTemp->entity.origin );

	mov	eax, 4
	imul	ecx, eax, 0
	mov	edx, 4
	imul	eax, edx, 0
	mov	edx, DWORD PTR _pTemp$[ebp]
	mov	ecx, DWORD PTR _pos$2[ebp+ecx]
	mov	DWORD PTR [edx+eax+3292], ecx
	mov	edx, 4
	shl	edx, 0
	mov	eax, 4
	shl	eax, 0
	mov	ecx, DWORD PTR _pTemp$[ebp]
	mov	edx, DWORD PTR _pos$2[ebp+edx]
	mov	DWORD PTR [ecx+eax+3292], edx
	mov	eax, 4
	shl	eax, 1
	mov	ecx, 4
	shl	ecx, 1
	mov	edx, DWORD PTR _pTemp$[ebp]
	mov	eax, DWORD PTR _pos$2[ebp+eax]
	mov	DWORD PTR [edx+ecx+3292], eax

; 1552 : 
; 1553 : 		pTemp->entity.curstate.scale = size;

	mov	eax, DWORD PTR _pTemp$[ebp]
	movss	xmm0, DWORD PTR _size$[ebp]
	movss	DWORD PTR [eax+1044], xmm0

; 1554 : 		pTemp->entity.curstate.rendermode = kRenderGlow;

	mov	eax, DWORD PTR _pTemp$[ebp]
	mov	DWORD PTR [eax+1052], 3

; 1555 : 		pTemp->entity.curstate.renderfx = kRenderFxNoDissipation;

	mov	eax, DWORD PTR _pTemp$[ebp]
	mov	DWORD PTR [eax+1064], 14		; 0000000eH

; 1556 : 		pTemp->entity.curstate.renderamt = pTemp->entity.baseline.renderamt = renderamt;

	mov	eax, DWORD PTR _pTemp$[ebp]
	mov	ecx, DWORD PTR _renderamt$[ebp]
	mov	DWORD PTR [eax+152], ecx
	mov	edx, DWORD PTR _pTemp$[ebp]
	mov	eax, DWORD PTR _renderamt$[ebp]
	mov	DWORD PTR [edx+1056], eax

; 1557 : 
; 1558 : 		pTemp->entity.curstate.frame = COM_RandomLong( 0, pTemp->frameMax );

	mov	eax, DWORD PTR _pTemp$[ebp]
	cvttss2si ecx, DWORD PTR [eax+8]
	push	ecx
	push	0
	call	_COM_RandomLong
	add	esp, 8
	cvtsi2ss xmm0, eax
	mov	edx, DWORD PTR _pTemp$[ebp]
	movss	DWORD PTR [edx+1028], xmm0

; 1559 : 		pTemp->die = cl.time + life + COM_RandomFloat( 0.0f, 4.0f );

	cvtss2sd xmm0, DWORD PTR _life$[ebp]
	addsd	xmm0, QWORD PTR _cl+2167640
	push	ecx
	movss	xmm1, DWORD PTR __real@40800000
	movss	DWORD PTR [esp], xmm1
	push	ecx
	xorps	xmm1, xmm1
	movss	DWORD PTR [esp], xmm1
	movsd	QWORD PTR tv502[ebp], xmm0
	call	_COM_RandomFloat
	add	esp, 8
	fstp	QWORD PTR tv499[ebp]
	movsd	xmm0, QWORD PTR tv502[ebp]
	addsd	xmm0, QWORD PTR tv499[ebp]
	cvtsd2ss xmm0, xmm0
	mov	eax, DWORD PTR _pTemp$[ebp]
	movss	DWORD PTR [eax+4], xmm0

; 1560 : 	}

	jmp	$LN2@R_Sprite_T
$LN3@R_Sprite_T:

; 1561 : }

	pop	edi
	pop	esi
	pop	ebx
	mov	ecx, DWORD PTR __$ArrayPad$[ebp]
	xor	ecx, ebp
	call	@__security_check_cookie@4
	mov	esp, ebp
	pop	ebp
	ret	0
_R_Sprite_Trail ENDP
_TEXT	ENDS
; Function compile flags: /Odtp /ZI
; File D:\DevDragon\XashFE\dev\src\engine\client\cl_tent.c
;	COMDAT _R_Sprite_Spray
_TEXT	SEGMENT
_pos$ = 8						; size = 4
_dir$ = 12						; size = 4
_modelIndex$ = 16					; size = 4
_count$ = 20						; size = 4
_speed$ = 24						; size = 4
_spread$ = 28						; size = 4
_R_Sprite_Spray PROC					; COMDAT

; 1506 : {

	push	ebp
	mov	ebp, esp
	sub	esp, 64					; 00000040H
	push	ebx
	push	esi
	push	edi

; 1507 : 	R_Spray( pos, dir, modelIndex, count, speed, spread, kRenderGlow );

	push	3
	mov	eax, DWORD PTR _spread$[ebp]
	push	eax
	mov	ecx, DWORD PTR _speed$[ebp]
	push	ecx
	mov	edx, DWORD PTR _count$[ebp]
	push	edx
	mov	eax, DWORD PTR _modelIndex$[ebp]
	push	eax
	mov	ecx, DWORD PTR _dir$[ebp]
	push	ecx
	mov	edx, DWORD PTR _pos$[ebp]
	push	edx
	call	_R_Spray
	add	esp, 28					; 0000001cH

; 1508 : }

	pop	edi
	pop	esi
	pop	ebx
	mov	esp, ebp
	pop	ebp
	ret	0
_R_Sprite_Spray ENDP
_TEXT	ENDS
; Function compile flags: /Odtp /ZI
; File D:\DevDragon\XashFE\dev\src\engine\client\cl_tent.c
;	COMDAT _R_Spray
_TEXT	SEGMENT
tv233 = -100						; size = 4
tv356 = -96						; size = 4
tv344 = -92						; size = 4
tv332 = -88						; size = 4
tv320 = -88						; size = 4
tv307 = -88						; size = 4
tv294 = -88						; size = 4
tv76 = -88						; size = 4
_i$ = -20						; size = 4
_pmodel$ = -16						; size = 4
_znoise$ = -12						; size = 4
_noise$ = -8						; size = 4
_pTemp$ = -4						; size = 4
_pos$ = 8						; size = 4
_dir$ = 12						; size = 4
_modelIndex$ = 16					; size = 4
_count$ = 20						; size = 4
_speed$ = 24						; size = 4
_spread$ = 28						; size = 4
_rendermode$ = 32					; size = 4
_R_Spray PROC						; COMDAT

; 1440 : {

	push	ebp
	mov	ebp, esp
	sub	esp, 100				; 00000064H
	push	ebx
	push	esi
	push	edi

; 1441 : 	TEMPENTITY	*pTemp;
; 1442 : 	float		noise;
; 1443 : 	float		znoise;
; 1444 : 	model_t		*pmodel;
; 1445 : 	int		i;
; 1446 : 
; 1447 : 	if(( pmodel = CL_ModelHandle( modelIndex )) == NULL )

	mov	eax, DWORD PTR _modelIndex$[ebp]
	push	eax
	call	_CL_ModelHandle
	add	esp, 4
	mov	DWORD PTR _pmodel$[ebp], eax
	cmp	DWORD PTR _pmodel$[ebp], 0
	jne	SHORT $LN5@R_Spray

; 1448 : 	{
; 1449 : 		Con_Reportf( "No model %d!\n", modelIndex );

	mov	eax, DWORD PTR _modelIndex$[ebp]
	push	eax
	push	OFFSET ??_C@_0O@ICEDCNLF@No?5model?5?$CFd?$CB?6@
	call	_Con_Reportf
	add	esp, 8

; 1450 : 		return;

	jmp	$LN3@R_Spray
$LN5@R_Spray:

; 1451 : 	}
; 1452 : 
; 1453 : 	noise = (float)spread / 100.0f;

	cvtsi2ss xmm0, DWORD PTR _spread$[ebp]
	divss	xmm0, DWORD PTR __real@42c80000
	movss	DWORD PTR _noise$[ebp], xmm0

; 1454 : 
; 1455 : 	// more vertical displacement
; 1456 : 	znoise = Q_min( 1.0f, noise * 1.5f );

	movss	xmm0, DWORD PTR _noise$[ebp]
	mulss	xmm0, DWORD PTR __real@3fc00000
	comiss	xmm0, DWORD PTR __real@3f800000
	jbe	SHORT $LN12@R_Spray
	movss	xmm0, DWORD PTR __real@3f800000
	movss	DWORD PTR tv76[ebp], xmm0
	jmp	SHORT $LN13@R_Spray
$LN12@R_Spray:
	movss	xmm0, DWORD PTR _noise$[ebp]
	mulss	xmm0, DWORD PTR __real@3fc00000
	movss	DWORD PTR tv76[ebp], xmm0
$LN13@R_Spray:
	movss	xmm0, DWORD PTR tv76[ebp]
	movss	DWORD PTR _znoise$[ebp], xmm0

; 1457 : 
; 1458 : 	for( i = 0; i < count; i++ )

	mov	DWORD PTR _i$[ebp], 0
	jmp	SHORT $LN4@R_Spray
$LN2@R_Spray:
	mov	eax, DWORD PTR _i$[ebp]
	add	eax, 1
	mov	DWORD PTR _i$[ebp], eax
$LN4@R_Spray:
	mov	eax, DWORD PTR _i$[ebp]
	cmp	eax, DWORD PTR _count$[ebp]
	jge	$LN3@R_Spray

; 1459 : 	{
; 1460 : 		pTemp = CL_TempEntAlloc( pos, pmodel );

	mov	eax, DWORD PTR _pmodel$[ebp]
	push	eax
	mov	ecx, DWORD PTR _pos$[ebp]
	push	ecx
	call	_CL_TempEntAlloc
	add	esp, 8
	mov	DWORD PTR _pTemp$[ebp], eax

; 1461 : 		if( !pTemp ) return;

	cmp	DWORD PTR _pTemp$[ebp], 0
	jne	SHORT $LN6@R_Spray
	jmp	$LN3@R_Spray
$LN6@R_Spray:

; 1462 : 
; 1463 : 		pTemp->entity.curstate.rendermode = rendermode;

	mov	eax, DWORD PTR _pTemp$[ebp]
	mov	ecx, DWORD PTR _rendermode$[ebp]
	mov	DWORD PTR [eax+1052], ecx

; 1464 : 		pTemp->entity.baseline.renderamt = pTemp->entity.curstate.renderamt = 255;

	mov	eax, DWORD PTR _pTemp$[ebp]
	mov	DWORD PTR [eax+1056], 255		; 000000ffH
	mov	ecx, DWORD PTR _pTemp$[ebp]
	mov	DWORD PTR [ecx+152], 255		; 000000ffH

; 1465 : 		pTemp->entity.curstate.renderfx = kRenderFxNoDissipation;

	mov	eax, DWORD PTR _pTemp$[ebp]
	mov	DWORD PTR [eax+1064], 14		; 0000000eH

; 1466 : 
; 1467 : 		if( rendermode != kRenderGlow )

	cmp	DWORD PTR _rendermode$[ebp], 3
	je	$LN7@R_Spray

; 1468 : 		{
; 1469 : 			// spray
; 1470 : 			pTemp->flags |= FTENT_COLLIDEWORLD | FTENT_SLOWGRAVITY;

	mov	eax, DWORD PTR _pTemp$[ebp]
	mov	ecx, DWORD PTR [eax]
	or	ecx, 40					; 00000028H
	mov	edx, DWORD PTR _pTemp$[ebp]
	mov	DWORD PTR [edx], ecx

; 1471 : 
; 1472 : 			if( pTemp->frameMax > 1 )

	mov	eax, DWORD PTR _pTemp$[ebp]
	movss	xmm0, DWORD PTR [eax+8]
	comiss	xmm0, DWORD PTR __real@3f800000
	jbe	SHORT $LN9@R_Spray

; 1473 : 			{
; 1474 : 				pTemp->flags |= FTENT_COLLIDEWORLD | FTENT_SLOWGRAVITY | FTENT_SPRANIMATE;

	mov	eax, DWORD PTR _pTemp$[ebp]
	mov	ecx, DWORD PTR [eax]
	or	ecx, 296				; 00000128H
	mov	edx, DWORD PTR _pTemp$[ebp]
	mov	DWORD PTR [edx], ecx

; 1475 : 				pTemp->die = cl.time + (pTemp->frameMax * 0.1f);

	mov	eax, DWORD PTR _pTemp$[ebp]
	movss	xmm0, DWORD PTR [eax+8]
	mulss	xmm0, DWORD PTR __real@3dcccccd
	cvtss2sd xmm0, xmm0
	addsd	xmm0, QWORD PTR _cl+2167640
	cvtsd2ss xmm0, xmm0
	mov	ecx, DWORD PTR _pTemp$[ebp]
	movss	DWORD PTR [ecx+4], xmm0

; 1476 : 				pTemp->entity.curstate.framerate = 10;

	mov	eax, DWORD PTR _pTemp$[ebp]
	movss	xmm0, DWORD PTR __real@41200000
	movss	DWORD PTR [eax+1076], xmm0

; 1477 : 			}

	jmp	SHORT $LN10@R_Spray
$LN9@R_Spray:

; 1478 : 			else pTemp->die = cl.time + 0.35f;

	movsd	xmm0, QWORD PTR _cl+2167640
	addsd	xmm0, QWORD PTR __real@3fd6666660000000
	cvtsd2ss xmm0, xmm0
	mov	eax, DWORD PTR _pTemp$[ebp]
	movss	DWORD PTR [eax+4], xmm0
$LN10@R_Spray:

; 1479 : 		}

	jmp	SHORT $LN8@R_Spray
$LN7@R_Spray:

; 1480 : 		else
; 1481 : 		{
; 1482 : 			// sprite spray
; 1483 : 			pTemp->entity.curstate.frame = COM_RandomLong( 0, pTemp->frameMax );

	mov	eax, DWORD PTR _pTemp$[ebp]
	cvttss2si ecx, DWORD PTR [eax+8]
	push	ecx
	push	0
	call	_COM_RandomLong
	add	esp, 8
	cvtsi2ss xmm0, eax
	mov	edx, DWORD PTR _pTemp$[ebp]
	movss	DWORD PTR [edx+1028], xmm0

; 1484 : 			pTemp->flags |= FTENT_FADEOUT | FTENT_SLOWGRAVITY;

	mov	eax, DWORD PTR _pTemp$[ebp]
	mov	ecx, DWORD PTR [eax]
	or	ecx, 136				; 00000088H
	mov	edx, DWORD PTR _pTemp$[ebp]
	mov	DWORD PTR [edx], ecx

; 1485 : 			pTemp->entity.curstate.framerate = 0.5;

	mov	eax, DWORD PTR _pTemp$[ebp]
	movss	xmm0, DWORD PTR __real@3f000000
	movss	DWORD PTR [eax+1076], xmm0

; 1486 : 			pTemp->die = cl.time + 0.35f;

	movsd	xmm0, QWORD PTR _cl+2167640
	addsd	xmm0, QWORD PTR __real@3fd6666660000000
	cvtsd2ss xmm0, xmm0
	mov	eax, DWORD PTR _pTemp$[ebp]
	movss	DWORD PTR [eax+4], xmm0

; 1487 : 			pTemp->fadeSpeed = 2.0;

	mov	eax, DWORD PTR _pTemp$[ebp]
	movss	xmm0, DWORD PTR __real@40000000
	movss	DWORD PTR [eax+24], xmm0
$LN8@R_Spray:

; 1488 : 		}
; 1489 : 
; 1490 : 		// make the spittle fly the direction indicated, but mix in some noise.
; 1491 : 		pTemp->entity.baseline.origin[0] = dir[0] + COM_RandomFloat( -noise, noise );

	mov	eax, 4
	imul	esi, eax, 0
	push	ecx
	movss	xmm0, DWORD PTR _noise$[ebp]
	movss	DWORD PTR [esp], xmm0
	movss	xmm0, DWORD PTR _noise$[ebp]
	xorps	xmm0, DWORD PTR __xmm@80000000800000008000000080000000
	push	ecx
	movss	DWORD PTR [esp], xmm0
	call	_COM_RandomFloat
	add	esp, 8
	fstp	DWORD PTR tv294[ebp]
	mov	ecx, DWORD PTR _dir$[ebp]
	movss	xmm0, DWORD PTR tv294[ebp]
	addss	xmm0, DWORD PTR [ecx+esi]
	mov	edx, 4
	imul	eax, edx, 0
	mov	ecx, DWORD PTR _pTemp$[ebp]
	movss	DWORD PTR [ecx+eax+92], xmm0

; 1492 : 		pTemp->entity.baseline.origin[1] = dir[1] + COM_RandomFloat( -noise, noise );

	mov	esi, 4
	shl	esi, 0
	push	ecx
	movss	xmm0, DWORD PTR _noise$[ebp]
	movss	DWORD PTR [esp], xmm0
	movss	xmm0, DWORD PTR _noise$[ebp]
	xorps	xmm0, DWORD PTR __xmm@80000000800000008000000080000000
	push	ecx
	movss	DWORD PTR [esp], xmm0
	call	_COM_RandomFloat
	add	esp, 8
	fstp	DWORD PTR tv307[ebp]
	mov	eax, DWORD PTR _dir$[ebp]
	movss	xmm0, DWORD PTR tv307[ebp]
	addss	xmm0, DWORD PTR [eax+esi]
	mov	ecx, 4
	shl	ecx, 0
	mov	edx, DWORD PTR _pTemp$[ebp]
	movss	DWORD PTR [edx+ecx+92], xmm0

; 1493 : 		pTemp->entity.baseline.origin[2] = dir[2] + COM_RandomFloat( 0, znoise );

	mov	esi, 4
	shl	esi, 1
	push	ecx
	movss	xmm0, DWORD PTR _znoise$[ebp]
	movss	DWORD PTR [esp], xmm0
	push	ecx
	xorps	xmm0, xmm0
	movss	DWORD PTR [esp], xmm0
	call	_COM_RandomFloat
	add	esp, 8
	fstp	DWORD PTR tv320[ebp]
	mov	eax, DWORD PTR _dir$[ebp]
	movss	xmm0, DWORD PTR tv320[ebp]
	addss	xmm0, DWORD PTR [eax+esi]
	mov	ecx, 4
	shl	ecx, 1
	mov	edx, DWORD PTR _pTemp$[ebp]
	movss	DWORD PTR [edx+ecx+92], xmm0

; 1494 : 		VectorScale( pTemp->entity.baseline.origin, COM_RandomFloat(( speed * 0.8f ), ( speed * 1.2f )), pTemp->entity.baseline.origin );

	mov	eax, 4
	imul	esi, eax, 0
	cvtsi2ss xmm0, DWORD PTR _speed$[ebp]
	mulss	xmm0, DWORD PTR __real@3f99999a
	push	ecx
	movss	DWORD PTR [esp], xmm0
	cvtsi2ss xmm0, DWORD PTR _speed$[ebp]
	mulss	xmm0, DWORD PTR __real@3f4ccccd
	push	ecx
	movss	DWORD PTR [esp], xmm0
	call	_COM_RandomFloat
	add	esp, 8
	fstp	DWORD PTR tv332[ebp]
	mov	ecx, DWORD PTR _pTemp$[ebp]
	movss	xmm0, DWORD PTR tv332[ebp]
	mulss	xmm0, DWORD PTR [ecx+esi+92]
	mov	edx, 4
	imul	eax, edx, 0
	mov	ecx, DWORD PTR _pTemp$[ebp]
	movss	DWORD PTR [ecx+eax+92], xmm0
	mov	esi, 4
	shl	esi, 0
	cvtsi2ss xmm0, DWORD PTR _speed$[ebp]
	mulss	xmm0, DWORD PTR __real@3f99999a
	push	ecx
	movss	DWORD PTR [esp], xmm0
	cvtsi2ss xmm0, DWORD PTR _speed$[ebp]
	mulss	xmm0, DWORD PTR __real@3f4ccccd
	push	ecx
	movss	DWORD PTR [esp], xmm0
	call	_COM_RandomFloat
	add	esp, 8
	fstp	DWORD PTR tv344[ebp]
	mov	edx, DWORD PTR _pTemp$[ebp]
	movss	xmm0, DWORD PTR tv344[ebp]
	mulss	xmm0, DWORD PTR [edx+esi+92]
	mov	eax, 4
	shl	eax, 0
	mov	ecx, DWORD PTR _pTemp$[ebp]
	movss	DWORD PTR [ecx+eax+92], xmm0
	mov	esi, 4
	shl	esi, 1
	cvtsi2ss xmm0, DWORD PTR _speed$[ebp]
	mulss	xmm0, DWORD PTR __real@3f99999a
	push	ecx
	movss	DWORD PTR [esp], xmm0
	cvtsi2ss xmm0, DWORD PTR _speed$[ebp]
	mulss	xmm0, DWORD PTR __real@3f4ccccd
	push	ecx
	movss	DWORD PTR [esp], xmm0
	call	_COM_RandomFloat
	add	esp, 8
	fstp	DWORD PTR tv356[ebp]
	mov	edx, DWORD PTR _pTemp$[ebp]
	movss	xmm0, DWORD PTR [edx+esi+92]
	mulss	xmm0, DWORD PTR tv356[ebp]
	movss	DWORD PTR tv233[ebp], xmm0
	mov	eax, 4
	shl	eax, 1
	mov	ecx, DWORD PTR _pTemp$[ebp]
	movss	xmm0, DWORD PTR tv233[ebp]
	movss	DWORD PTR [ecx+eax+92], xmm0

; 1495 : 	}

	jmp	$LN2@R_Spray
$LN3@R_Spray:

; 1496 : }

	pop	edi
	pop	esi
	pop	ebx
	mov	esp, ebp
	pop	ebp
	ret	0
_R_Spray ENDP
_TEXT	ENDS
; Function compile flags: /Odtp /ZI
; File D:\DevDragon\XashFE\dev\src\engine\client\cl_tent.c
;	COMDAT _R_Sprite_Smoke
_TEXT	SEGMENT
_iColor$ = -4						; size = 4
_pTemp$ = 8						; size = 4
_scale$ = 12						; size = 4
_R_Sprite_Smoke PROC					; COMDAT

; 1416 : {

	push	ebp
	mov	ebp, esp
	sub	esp, 68					; 00000044H
	push	ebx
	push	esi
	push	edi

; 1417 : 	int	iColor;
; 1418 : 
; 1419 : 	if( !pTemp ) return;

	cmp	DWORD PTR _pTemp$[ebp], 0
	jne	SHORT $LN2@R_Sprite_S
	jmp	$LN1@R_Sprite_S
$LN2@R_Sprite_S:

; 1420 : 
; 1421 : 	iColor = COM_RandomLong( 20, 35 );

	push	35					; 00000023H
	push	20					; 00000014H
	call	_COM_RandomLong
	add	esp, 8
	mov	DWORD PTR _iColor$[ebp], eax

; 1422 : 	pTemp->entity.curstate.rendermode = kRenderTransAlpha;

	mov	eax, DWORD PTR _pTemp$[ebp]
	mov	DWORD PTR [eax+1052], 4

; 1423 : 	pTemp->entity.curstate.renderfx = kRenderFxNone;

	mov	eax, DWORD PTR _pTemp$[ebp]
	mov	DWORD PTR [eax+1064], 0

; 1424 : 	pTemp->entity.baseline.origin[2] = 30;

	mov	eax, 4
	shl	eax, 1
	mov	ecx, DWORD PTR _pTemp$[ebp]
	movss	xmm0, DWORD PTR __real@41f00000
	movss	DWORD PTR [ecx+eax+92], xmm0

; 1425 : 	pTemp->entity.curstate.rendercolor.r = iColor;

	mov	eax, DWORD PTR _pTemp$[ebp]
	mov	cl, BYTE PTR _iColor$[ebp]
	mov	BYTE PTR [eax+1060], cl

; 1426 : 	pTemp->entity.curstate.rendercolor.g = iColor;

	mov	eax, DWORD PTR _pTemp$[ebp]
	mov	cl, BYTE PTR _iColor$[ebp]
	mov	BYTE PTR [eax+1061], cl

; 1427 : 	pTemp->entity.curstate.rendercolor.b = iColor;

	mov	eax, DWORD PTR _pTemp$[ebp]
	mov	cl, BYTE PTR _iColor$[ebp]
	mov	BYTE PTR [eax+1062], cl

; 1428 : 	pTemp->entity.origin[2] += 20;

	mov	eax, 4
	shl	eax, 1
	mov	ecx, DWORD PTR _pTemp$[ebp]
	movss	xmm0, DWORD PTR [ecx+eax+3292]
	addss	xmm0, DWORD PTR __real@41a00000
	mov	edx, 4
	shl	edx, 1
	mov	eax, DWORD PTR _pTemp$[ebp]
	movss	DWORD PTR [eax+edx+3292], xmm0

; 1429 : 	pTemp->entity.curstate.scale = scale;

	mov	eax, DWORD PTR _pTemp$[ebp]
	movss	xmm0, DWORD PTR _scale$[ebp]
	movss	DWORD PTR [eax+1044], xmm0
$LN1@R_Sprite_S:

; 1430 : }

	pop	edi
	pop	esi
	pop	ebx
	mov	esp, ebp
	pop	ebp
	ret	0
_R_Sprite_Smoke ENDP
_TEXT	ENDS
; Function compile flags: /Odtp /ZI
; File D:\DevDragon\XashFE\dev\src\engine\client\cl_tent.c
;	COMDAT _R_Sprite_Explode
_TEXT	SEGMENT
_pTemp$ = 8						; size = 4
_scale$ = 12						; size = 4
_flags$ = 16						; size = 4
_R_Sprite_Explode PROC					; COMDAT

; 1374 : {

	push	ebp
	mov	ebp, esp
	sub	esp, 64					; 00000040H
	push	ebx
	push	esi
	push	edi

; 1375 : 	if( !pTemp ) return;

	cmp	DWORD PTR _pTemp$[ebp], 0
	jne	SHORT $LN2@R_Sprite_E
	jmp	$LN1@R_Sprite_E
$LN2@R_Sprite_E:

; 1376 : 
; 1377 : 	if( FBitSet( flags, TE_EXPLFLAG_NOADDITIVE ))

	mov	eax, DWORD PTR _flags$[ebp]
	and	eax, 1
	je	SHORT $LN3@R_Sprite_E

; 1378 : 	{
; 1379 : 		// solid sprite
; 1380 : 		pTemp->entity.curstate.rendermode = kRenderNormal;

	mov	eax, DWORD PTR _pTemp$[ebp]
	mov	DWORD PTR [eax+1052], 0

; 1381 : 		pTemp->entity.curstate.renderamt = 255; 

	mov	eax, DWORD PTR _pTemp$[ebp]
	mov	DWORD PTR [eax+1056], 255		; 000000ffH

; 1382 : 	}

	jmp	SHORT $LN6@R_Sprite_E
$LN3@R_Sprite_E:

; 1383 : 	else if( FBitSet( flags, TE_EXPLFLAG_DRAWALPHA ))

	mov	eax, DWORD PTR _flags$[ebp]
	and	eax, 16					; 00000010H
	je	SHORT $LN5@R_Sprite_E

; 1384 : 	{
; 1385 : 		// alpha sprite (came from hl2)
; 1386 : 		pTemp->entity.curstate.rendermode = kRenderTransAlpha;

	mov	eax, DWORD PTR _pTemp$[ebp]
	mov	DWORD PTR [eax+1052], 4

; 1387 : 		pTemp->entity.curstate.renderamt = 180;

	mov	eax, DWORD PTR _pTemp$[ebp]
	mov	DWORD PTR [eax+1056], 180		; 000000b4H

; 1388 : 	}

	jmp	SHORT $LN6@R_Sprite_E
$LN5@R_Sprite_E:

; 1389 : 	else
; 1390 : 	{
; 1391 : 		// additive sprite
; 1392 : 		pTemp->entity.curstate.rendermode = kRenderTransAdd;

	mov	eax, DWORD PTR _pTemp$[ebp]
	mov	DWORD PTR [eax+1052], 5

; 1393 : 		pTemp->entity.curstate.renderamt = 180;

	mov	eax, DWORD PTR _pTemp$[ebp]
	mov	DWORD PTR [eax+1056], 180		; 000000b4H
$LN6@R_Sprite_E:

; 1394 : 	}
; 1395 : 
; 1396 : 	if( FBitSet( flags, TE_EXPLFLAG_ROTATE ))

	mov	eax, DWORD PTR _flags$[ebp]
	and	eax, 32					; 00000020H
	je	SHORT $LN7@R_Sprite_E

; 1397 : 	{
; 1398 : 		// came from hl2
; 1399 : 		pTemp->entity.angles[2] = COM_RandomLong( 0, 360 );

	push	360					; 00000168H
	push	0
	call	_COM_RandomLong
	add	esp, 8
	mov	ecx, 4
	shl	ecx, 1
	cvtsi2ss xmm0, eax
	mov	edx, DWORD PTR _pTemp$[ebp]
	movss	DWORD PTR [edx+ecx+3304], xmm0
$LN7@R_Sprite_E:

; 1400 : 	}
; 1401 : 
; 1402 : 	pTemp->entity.curstate.renderfx = kRenderFxNone;

	mov	eax, DWORD PTR _pTemp$[ebp]
	mov	DWORD PTR [eax+1064], 0

; 1403 : 	pTemp->entity.baseline.origin[2] = 8;

	mov	eax, 4
	shl	eax, 1
	mov	ecx, DWORD PTR _pTemp$[ebp]
	movss	xmm0, DWORD PTR __real@41000000
	movss	DWORD PTR [ecx+eax+92], xmm0

; 1404 : 	pTemp->entity.origin[2] += 10;

	mov	eax, 4
	shl	eax, 1
	mov	ecx, DWORD PTR _pTemp$[ebp]
	movss	xmm0, DWORD PTR [ecx+eax+3292]
	addss	xmm0, DWORD PTR __real@41200000
	mov	edx, 4
	shl	edx, 1
	mov	eax, DWORD PTR _pTemp$[ebp]
	movss	DWORD PTR [eax+edx+3292], xmm0

; 1405 : 	pTemp->entity.curstate.scale = scale;

	mov	eax, DWORD PTR _pTemp$[ebp]
	movss	xmm0, DWORD PTR _scale$[ebp]
	movss	DWORD PTR [eax+1044], xmm0
$LN1@R_Sprite_E:

; 1406 : }

	pop	edi
	pop	esi
	pop	ebx
	mov	esp, ebp
	pop	ebp
	ret	0
_R_Sprite_Explode ENDP
_TEXT	ENDS
; Function compile flags: /Odtp /ZI
; File D:\DevDragon\XashFE\dev\src\engine\client\cl_tent.c
;	COMDAT _R_DefaultSprite
_TEXT	SEGMENT
_psprite$ = -8						; size = 4
_pTemp$ = -4						; size = 4
_pos$ = 8						; size = 4
_spriteIndex$ = 12					; size = 4
_framerate$ = 16					; size = 4
_R_DefaultSprite PROC					; COMDAT

; 1275 : {

	push	ebp
	mov	ebp, esp
	sub	esp, 72					; 00000048H
	push	ebx
	push	esi
	push	edi

; 1276 : 	TEMPENTITY	*pTemp;
; 1277 : 	model_t		*psprite;
; 1278 : 
; 1279 : 	// don't spawn while paused
; 1280 : 	if( cl.time == cl.oldtime )

	movsd	xmm0, QWORD PTR _cl+2167640
	ucomisd	xmm0, QWORD PTR _cl+2167648
	lahf
	test	ah, 68					; 00000044H
	jp	SHORT $LN2@R_DefaultS

; 1281 : 		return NULL;

	xor	eax, eax
	jmp	$LN1@R_DefaultS
$LN2@R_DefaultS:

; 1282 : 
; 1283 : 	if(( psprite = CL_ModelHandle( spriteIndex )) == NULL || psprite->type != mod_sprite )

	mov	eax, DWORD PTR _spriteIndex$[ebp]
	push	eax
	call	_CL_ModelHandle
	add	esp, 4
	mov	DWORD PTR _psprite$[ebp], eax
	cmp	DWORD PTR _psprite$[ebp], 0
	je	SHORT $LN4@R_DefaultS
	mov	eax, DWORD PTR _psprite$[ebp]
	cmp	DWORD PTR [eax+68], 1
	je	SHORT $LN3@R_DefaultS
$LN4@R_DefaultS:

; 1284 : 	{
; 1285 : 		Con_Reportf( "No Sprite %d!\n", spriteIndex );

	mov	eax, DWORD PTR _spriteIndex$[ebp]
	push	eax
	push	OFFSET ??_C@_0P@FJBFKKAM@No?5Sprite?5?$CFd?$CB?6@
	call	_Con_Reportf
	add	esp, 8

; 1286 : 		return NULL;

	xor	eax, eax
	jmp	$LN1@R_DefaultS
$LN3@R_DefaultS:

; 1287 : 	}
; 1288 : 
; 1289 : 	pTemp = CL_TempEntAlloc( pos, psprite );

	mov	eax, DWORD PTR _psprite$[ebp]
	push	eax
	mov	ecx, DWORD PTR _pos$[ebp]
	push	ecx
	call	_CL_TempEntAlloc
	add	esp, 8
	mov	DWORD PTR _pTemp$[ebp], eax

; 1290 : 	if( !pTemp ) return NULL;

	cmp	DWORD PTR _pTemp$[ebp], 0
	jne	SHORT $LN5@R_DefaultS
	xor	eax, eax
	jmp	$LN1@R_DefaultS
$LN5@R_DefaultS:

; 1291 : 
; 1292 : 	pTemp->entity.curstate.scale = 1.0f;

	mov	eax, DWORD PTR _pTemp$[ebp]
	movss	xmm0, DWORD PTR __real@3f800000
	movss	DWORD PTR [eax+1044], xmm0

; 1293 : 	pTemp->flags |= FTENT_SPRANIMATE;

	mov	eax, DWORD PTR _pTemp$[ebp]
	mov	ecx, DWORD PTR [eax]
	or	ecx, 256				; 00000100H
	mov	edx, DWORD PTR _pTemp$[ebp]
	mov	DWORD PTR [edx], ecx

; 1294 : 	if( framerate == 0 ) framerate = 10;

	movss	xmm0, DWORD PTR _framerate$[ebp]
	ucomiss	xmm0, DWORD PTR __real@00000000
	lahf
	test	ah, 68					; 00000044H
	jp	SHORT $LN6@R_DefaultS
	movss	xmm0, DWORD PTR __real@41200000
	movss	DWORD PTR _framerate$[ebp], xmm0
$LN6@R_DefaultS:

; 1295 : 
; 1296 : 	pTemp->entity.curstate.framerate = framerate;

	mov	eax, DWORD PTR _pTemp$[ebp]
	movss	xmm0, DWORD PTR _framerate$[ebp]
	movss	DWORD PTR [eax+1076], xmm0

; 1297 : 	pTemp->die = cl.time + (float)pTemp->frameMax / framerate;

	mov	eax, DWORD PTR _pTemp$[ebp]
	movss	xmm0, DWORD PTR [eax+8]
	divss	xmm0, DWORD PTR _framerate$[ebp]
	cvtss2sd xmm0, xmm0
	addsd	xmm0, QWORD PTR _cl+2167640
	cvtsd2ss xmm0, xmm0
	mov	ecx, DWORD PTR _pTemp$[ebp]
	movss	DWORD PTR [ecx+4], xmm0

; 1298 : 	pTemp->entity.curstate.frame = 0;

	mov	eax, DWORD PTR _pTemp$[ebp]
	xorps	xmm0, xmm0
	movss	DWORD PTR [eax+1028], xmm0

; 1299 : 
; 1300 : 	return pTemp;

	mov	eax, DWORD PTR _pTemp$[ebp]
$LN1@R_DefaultS:

; 1301 : }

	pop	edi
	pop	esi
	pop	ebx
	mov	esp, ebp
	pop	ebp
	ret	0
_R_DefaultSprite ENDP
_TEXT	ENDS
; Function compile flags: /Odtp /ZI
; File D:\DevDragon\XashFE\dev\src\engine\client\cl_tent.c
;	COMDAT _R_TempSprite
_TEXT	SEGMENT
_pmodel$ = -8						; size = 4
_pTemp$ = -4						; size = 4
_pos$ = 8						; size = 4
_dir$ = 12						; size = 4
_scale$ = 16						; size = 4
_modelIndex$ = 20					; size = 4
_rendermode$ = 24					; size = 4
_renderfx$ = 28						; size = 4
_a$ = 32						; size = 4
_life$ = 36						; size = 4
_flags$ = 40						; size = 4
_R_TempSprite PROC					; COMDAT

; 1336 : {

	push	ebp
	mov	ebp, esp
	sub	esp, 72					; 00000048H
	push	ebx
	push	esi
	push	edi

; 1337 : 	TEMPENTITY	*pTemp;
; 1338 : 	model_t		*pmodel;
; 1339 : 
; 1340 : 	if(( pmodel = CL_ModelHandle( modelIndex )) == NULL )

	mov	eax, DWORD PTR _modelIndex$[ebp]
	push	eax
	call	_CL_ModelHandle
	add	esp, 4
	mov	DWORD PTR _pmodel$[ebp], eax
	cmp	DWORD PTR _pmodel$[ebp], 0
	jne	SHORT $LN2@R_TempSpri

; 1341 : 	{
; 1342 : 		Con_Reportf( S_ERROR "No model %d!\n", modelIndex );

	mov	eax, DWORD PTR _modelIndex$[ebp]
	push	eax
	push	OFFSET ??_C@_0BJ@DIEJGHFK@?$FO1Error?3?$FO7?5No?5model?5?$CFd?$CB?6@
	call	_Con_Reportf
	add	esp, 8

; 1343 : 		return NULL;

	xor	eax, eax
	jmp	$LN1@R_TempSpri
$LN2@R_TempSpri:

; 1344 : 	}
; 1345 : 
; 1346 : 	pTemp = CL_TempEntAlloc( pos, pmodel );

	mov	eax, DWORD PTR _pmodel$[ebp]
	push	eax
	mov	ecx, DWORD PTR _pos$[ebp]
	push	ecx
	call	_CL_TempEntAlloc
	add	esp, 8
	mov	DWORD PTR _pTemp$[ebp], eax

; 1347 : 	if( !pTemp ) return NULL;

	cmp	DWORD PTR _pTemp$[ebp], 0
	jne	SHORT $LN3@R_TempSpri
	xor	eax, eax
	jmp	$LN1@R_TempSpri
$LN3@R_TempSpri:

; 1348 : 
; 1349 : 	pTemp->entity.curstate.framerate = 10;

	mov	eax, DWORD PTR _pTemp$[ebp]
	movss	xmm0, DWORD PTR __real@41200000
	movss	DWORD PTR [eax+1076], xmm0

; 1350 : 	pTemp->entity.curstate.rendermode = rendermode;

	mov	eax, DWORD PTR _pTemp$[ebp]
	mov	ecx, DWORD PTR _rendermode$[ebp]
	mov	DWORD PTR [eax+1052], ecx

; 1351 : 	pTemp->entity.curstate.renderfx = renderfx;

	mov	eax, DWORD PTR _pTemp$[ebp]
	mov	ecx, DWORD PTR _renderfx$[ebp]
	mov	DWORD PTR [eax+1064], ecx

; 1352 : 	pTemp->entity.curstate.scale = scale;

	mov	eax, DWORD PTR _pTemp$[ebp]
	movss	xmm0, DWORD PTR _scale$[ebp]
	movss	DWORD PTR [eax+1044], xmm0

; 1353 : 	pTemp->entity.baseline.renderamt = a * 255;

	movss	xmm0, DWORD PTR _a$[ebp]
	mulss	xmm0, DWORD PTR __real@437f0000
	cvttss2si eax, xmm0
	mov	ecx, DWORD PTR _pTemp$[ebp]
	mov	DWORD PTR [ecx+152], eax

; 1354 : 	pTemp->entity.curstate.renderamt = a * 255;

	movss	xmm0, DWORD PTR _a$[ebp]
	mulss	xmm0, DWORD PTR __real@437f0000
	cvttss2si eax, xmm0
	mov	ecx, DWORD PTR _pTemp$[ebp]
	mov	DWORD PTR [ecx+1056], eax

; 1355 : 	pTemp->flags |= flags;

	mov	eax, DWORD PTR _pTemp$[ebp]
	mov	ecx, DWORD PTR [eax]
	or	ecx, DWORD PTR _flags$[ebp]
	mov	edx, DWORD PTR _pTemp$[ebp]
	mov	DWORD PTR [edx], ecx

; 1356 : 
; 1357 : 	VectorCopy( dir, pTemp->entity.baseline.origin );

	mov	eax, 4
	imul	ecx, eax, 0
	mov	edx, 4
	imul	eax, edx, 0
	mov	edx, DWORD PTR _pTemp$[ebp]
	mov	esi, DWORD PTR _dir$[ebp]
	mov	ecx, DWORD PTR [esi+ecx]
	mov	DWORD PTR [edx+eax+92], ecx
	mov	edx, 4
	shl	edx, 0
	mov	eax, 4
	shl	eax, 0
	mov	ecx, DWORD PTR _pTemp$[ebp]
	mov	esi, DWORD PTR _dir$[ebp]
	mov	edx, DWORD PTR [esi+edx]
	mov	DWORD PTR [ecx+eax+92], edx
	mov	eax, 4
	shl	eax, 1
	mov	ecx, 4
	shl	ecx, 1
	mov	edx, DWORD PTR _pTemp$[ebp]
	mov	esi, DWORD PTR _dir$[ebp]
	mov	eax, DWORD PTR [esi+eax]
	mov	DWORD PTR [edx+ecx+92], eax

; 1358 : 
; 1359 : 	if( life ) pTemp->die = cl.time + life;

	movss	xmm0, DWORD PTR _life$[ebp]
	ucomiss	xmm0, DWORD PTR __real@00000000
	lahf
	test	ah, 68					; 00000044H
	jnp	SHORT $LN4@R_TempSpri
	cvtss2sd xmm0, DWORD PTR _life$[ebp]
	addsd	xmm0, QWORD PTR _cl+2167640
	cvtsd2ss xmm0, xmm0
	mov	eax, DWORD PTR _pTemp$[ebp]
	movss	DWORD PTR [eax+4], xmm0
	jmp	SHORT $LN5@R_TempSpri
$LN4@R_TempSpri:

; 1360 : 	else pTemp->die = cl.time + ( pTemp->frameMax * 0.1f ) + 1.0f;

	mov	eax, DWORD PTR _pTemp$[ebp]
	movss	xmm0, DWORD PTR [eax+8]
	mulss	xmm0, DWORD PTR __real@3dcccccd
	cvtss2sd xmm0, xmm0
	addsd	xmm0, QWORD PTR _cl+2167640
	addsd	xmm0, QWORD PTR __real@3ff0000000000000
	cvtsd2ss xmm0, xmm0
	mov	ecx, DWORD PTR _pTemp$[ebp]
	movss	DWORD PTR [ecx+4], xmm0
$LN5@R_TempSpri:

; 1361 : 	pTemp->entity.curstate.frame = 0;

	mov	eax, DWORD PTR _pTemp$[ebp]
	xorps	xmm0, xmm0
	movss	DWORD PTR [eax+1028], xmm0

; 1362 : 
; 1363 : 	return pTemp;

	mov	eax, DWORD PTR _pTemp$[ebp]
$LN1@R_TempSpri:

; 1364 : }

	pop	edi
	pop	esi
	pop	ebx
	mov	esp, ebp
	pop	ebp
	ret	0
_R_TempSprite ENDP
_TEXT	ENDS
; Function compile flags: /Odtp /ZI
; File D:\DevDragon\XashFE\dev\src\engine\client\cl_tent.c
;	COMDAT _R_TempModel
_TEXT	SEGMENT
tv135 = -76						; size = 4
_pmodel$ = -8						; size = 4
_pTemp$ = -4						; size = 4
_pos$ = 8						; size = 4
_dir$ = 12						; size = 4
_angles$ = 16						; size = 4
_life$ = 20						; size = 4
_modelIndex$ = 24					; size = 4
_soundtype$ = 28					; size = 4
_R_TempModel PROC					; COMDAT

; 1224 : {

	push	ebp
	mov	ebp, esp
	sub	esp, 76					; 0000004cH
	push	ebx
	push	esi
	push	edi

; 1225 : 	// alloc a new tempent
; 1226 : 	TEMPENTITY	*pTemp;
; 1227 : 	model_t		*pmodel;
; 1228 : 
; 1229 : 	if(( pmodel = CL_ModelHandle( modelIndex )) == NULL )

	mov	eax, DWORD PTR _modelIndex$[ebp]
	push	eax
	call	_CL_ModelHandle
	add	esp, 4
	mov	DWORD PTR _pmodel$[ebp], eax
	cmp	DWORD PTR _pmodel$[ebp], 0
	jne	SHORT $LN4@R_TempMode

; 1230 : 		return NULL;

	xor	eax, eax
	jmp	$LN1@R_TempMode
$LN4@R_TempMode:

; 1231 : 
; 1232 : 	pTemp = CL_TempEntAlloc( pos, pmodel );

	mov	eax, DWORD PTR _pmodel$[ebp]
	push	eax
	mov	ecx, DWORD PTR _pos$[ebp]
	push	ecx
	call	_CL_TempEntAlloc
	add	esp, 8
	mov	DWORD PTR _pTemp$[ebp], eax

; 1233 : 	if( !pTemp ) return NULL;

	cmp	DWORD PTR _pTemp$[ebp], 0
	jne	SHORT $LN5@R_TempMode
	xor	eax, eax
	jmp	$LN1@R_TempMode
$LN5@R_TempMode:

; 1234 : 
; 1235 : 	pTemp->flags = (FTENT_COLLIDEWORLD|FTENT_GRAVITY);

	mov	eax, DWORD PTR _pTemp$[ebp]
	mov	DWORD PTR [eax], 34			; 00000022H

; 1236 : 	VectorCopy( dir, pTemp->entity.baseline.origin );

	mov	eax, 4
	imul	ecx, eax, 0
	mov	edx, 4
	imul	eax, edx, 0
	mov	edx, DWORD PTR _pTemp$[ebp]
	mov	esi, DWORD PTR _dir$[ebp]
	mov	ecx, DWORD PTR [esi+ecx]
	mov	DWORD PTR [edx+eax+92], ecx
	mov	edx, 4
	shl	edx, 0
	mov	eax, 4
	shl	eax, 0
	mov	ecx, DWORD PTR _pTemp$[ebp]
	mov	esi, DWORD PTR _dir$[ebp]
	mov	edx, DWORD PTR [esi+edx]
	mov	DWORD PTR [ecx+eax+92], edx
	mov	eax, 4
	shl	eax, 1
	mov	ecx, 4
	shl	ecx, 1
	mov	edx, DWORD PTR _pTemp$[ebp]
	mov	esi, DWORD PTR _dir$[ebp]
	mov	eax, DWORD PTR [esi+eax]
	mov	DWORD PTR [edx+ecx+92], eax

; 1237 : 	VectorCopy( angles, pTemp->entity.angles );

	mov	eax, 4
	imul	ecx, eax, 0
	mov	edx, 4
	imul	eax, edx, 0
	mov	edx, DWORD PTR _pTemp$[ebp]
	mov	esi, DWORD PTR _angles$[ebp]
	mov	ecx, DWORD PTR [esi+ecx]
	mov	DWORD PTR [edx+eax+3304], ecx
	mov	edx, 4
	shl	edx, 0
	mov	eax, 4
	shl	eax, 0
	mov	ecx, DWORD PTR _pTemp$[ebp]
	mov	esi, DWORD PTR _angles$[ebp]
	mov	edx, DWORD PTR [esi+edx]
	mov	DWORD PTR [ecx+eax+3304], edx
	mov	eax, 4
	shl	eax, 1
	mov	ecx, 4
	shl	ecx, 1
	mov	edx, DWORD PTR _pTemp$[ebp]
	mov	esi, DWORD PTR _angles$[ebp]
	mov	eax, DWORD PTR [esi+eax]
	mov	DWORD PTR [edx+ecx+3304], eax

; 1238 : 
; 1239 : 	// keep track of shell type
; 1240 : 	switch( soundtype )

	mov	eax, DWORD PTR _soundtype$[ebp]
	mov	DWORD PTR tv135[ebp], eax
	cmp	DWORD PTR tv135[ebp], 1
	je	SHORT $LN6@R_TempMode
	cmp	DWORD PTR tv135[ebp], 2
	je	$LN7@R_TempMode
	jmp	$LN2@R_TempMode
$LN6@R_TempMode:

; 1241 : 	{
; 1242 : 	case TE_BOUNCE_SHELL:
; 1243 : 		pTemp->hitSound = BOUNCE_SHELL;

	mov	eax, DWORD PTR _pTemp$[ebp]
	mov	DWORD PTR [eax+32], 32			; 00000020H

; 1244 : 		pTemp->entity.baseline.angles[0] = COM_RandomFloat( -512, 511 );

	push	ecx
	movss	xmm0, DWORD PTR __real@43ff8000
	movss	DWORD PTR [esp], xmm0
	push	ecx
	movss	xmm0, DWORD PTR __real@c4000000
	movss	DWORD PTR [esp], xmm0
	call	_COM_RandomFloat
	add	esp, 8
	mov	eax, 4
	imul	ecx, eax, 0
	mov	edx, DWORD PTR _pTemp$[ebp]
	fstp	DWORD PTR [edx+ecx+104]

; 1245 : 		pTemp->entity.baseline.angles[1] = COM_RandomFloat( -255, 255 );

	push	ecx
	movss	xmm0, DWORD PTR __real@437f0000
	movss	DWORD PTR [esp], xmm0
	push	ecx
	movss	xmm0, DWORD PTR __real@c37f0000
	movss	DWORD PTR [esp], xmm0
	call	_COM_RandomFloat
	add	esp, 8
	mov	eax, 4
	shl	eax, 0
	mov	ecx, DWORD PTR _pTemp$[ebp]
	fstp	DWORD PTR [ecx+eax+104]

; 1246 : 		pTemp->entity.baseline.angles[2] = COM_RandomFloat( -255, 255 );

	push	ecx
	movss	xmm0, DWORD PTR __real@437f0000
	movss	DWORD PTR [esp], xmm0
	push	ecx
	movss	xmm0, DWORD PTR __real@c37f0000
	movss	DWORD PTR [esp], xmm0
	call	_COM_RandomFloat
	add	esp, 8
	mov	eax, 4
	shl	eax, 1
	mov	ecx, DWORD PTR _pTemp$[ebp]
	fstp	DWORD PTR [ecx+eax+104]

; 1247 : 		pTemp->flags |= FTENT_ROTATE;

	mov	eax, DWORD PTR _pTemp$[ebp]
	mov	ecx, DWORD PTR [eax]
	or	ecx, 4
	mov	edx, DWORD PTR _pTemp$[ebp]
	mov	DWORD PTR [edx], ecx

; 1248 : 		break;

	jmp	$LN2@R_TempMode
$LN7@R_TempMode:

; 1249 : 	case TE_BOUNCE_SHOTSHELL:
; 1250 : 		pTemp->hitSound = BOUNCE_SHOTSHELL;

	mov	eax, DWORD PTR _pTemp$[ebp]
	mov	DWORD PTR [eax+32], 128			; 00000080H

; 1251 : 		pTemp->entity.baseline.angles[0] = COM_RandomFloat( -512, 511 );

	push	ecx
	movss	xmm0, DWORD PTR __real@43ff8000
	movss	DWORD PTR [esp], xmm0
	push	ecx
	movss	xmm0, DWORD PTR __real@c4000000
	movss	DWORD PTR [esp], xmm0
	call	_COM_RandomFloat
	add	esp, 8
	mov	eax, 4
	imul	ecx, eax, 0
	mov	edx, DWORD PTR _pTemp$[ebp]
	fstp	DWORD PTR [edx+ecx+104]

; 1252 : 		pTemp->entity.baseline.angles[1] = COM_RandomFloat( -255, 255 );

	push	ecx
	movss	xmm0, DWORD PTR __real@437f0000
	movss	DWORD PTR [esp], xmm0
	push	ecx
	movss	xmm0, DWORD PTR __real@c37f0000
	movss	DWORD PTR [esp], xmm0
	call	_COM_RandomFloat
	add	esp, 8
	mov	eax, 4
	shl	eax, 0
	mov	ecx, DWORD PTR _pTemp$[ebp]
	fstp	DWORD PTR [ecx+eax+104]

; 1253 : 		pTemp->entity.baseline.angles[2] = COM_RandomFloat( -255, 255 );

	push	ecx
	movss	xmm0, DWORD PTR __real@437f0000
	movss	DWORD PTR [esp], xmm0
	push	ecx
	movss	xmm0, DWORD PTR __real@c37f0000
	movss	DWORD PTR [esp], xmm0
	call	_COM_RandomFloat
	add	esp, 8
	mov	eax, 4
	shl	eax, 1
	mov	ecx, DWORD PTR _pTemp$[ebp]
	fstp	DWORD PTR [ecx+eax+104]

; 1254 : 		pTemp->flags |= FTENT_ROTATE|FTENT_SLOWGRAVITY;

	mov	eax, DWORD PTR _pTemp$[ebp]
	mov	ecx, DWORD PTR [eax]
	or	ecx, 12					; 0000000cH
	mov	edx, DWORD PTR _pTemp$[ebp]
	mov	DWORD PTR [edx], ecx
$LN2@R_TempMode:

; 1255 : 		break;
; 1256 : 	}
; 1257 : 
; 1258 : 	if( pmodel->type == mod_sprite )

	mov	eax, DWORD PTR _pmodel$[ebp]
	cmp	DWORD PTR [eax+68], 1
	jne	SHORT $LN8@R_TempMode

; 1259 : 		pTemp->entity.curstate.frame = COM_RandomLong( 0, pTemp->frameMax );

	mov	eax, DWORD PTR _pTemp$[ebp]
	cvttss2si ecx, DWORD PTR [eax+8]
	push	ecx
	push	0
	call	_COM_RandomLong
	add	esp, 8
	cvtsi2ss xmm0, eax
	mov	edx, DWORD PTR _pTemp$[ebp]
	movss	DWORD PTR [edx+1028], xmm0
	jmp	SHORT $LN9@R_TempMode
$LN8@R_TempMode:

; 1260 : 	else pTemp->entity.curstate.body = COM_RandomLong( 0, pTemp->frameMax );

	mov	eax, DWORD PTR _pTemp$[ebp]
	cvttss2si ecx, DWORD PTR [eax+8]
	push	ecx
	push	0
	call	_COM_RandomLong
	add	esp, 8
	mov	edx, DWORD PTR _pTemp$[ebp]
	mov	DWORD PTR [edx+1100], eax
$LN9@R_TempMode:

; 1261 : 
; 1262 : 	pTemp->die = cl.time + life;

	cvtss2sd xmm0, DWORD PTR _life$[ebp]
	addsd	xmm0, QWORD PTR _cl+2167640
	cvtsd2ss xmm0, xmm0
	mov	eax, DWORD PTR _pTemp$[ebp]
	movss	DWORD PTR [eax+4], xmm0

; 1263 : 
; 1264 : 	return pTemp;

	mov	eax, DWORD PTR _pTemp$[ebp]
$LN1@R_TempMode:

; 1265 : }

	pop	edi
	pop	esi
	pop	ebx
	mov	esp, ebp
	pop	ebp
	ret	0
_R_TempModel ENDP
_TEXT	ENDS
; Function compile flags: /Odtp /ZI
; File D:\DevDragon\XashFE\dev\src\engine\client\cl_tent.c
;	COMDAT _R_BreakModel
_TEXT	SEGMENT
tv446 = -116						; size = 8
tv449 = -108						; size = 8
tv432 = -104						; size = 4
tv419 = -104						; size = 4
tv406 = -104						; size = 4
tv337 = -104						; size = 4
tv323 = -104						; size = 4
tv309 = -104						; size = 4
_vecSpot$1 = -36					; size = 12
_j$ = -24						; size = 4
_i$ = -20						; size = 4
_type$ = -13						; size = 1
_pmodel$ = -12						; size = 4
_pTemp$ = -8						; size = 4
__$ArrayPad$ = -4					; size = 4
_pos$ = 8						; size = 4
_size$ = 12						; size = 4
_dir$ = 16						; size = 4
_random$ = 20						; size = 4
_life$ = 24						; size = 4
_count$ = 28						; size = 4
_modelIndex$ = 32					; size = 4
_flags$ = 36						; size = 1
_R_BreakModel PROC					; COMDAT

; 1136 : {

	push	ebp
	mov	ebp, esp
	sub	esp, 116				; 00000074H
	mov	eax, DWORD PTR ___security_cookie
	xor	eax, ebp
	mov	DWORD PTR __$ArrayPad$[ebp], eax
	push	ebx
	push	esi
	push	edi

; 1137 : 	TEMPENTITY	*pTemp;
; 1138 : 	model_t		*pmodel;
; 1139 : 	char		type;
; 1140 : 	int		i, j;
; 1141 : 
; 1142 : 	if(( pmodel = CL_ModelHandle( modelIndex )) == NULL )

	mov	eax, DWORD PTR _modelIndex$[ebp]
	push	eax
	call	_CL_ModelHandle
	add	esp, 4
	mov	DWORD PTR _pmodel$[ebp], eax
	cmp	DWORD PTR _pmodel$[ebp], 0
	jne	SHORT $LN8@R_BreakMod

; 1143 : 		return;

	jmp	$LN3@R_BreakMod
$LN8@R_BreakMod:

; 1144 : 
; 1145 : 	type = flags & BREAK_TYPEMASK;

	movsx	eax, BYTE PTR _flags$[ebp]
	and	eax, 79					; 0000004fH
	mov	BYTE PTR _type$[ebp], al

; 1146 : 
; 1147 : 	if( count == 0 )

	cmp	DWORD PTR _count$[ebp], 0
	jne	SHORT $LN9@R_BreakMod

; 1148 : 	{
; 1149 : 		// assume surface (not volume)
; 1150 : 		count = (size[0] * size[1] + size[1] * size[2] + size[2] * size[0]) / (3 * SHARD_VOLUME * SHARD_VOLUME);

	mov	eax, 4
	imul	ecx, eax, 0
	mov	edx, 4
	shl	edx, 0
	mov	eax, DWORD PTR _size$[ebp]
	mov	esi, DWORD PTR _size$[ebp]
	movss	xmm0, DWORD PTR [eax+ecx]
	mulss	xmm0, DWORD PTR [esi+edx]
	mov	ecx, 4
	shl	ecx, 0
	mov	edx, 4
	shl	edx, 1
	mov	eax, DWORD PTR _size$[ebp]
	mov	esi, DWORD PTR _size$[ebp]
	movss	xmm1, DWORD PTR [eax+ecx]
	mulss	xmm1, DWORD PTR [esi+edx]
	addss	xmm0, xmm1
	mov	ecx, 4
	shl	ecx, 1
	mov	edx, 4
	imul	eax, edx, 0
	mov	edx, DWORD PTR _size$[ebp]
	mov	esi, DWORD PTR _size$[ebp]
	movss	xmm1, DWORD PTR [edx+ecx]
	mulss	xmm1, DWORD PTR [esi+eax]
	addss	xmm0, xmm1
	divss	xmm0, DWORD PTR __real@43d80000
	cvttss2si eax, xmm0
	mov	DWORD PTR _count$[ebp], eax
$LN9@R_BreakMod:

; 1151 : 	}
; 1152 : 
; 1153 : 	// limit to 100 pieces
; 1154 : 	if( count > 100 ) count = 100;

	cmp	DWORD PTR _count$[ebp], 100		; 00000064H
	jle	SHORT $LN10@R_BreakMod
	mov	DWORD PTR _count$[ebp], 100		; 00000064H
$LN10@R_BreakMod:

; 1155 : 
; 1156 : 	for( i = 0; i < count; i++ ) 

	mov	DWORD PTR _i$[ebp], 0
	jmp	SHORT $LN4@R_BreakMod
$LN2@R_BreakMod:
	mov	eax, DWORD PTR _i$[ebp]
	add	eax, 1
	mov	DWORD PTR _i$[ebp], eax
$LN4@R_BreakMod:
	mov	eax, DWORD PTR _i$[ebp]
	cmp	eax, DWORD PTR _count$[ebp]
	jge	$LN3@R_BreakMod

; 1157 : 	{
; 1158 : 		vec3_t	vecSpot;
; 1159 : 
; 1160 : 		for( j = 0; j < 32; j++ )

	mov	DWORD PTR _j$[ebp], 0
	jmp	SHORT $LN7@R_BreakMod
$LN5@R_BreakMod:
	mov	eax, DWORD PTR _j$[ebp]
	add	eax, 1
	mov	DWORD PTR _j$[ebp], eax
$LN7@R_BreakMod:
	cmp	DWORD PTR _j$[ebp], 32			; 00000020H
	jge	$LN6@R_BreakMod

; 1161 : 		{
; 1162 : 			// fill up the box with stuff
; 1163 : 			vecSpot[0] = pos[0] + COM_RandomFloat( -0.5f, 0.5f ) * size[0];

	mov	eax, 4
	imul	esi, eax, 0
	push	ecx
	movss	xmm0, DWORD PTR __real@3f000000
	movss	DWORD PTR [esp], xmm0
	push	ecx
	movss	xmm0, DWORD PTR __real@bf000000
	movss	DWORD PTR [esp], xmm0
	call	_COM_RandomFloat
	add	esp, 8
	fstp	DWORD PTR tv309[ebp]
	movss	xmm0, DWORD PTR tv309[ebp]
	mov	ecx, 4
	imul	edx, ecx, 0
	mov	eax, DWORD PTR _size$[ebp]
	mulss	xmm0, DWORD PTR [eax+edx]
	mov	ecx, DWORD PTR _pos$[ebp]
	addss	xmm0, DWORD PTR [ecx+esi]
	mov	edx, 4
	imul	eax, edx, 0
	movss	DWORD PTR _vecSpot$1[ebp+eax], xmm0

; 1164 : 			vecSpot[1] = pos[1] + COM_RandomFloat( -0.5f, 0.5f ) * size[1];

	mov	esi, 4
	shl	esi, 0
	push	ecx
	movss	xmm0, DWORD PTR __real@3f000000
	movss	DWORD PTR [esp], xmm0
	push	ecx
	movss	xmm0, DWORD PTR __real@bf000000
	movss	DWORD PTR [esp], xmm0
	call	_COM_RandomFloat
	add	esp, 8
	fstp	DWORD PTR tv323[ebp]
	movss	xmm0, DWORD PTR tv323[ebp]
	mov	eax, 4
	shl	eax, 0
	mov	ecx, DWORD PTR _size$[ebp]
	mulss	xmm0, DWORD PTR [ecx+eax]
	mov	edx, DWORD PTR _pos$[ebp]
	addss	xmm0, DWORD PTR [edx+esi]
	mov	eax, 4
	shl	eax, 0
	movss	DWORD PTR _vecSpot$1[ebp+eax], xmm0

; 1165 : 			vecSpot[2] = pos[2] + COM_RandomFloat( -0.5f, 0.5f ) * size[2];

	mov	esi, 4
	shl	esi, 1
	push	ecx
	movss	xmm0, DWORD PTR __real@3f000000
	movss	DWORD PTR [esp], xmm0
	push	ecx
	movss	xmm0, DWORD PTR __real@bf000000
	movss	DWORD PTR [esp], xmm0
	call	_COM_RandomFloat
	add	esp, 8
	fstp	DWORD PTR tv337[ebp]
	movss	xmm0, DWORD PTR tv337[ebp]
	mov	eax, 4
	shl	eax, 1
	mov	ecx, DWORD PTR _size$[ebp]
	mulss	xmm0, DWORD PTR [ecx+eax]
	mov	edx, DWORD PTR _pos$[ebp]
	addss	xmm0, DWORD PTR [edx+esi]
	mov	eax, 4
	shl	eax, 1
	movss	DWORD PTR _vecSpot$1[ebp+eax], xmm0

; 1166 : 
; 1167 : 			if( CL_PointContents( vecSpot ) != CONTENTS_SOLID )

	lea	eax, DWORD PTR _vecSpot$1[ebp]
	push	eax
	call	_CL_PointContents
	add	esp, 4
	cmp	eax, -2					; fffffffeH
	je	SHORT $LN11@R_BreakMod

; 1168 : 				break; // valid spot

	jmp	SHORT $LN6@R_BreakMod
$LN11@R_BreakMod:

; 1169 : 		}

	jmp	$LN5@R_BreakMod
$LN6@R_BreakMod:

; 1170 : 
; 1171 : 		if( j == 32 ) continue; // a piece completely stuck in the wall, ignore it

	cmp	DWORD PTR _j$[ebp], 32			; 00000020H
	jne	SHORT $LN12@R_BreakMod
	jmp	$LN2@R_BreakMod
$LN12@R_BreakMod:

; 1172 : 
; 1173 : 		pTemp = CL_TempEntAlloc( vecSpot, pmodel );

	mov	eax, DWORD PTR _pmodel$[ebp]
	push	eax
	lea	ecx, DWORD PTR _vecSpot$1[ebp]
	push	ecx
	call	_CL_TempEntAlloc
	add	esp, 8
	mov	DWORD PTR _pTemp$[ebp], eax

; 1174 : 		if( !pTemp ) return;

	cmp	DWORD PTR _pTemp$[ebp], 0
	jne	SHORT $LN13@R_BreakMod
	jmp	$LN3@R_BreakMod
$LN13@R_BreakMod:

; 1175 : 
; 1176 : 		// keep track of break_type, so we know how to play sound on collision
; 1177 : 		pTemp->hitSound = type;

	movsx	eax, BYTE PTR _type$[ebp]
	mov	ecx, DWORD PTR _pTemp$[ebp]
	mov	DWORD PTR [ecx+32], eax

; 1178 : 		
; 1179 : 		if( pmodel->type == mod_sprite )

	mov	eax, DWORD PTR _pmodel$[ebp]
	cmp	DWORD PTR [eax+68], 1
	jne	SHORT $LN14@R_BreakMod

; 1180 : 			pTemp->entity.curstate.frame = COM_RandomLong( 0, pTemp->frameMax );

	mov	eax, DWORD PTR _pTemp$[ebp]
	cvttss2si ecx, DWORD PTR [eax+8]
	push	ecx
	push	0
	call	_COM_RandomLong
	add	esp, 8
	cvtsi2ss xmm0, eax
	mov	edx, DWORD PTR _pTemp$[ebp]
	movss	DWORD PTR [edx+1028], xmm0
	jmp	SHORT $LN16@R_BreakMod
$LN14@R_BreakMod:

; 1181 : 		else if( pmodel->type == mod_studio )

	mov	eax, DWORD PTR _pmodel$[ebp]
	cmp	DWORD PTR [eax+68], 3
	jne	SHORT $LN16@R_BreakMod

; 1182 : 			pTemp->entity.curstate.body = COM_RandomLong( 0, pTemp->frameMax );

	mov	eax, DWORD PTR _pTemp$[ebp]
	cvttss2si ecx, DWORD PTR [eax+8]
	push	ecx
	push	0
	call	_COM_RandomLong
	add	esp, 8
	mov	edx, DWORD PTR _pTemp$[ebp]
	mov	DWORD PTR [edx+1100], eax
$LN16@R_BreakMod:

; 1183 : 
; 1184 : 		pTemp->flags |= FTENT_COLLIDEWORLD | FTENT_FADEOUT | FTENT_SLOWGRAVITY;

	mov	eax, DWORD PTR _pTemp$[ebp]
	mov	ecx, DWORD PTR [eax]
	or	ecx, 168				; 000000a8H
	mov	edx, DWORD PTR _pTemp$[ebp]
	mov	DWORD PTR [edx], ecx

; 1185 : 
; 1186 : 		if( COM_RandomLong( 0, 255 ) < 200 ) 

	push	255					; 000000ffH
	push	0
	call	_COM_RandomLong
	add	esp, 8
	cmp	eax, 200				; 000000c8H
	jge	$LN17@R_BreakMod

; 1187 : 		{
; 1188 : 			pTemp->flags |= FTENT_ROTATE;

	mov	eax, DWORD PTR _pTemp$[ebp]
	mov	ecx, DWORD PTR [eax]
	or	ecx, 4
	mov	edx, DWORD PTR _pTemp$[ebp]
	mov	DWORD PTR [edx], ecx

; 1189 : 			pTemp->entity.baseline.angles[0] = COM_RandomFloat( -256, 255 );

	push	ecx
	movss	xmm0, DWORD PTR __real@437f0000
	movss	DWORD PTR [esp], xmm0
	push	ecx
	movss	xmm0, DWORD PTR __real@c3800000
	movss	DWORD PTR [esp], xmm0
	call	_COM_RandomFloat
	add	esp, 8
	mov	eax, 4
	imul	ecx, eax, 0
	mov	edx, DWORD PTR _pTemp$[ebp]
	fstp	DWORD PTR [edx+ecx+104]

; 1190 : 			pTemp->entity.baseline.angles[1] = COM_RandomFloat( -256, 255 );

	push	ecx
	movss	xmm0, DWORD PTR __real@437f0000
	movss	DWORD PTR [esp], xmm0
	push	ecx
	movss	xmm0, DWORD PTR __real@c3800000
	movss	DWORD PTR [esp], xmm0
	call	_COM_RandomFloat
	add	esp, 8
	mov	eax, 4
	shl	eax, 0
	mov	ecx, DWORD PTR _pTemp$[ebp]
	fstp	DWORD PTR [ecx+eax+104]

; 1191 : 			pTemp->entity.baseline.angles[2] = COM_RandomFloat( -256, 255 );

	push	ecx
	movss	xmm0, DWORD PTR __real@437f0000
	movss	DWORD PTR [esp], xmm0
	push	ecx
	movss	xmm0, DWORD PTR __real@c3800000
	movss	DWORD PTR [esp], xmm0
	call	_COM_RandomFloat
	add	esp, 8
	mov	eax, 4
	shl	eax, 1
	mov	ecx, DWORD PTR _pTemp$[ebp]
	fstp	DWORD PTR [ecx+eax+104]
$LN17@R_BreakMod:

; 1192 : 		}
; 1193 : 
; 1194 : 		if (( COM_RandomLong( 0, 255 ) < 100 ) && FBitSet( flags, BREAK_SMOKE ))

	push	255					; 000000ffH
	push	0
	call	_COM_RandomLong
	add	esp, 8
	cmp	eax, 100				; 00000064H
	jge	SHORT $LN18@R_BreakMod
	movsx	eax, BYTE PTR _flags$[ebp]
	and	eax, 16					; 00000010H
	je	SHORT $LN18@R_BreakMod

; 1195 : 			pTemp->flags |= FTENT_SMOKETRAIL;

	mov	eax, DWORD PTR _pTemp$[ebp]
	mov	ecx, DWORD PTR [eax]
	or	ecx, 16					; 00000010H
	mov	edx, DWORD PTR _pTemp$[ebp]
	mov	DWORD PTR [edx], ecx
$LN18@R_BreakMod:

; 1196 : 
; 1197 : 		if(( type == BREAK_GLASS ) || FBitSet( flags, BREAK_TRANS ))

	movsx	eax, BYTE PTR _type$[ebp]
	cmp	eax, 1
	je	SHORT $LN21@R_BreakMod
	movsx	eax, BYTE PTR _flags$[ebp]
	and	eax, 32					; 00000020H
	je	SHORT $LN19@R_BreakMod
$LN21@R_BreakMod:

; 1198 : 		{
; 1199 : 			pTemp->entity.curstate.rendermode = kRenderTransTexture;

	mov	eax, DWORD PTR _pTemp$[ebp]
	mov	DWORD PTR [eax+1052], 2

; 1200 : 			pTemp->entity.curstate.renderamt = pTemp->entity.baseline.renderamt = 128;

	mov	eax, DWORD PTR _pTemp$[ebp]
	mov	DWORD PTR [eax+152], 128		; 00000080H
	mov	ecx, DWORD PTR _pTemp$[ebp]
	mov	DWORD PTR [ecx+1056], 128		; 00000080H

; 1201 : 		}

	jmp	SHORT $LN20@R_BreakMod
$LN19@R_BreakMod:

; 1202 : 		else
; 1203 : 		{
; 1204 : 			pTemp->entity.curstate.rendermode = kRenderNormal;

	mov	eax, DWORD PTR _pTemp$[ebp]
	mov	DWORD PTR [eax+1052], 0

; 1205 : 			pTemp->entity.curstate.renderamt = pTemp->entity.baseline.renderamt = 255; // set this for fadeout

	mov	eax, DWORD PTR _pTemp$[ebp]
	mov	DWORD PTR [eax+152], 255		; 000000ffH
	mov	ecx, DWORD PTR _pTemp$[ebp]
	mov	DWORD PTR [ecx+1056], 255		; 000000ffH
$LN20@R_BreakMod:

; 1206 : 		}
; 1207 : 
; 1208 : 		pTemp->entity.baseline.origin[0] = dir[0] + COM_RandomFloat( -random, random );

	mov	eax, 4
	imul	esi, eax, 0
	push	ecx
	movss	xmm0, DWORD PTR _random$[ebp]
	movss	DWORD PTR [esp], xmm0
	movss	xmm0, DWORD PTR _random$[ebp]
	xorps	xmm0, DWORD PTR __xmm@80000000800000008000000080000000
	push	ecx
	movss	DWORD PTR [esp], xmm0
	call	_COM_RandomFloat
	add	esp, 8
	fstp	DWORD PTR tv406[ebp]
	mov	ecx, DWORD PTR _dir$[ebp]
	movss	xmm0, DWORD PTR tv406[ebp]
	addss	xmm0, DWORD PTR [ecx+esi]
	mov	edx, 4
	imul	eax, edx, 0
	mov	ecx, DWORD PTR _pTemp$[ebp]
	movss	DWORD PTR [ecx+eax+92], xmm0

; 1209 : 		pTemp->entity.baseline.origin[1] = dir[1] + COM_RandomFloat( -random, random );

	mov	esi, 4
	shl	esi, 0
	push	ecx
	movss	xmm0, DWORD PTR _random$[ebp]
	movss	DWORD PTR [esp], xmm0
	movss	xmm0, DWORD PTR _random$[ebp]
	xorps	xmm0, DWORD PTR __xmm@80000000800000008000000080000000
	push	ecx
	movss	DWORD PTR [esp], xmm0
	call	_COM_RandomFloat
	add	esp, 8
	fstp	DWORD PTR tv419[ebp]
	mov	eax, DWORD PTR _dir$[ebp]
	movss	xmm0, DWORD PTR tv419[ebp]
	addss	xmm0, DWORD PTR [eax+esi]
	mov	ecx, 4
	shl	ecx, 0
	mov	edx, DWORD PTR _pTemp$[ebp]
	movss	DWORD PTR [edx+ecx+92], xmm0

; 1210 : 		pTemp->entity.baseline.origin[2] = dir[2] + COM_RandomFloat( 0, random );

	mov	esi, 4
	shl	esi, 1
	push	ecx
	movss	xmm0, DWORD PTR _random$[ebp]
	movss	DWORD PTR [esp], xmm0
	push	ecx
	xorps	xmm0, xmm0
	movss	DWORD PTR [esp], xmm0
	call	_COM_RandomFloat
	add	esp, 8
	fstp	DWORD PTR tv432[ebp]
	mov	eax, DWORD PTR _dir$[ebp]
	movss	xmm0, DWORD PTR tv432[ebp]
	addss	xmm0, DWORD PTR [eax+esi]
	mov	ecx, 4
	shl	ecx, 1
	mov	edx, DWORD PTR _pTemp$[ebp]
	movss	DWORD PTR [edx+ecx+92], xmm0

; 1211 : 
; 1212 : 		pTemp->die = cl.time + life + COM_RandomFloat( 0.0f, 1.0f ); // Add an extra 0-1 secs of life

	cvtss2sd xmm0, DWORD PTR _life$[ebp]
	addsd	xmm0, QWORD PTR _cl+2167640
	push	ecx
	movss	xmm1, DWORD PTR __real@3f800000
	movss	DWORD PTR [esp], xmm1
	push	ecx
	xorps	xmm1, xmm1
	movss	DWORD PTR [esp], xmm1
	movsd	QWORD PTR tv449[ebp], xmm0
	call	_COM_RandomFloat
	add	esp, 8
	fstp	QWORD PTR tv446[ebp]
	movsd	xmm0, QWORD PTR tv449[ebp]
	addsd	xmm0, QWORD PTR tv446[ebp]
	cvtsd2ss xmm0, xmm0
	mov	eax, DWORD PTR _pTemp$[ebp]
	movss	DWORD PTR [eax+4], xmm0

; 1213 : 	}

	jmp	$LN2@R_BreakMod
$LN3@R_BreakMod:

; 1214 : }

	pop	edi
	pop	esi
	pop	ebx
	mov	ecx, DWORD PTR __$ArrayPad$[ebp]
	xor	ecx, ebp
	call	@__security_check_cookie@4
	mov	esp, ebp
	pop	ebp
	ret	0
_R_BreakModel ENDP
_TEXT	ENDS
; Function compile flags: /Odtp /ZI
; File D:\DevDragon\XashFE\dev\src\engine\client\cl_tent.c
;	COMDAT _R_BloodSprite
_TEXT	SEGMENT
tv423 = -116						; size = 8
tv442 = -112						; size = 4
tv296 = -112						; size = 4
_pos$ = -44						; size = 12
_pTemp$ = -32						; size = 4
_splatter$ = -28					; size = 4
_i$ = -24						; size = 4
_spatterindex$ = -20					; size = 4
_impactindex$ = -16					; size = 4
_pModel2$ = -12						; size = 4
_pModel$ = -8						; size = 4
__$ArrayPad$ = -4					; size = 4
_org$ = 8						; size = 4
_colorIndex$ = 12					; size = 4
_modelIndex$ = 16					; size = 4
_modelIndex2$ = 20					; size = 4
_size$ = 24						; size = 4
_R_BloodSprite PROC					; COMDAT

; 1050 : {

	push	ebp
	mov	ebp, esp
	sub	esp, 116				; 00000074H
	mov	eax, DWORD PTR ___security_cookie
	xor	eax, ebp
	mov	DWORD PTR __$ArrayPad$[ebp], eax
	push	ebx
	push	esi
	push	edi

; 1051 : 	model_t		*pModel, *pModel2;
; 1052 : 	int		impactindex;
; 1053 : 	int		spatterindex;
; 1054 : 	int		i, splatter;
; 1055 : 	TEMPENTITY	*pTemp;
; 1056 : 	vec3_t		pos;
; 1057 : 
; 1058 : 	colorIndex += COM_RandomLong( 1, 3 );

	push	3
	push	1
	call	_COM_RandomLong
	add	esp, 8
	add	eax, DWORD PTR _colorIndex$[ebp]
	mov	DWORD PTR _colorIndex$[ebp], eax

; 1059 : 	impactindex = colorIndex;

	mov	eax, DWORD PTR _colorIndex$[ebp]
	mov	DWORD PTR _impactindex$[ebp], eax

; 1060 : 	spatterindex = colorIndex - 1;

	mov	eax, DWORD PTR _colorIndex$[ebp]
	sub	eax, 1
	mov	DWORD PTR _spatterindex$[ebp], eax

; 1061 : 
; 1062 : 	// validate the model first
; 1063 : 	if(( pModel = CL_ModelHandle( modelIndex )) != NULL )

	mov	eax, DWORD PTR _modelIndex$[ebp]
	push	eax
	call	_CL_ModelHandle
	add	esp, 4
	mov	DWORD PTR _pModel$[ebp], eax
	cmp	DWORD PTR _pModel$[ebp], 0
	je	$LN6@R_BloodSpr

; 1064 : 	{
; 1065 : 		VectorCopy( org, pos );

	mov	eax, 4
	imul	ecx, eax, 0
	mov	edx, 4
	imul	eax, edx, 0
	mov	edx, DWORD PTR _org$[ebp]
	mov	ecx, DWORD PTR [edx+ecx]
	mov	DWORD PTR _pos$[ebp+eax], ecx
	mov	edx, 4
	shl	edx, 0
	mov	eax, 4
	shl	eax, 0
	mov	ecx, DWORD PTR _org$[ebp]
	mov	edx, DWORD PTR [ecx+edx]
	mov	DWORD PTR _pos$[ebp+eax], edx
	mov	eax, 4
	shl	eax, 1
	mov	ecx, 4
	shl	ecx, 1
	mov	edx, DWORD PTR _org$[ebp]
	mov	eax, DWORD PTR [edx+eax]
	mov	DWORD PTR _pos$[ebp+ecx], eax

; 1066 : 		pos[2] += COM_RandomFloat( 2.0f, 4.0f ); // make offset from ground (snarks issues)

	mov	esi, 4
	shl	esi, 1
	push	ecx
	movss	xmm0, DWORD PTR __real@40800000
	movss	DWORD PTR [esp], xmm0
	push	ecx
	movss	xmm0, DWORD PTR __real@40000000
	movss	DWORD PTR [esp], xmm0
	call	_COM_RandomFloat
	add	esp, 8
	fstp	DWORD PTR tv296[ebp]
	movss	xmm0, DWORD PTR tv296[ebp]
	addss	xmm0, DWORD PTR _pos$[ebp+esi]
	mov	eax, 4
	shl	eax, 1
	movss	DWORD PTR _pos$[ebp+eax], xmm0

; 1067 : 
; 1068 : 		// large, single blood sprite is a high-priority tent
; 1069 : 		if(( pTemp = CL_TempEntAllocHigh( pos, pModel )) != NULL )

	mov	eax, DWORD PTR _pModel$[ebp]
	push	eax
	lea	ecx, DWORD PTR _pos$[ebp]
	push	ecx
	call	_CL_TempEntAllocHigh
	add	esp, 8
	mov	DWORD PTR _pTemp$[ebp], eax
	cmp	DWORD PTR _pTemp$[ebp], 0
	je	$LN6@R_BloodSpr

; 1070 : 		{
; 1071 : 			pTemp->entity.curstate.rendermode = kRenderTransTexture;

	mov	eax, DWORD PTR _pTemp$[ebp]
	mov	DWORD PTR [eax+1052], 2

; 1072 : 			pTemp->entity.curstate.renderfx = kRenderFxClampMinScale;

	mov	eax, DWORD PTR _pTemp$[ebp]
	mov	DWORD PTR [eax+1064], 20		; 00000014H

; 1073 : 			pTemp->entity.curstate.scale = COM_RandomFloat( size / 25.0f, size / 35.0f );

	movss	xmm0, DWORD PTR _size$[ebp]
	divss	xmm0, DWORD PTR __real@420c0000
	push	ecx
	movss	DWORD PTR [esp], xmm0
	movss	xmm0, DWORD PTR _size$[ebp]
	divss	xmm0, DWORD PTR __real@41c80000
	push	ecx
	movss	DWORD PTR [esp], xmm0
	call	_COM_RandomFloat
	add	esp, 8
	mov	eax, DWORD PTR _pTemp$[ebp]
	fstp	DWORD PTR [eax+1044]

; 1074 : 			pTemp->flags = FTENT_SPRANIMATE;

	mov	eax, DWORD PTR _pTemp$[ebp]
	mov	DWORD PTR [eax], 256			; 00000100H

; 1075 : 
; 1076 : 			pTemp->entity.curstate.rendercolor = clgame.palette[impactindex];

	imul	eax, DWORD PTR _impactindex$[ebp], 3
	add	eax, OFFSET _clgame+217656
	mov	ecx, DWORD PTR _pTemp$[ebp]
	add	ecx, 1060				; 00000424H
	mov	dx, WORD PTR [eax]
	mov	WORD PTR [ecx], dx
	mov	al, BYTE PTR [eax+2]
	mov	BYTE PTR [ecx+2], al

; 1077 : 			pTemp->entity.baseline.renderamt = pTemp->entity.curstate.renderamt = 250;

	mov	eax, DWORD PTR _pTemp$[ebp]
	mov	DWORD PTR [eax+1056], 250		; 000000faH
	mov	ecx, DWORD PTR _pTemp$[ebp]
	mov	DWORD PTR [ecx+152], 250		; 000000faH

; 1078 : 
; 1079 : 			pTemp->entity.curstate.framerate = pTemp->frameMax * 4.0f; // Finish in 0.250 seconds

	mov	eax, DWORD PTR _pTemp$[ebp]
	movss	xmm0, DWORD PTR [eax+8]
	mulss	xmm0, DWORD PTR __real@40800000
	mov	ecx, DWORD PTR _pTemp$[ebp]
	movss	DWORD PTR [ecx+1076], xmm0

; 1080 : 			pTemp->die = cl.time + (pTemp->frameMax / pTemp->entity.curstate.framerate ); // play the whole thing once

	mov	eax, DWORD PTR _pTemp$[ebp]
	mov	ecx, DWORD PTR _pTemp$[ebp]
	movss	xmm0, DWORD PTR [eax+8]
	divss	xmm0, DWORD PTR [ecx+1076]
	cvtss2sd xmm0, xmm0
	addsd	xmm0, QWORD PTR _cl+2167640
	cvtsd2ss xmm0, xmm0
	mov	edx, DWORD PTR _pTemp$[ebp]
	movss	DWORD PTR [edx+4], xmm0

; 1081 : 
; 1082 : 			pTemp->entity.curstate.frame = 0;

	mov	eax, DWORD PTR _pTemp$[ebp]
	xorps	xmm0, xmm0
	movss	DWORD PTR [eax+1028], xmm0

; 1083 : 			pTemp->bounceFactor = 0;

	mov	eax, DWORD PTR _pTemp$[ebp]
	xorps	xmm0, xmm0
	movss	DWORD PTR [eax+28], xmm0

; 1084 : 			pTemp->entity.angles[2] = COM_RandomLong( 0, 360 );

	push	360					; 00000168H
	push	0
	call	_COM_RandomLong
	add	esp, 8
	mov	ecx, 4
	shl	ecx, 1
	cvtsi2ss xmm0, eax
	mov	edx, DWORD PTR _pTemp$[ebp]
	movss	DWORD PTR [edx+ecx+3304], xmm0
$LN6@R_BloodSpr:

; 1085 : 		}
; 1086 : 	}
; 1087 : 
; 1088 : 	// validate the model first
; 1089 : 	if(( pModel2 = CL_ModelHandle( modelIndex2 )) != NULL )

	mov	eax, DWORD PTR _modelIndex2$[ebp]
	push	eax
	call	_CL_ModelHandle
	add	esp, 4
	mov	DWORD PTR _pModel2$[ebp], eax
	cmp	DWORD PTR _pModel2$[ebp], 0
	je	$LN3@R_BloodSpr

; 1090 : 	{
; 1091 : 		splatter = size + ( COM_RandomLong( 1, 8 ) + COM_RandomLong( 1, 8 ));

	push	8
	push	1
	call	_COM_RandomLong
	add	esp, 8
	mov	esi, eax
	push	8
	push	1
	call	_COM_RandomLong
	add	esp, 8
	add	esi, eax
	cvtsi2ss xmm0, esi
	addss	xmm0, DWORD PTR _size$[ebp]
	cvttss2si eax, xmm0
	mov	DWORD PTR _splatter$[ebp], eax

; 1092 : 
; 1093 : 		for( i = 0; i < splatter; i++ )

	mov	DWORD PTR _i$[ebp], 0
	jmp	SHORT $LN4@R_BloodSpr
$LN2@R_BloodSpr:
	mov	eax, DWORD PTR _i$[ebp]
	add	eax, 1
	mov	DWORD PTR _i$[ebp], eax
$LN4@R_BloodSpr:
	mov	eax, DWORD PTR _i$[ebp]
	cmp	eax, DWORD PTR _splatter$[ebp]
	jge	$LN3@R_BloodSpr

; 1094 : 		{
; 1095 : 			// create blood drips
; 1096 : 			if(( pTemp = CL_TempEntAlloc( org, pModel2 )) != NULL )

	mov	eax, DWORD PTR _pModel2$[ebp]
	push	eax
	mov	ecx, DWORD PTR _org$[ebp]
	push	ecx
	call	_CL_TempEntAlloc
	add	esp, 8
	mov	DWORD PTR _pTemp$[ebp], eax
	cmp	DWORD PTR _pTemp$[ebp], 0
	je	$LN8@R_BloodSpr

; 1097 : 			{
; 1098 : 				pTemp->entity.curstate.rendermode = kRenderTransTexture;

	mov	eax, DWORD PTR _pTemp$[ebp]
	mov	DWORD PTR [eax+1052], 2

; 1099 : 				pTemp->entity.curstate.renderfx = kRenderFxClampMinScale;

	mov	eax, DWORD PTR _pTemp$[ebp]
	mov	DWORD PTR [eax+1064], 20		; 00000014H

; 1100 : 				pTemp->entity.curstate.scale = COM_RandomFloat( size / 15.0f, size / 25.0f );

	movss	xmm0, DWORD PTR _size$[ebp]
	divss	xmm0, DWORD PTR __real@41c80000
	push	ecx
	movss	DWORD PTR [esp], xmm0
	movss	xmm0, DWORD PTR _size$[ebp]
	divss	xmm0, DWORD PTR __real@41700000
	push	ecx
	movss	DWORD PTR [esp], xmm0
	call	_COM_RandomFloat
	add	esp, 8
	mov	eax, DWORD PTR _pTemp$[ebp]
	fstp	DWORD PTR [eax+1044]

; 1101 : 				pTemp->flags = FTENT_ROTATE | FTENT_SLOWGRAVITY | FTENT_COLLIDEWORLD;

	mov	eax, DWORD PTR _pTemp$[ebp]
	mov	DWORD PTR [eax], 44			; 0000002cH

; 1102 : 
; 1103 : 				pTemp->entity.curstate.rendercolor = clgame.palette[spatterindex];

	imul	eax, DWORD PTR _spatterindex$[ebp], 3
	add	eax, OFFSET _clgame+217656
	mov	ecx, DWORD PTR _pTemp$[ebp]
	add	ecx, 1060				; 00000424H
	mov	dx, WORD PTR [eax]
	mov	WORD PTR [ecx], dx
	mov	al, BYTE PTR [eax+2]
	mov	BYTE PTR [ecx+2], al

; 1104 : 				pTemp->entity.baseline.renderamt = pTemp->entity.curstate.renderamt = 250;

	mov	eax, DWORD PTR _pTemp$[ebp]
	mov	DWORD PTR [eax+1056], 250		; 000000faH
	mov	ecx, DWORD PTR _pTemp$[ebp]
	mov	DWORD PTR [ecx+152], 250		; 000000faH

; 1105 : 
; 1106 : 				pTemp->entity.baseline.origin[0] = COM_RandomFloat( -96.0f, 95.0f );

	push	ecx
	movss	xmm0, DWORD PTR __real@42be0000
	movss	DWORD PTR [esp], xmm0
	push	ecx
	movss	xmm0, DWORD PTR __real@c2c00000
	movss	DWORD PTR [esp], xmm0
	call	_COM_RandomFloat
	add	esp, 8
	mov	eax, 4
	imul	ecx, eax, 0
	mov	edx, DWORD PTR _pTemp$[ebp]
	fstp	DWORD PTR [edx+ecx+92]

; 1107 : 				pTemp->entity.baseline.origin[1] = COM_RandomFloat( -96.0f, 95.0f );

	push	ecx
	movss	xmm0, DWORD PTR __real@42be0000
	movss	DWORD PTR [esp], xmm0
	push	ecx
	movss	xmm0, DWORD PTR __real@c2c00000
	movss	DWORD PTR [esp], xmm0
	call	_COM_RandomFloat
	add	esp, 8
	mov	eax, 4
	shl	eax, 0
	mov	ecx, DWORD PTR _pTemp$[ebp]
	fstp	DWORD PTR [ecx+eax+92]

; 1108 : 				pTemp->entity.baseline.origin[2] = COM_RandomFloat( -32.0f, 95.0f );

	push	ecx
	movss	xmm0, DWORD PTR __real@42be0000
	movss	DWORD PTR [esp], xmm0
	push	ecx
	movss	xmm0, DWORD PTR __real@c2000000
	movss	DWORD PTR [esp], xmm0
	call	_COM_RandomFloat
	add	esp, 8
	mov	eax, 4
	shl	eax, 1
	mov	ecx, DWORD PTR _pTemp$[ebp]
	fstp	DWORD PTR [ecx+eax+92]

; 1109 : 				pTemp->entity.baseline.angles[0] = COM_RandomFloat( -256.0f, -255.0f );

	push	ecx
	movss	xmm0, DWORD PTR __real@c37f0000
	movss	DWORD PTR [esp], xmm0
	push	ecx
	movss	xmm0, DWORD PTR __real@c3800000
	movss	DWORD PTR [esp], xmm0
	call	_COM_RandomFloat
	add	esp, 8
	mov	eax, 4
	imul	ecx, eax, 0
	mov	edx, DWORD PTR _pTemp$[ebp]
	fstp	DWORD PTR [edx+ecx+104]

; 1110 : 				pTemp->entity.baseline.angles[1] = COM_RandomFloat( -256.0f, -255.0f );

	push	ecx
	movss	xmm0, DWORD PTR __real@c37f0000
	movss	DWORD PTR [esp], xmm0
	push	ecx
	movss	xmm0, DWORD PTR __real@c3800000
	movss	DWORD PTR [esp], xmm0
	call	_COM_RandomFloat
	add	esp, 8
	mov	eax, 4
	shl	eax, 0
	mov	ecx, DWORD PTR _pTemp$[ebp]
	fstp	DWORD PTR [ecx+eax+104]

; 1111 : 				pTemp->entity.baseline.angles[2] = COM_RandomFloat( -256.0f, -255.0f );

	push	ecx
	movss	xmm0, DWORD PTR __real@c37f0000
	movss	DWORD PTR [esp], xmm0
	push	ecx
	movss	xmm0, DWORD PTR __real@c3800000
	movss	DWORD PTR [esp], xmm0
	call	_COM_RandomFloat
	add	esp, 8
	mov	eax, 4
	shl	eax, 1
	mov	ecx, DWORD PTR _pTemp$[ebp]
	fstp	DWORD PTR [ecx+eax+104]

; 1112 : 
; 1113 : 				pTemp->die = cl.time + COM_RandomFloat( 1.0f, 3.0f );

	push	ecx
	movss	xmm0, DWORD PTR __real@40400000
	movss	DWORD PTR [esp], xmm0
	push	ecx
	movss	xmm0, DWORD PTR __real@3f800000
	movss	DWORD PTR [esp], xmm0
	call	_COM_RandomFloat
	add	esp, 8
	fstp	QWORD PTR tv423[ebp]
	movsd	xmm0, QWORD PTR tv423[ebp]
	addsd	xmm0, QWORD PTR _cl+2167640
	cvtsd2ss xmm0, xmm0
	mov	eax, DWORD PTR _pTemp$[ebp]
	movss	DWORD PTR [eax+4], xmm0

; 1114 : 
; 1115 : 				pTemp->entity.curstate.frame = COM_RandomLong( 1, pTemp->frameMax );

	mov	eax, DWORD PTR _pTemp$[ebp]
	cvttss2si ecx, DWORD PTR [eax+8]
	push	ecx
	push	1
	call	_COM_RandomLong
	add	esp, 8
	cvtsi2ss xmm0, eax
	mov	edx, DWORD PTR _pTemp$[ebp]
	movss	DWORD PTR [edx+1028], xmm0

; 1116 : 
; 1117 : 				if( pTemp->entity.curstate.frame > 8.0f )

	mov	eax, DWORD PTR _pTemp$[ebp]
	movss	xmm0, DWORD PTR [eax+1028]
	comiss	xmm0, DWORD PTR __real@41000000
	jbe	SHORT $LN9@R_BloodSpr

; 1118 : 					pTemp->entity.curstate.frame = pTemp->frameMax;

	mov	eax, DWORD PTR _pTemp$[ebp]
	mov	ecx, DWORD PTR _pTemp$[ebp]
	mov	edx, DWORD PTR [ecx+8]
	mov	DWORD PTR [eax+1028], edx
$LN9@R_BloodSpr:

; 1119 : 
; 1120 : 				pTemp->entity.baseline.origin[2] += COM_RandomFloat( 4.0f, 16.0f ) * size;

	mov	esi, 4
	shl	esi, 1
	push	ecx
	movss	xmm0, DWORD PTR __real@41800000
	movss	DWORD PTR [esp], xmm0
	push	ecx
	movss	xmm0, DWORD PTR __real@40800000
	movss	DWORD PTR [esp], xmm0
	call	_COM_RandomFloat
	add	esp, 8
	fstp	DWORD PTR tv442[ebp]
	movss	xmm0, DWORD PTR tv442[ebp]
	mulss	xmm0, DWORD PTR _size$[ebp]
	mov	eax, DWORD PTR _pTemp$[ebp]
	addss	xmm0, DWORD PTR [eax+esi+92]
	mov	ecx, 4
	shl	ecx, 1
	mov	edx, DWORD PTR _pTemp$[ebp]
	movss	DWORD PTR [edx+ecx+92], xmm0

; 1121 : 				pTemp->entity.angles[2] = COM_RandomFloat( 0.0f, 360.0f );

	push	ecx
	movss	xmm0, DWORD PTR __real@43b40000
	movss	DWORD PTR [esp], xmm0
	push	ecx
	xorps	xmm0, xmm0
	movss	DWORD PTR [esp], xmm0
	call	_COM_RandomFloat
	add	esp, 8
	mov	eax, 4
	shl	eax, 1
	mov	ecx, DWORD PTR _pTemp$[ebp]
	fstp	DWORD PTR [ecx+eax+3304]

; 1122 : 				pTemp->bounceFactor	= 0.0f;

	mov	eax, DWORD PTR _pTemp$[ebp]
	xorps	xmm0, xmm0
	movss	DWORD PTR [eax+28], xmm0
$LN8@R_BloodSpr:

; 1123 : 			}
; 1124 : 		}

	jmp	$LN2@R_BloodSpr
$LN3@R_BloodSpr:

; 1125 : 	}
; 1126 : }

	pop	edi
	pop	esi
	pop	ebx
	mov	ecx, DWORD PTR __$ArrayPad$[ebp]
	xor	ecx, ebp
	call	@__security_check_cookie@4
	mov	esp, ebp
	pop	ebp
	ret	0
_R_BloodSprite ENDP
_TEXT	ENDS
; Function compile flags: /Odtp /ZI
; File D:\DevDragon\XashFE\dev\src\engine\client\cl_tent.c
;	COMDAT _R_MuzzleFlash
_TEXT	SEGMENT
_scale$ = -12						; size = 4
_index$ = -8						; size = 4
_pTemp$ = -4						; size = 4
_pos$ = 8						; size = 4
_type$ = 12						; size = 4
_R_MuzzleFlash PROC					; COMDAT

; 1011 : {

	push	ebp
	mov	ebp, esp
	sub	esp, 76					; 0000004cH
	push	ebx
	push	esi
	push	edi

; 1012 : 	TEMPENTITY	*pTemp;
; 1013 : 	int		index;
; 1014 : 	float		scale;
; 1015 : 
; 1016 : 	index = ( type % 10 ) % MAX_MUZZLEFLASH;

	mov	eax, DWORD PTR _type$[ebp]
	cdq
	mov	ecx, 10					; 0000000aH
	idiv	ecx
	mov	eax, edx
	cdq
	mov	ecx, 3
	idiv	ecx
	mov	DWORD PTR _index$[ebp], edx

; 1017 : 	scale = ( type / 10 ) * 0.1f;

	mov	eax, DWORD PTR _type$[ebp]
	cdq
	mov	ecx, 10					; 0000000aH
	idiv	ecx
	cvtsi2ss xmm0, eax
	mulss	xmm0, DWORD PTR __real@3dcccccd
	movss	DWORD PTR _scale$[ebp], xmm0

; 1018 : 	if( scale == 0.0f ) scale = 0.5f;

	movss	xmm0, DWORD PTR _scale$[ebp]
	ucomiss	xmm0, DWORD PTR __real@00000000
	lahf
	test	ah, 68					; 00000044H
	jp	SHORT $LN2@R_MuzzleFl
	movss	xmm0, DWORD PTR __real@3f000000
	movss	DWORD PTR _scale$[ebp], xmm0
$LN2@R_MuzzleFl:

; 1019 : 
; 1020 : 	if( !cl_sprite_muzzleflash[index] )

	mov	eax, DWORD PTR _index$[ebp]
	cmp	DWORD PTR _cl_sprite_muzzleflash[eax*4], 0
	jne	SHORT $LN3@R_MuzzleFl

; 1021 : 		return;

	jmp	$LN1@R_MuzzleFl
$LN3@R_MuzzleFl:

; 1022 : 
; 1023 : 	// must set position for right culling on render
; 1024 : 	pTemp = CL_TempEntAllocHigh( pos, cl_sprite_muzzleflash[index] );

	mov	eax, DWORD PTR _index$[ebp]
	mov	ecx, DWORD PTR _cl_sprite_muzzleflash[eax*4]
	push	ecx
	mov	edx, DWORD PTR _pos$[ebp]
	push	edx
	call	_CL_TempEntAllocHigh
	add	esp, 8
	mov	DWORD PTR _pTemp$[ebp], eax

; 1025 : 	if( !pTemp ) return;

	cmp	DWORD PTR _pTemp$[ebp], 0
	jne	SHORT $LN4@R_MuzzleFl
	jmp	$LN1@R_MuzzleFl
$LN4@R_MuzzleFl:

; 1026 : 	pTemp->entity.curstate.rendermode = kRenderTransAdd;

	mov	eax, DWORD PTR _pTemp$[ebp]
	mov	DWORD PTR [eax+1052], 5

; 1027 : 	pTemp->entity.curstate.renderamt = 255;

	mov	eax, DWORD PTR _pTemp$[ebp]
	mov	DWORD PTR [eax+1056], 255		; 000000ffH

; 1028 : 	pTemp->entity.curstate.framerate = 10;

	mov	eax, DWORD PTR _pTemp$[ebp]
	movss	xmm0, DWORD PTR __real@41200000
	movss	DWORD PTR [eax+1076], xmm0

; 1029 : 	pTemp->entity.curstate.renderfx = 0;

	mov	eax, DWORD PTR _pTemp$[ebp]
	mov	DWORD PTR [eax+1064], 0

; 1030 : 	pTemp->die = cl.time + 0.01; // die at next frame

	movsd	xmm0, QWORD PTR _cl+2167640
	addsd	xmm0, QWORD PTR __real@3f847ae147ae147b
	cvtsd2ss xmm0, xmm0
	mov	eax, DWORD PTR _pTemp$[ebp]
	movss	DWORD PTR [eax+4], xmm0

; 1031 : 	pTemp->entity.curstate.frame = COM_RandomLong( 0, pTemp->frameMax );

	mov	eax, DWORD PTR _pTemp$[ebp]
	cvttss2si ecx, DWORD PTR [eax+8]
	push	ecx
	push	0
	call	_COM_RandomLong
	add	esp, 8
	cvtsi2ss xmm0, eax
	mov	edx, DWORD PTR _pTemp$[ebp]
	movss	DWORD PTR [edx+1028], xmm0

; 1032 : 	pTemp->flags |= FTENT_SPRANIMATE|FTENT_SPRANIMATELOOP;

	mov	eax, DWORD PTR _pTemp$[ebp]
	mov	ecx, DWORD PTR [eax]
	or	ecx, 65792				; 00010100H
	mov	edx, DWORD PTR _pTemp$[ebp]
	mov	DWORD PTR [edx], ecx

; 1033 : 	pTemp->entity.curstate.scale = scale;

	mov	eax, DWORD PTR _pTemp$[ebp]
	movss	xmm0, DWORD PTR _scale$[ebp]
	movss	DWORD PTR [eax+1044], xmm0

; 1034 : 
; 1035 : 	if( index == 0 ) pTemp->entity.angles[2] = COM_RandomLong( 0, 20 ); // rifle flash

	cmp	DWORD PTR _index$[ebp], 0
	jne	SHORT $LN5@R_MuzzleFl
	push	20					; 00000014H
	push	0
