; Listing generated by Microsoft (R) Optimizing Compiler Version 19.37.32705.0 

	TITLE	D:\DevDragon\XashFE\dev\src\temp\engine\!debug\con_utils.obj
	.686P
	.XMM
	include listing.inc
	.model	flat

INCLUDELIB MSVCRTD
INCLUDELIB OLDNAMES

PUBLIC	_Cmd_GetMapList
PUBLIC	_Cmd_GetDemoList
PUBLIC	_Cmd_GetMovieList
PUBLIC	_Cmd_GetMusicList
PUBLIC	_Cmd_GetSavesList
PUBLIC	_Cmd_GetConfigList
PUBLIC	_Cmd_GetSoundList
PUBLIC	_Cmd_GetItemsList
PUBLIC	_Cmd_GetCustomList
PUBLIC	_Cmd_GetGamesList
PUBLIC	_Cmd_GetCDList
PUBLIC	??_C@_04MJNAPEEI@game@				; `string'
PUBLIC	??_C@_04GBHMDDO@play@				; `string'
PUBLIC	_cmd_list
PUBLIC	??_C@_0P@KBIHHLHA@map_background@		; `string'
PUBLIC	??_C@_0N@FBGJOGIB@changelevel2@			; `string'
PUBLIC	??_C@_0M@HPDBOKLB@changelevel@			; `string'
PUBLIC	??_C@_08KNNNHPIP@playdemo@			; `string'
PUBLIC	??_C@_08LGFIIHD@timedemo@			; `string'
PUBLIC	??_C@_07IJGGJOCA@playvol@			; `string'
PUBLIC	??_C@_06PBADBDGC@hpkval@			; `string'
PUBLIC	??_C@_08HONMJJCK@entpatch@			; `string'
PUBLIC	??_C@_05LLDJOKNO@music@				; `string'
PUBLIC	??_C@_05PAONDCEJ@movie@				; `string'
PUBLIC	??_C@_04MGEIEJAD@exec@				; `string'
PUBLIC	??_C@_04BMBHJADG@give@				; `string'
PUBLIC	??_C@_04PIONEEJD@drop@				; `string'
PUBLIC	??_C@_04EMMDIJJL@save@				; `string'
PUBLIC	??_C@_04EONOHKEP@load@				; `string'
PUBLIC	??_C@_03HBNNNHNM@map@				; `string'
PUBLIC	??_C@_02ELLOPNDH@cd@				; `string'
;	COMDAT ??_C@_02ELLOPNDH@cd@
CONST	SEGMENT
??_C@_02ELLOPNDH@cd@ DB 'cd', 00H			; `string'
CONST	ENDS
;	COMDAT ??_C@_03HBNNNHNM@map@
CONST	SEGMENT
??_C@_03HBNNNHNM@map@ DB 'map', 00H			; `string'
CONST	ENDS
;	COMDAT ??_C@_04EONOHKEP@load@
CONST	SEGMENT
??_C@_04EONOHKEP@load@ DB 'load', 00H			; `string'
CONST	ENDS
;	COMDAT ??_C@_04EMMDIJJL@save@
CONST	SEGMENT
??_C@_04EMMDIJJL@save@ DB 'save', 00H			; `string'
CONST	ENDS
;	COMDAT ??_C@_04PIONEEJD@drop@
CONST	SEGMENT
??_C@_04PIONEEJD@drop@ DB 'drop', 00H			; `string'
CONST	ENDS
;	COMDAT ??_C@_04BMBHJADG@give@
CONST	SEGMENT
??_C@_04BMBHJADG@give@ DB 'give', 00H			; `string'
CONST	ENDS
;	COMDAT ??_C@_04MGEIEJAD@exec@
CONST	SEGMENT
??_C@_04MGEIEJAD@exec@ DB 'exec', 00H			; `string'
CONST	ENDS
;	COMDAT ??_C@_05PAONDCEJ@movie@
CONST	SEGMENT
??_C@_05PAONDCEJ@movie@ DB 'movie', 00H			; `string'
CONST	ENDS
;	COMDAT ??_C@_05LLDJOKNO@music@
CONST	SEGMENT
??_C@_05LLDJOKNO@music@ DB 'music', 00H			; `string'
CONST	ENDS
;	COMDAT ??_C@_08HONMJJCK@entpatch@
CONST	SEGMENT
??_C@_08HONMJJCK@entpatch@ DB 'entpatch', 00H		; `string'
CONST	ENDS
;	COMDAT ??_C@_06PBADBDGC@hpkval@
CONST	SEGMENT
??_C@_06PBADBDGC@hpkval@ DB 'hpkval', 00H		; `string'
CONST	ENDS
;	COMDAT ??_C@_07IJGGJOCA@playvol@
CONST	SEGMENT
??_C@_07IJGGJOCA@playvol@ DB 'playvol', 00H		; `string'
CONST	ENDS
;	COMDAT ??_C@_08LGFIIHD@timedemo@
CONST	SEGMENT
??_C@_08LGFIIHD@timedemo@ DB 'timedemo', 00H		; `string'
CONST	ENDS
;	COMDAT ??_C@_08KNNNHPIP@playdemo@
CONST	SEGMENT
??_C@_08KNNNHPIP@playdemo@ DB 'playdemo', 00H		; `string'
CONST	ENDS
;	COMDAT ??_C@_0M@HPDBOKLB@changelevel@
CONST	SEGMENT
??_C@_0M@HPDBOKLB@changelevel@ DB 'changelevel', 00H	; `string'
CONST	ENDS
;	COMDAT ??_C@_0N@FBGJOGIB@changelevel2@
CONST	SEGMENT
??_C@_0N@FBGJOGIB@changelevel2@ DB 'changelevel2', 00H	; `string'
CONST	ENDS
;	COMDAT ??_C@_0P@KBIHHLHA@map_background@
CONST	SEGMENT
??_C@_0P@KBIHHLHA@map_background@ DB 'map_background', 00H ; `string'
CONST	ENDS
_DATA	SEGMENT
_cmd_list DD	FLAT:??_C@_0P@KBIHHLHA@map_background@
	DD	FLAT:_Cmd_GetMapList
	DD	FLAT:??_C@_0N@FBGJOGIB@changelevel2@
	DD	FLAT:_Cmd_GetMapList
	DD	FLAT:??_C@_0M@HPDBOKLB@changelevel@
	DD	FLAT:_Cmd_GetMapList
	DD	FLAT:??_C@_08KNNNHPIP@playdemo@
	DD	FLAT:_Cmd_GetDemoList
	DD	FLAT:??_C@_08LGFIIHD@timedemo@
	DD	FLAT:_Cmd_GetDemoList
	DD	FLAT:??_C@_07IJGGJOCA@playvol@
	DD	FLAT:_Cmd_GetSoundList
	DD	FLAT:??_C@_06PBADBDGC@hpkval@
	DD	FLAT:_Cmd_GetCustomList
	DD	FLAT:??_C@_08HONMJJCK@entpatch@
	DD	FLAT:_Cmd_GetMapList
	DD	FLAT:??_C@_05LLDJOKNO@music@
	DD	FLAT:_Cmd_GetMusicList
	DD	FLAT:??_C@_05PAONDCEJ@movie@
	DD	FLAT:_Cmd_GetMovieList
	DD	FLAT:??_C@_04MGEIEJAD@exec@
	DD	FLAT:_Cmd_GetConfigList
	DD	FLAT:??_C@_04BMBHJADG@give@
	DD	FLAT:_Cmd_GetItemsList
	DD	FLAT:??_C@_04PIONEEJD@drop@
	DD	FLAT:_Cmd_GetItemsList
	DD	FLAT:??_C@_04MJNAPEEI@game@
	DD	FLAT:_Cmd_GetGamesList
	DD	FLAT:??_C@_04EMMDIJJL@save@
	DD	FLAT:_Cmd_GetSavesList
	DD	FLAT:??_C@_04EONOHKEP@load@
	DD	FLAT:_Cmd_GetSavesList
	DD	FLAT:??_C@_04GBHMDDO@play@
	DD	FLAT:_Cmd_GetSoundList
	DD	FLAT:??_C@_03HBNNNHNM@map@
	DD	FLAT:_Cmd_GetMapList
	DD	FLAT:??_C@_02ELLOPNDH@cd@
	DD	FLAT:_Cmd_GetCDList
	DD	00H
	ORG $+4
_DATA	ENDS
;	COMDAT ??_C@_04GBHMDDO@play@
CONST	SEGMENT
??_C@_04GBHMDDO@play@ DB 'play', 00H			; `string'
CONST	ENDS
;	COMDAT ??_C@_04MJNAPEEI@game@
CONST	SEGMENT
??_C@_04MJNAPEEI@game@ DB 'game', 00H			; `string'
CONST	ENDS
PUBLIC	_Host_WriteServerConfig
PUBLIC	_Host_WriteOpenGLConfig
PUBLIC	_Host_WriteVideoConfig
PUBLIC	_Host_WriteConfig
PUBLIC	_Key_EnumCmds_f
PUBLIC	_Cmd_CheckMapsList
PUBLIC	_Cmd_AutocompleteName
PUBLIC	_Cmd_CheckMapsList_R
PUBLIC	_Cmd_WriteOpenGLVariables
PUBLIC	?__LINE__Var@?0??Cmd_GetMapList@@9@9		; `Cmd_GetMapList'::`1'::__LINE__Var
PUBLIC	??_C@_0N@OIMAIDOG@maps?1?$CFs?$CK?4bsp@		; `string'
PUBLIC	??_C@_03DGBMLAJE@bsp@				; `string'
PUBLIC	??_C@_09LIFBNPB@?$FO1error?$FO7@		; `string'
PUBLIC	??_C@_00CNPNBAHC@@				; `string'
PUBLIC	??_C@_02JDPG@rb@				; `string'
PUBLIC	??_C@_04ECMOMEGO@?4ent@				; `string'
PUBLIC	??_C@_0DG@HHLKLKJI@D?3?2DevDragon?2XashFE?2dev?2src?2eng@ ; `string'
PUBLIC	??_C@_01HCONENDN@?$HL@				; `string'
PUBLIC	??_C@_01CELHOKLL@?$HN@				; `string'
PUBLIC	??_C@_07ONPBMBOP@message@			; `string'
PUBLIC	??_C@_08CCFHILPL@compiler@			; `string'
PUBLIC	??_C@_09GPMLCKOG@_compiler@			; `string'
PUBLIC	??_C@_09HNDCMPDF@generator@			; `string'
PUBLIC	??_C@_0L@BOHJDPEN@_generator@			; `string'
PUBLIC	??_C@_05GHEPMBPE@Quake@				; `string'
PUBLIC	??_C@_0BA@ONNKGFBG@Darkplaces?5BSP2@		; `string'
PUBLIC	??_C@_0BC@PIEDICIK@XashXT?5old?5format@		; `string'
PUBLIC	??_C@_0BD@MEIKLKL@Paranoia?52?3?5Savior@	; `string'
PUBLIC	??_C@_0BD@COCOECAF@Half?9Life?5extended@	; `string'
PUBLIC	??_C@_09IBONLKEI@Half?9Life@			; `string'
PUBLIC	??_C@_02HHFHKOHM@?$DP?$DP@			; `string'
PUBLIC	??_C@_0BM@HPCPIGGF@?$CF16s?5?$CI?$CFs?$CJ?5?$FO3?$CFs?$FO7?5?$FO2?$CFs?5?$CFs?$FO7?6@ ; `string'
PUBLIC	??_C@_0BE@LPOMNFKB@?6?$FO3?5?$CFi?5maps?5found?4?6@ ; `string'
PUBLIC	?__LINE__Var@?0??Cmd_GetDemoList@@9@9		; `Cmd_GetDemoList'::`1'::__LINE__Var
PUBLIC	??_C@_07EAGENFC@?$CFs?$CK?4dem@			; `string'
PUBLIC	??_C@_03PELAFMJG@dem@				; `string'
PUBLIC	??_C@_05PMAFMCBB@?$CF16s?6@			; `string'
PUBLIC	??_C@_0BF@MIDDJLBI@?6?$FO3?5?$CFi?5demos?5found?4?6@ ; `string'
PUBLIC	?__LINE__Var@?0??Cmd_GetMovieList@@9@9		; `Cmd_GetMovieList'::`1'::__LINE__Var
PUBLIC	??_C@_0O@LGBGIICK@media?1?$CFs?$CK?4avi@	; `string'
PUBLIC	??_C@_03LJGCHEIJ@avi@				; `string'
PUBLIC	??_C@_0BG@HMLIBPFD@?6?$FO3?5?$CFi?5movies?5found?4?6@ ; `string'
PUBLIC	?__LINE__Var@?0??Cmd_GetMusicList@@9@9		; `Cmd_GetMusicList'::`1'::__LINE__Var
PUBLIC	??_C@_0M@GFAIPCKL@media?1?$CFs?$CK?4?$CK@	; `string'
PUBLIC	??_C@_03BICDMHKB@wav@				; `string'
PUBLIC	??_C@_03LHGNACFN@mp3@				; `string'
PUBLIC	??_C@_0BL@IJMELGH@?6?$FO3?5?$CFi?5soundtracks?5found?4?6@ ; `string'
PUBLIC	?__LINE__Var@?0??Cmd_GetSavesList@@9@9		; `Cmd_GetSavesList'::`1'::__LINE__Var
PUBLIC	??_C@_05HFINLBCI@save?1@			; `string'
PUBLIC	??_C@_09IBAFMBKJ@?$CFs?$CFs?$CK?4sav@		; `string'
PUBLIC	??_C@_03JHEBFAPG@sav@				; `string'
PUBLIC	??_C@_0BF@JENAHGFE@?6?$FO3?5?$CFi?5saves?5found?4?6@ ; `string'
PUBLIC	?__LINE__Var@?0??Cmd_GetConfigList@@9@9		; `Cmd_GetConfigList'::`1'::__LINE__Var
PUBLIC	??_C@_07GBHICDDI@?$CFs?$CK?4cfg@		; `string'
PUBLIC	??_C@_03JBMODCPM@cfg@				; `string'
PUBLIC	??_C@_0BH@IKMLIICG@?6?$FO3?5?$CFi?5configs?5found?4?6@ ; `string'
PUBLIC	?__LINE__Var@?0??Cmd_GetSoundList@@9@9		; `Cmd_GetSoundList'::`1'::__LINE__Var
PUBLIC	??_C@_06PBLIODKG@sound?1@			; `string'
PUBLIC	??_C@_07INOPGABA@?$CFs?$CFs?$CK?4?$CK@		; `string'
PUBLIC	??_C@_0BG@NNHFMCOI@?6?$FO3?5?$CFi?5sounds?5found?4?6@ ; `string'
PUBLIC	?__LINE__Var@?0??Cmd_GetItemsList@@9@9		; `Cmd_GetItemsList'::`1'::__LINE__Var
PUBLIC	??_C@_0L@GCLJLNAP@?$CFs?1?$CFs?$CK?4txt@	; `string'
PUBLIC	??_C@_03CLFHJCDC@txt@				; `string'
PUBLIC	??_C@_0BF@EIDIFLCD@?6?$FO3?5?$CFi?5items?5found?4?6@ ; `string'
PUBLIC	?__LINE__Var@?0??Cmd_GetCustomList@@9@9		; `Cmd_GetCustomList'::`1'::__LINE__Var
PUBLIC	??_C@_07CGHDEPH@?$CFs?$CK?4hpk@			; `string'
PUBLIC	??_C@_03PCNBCFDD@hpk@				; `string'
PUBLIC	??_C@_0BF@JGEEIMNB@?6?$FO3?5?$CFi?5games?5found?4?6@ ; `string'
PUBLIC	??_C@_04NIDJFNBE@info@				; `string'
PUBLIC	??_C@_04GKOOIABA@loop@				; `string'
PUBLIC	??_C@_03MCADLMAF@off@				; `string'
PUBLIC	??_C@_02LIELOMNJ@on@				; `string'
PUBLIC	??_C@_05PDJBBECF@pause@				; `string'
PUBLIC	??_C@_06PLELHCEK@resume@			; `string'
PUBLIC	??_C@_04PEGFANN@stop@				; `string'
PUBLIC	??_C@_0BI@PNEMOMCO@?6?$FO3?5?$CFi?5commands?5found?4?6@ ; `string'
PUBLIC	?__LINE__Var@?0??Cmd_CheckMapsList_R@@9@9	; `Cmd_CheckMapsList_R'::`1'::__LINE__Var
PUBLIC	??_C@_08NLKADBOG@maps?4lst@			; `string'
PUBLIC	??_C@_07ILGHFECF@maps?1?$CFs@			; `string'
PUBLIC	??_C@_0L@OKPFMBPD@maps?1?$CK?4bsp@		; `string'
PUBLIC	??_C@_08HHPHHNPP@No?5Title@			; `string'
PUBLIC	??_C@_09CNJINBGN@classname@			; `string'
PUBLIC	??_C@_08MHBLPCGN@?$CFs?5?$CC?$CFs?$CC?6@	; `string'
PUBLIC	??_C@_03GFPEDOMH@?2?$CFs@			; `string'
PUBLIC	??_C@_0L@KDFAMKIB@?$CFs?7?7?7?$CC?$CFs?$CC?6@	; `string'
PUBLIC	??_C@_09NBBIPMK@?$CFs?7?7?$CC?$CFs?$CC?6@	; `string'
PUBLIC	??_C@_08JNDOIOCC@?$CFs?7?$CC?$CFs?$CC?6@	; `string'
PUBLIC	??_C@_01NOFIACDB@w@				; `string'
PUBLIC	??_C@_0L@MFNMKHHD@config?4cfg@			; `string'
PUBLIC	??_C@_0BE@OEIHADBA@Host_WriteConfig?$CI?$CJ?6@	; `string'
PUBLIC	??_C@_0EL@KHMJEPHG@?1?1?$DN?$DN?$DN?$DN?$DN?$DN?$DN?$DN?$DN?$DN?$DN?$DN?$DN?$DN?$DN?$DN?$DN?$DN?$DN?$DN?$DN?$DN?$DN?$DN?$DN?$DN?$DN?$DN?$DN@ ; `string'
PUBLIC	??_C@_0CC@POOFDBJP@?1?1?7?7?7Copyright?5XashXT?5Group?5?$CFs?5@ ; `string'
PUBLIC	??_C@_0CE@DOEHJBLH@?1?1?7?7?7config?4cfg?5?9?5archive?5of?5cv@ ; `string'
PUBLIC	??_C@_08LHKFKIJF@in_mlook@			; `string'
PUBLIC	??_C@_08KKKAJICN@in_jlook@			; `string'
PUBLIC	??_C@_07GNNMHHBA@?$CLmlook?6@			; `string'
PUBLIC	??_C@_07KIHLEJJO@?$CLjlook?6@			; `string'
PUBLIC	??_C@_0BE@JIGGELHM@exec?5userconfig?4cfg@	; `string'
PUBLIC	??_C@_0CH@NOPFFNLI@?$FO1Error?3?$FO7?5Couldn?8t?5write?5confi@ ; `string'
PUBLIC	??_C@_0N@FAPIMONE@settings?4scr@		; `string'
PUBLIC	??_C@_0DE@KAOFAALG@?1?1?7?7game?4cfg?5?9?5multiplayer?5serv@ ; `string'
PUBLIC	??_C@_0BP@MIAAEOIH@?$FO1Error?3?$FO7?5Couldn?8t?5write?5?$CFs?4?6@ ; `string'
PUBLIC	??_C@_0L@HCCLOBCH@opengl?4cfg@			; `string'
PUBLIC	??_C@_0BG@JBIOIEOC@Host_WriteGLConfig?$CI?$CJ?6@ ; `string'
PUBLIC	??_C@_0DI@MKGFABPO@?1?1?7?7?5?5?5?5opengl?4cfg?5?9?5archive?5of@ ; `string'
PUBLIC	??_C@_01EEMJAFIK@?6@				; `string'
PUBLIC	??_C@_0CF@GLDHHHKH@?$FO1Error?3?$FO7?5can?8t?5update?5opengl?4@ ; `string'
PUBLIC	??_C@_09FCOLKGFP@video?4cfg@			; `string'
PUBLIC	??_C@_0BJ@LJHJNAJM@Host_WriteVideoConfig?$CI?$CJ?6@ ; `string'
PUBLIC	??_C@_0CP@HLPEGJHK@?1?1?7?7video?4cfg?5?9?5archive?5of?5rend@ ; `string'
PUBLIC	??_C@_0CE@NICGLLCF@?$FO1Error?3?$FO7?5can?8t?5update?5video?4c@ ; `string'
PUBLIC	??_C@_0M@KMAPEIHN@?4?4?1help?4txt@		; `string'
PUBLIC	??_C@_0BI@KIALEEOJ@help?4txt?5already?5exist?6@	; `string'
PUBLIC	??_C@_0DE@NCPEHHOO@?1?1?7?7help?4txt?5?9?5xash?5commands?5an@ ; `string'
PUBLIC	??_C@_0BJ@LMNLCAJM@?6?6?7?7?7console?5variables?6?6@ ; `string'
PUBLIC	??_C@_0BI@CMNGEOJ@?6?6?7?7?7console?5commands?6?6@ ; `string'
PUBLIC	??_C@_02PHMGELLB@?6?6@				; `string'
PUBLIC	??_C@_0BC@MHONJBH@help?4txt?5created?6@		; `string'
PUBLIC	??_C@_0CF@OEHFKECM@?$FO1Error?3?$FO7?5couldn?8t?5write?5help?4@ ; `string'
EXTRN	___report_rangecheckfailure:PROC
EXTRN	_memset:PROC
EXTRN	_Cmd_Argv:PROC
EXTRN	_Cmd_Exists:PROC
EXTRN	_Cmd_LookupCmds:PROC
EXTRN	_Q_strlen:PROC
EXTRN	_Q_tolower:PROC
EXTRN	_Q_strncat:PROC
EXTRN	_Q_strncpy:PROC
EXTRN	_Q_strnicmp:PROC
EXTRN	_Q_strncmp:PROC
EXTRN	_Q_timestamp:PROC
EXTRN	_Q_snprintf:PROC
EXTRN	_Q_sprintf:PROC
EXTRN	_va:PROC
EXTRN	__Mem_Alloc:PROC
EXTRN	__Mem_Free:PROC
EXTRN	_Cvar_LookupVars:PROC
EXTRN	_Cvar_WriteVariables:PROC
EXTRN	_FS_AllowDirectPaths:PROC
EXTRN	_COM_FileBase:PROC
EXTRN	_COM_FileExtension:PROC
EXTRN	_COM_DefaultExtension:PROC
EXTRN	_FS_LoadFile:PROC
EXTRN	_FS_WriteFile:PROC
EXTRN	_COM_CheckString:PROC
EXTRN	_FS_Search:PROC
EXTRN	_FS_Open:PROC
EXTRN	_FS_Read:PROC
EXTRN	_FS_Seek:PROC
EXTRN	_FS_Printf:PROC
EXTRN	_FS_FileSize:PROC
EXTRN	_FS_FileExists:PROC
EXTRN	_COM_StripExtension:PROC
EXTRN	_FS_Close:PROC
EXTRN	_Con_Reportf:PROC
EXTRN	_Con_DPrintf:PROC
EXTRN	_Con_Printf:PROC
EXTRN	_CSCR_LoadDefaultCVars:PROC
EXTRN	_CSCR_WriteGameCVars:PROC
EXTRN	_Key_WriteBindings:PROC
EXTRN	_COM_ParseFile:PROC
EXTRN	_SV_InitGameProgs:PROC
EXTRN	_SV_FreeGameProgs:PROC
EXTRN	_Info_WriteVars:PROC
EXTRN	_Mod_TestBmodelLumps:PROC
EXTRN	@__security_check_cookie@4:PROC
EXTRN	__chkstk:PROC
EXTRN	_host:BYTE
EXTRN	_SI:BYTE
EXTRN	_clgame:BYTE
EXTRN	_con_gamemaps:DWORD
EXTRN	___security_cookie:DWORD
;	COMDAT ??_C@_0CF@OEHFKECM@?$FO1Error?3?$FO7?5couldn?8t?5write?5help?4@
CONST	SEGMENT
??_C@_0CF@OEHFKECM@?$FO1Error?3?$FO7?5couldn?8t?5write?5help?4@ DB '^1Err'
	DB	'or:^7 couldn''t write help.txt.', 0aH, 00H	; `string'
CONST	ENDS
;	COMDAT ??_C@_0BC@MHONJBH@help?4txt?5created?6@
CONST	SEGMENT
??_C@_0BC@MHONJBH@help?4txt?5created?6@ DB 'help.txt created', 0aH, 00H ; `string'
CONST	ENDS
;	COMDAT ??_C@_02PHMGELLB@?6?6@
CONST	SEGMENT
??_C@_02PHMGELLB@?6?6@ DB 0aH, 0aH, 00H			; `string'
CONST	ENDS
;	COMDAT ??_C@_0BI@CMNGEOJ@?6?6?7?7?7console?5commands?6?6@
CONST	SEGMENT
??_C@_0BI@CMNGEOJ@?6?6?7?7?7console?5commands?6?6@ DB 0aH, 0aH, 09H, 09H, 09H
	DB	'console commands', 0aH, 0aH, 00H		; `string'
CONST	ENDS
;	COMDAT ??_C@_0BJ@LMNLCAJM@?6?6?7?7?7console?5variables?6?6@
CONST	SEGMENT
??_C@_0BJ@LMNLCAJM@?6?6?7?7?7console?5variables?6?6@ DB 0aH, 0aH, 09H, 09H
	DB	09H, 'console variables', 0aH, 0aH, 00H	; `string'
CONST	ENDS
;	COMDAT ??_C@_0DE@NCPEHHOO@?1?1?7?7help?4txt?5?9?5xash?5commands?5an@
CONST	SEGMENT
??_C@_0DE@NCPEHHOO@?1?1?7?7help?4txt?5?9?5xash?5commands?5an@ DB '//', 09H
	DB	09H, 'help.txt - xash commands and console variables', 0aH, 00H ; `string'
CONST	ENDS
;	COMDAT ??_C@_0BI@KIALEEOJ@help?4txt?5already?5exist?6@
CONST	SEGMENT
??_C@_0BI@KIALEEOJ@help?4txt?5already?5exist?6@ DB 'help.txt already exis'
	DB	't', 0aH, 00H				; `string'
CONST	ENDS
;	COMDAT ??_C@_0M@KMAPEIHN@?4?4?1help?4txt@
CONST	SEGMENT
??_C@_0M@KMAPEIHN@?4?4?1help?4txt@ DB '../help.txt', 00H ; `string'
CONST	ENDS
;	COMDAT ??_C@_0CE@NICGLLCF@?$FO1Error?3?$FO7?5can?8t?5update?5video?4c@
CONST	SEGMENT
??_C@_0CE@NICGLLCF@?$FO1Error?3?$FO7?5can?8t?5update?5video?4c@ DB '^1Err'
	DB	'or:^7 can''t update video.cfg.', 0aH, 00H	; `string'
CONST	ENDS
;	COMDAT ??_C@_0CP@HLPEGJHK@?1?1?7?7video?4cfg?5?9?5archive?5of?5rend@
CONST	SEGMENT
??_C@_0CP@HLPEGJHK@?1?1?7?7video?4cfg?5?9?5archive?5of?5rend@ DB '//', 09H
	DB	09H, 'video.cfg - archive of renderer variables', 0aH, 00H ; `string'
CONST	ENDS
;	COMDAT ??_C@_0BJ@LJHJNAJM@Host_WriteVideoConfig?$CI?$CJ?6@
CONST	SEGMENT
??_C@_0BJ@LJHJNAJM@Host_WriteVideoConfig?$CI?$CJ?6@ DB 'Host_WriteVideoCo'
	DB	'nfig()', 0aH, 00H				; `string'
CONST	ENDS
;	COMDAT ??_C@_09FCOLKGFP@video?4cfg@
CONST	SEGMENT
??_C@_09FCOLKGFP@video?4cfg@ DB 'video.cfg', 00H	; `string'
CONST	ENDS
;	COMDAT ??_C@_0CF@GLDHHHKH@?$FO1Error?3?$FO7?5can?8t?5update?5opengl?4@
CONST	SEGMENT
??_C@_0CF@GLDHHHKH@?$FO1Error?3?$FO7?5can?8t?5update?5opengl?4@ DB '^1Err'
	DB	'or:^7 can''t update opengl.cfg.', 0aH, 00H	; `string'
CONST	ENDS
;	COMDAT ??_C@_01EEMJAFIK@?6@
CONST	SEGMENT
??_C@_01EEMJAFIK@?6@ DB 0aH, 00H			; `string'
CONST	ENDS
;	COMDAT ??_C@_0DI@MKGFABPO@?1?1?7?7?5?5?5?5opengl?4cfg?5?9?5archive?5of@
CONST	SEGMENT
??_C@_0DI@MKGFABPO@?1?1?7?7?5?5?5?5opengl?4cfg?5?9?5archive?5of@ DB '//', 09H
	DB	09H, '    opengl.cfg - archive of opengl extension cvars', 0aH
	DB	00H						; `string'
CONST	ENDS
;	COMDAT ??_C@_0BG@JBIOIEOC@Host_WriteGLConfig?$CI?$CJ?6@
CONST	SEGMENT
??_C@_0BG@JBIOIEOC@Host_WriteGLConfig?$CI?$CJ?6@ DB 'Host_WriteGLConfig()'
	DB	0aH, 00H					; `string'
CONST	ENDS
;	COMDAT ??_C@_0L@HCCLOBCH@opengl?4cfg@
CONST	SEGMENT
??_C@_0L@HCCLOBCH@opengl?4cfg@ DB 'opengl.cfg', 00H	; `string'
CONST	ENDS
;	COMDAT ??_C@_0BP@MIAAEOIH@?$FO1Error?3?$FO7?5Couldn?8t?5write?5?$CFs?4?6@
CONST	SEGMENT
??_C@_0BP@MIAAEOIH@?$FO1Error?3?$FO7?5Couldn?8t?5write?5?$CFs?4?6@ DB '^1'
	DB	'Error:^7 Couldn''t write %s.', 0aH, 00H	; `string'
CONST	ENDS
;	COMDAT ??_C@_0DE@KAOFAALG@?1?1?7?7game?4cfg?5?9?5multiplayer?5serv@
CONST	SEGMENT
??_C@_0DE@KAOFAALG@?1?1?7?7game?4cfg?5?9?5multiplayer?5serv@ DB '//', 09H
	DB	09H, 'game.cfg - multiplayer server temporare config', 0aH, 00H ; `string'
CONST	ENDS
;	COMDAT ??_C@_0N@FAPIMONE@settings?4scr@
CONST	SEGMENT
??_C@_0N@FAPIMONE@settings?4scr@ DB 'settings.scr', 00H	; `string'
CONST	ENDS
;	COMDAT ??_C@_0CH@NOPFFNLI@?$FO1Error?3?$FO7?5Couldn?8t?5write?5confi@
CONST	SEGMENT
??_C@_0CH@NOPFFNLI@?$FO1Error?3?$FO7?5Couldn?8t?5write?5confi@ DB '^1Erro'
	DB	'r:^7 Couldn''t write config.cfg.', 0aH, 00H	; `string'
CONST	ENDS
;	COMDAT ??_C@_0BE@JIGGELHM@exec?5userconfig?4cfg@
CONST	SEGMENT
??_C@_0BE@JIGGELHM@exec?5userconfig?4cfg@ DB 'exec userconfig.cfg', 00H ; `string'
CONST	ENDS
;	COMDAT ??_C@_07KIHLEJJO@?$CLjlook?6@
CONST	SEGMENT
??_C@_07KIHLEJJO@?$CLjlook?6@ DB '+jlook', 0aH, 00H	; `string'
CONST	ENDS
;	COMDAT ??_C@_07GNNMHHBA@?$CLmlook?6@
CONST	SEGMENT
??_C@_07GNNMHHBA@?$CLmlook?6@ DB '+mlook', 0aH, 00H	; `string'
CONST	ENDS
;	COMDAT ??_C@_08KKKAJICN@in_jlook@
CONST	SEGMENT
??_C@_08KKKAJICN@in_jlook@ DB 'in_jlook', 00H		; `string'
CONST	ENDS
;	COMDAT ??_C@_08LHKFKIJF@in_mlook@
CONST	SEGMENT
??_C@_08LHKFKIJF@in_mlook@ DB 'in_mlook', 00H		; `string'
CONST	ENDS
;	COMDAT ??_C@_0CE@DOEHJBLH@?1?1?7?7?7config?4cfg?5?9?5archive?5of?5cv@
CONST	SEGMENT
??_C@_0CE@DOEHJBLH@?1?1?7?7?7config?4cfg?5?9?5archive?5of?5cv@ DB '//', 09H
	DB	09H, 09H, 'config.cfg - archive of cvars', 0aH, 00H ; `string'
CONST	ENDS
;	COMDAT ??_C@_0CC@POOFDBJP@?1?1?7?7?7Copyright?5XashXT?5Group?5?$CFs?5@
CONST	SEGMENT
??_C@_0CC@POOFDBJP@?1?1?7?7?7Copyright?5XashXT?5Group?5?$CFs?5@ DB '//', 09H
	DB	09H, 09H, 'Copyright XashXT Group %s ', 0a9H, 0aH, 00H ; `string'
CONST	ENDS
;	COMDAT ??_C@_0EL@KHMJEPHG@?1?1?$DN?$DN?$DN?$DN?$DN?$DN?$DN?$DN?$DN?$DN?$DN?$DN?$DN?$DN?$DN?$DN?$DN?$DN?$DN?$DN?$DN?$DN?$DN?$DN?$DN?$DN?$DN?$DN?$DN@
CONST	SEGMENT
??_C@_0EL@KHMJEPHG@?1?1?$DN?$DN?$DN?$DN?$DN?$DN?$DN?$DN?$DN?$DN?$DN?$DN?$DN?$DN?$DN?$DN?$DN?$DN?$DN?$DN?$DN?$DN?$DN?$DN?$DN?$DN?$DN?$DN?$DN@ DB '/'
	DB	'/============================================================'
	DB	'===========', 0aH, 00H			; `string'
CONST	ENDS
;	COMDAT ??_C@_0BE@OEIHADBA@Host_WriteConfig?$CI?$CJ?6@
CONST	SEGMENT
??_C@_0BE@OEIHADBA@Host_WriteConfig?$CI?$CJ?6@ DB 'Host_WriteConfig()', 0aH
	DB	00H						; `string'
CONST	ENDS
;	COMDAT ??_C@_0L@MFNMKHHD@config?4cfg@
CONST	SEGMENT
??_C@_0L@MFNMKHHD@config?4cfg@ DB 'config.cfg', 00H	; `string'
CONST	ENDS
;	COMDAT ??_C@_01NOFIACDB@w@
CONST	SEGMENT
??_C@_01NOFIACDB@w@ DB 'w', 00H				; `string'
CONST	ENDS
;	COMDAT ??_C@_08JNDOIOCC@?$CFs?7?$CC?$CFs?$CC?6@
CONST	SEGMENT
??_C@_08JNDOIOCC@?$CFs?7?$CC?$CFs?$CC?6@ DB '%s', 09H, '"%s"', 0aH, 00H ; `string'
CONST	ENDS
;	COMDAT ??_C@_09NBBIPMK@?$CFs?7?7?$CC?$CFs?$CC?6@
CONST	SEGMENT
??_C@_09NBBIPMK@?$CFs?7?7?$CC?$CFs?$CC?6@ DB '%s', 09H, 09H, '"%s"', 0aH, 00H ; `string'
CONST	ENDS
;	COMDAT ??_C@_0L@KDFAMKIB@?$CFs?7?7?7?$CC?$CFs?$CC?6@
CONST	SEGMENT
??_C@_0L@KDFAMKIB@?$CFs?7?7?7?$CC?$CFs?$CC?6@ DB '%s', 09H, 09H, 09H, '"%'
	DB	's"', 0aH, 00H				; `string'
CONST	ENDS
;	COMDAT ??_C@_03GFPEDOMH@?2?$CFs@
CONST	SEGMENT
??_C@_03GFPEDOMH@?2?$CFs@ DB '\%s', 00H			; `string'
CONST	ENDS
;	COMDAT ??_C@_08MHBLPCGN@?$CFs?5?$CC?$CFs?$CC?6@
CONST	SEGMENT
??_C@_08MHBLPCGN@?$CFs?5?$CC?$CFs?$CC?6@ DB '%s "%s"', 0aH, 00H ; `string'
CONST	ENDS
;	COMDAT ??_C@_09CNJINBGN@classname@
CONST	SEGMENT
??_C@_09CNJINBGN@classname@ DB 'classname', 00H		; `string'
CONST	ENDS
;	COMDAT ??_C@_08HHPHHNPP@No?5Title@
CONST	SEGMENT
??_C@_08HHPHHNPP@No?5Title@ DB 'No Title', 00H		; `string'
CONST	ENDS
;	COMDAT ??_C@_0L@OKPFMBPD@maps?1?$CK?4bsp@
CONST	SEGMENT
??_C@_0L@OKPFMBPD@maps?1?$CK?4bsp@ DB 'maps/*.bsp', 00H	; `string'
CONST	ENDS
;	COMDAT ??_C@_07ILGHFECF@maps?1?$CFs@
CONST	SEGMENT
??_C@_07ILGHFECF@maps?1?$CFs@ DB 'maps/%s', 00H		; `string'
CONST	ENDS
;	COMDAT ??_C@_08NLKADBOG@maps?4lst@
CONST	SEGMENT
??_C@_08NLKADBOG@maps?4lst@ DB 'maps.lst', 00H		; `string'
CONST	ENDS
;	COMDAT ?__LINE__Var@?0??Cmd_CheckMapsList_R@@9@9
_DATA	SEGMENT
?__LINE__Var@?0??Cmd_CheckMapsList_R@@9@9 DD 029eH	; `Cmd_CheckMapsList_R'::`1'::__LINE__Var
_DATA	ENDS
;	COMDAT ??_C@_0BI@PNEMOMCO@?6?$FO3?5?$CFi?5commands?5found?4?6@
CONST	SEGMENT
??_C@_0BI@PNEMOMCO@?6?$FO3?5?$CFi?5commands?5found?4?6@ DB 0aH, '^3 %i co'
	DB	'mmands found.', 0aH, 00H			; `string'
CONST	ENDS
;	COMDAT ??_C@_04PEGFANN@stop@
CONST	SEGMENT
??_C@_04PEGFANN@stop@ DB 'stop', 00H			; `string'
CONST	ENDS
;	COMDAT ??_C@_06PLELHCEK@resume@
CONST	SEGMENT
??_C@_06PLELHCEK@resume@ DB 'resume', 00H		; `string'
CONST	ENDS
;	COMDAT ??_C@_05PDJBBECF@pause@
CONST	SEGMENT
??_C@_05PDJBBECF@pause@ DB 'pause', 00H			; `string'
CONST	ENDS
;	COMDAT ??_C@_02LIELOMNJ@on@
CONST	SEGMENT
??_C@_02LIELOMNJ@on@ DB 'on', 00H			; `string'
CONST	ENDS
;	COMDAT ??_C@_03MCADLMAF@off@
CONST	SEGMENT
??_C@_03MCADLMAF@off@ DB 'off', 00H			; `string'
CONST	ENDS
;	COMDAT ??_C@_04GKOOIABA@loop@
CONST	SEGMENT
??_C@_04GKOOIABA@loop@ DB 'loop', 00H			; `string'
CONST	ENDS
;	COMDAT ??_C@_04NIDJFNBE@info@
CONST	SEGMENT
??_C@_04NIDJFNBE@info@ DB 'info', 00H			; `string'
CONST	ENDS
;	COMDAT ??_C@_0BF@JGEEIMNB@?6?$FO3?5?$CFi?5games?5found?4?6@
CONST	SEGMENT
??_C@_0BF@JGEEIMNB@?6?$FO3?5?$CFi?5games?5found?4?6@ DB 0aH, '^3 %i games'
	DB	' found.', 0aH, 00H				; `string'
CONST	ENDS
;	COMDAT ??_C@_03PCNBCFDD@hpk@
CONST	SEGMENT
??_C@_03PCNBCFDD@hpk@ DB 'hpk', 00H			; `string'
CONST	ENDS
;	COMDAT ??_C@_07CGHDEPH@?$CFs?$CK?4hpk@
CONST	SEGMENT
??_C@_07CGHDEPH@?$CFs?$CK?4hpk@ DB '%s*.hpk', 00H	; `string'
CONST	ENDS
;	COMDAT ?__LINE__Var@?0??Cmd_GetCustomList@@9@9
_DATA	SEGMENT
?__LINE__Var@?0??Cmd_GetCustomList@@9@9 DD 020bH	; `Cmd_GetCustomList'::`1'::__LINE__Var
_DATA	ENDS
;	COMDAT ??_C@_0BF@EIDIFLCD@?6?$FO3?5?$CFi?5items?5found?4?6@
CONST	SEGMENT
??_C@_0BF@EIDIFLCD@?6?$FO3?5?$CFi?5items?5found?4?6@ DB 0aH, '^3 %i items'
	DB	' found.', 0aH, 00H				; `string'
CONST	ENDS
;	COMDAT ??_C@_03CLFHJCDC@txt@
CONST	SEGMENT
??_C@_03CLFHJCDC@txt@ DB 'txt', 00H			; `string'
CONST	ENDS
;	COMDAT ??_C@_0L@GCLJLNAP@?$CFs?1?$CFs?$CK?4txt@
CONST	SEGMENT
??_C@_0L@GCLJLNAP@?$CFs?1?$CFs?$CK?4txt@ DB '%s/%s*.txt', 00H ; `string'
CONST	ENDS
;	COMDAT ?__LINE__Var@?0??Cmd_GetItemsList@@9@9
_DATA	SEGMENT
?__LINE__Var@?0??Cmd_GetItemsList@@9@9 DD 01dcH		; `Cmd_GetItemsList'::`1'::__LINE__Var
_DATA	ENDS
;	COMDAT ??_C@_0BG@NNHFMCOI@?6?$FO3?5?$CFi?5sounds?5found?4?6@
CONST	SEGMENT
??_C@_0BG@NNHFMCOI@?6?$FO3?5?$CFi?5sounds?5found?4?6@ DB 0aH, '^3 %i soun'
	DB	'ds found.', 0aH, 00H			; `string'
CONST	ENDS
;	COMDAT ??_C@_07INOPGABA@?$CFs?$CFs?$CK?4?$CK@
CONST	SEGMENT
??_C@_07INOPGABA@?$CFs?$CFs?$CK?4?$CK@ DB '%s%s*.*', 00H ; `string'
CONST	ENDS
;	COMDAT ??_C@_06PBLIODKG@sound?1@
CONST	SEGMENT
??_C@_06PBLIODKG@sound?1@ DB 'sound/', 00H		; `string'
CONST	ENDS
;	COMDAT ?__LINE__Var@?0??Cmd_GetSoundList@@9@9
_DATA	SEGMENT
?__LINE__Var@?0??Cmd_GetSoundList@@9@9 DD 01a9H		; `Cmd_GetSoundList'::`1'::__LINE__Var
_DATA	ENDS
;	COMDAT ??_C@_0BH@IKMLIICG@?6?$FO3?5?$CFi?5configs?5found?4?6@
CONST	SEGMENT
??_C@_0BH@IKMLIICG@?6?$FO3?5?$CFi?5configs?5found?4?6@ DB 0aH, '^3 %i con'
	DB	'figs found.', 0aH, 00H			; `string'
CONST	ENDS
;	COMDAT ??_C@_03JBMODCPM@cfg@
CONST	SEGMENT
??_C@_03JBMODCPM@cfg@ DB 'cfg', 00H			; `string'
CONST	ENDS
;	COMDAT ??_C@_07GBHICDDI@?$CFs?$CK?4cfg@
CONST	SEGMENT
??_C@_07GBHICDDI@?$CFs?$CK?4cfg@ DB '%s*.cfg', 00H	; `string'
CONST	ENDS
;	COMDAT ?__LINE__Var@?0??Cmd_GetConfigList@@9@9
_DATA	SEGMENT
?__LINE__Var@?0??Cmd_GetConfigList@@9@9 DD 017aH	; `Cmd_GetConfigList'::`1'::__LINE__Var
_DATA	ENDS
;	COMDAT ??_C@_0BF@JENAHGFE@?6?$FO3?5?$CFi?5saves?5found?4?6@
CONST	SEGMENT
??_C@_0BF@JENAHGFE@?6?$FO3?5?$CFi?5saves?5found?4?6@ DB 0aH, '^3 %i saves'
	DB	' found.', 0aH, 00H				; `string'
CONST	ENDS
;	COMDAT ??_C@_03JHEBFAPG@sav@
CONST	SEGMENT
??_C@_03JHEBFAPG@sav@ DB 'sav', 00H			; `string'
CONST	ENDS
;	COMDAT ??_C@_09IBAFMBKJ@?$CFs?$CFs?$CK?4sav@
CONST	SEGMENT
??_C@_09IBAFMBKJ@?$CFs?$CFs?$CK?4sav@ DB '%s%s*.sav', 00H ; `string'
CONST	ENDS
;	COMDAT ??_C@_05HFINLBCI@save?1@
CONST	SEGMENT
??_C@_05HFINLBCI@save?1@ DB 'save/', 00H		; `string'
CONST	ENDS
;	COMDAT ?__LINE__Var@?0??Cmd_GetSavesList@@9@9
_DATA	SEGMENT
?__LINE__Var@?0??Cmd_GetSavesList@@9@9 DD 014bH		; `Cmd_GetSavesList'::`1'::__LINE__Var
_DATA	ENDS
;	COMDAT ??_C@_0BL@IJMELGH@?6?$FO3?5?$CFi?5soundtracks?5found?4?6@
CONST	SEGMENT
??_C@_0BL@IJMELGH@?6?$FO3?5?$CFi?5soundtracks?5found?4?6@ DB 0aH, '^3 %i '
	DB	'soundtracks found.', 0aH, 00H		; `string'
CONST	ENDS
;	COMDAT ??_C@_03LHGNACFN@mp3@
CONST	SEGMENT
??_C@_03LHGNACFN@mp3@ DB 'mp3', 00H			; `string'
CONST	ENDS
;	COMDAT ??_C@_03BICDMHKB@wav@
CONST	SEGMENT
??_C@_03BICDMHKB@wav@ DB 'wav', 00H			; `string'
CONST	ENDS
;	COMDAT ??_C@_0M@GFAIPCKL@media?1?$CFs?$CK?4?$CK@
CONST	SEGMENT
??_C@_0M@GFAIPCKL@media?1?$CFs?$CK?4?$CK@ DB 'media/%s*.*', 00H ; `string'
CONST	ENDS
;	COMDAT ?__LINE__Var@?0??Cmd_GetMusicList@@9@9
_DATA	SEGMENT
?__LINE__Var@?0??Cmd_GetMusicList@@9@9 DD 011bH		; `Cmd_GetMusicList'::`1'::__LINE__Var
_DATA	ENDS
;	COMDAT ??_C@_0BG@HMLIBPFD@?6?$FO3?5?$CFi?5movies?5found?4?6@
CONST	SEGMENT
??_C@_0BG@HMLIBPFD@?6?$FO3?5?$CFi?5movies?5found?4?6@ DB 0aH, '^3 %i movi'
	DB	'es found.', 0aH, 00H			; `string'
CONST	ENDS
;	COMDAT ??_C@_03LJGCHEIJ@avi@
CONST	SEGMENT
??_C@_03LJGCHEIJ@avi@ DB 'avi', 00H			; `string'
CONST	ENDS
;	COMDAT ??_C@_0O@LGBGIICK@media?1?$CFs?$CK?4avi@
CONST	SEGMENT
??_C@_0O@LGBGIICK@media?1?$CFs?$CK?4avi@ DB 'media/%s*.avi', 00H ; `string'
CONST	ENDS
;	COMDAT ?__LINE__Var@?0??Cmd_GetMovieList@@9@9
_DATA	SEGMENT
?__LINE__Var@?0??Cmd_GetMovieList@@9@9 DD 0ecH		; `Cmd_GetMovieList'::`1'::__LINE__Var
_DATA	ENDS
;	COMDAT ??_C@_0BF@MIDDJLBI@?6?$FO3?5?$CFi?5demos?5found?4?6@
CONST	SEGMENT
??_C@_0BF@MIDDJLBI@?6?$FO3?5?$CFi?5demos?5found?4?6@ DB 0aH, '^3 %i demos'
	DB	' found.', 0aH, 00H				; `string'
CONST	ENDS
;	COMDAT ??_C@_05PMAFMCBB@?$CF16s?6@
CONST	SEGMENT
??_C@_05PMAFMCBB@?$CF16s?6@ DB '%16s', 0aH, 00H		; `string'
CONST	ENDS
;	COMDAT ??_C@_03PELAFMJG@dem@
CONST	SEGMENT
??_C@_03PELAFMJG@dem@ DB 'dem', 00H			; `string'
CONST	ENDS
;	COMDAT ??_C@_07EAGENFC@?$CFs?$CK?4dem@
CONST	SEGMENT
??_C@_07EAGENFC@?$CFs?$CK?4dem@ DB '%s*.dem', 00H	; `string'
CONST	ENDS
;	COMDAT ?__LINE__Var@?0??Cmd_GetDemoList@@9@9
_DATA	SEGMENT
?__LINE__Var@?0??Cmd_GetDemoList@@9@9 DD 0bdH		; `Cmd_GetDemoList'::`1'::__LINE__Var
_DATA	ENDS
;	COMDAT ??_C@_0BE@LPOMNFKB@?6?$FO3?5?$CFi?5maps?5found?4?6@
CONST	SEGMENT
??_C@_0BE@LPOMNFKB@?6?$FO3?5?$CFi?5maps?5found?4?6@ DB 0aH, '^3 %i maps f'
	DB	'ound.', 0aH, 00H				; `string'
CONST	ENDS
;	COMDAT ??_C@_0BM@HPCPIGGF@?$CF16s?5?$CI?$CFs?$CJ?5?$FO3?$CFs?$FO7?5?$FO2?$CFs?5?$CFs?$FO7?6@
CONST	SEGMENT
??_C@_0BM@HPCPIGGF@?$CF16s?5?$CI?$CFs?$CJ?5?$FO3?$CFs?$FO7?5?$FO2?$CFs?5?$CFs?$FO7?6@ DB '%'
	DB	'16s (%s) ^3%s^7 ^2%s %s^7', 0aH, 00H	; `string'
CONST	ENDS
;	COMDAT ??_C@_02HHFHKOHM@?$DP?$DP@
CONST	SEGMENT
??_C@_02HHFHKOHM@?$DP?$DP@ DB '??', 00H			; `string'
CONST	ENDS
;	COMDAT ??_C@_09IBONLKEI@Half?9Life@
CONST	SEGMENT
??_C@_09IBONLKEI@Half?9Life@ DB 'Half-Life', 00H	; `string'
CONST	ENDS
;	COMDAT ??_C@_0BD@COCOECAF@Half?9Life?5extended@
CONST	SEGMENT
??_C@_0BD@COCOECAF@Half?9Life?5extended@ DB 'Half-Life extended', 00H ; `string'
CONST	ENDS
;	COMDAT ??_C@_0BD@MEIKLKL@Paranoia?52?3?5Savior@
CONST	SEGMENT
??_C@_0BD@MEIKLKL@Paranoia?52?3?5Savior@ DB 'Paranoia 2: Savior', 00H ; `string'
CONST	ENDS
;	COMDAT ??_C@_0BC@PIEDICIK@XashXT?5old?5format@
CONST	SEGMENT
??_C@_0BC@PIEDICIK@XashXT?5old?5format@ DB 'XashXT old format', 00H ; `string'
CONST	ENDS
;	COMDAT ??_C@_0BA@ONNKGFBG@Darkplaces?5BSP2@
CONST	SEGMENT
??_C@_0BA@ONNKGFBG@Darkplaces?5BSP2@ DB 'Darkplaces BSP2', 00H ; `string'
CONST	ENDS
;	COMDAT ??_C@_05GHEPMBPE@Quake@
CONST	SEGMENT
??_C@_05GHEPMBPE@Quake@ DB 'Quake', 00H			; `string'
CONST	ENDS
;	COMDAT ??_C@_0L@BOHJDPEN@_generator@
CONST	SEGMENT
??_C@_0L@BOHJDPEN@_generator@ DB '_generator', 00H	; `string'
CONST	ENDS
;	COMDAT ??_C@_09HNDCMPDF@generator@
CONST	SEGMENT
??_C@_09HNDCMPDF@generator@ DB 'generator', 00H		; `string'
CONST	ENDS
;	COMDAT ??_C@_09GPMLCKOG@_compiler@
CONST	SEGMENT
??_C@_09GPMLCKOG@_compiler@ DB '_compiler', 00H		; `string'
CONST	ENDS
;	COMDAT ??_C@_08CCFHILPL@compiler@
CONST	SEGMENT
??_C@_08CCFHILPL@compiler@ DB 'compiler', 00H		; `string'
CONST	ENDS
;	COMDAT ??_C@_07ONPBMBOP@message@
CONST	SEGMENT
??_C@_07ONPBMBOP@message@ DB 'message', 00H		; `string'
CONST	ENDS
;	COMDAT ??_C@_01CELHOKLL@?$HN@
CONST	SEGMENT
??_C@_01CELHOKLL@?$HN@ DB '}', 00H			; `string'
CONST	ENDS
;	COMDAT ??_C@_01HCONENDN@?$HL@
CONST	SEGMENT
??_C@_01HCONENDN@?$HL@ DB '{', 00H			; `string'
CONST	ENDS
;	COMDAT ??_C@_0DG@HHLKLKJI@D?3?2DevDragon?2XashFE?2dev?2src?2eng@
CONST	SEGMENT
??_C@_0DG@HHLKLKJI@D?3?2DevDragon?2XashFE?2dev?2src?2eng@ DB 'D:\DevDrago'
	DB	'n\XashFE\dev\src\engine\common\con_utils.c', 00H ; `string'
CONST	ENDS
;	COMDAT ??_C@_04ECMOMEGO@?4ent@
CONST	SEGMENT
??_C@_04ECMOMEGO@?4ent@ DB '.ent', 00H			; `string'
CONST	ENDS
;	COMDAT ??_C@_02JDPG@rb@
CONST	SEGMENT
??_C@_02JDPG@rb@ DB 'rb', 00H				; `string'
CONST	ENDS
;	COMDAT ??_C@_00CNPNBAHC@@
CONST	SEGMENT
??_C@_00CNPNBAHC@@ DB 00H				; `string'
CONST	ENDS
;	COMDAT ??_C@_09LIFBNPB@?$FO1error?$FO7@
CONST	SEGMENT
??_C@_09LIFBNPB@?$FO1error?$FO7@ DB '^1error^7', 00H	; `string'
CONST	ENDS
;	COMDAT ??_C@_03DGBMLAJE@bsp@
CONST	SEGMENT
??_C@_03DGBMLAJE@bsp@ DB 'bsp', 00H			; `string'
CONST	ENDS
;	COMDAT ??_C@_0N@OIMAIDOG@maps?1?$CFs?$CK?4bsp@
CONST	SEGMENT
??_C@_0N@OIMAIDOG@maps?1?$CFs?$CK?4bsp@ DB 'maps/%s*.bsp', 00H ; `string'
CONST	ENDS
;	COMDAT ?__LINE__Var@?0??Cmd_GetMapList@@9@9
_DATA	SEGMENT
?__LINE__Var@?0??Cmd_GetMapList@@9@9 DD 02bH		; `Cmd_GetMapList'::`1'::__LINE__Var
_DATA	ENDS
;	COMDAT voltbl
voltbl	SEGMENT
_volmd	DW	014H
	DW	0672H
voltbl	ENDS
;	COMDAT voltbl
voltbl	SEGMENT
_volmd	DW	010H
	DW	022cH
voltbl	ENDS
;	COMDAT voltbl
voltbl	SEGMENT
_volmd	DW	014H
	DW	0200H
voltbl	ENDS
;	COMDAT voltbl
voltbl	SEGMENT
_volmd	DW	010H
	DW	01f7H
voltbl	ENDS
;	COMDAT voltbl
voltbl	SEGMENT
_volmd	DW	010H
	DW	0216H
voltbl	ENDS
;	COMDAT voltbl
voltbl	SEGMENT
_volmd	DW	010H
	DW	026bH
voltbl	ENDS
;	COMDAT voltbl
voltbl	SEGMENT
_volmd	DW	010H
	DW	01f7H
voltbl	ENDS
;	COMDAT voltbl
voltbl	SEGMENT
_volmd	DW	010H
	DW	01fcH
voltbl	ENDS
;	COMDAT voltbl
voltbl	SEGMENT
_volmd	DW	010H
	DW	0224H
voltbl	ENDS
;	COMDAT voltbl
voltbl	SEGMENT
_volmd	DW	010H
	DW	01f7H
voltbl	ENDS
;	COMDAT voltbl
voltbl	SEGMENT
_volmd	DW	010H
	DW	01f7H
voltbl	ENDS
;	COMDAT voltbl
voltbl	SEGMENT
_volmd	DW	014H
	DW	0779H
voltbl	ENDS
; Function compile flags: /Odtp /ZI
; File D:\DevDragon\XashFE\dev\src\engine\common\con_utils.c
;	COMDAT _Cmd_WriteOpenGLVariables
_TEXT	SEGMENT
_f$ = 8							; size = 4
_Cmd_WriteOpenGLVariables PROC				; COMDAT

; 908  : {

	push	ebp
	mov	ebp, esp
	sub	esp, 64					; 00000040H
	push	ebx
	push	esi
	push	edi

; 909  : 	Cvar_LookupVars( FCVAR_GLCONFIG, NULL, f, Cmd_WriteOpenGLCvar ); 

	push	OFFSET _Cmd_WriteOpenGLCvar
	mov	eax, DWORD PTR _f$[ebp]
	push	eax
	push	0
	push	4096					; 00001000H
	call	_Cvar_LookupVars
	add	esp, 16					; 00000010H

; 910  : }

	pop	edi
	pop	esi
	pop	ebx
	mov	esp, ebp
	pop	ebp
	ret	0
_Cmd_WriteOpenGLVariables ENDP
_TEXT	ENDS
; Function compile flags: /Odtp /ZI
; File D:\DevDragon\XashFE\dev\src\engine\common\con_utils.c
;	COMDAT _Cmd_WriteHelp
_TEXT	SEGMENT
_length$ = -4						; size = 4
_name$ = 8						; size = 4
_unused$ = 12						; size = 4
_desc$ = 16						; size = 4
_f$ = 20						; size = 4
_Cmd_WriteHelp PROC					; COMDAT

; 891  : {

	push	ebp
	mov	ebp, esp
	sub	esp, 68					; 00000044H
	push	ebx
	push	esi
	push	edi

; 892  : 	int	length;
; 893  : 
; 894  : 	if( !desc || !Q_strcmp( desc, "" ))

	cmp	DWORD PTR _desc$[ebp], 0
	je	SHORT $LN3@Cmd_WriteH
	push	99999					; 0001869fH
	push	OFFSET ??_C@_00CNPNBAHC@@
	mov	eax, DWORD PTR _desc$[ebp]
	push	eax
	call	_Q_strncmp
	add	esp, 12					; 0000000cH
	test	eax, eax
	jne	SHORT $LN2@Cmd_WriteH
$LN3@Cmd_WriteH:

; 895  : 		return; // ignore fantom cmds

	jmp	$LN1@Cmd_WriteH
$LN2@Cmd_WriteH:

; 896  : 	if( name[0] == '+' || name[0] == '-' )

	mov	eax, 1
	imul	ecx, eax, 0
	mov	edx, DWORD PTR _name$[ebp]
	movsx	eax, BYTE PTR [edx+ecx]
	cmp	eax, 43					; 0000002bH
	je	SHORT $LN5@Cmd_WriteH
	mov	eax, 1
	imul	ecx, eax, 0
	mov	edx, DWORD PTR _name$[ebp]
	movsx	eax, BYTE PTR [edx+ecx]
	cmp	eax, 45					; 0000002dH
	jne	SHORT $LN4@Cmd_WriteH
$LN5@Cmd_WriteH:

; 897  : 		return; // key bindings	

	jmp	$LN1@Cmd_WriteH
$LN4@Cmd_WriteH:

; 898  : 
; 899  : 	length = 3 - (Q_strlen( name ) / 10); // Asm_Ed default tab stop is 10

	mov	eax, DWORD PTR _name$[ebp]
	push	eax
	call	_Q_strlen
	add	esp, 4
	cdq
	mov	ecx, 10					; 0000000aH
	idiv	ecx
	mov	edx, 3
	sub	edx, eax
	mov	DWORD PTR _length$[ebp], edx

; 900  : 
; 901  : 	if( length == 3 ) FS_Printf( f, "%s\t\t\t\"%s\"\n", name, desc );

	cmp	DWORD PTR _length$[ebp], 3
	jne	SHORT $LN6@Cmd_WriteH
	mov	eax, DWORD PTR _desc$[ebp]
	push	eax
	mov	ecx, DWORD PTR _name$[ebp]
	push	ecx
	push	OFFSET ??_C@_0L@KDFAMKIB@?$CFs?7?7?7?$CC?$CFs?$CC?6@
	mov	edx, DWORD PTR _f$[ebp]
	push	edx
	call	_FS_Printf
	add	esp, 16					; 00000010H
$LN6@Cmd_WriteH:

; 902  : 	if( length == 2 ) FS_Printf( f, "%s\t\t\"%s\"\n", name, desc );

	cmp	DWORD PTR _length$[ebp], 2
	jne	SHORT $LN7@Cmd_WriteH
	mov	eax, DWORD PTR _desc$[ebp]
	push	eax
	mov	ecx, DWORD PTR _name$[ebp]
	push	ecx
	push	OFFSET ??_C@_09NBBIPMK@?$CFs?7?7?$CC?$CFs?$CC?6@
	mov	edx, DWORD PTR _f$[ebp]
	push	edx
	call	_FS_Printf
	add	esp, 16					; 00000010H
$LN7@Cmd_WriteH:

; 903  : 	if( length == 1 ) FS_Printf( f, "%s\t\"%s\"\n", name, desc );

	cmp	DWORD PTR _length$[ebp], 1
	jne	SHORT $LN8@Cmd_WriteH
	mov	eax, DWORD PTR _desc$[ebp]
	push	eax
	mov	ecx, DWORD PTR _name$[ebp]
	push	ecx
	push	OFFSET ??_C@_08JNDOIOCC@?$CFs?7?$CC?$CFs?$CC?6@
	mov	edx, DWORD PTR _f$[ebp]
	push	edx
	call	_FS_Printf
	add	esp, 16					; 00000010H
$LN8@Cmd_WriteH:

; 904  : 	if( length == 0 ) FS_Printf( f, "%s \"%s\"\n", name, desc );

	cmp	DWORD PTR _length$[ebp], 0
	jne	SHORT $LN1@Cmd_WriteH
	mov	eax, DWORD PTR _desc$[ebp]
	push	eax
	mov	ecx, DWORD PTR _name$[ebp]
	push	ecx
	push	OFFSET ??_C@_08MHBLPCGN@?$CFs?5?$CC?$CFs?$CC?6@
	mov	edx, DWORD PTR _f$[ebp]
	push	edx
	call	_FS_Printf
	add	esp, 16					; 00000010H
$LN1@Cmd_WriteH:

; 905  : }

	pop	edi
	pop	esi
	pop	ebx
	mov	esp, ebp
	pop	ebp
	ret	0
_Cmd_WriteHelp ENDP
_TEXT	ENDS
; Function compile flags: /Odtp /ZI
; File D:\DevDragon\XashFE\dev\src\engine\common\con_utils.c
;	COMDAT _Cmd_WriteOpenGLCvar
_TEXT	SEGMENT
_name$ = 8						; size = 4
_string$ = 12						; size = 4
_desc$ = 16						; size = 4
_f$ = 20						; size = 4
_Cmd_WriteOpenGLCvar PROC				; COMDAT

; 884  : {

	push	ebp
	mov	ebp, esp
	sub	esp, 64					; 00000040H
	push	ebx
	push	esi
	push	edi

; 885  : 	if( !COM_CheckString( desc ))

	mov	eax, DWORD PTR _desc$[ebp]
	push	eax
	call	_COM_CheckString
	add	esp, 4
	test	eax, eax
	jne	SHORT $LN2@Cmd_WriteO

; 886  : 		return; // ignore cvars without description (fantom variables)

	jmp	SHORT $LN1@Cmd_WriteO
$LN2@Cmd_WriteO:

; 887  : 	FS_Printf( f, "%s \"%s\"\n", name, string );

	mov	eax, DWORD PTR _string$[ebp]
	push	eax
	mov	ecx, DWORD PTR _name$[ebp]
	push	ecx
	push	OFFSET ??_C@_08MHBLPCGN@?$CFs?5?$CC?$CFs?$CC?6@
	mov	edx, DWORD PTR _f$[ebp]
	push	edx
	call	_FS_Printf
	add	esp, 16					; 00000010H
$LN1@Cmd_WriteO:

; 888  : }

	pop	edi
	pop	esi
	pop	ebx
	mov	esp, ebp
	pop	ebp
	ret	0
_Cmd_WriteOpenGLCvar ENDP
_TEXT	ENDS
; Function compile flags: /Odtp /ZI
; File D:\DevDragon\XashFE\dev\src\engine\common\con_utils.c
;	COMDAT _Cmd_CheckName
_TEXT	SEGMENT
_name$ = 8						; size = 4
_Cmd_CheckName PROC					; COMDAT

; 846  : {

	push	ebp
	mov	ebp, esp
	sub	esp, 64					; 00000040H
	push	ebx
	push	esi
	push	edi

; 847  : 	if( !Q_stricmp( Cmd_Argv( 0 ), name ))

	push	99999					; 0001869fH
	mov	eax, DWORD PTR _name$[ebp]
	push	eax
	push	0
	call	_Cmd_Argv
	add	esp, 4
	push	eax
	call	_Q_strnicmp
	add	esp, 12					; 0000000cH
	test	eax, eax
	jne	SHORT $LN2@Cmd_CheckN

; 848  : 		return true;

	mov	eax, 1
	jmp	SHORT $LN1@Cmd_CheckN
$LN2@Cmd_CheckN:

; 849  : 	if( !Q_stricmp( Cmd_Argv( 0 ), va( "\\%s", name )))

	push	99999					; 0001869fH
	mov	eax, DWORD PTR _name$[ebp]
	push	eax
	push	OFFSET ??_C@_03GFPEDOMH@?2?$CFs@
	call	_va
	add	esp, 8
	push	eax
	push	0
	call	_Cmd_Argv
	add	esp, 4
	push	eax
	call	_Q_strnicmp
	add	esp, 12					; 0000000cH
	test	eax, eax
	jne	SHORT $LN3@Cmd_CheckN

; 850  : 		return true;

	mov	eax, 1
	jmp	SHORT $LN1@Cmd_CheckN
$LN3@Cmd_CheckN:

; 851  : 	return false;

	xor	eax, eax
$LN1@Cmd_CheckN:

; 852  : }

	pop	edi
	pop	esi
	pop	ebx
	mov	esp, ebp
	pop	ebp
	ret	0
_Cmd_CheckName ENDP
_TEXT	ENDS
; Function compile flags: /Odtp /ZI
; File D:\DevDragon\XashFE\dev\src\engine\common\con_utils.c
;	COMDAT _Cmd_CheckMapsList_R
_TEXT	SEGMENT
tv129 = -4924						; size = 4
_worldspawn$1 = -4408					; size = 4
_token$2 = -4404					; size = 2048
_header$3 = -2356					; size = 4
_num_spawnpoints$4 = -2352				; size = 4
_entfilename$5 = -2348					; size = 256
_message$6 = -2092					; size = 256
_mapname$7 = -1836					; size = 256
_lumplen$8 = -1580					; size = 4
_lumpofs$9 = -1576					; size = 4
_pfile$10 = -1572					; size = 4
_ents$11 = -1568					; size = 4
_f$ = -1564						; size = 4
_t$ = -1560						; size = 4
_size$ = -1556						; size = 4
_i$ = -1552						; size = 4
_result$ = -1548					; size = 256
_buffer$ = -1292					; size = 4
_mpfilter$ = -1288					; size = 256
_buf$ = -1032						; size = 1024
_use_filter$ = -8					; size = 4
__$ArrayPad$ = -4					; size = 4
_fRefresh$ = 8						; size = 4
_onlyingamedir$ = 12					; size = 4
_Cmd_CheckMapsList_R PROC				; COMDAT

; 670  : {

	push	ebp
	mov	ebp, esp
	mov	eax, 4924				; 0000133cH
	call	__chkstk
	mov	eax, DWORD PTR ___security_cookie
	xor	eax, ebp
	mov	DWORD PTR __$ArrayPad$[ebp], eax
	push	ebx
	push	esi
	push	edi

; 671  : 	qboolean	use_filter = false;

	mov	DWORD PTR _use_filter$[ebp], 0

; 672  : 	byte	buf[MAX_SYSPATH];
; 673  : 	string	mpfilter;
; 674  : 	char	*buffer;
; 675  : 	string	result;
; 676  : 	int	i, size;
; 677  : 	search_t	*t;
; 678  : 	file_t	*f;
; 679  : 
; 680  : 	if( FS_FileSize( "maps.lst", onlyingamedir ) > 0 && !fRefresh )

	mov	eax, DWORD PTR _onlyingamedir$[ebp]
	push	eax
	push	OFFSET ??_C@_08NLKADBOG@maps?4lst@
	call	_FS_FileSize
	add	esp, 8
	test	eax, eax
	jle	SHORT $LN7@Cmd_CheckM
	cmp	DWORD PTR _fRefresh$[ebp], 0
	jne	SHORT $LN7@Cmd_CheckM

; 681  : 		return true; // exist 

	mov	eax, 1
	jmp	$LN1@Cmd_CheckM
$LN7@Cmd_CheckM:

; 682  : 
; 683  : 	// setup mpfilter
; 684  : 	Q_snprintf( mpfilter, sizeof( mpfilter ), "maps/%s", GI->mp_filter );

	mov	eax, DWORD PTR _SI+768
	add	eax, 1368				; 00000558H
	push	eax
	push	OFFSET ??_C@_07ILGHFECF@maps?1?$CFs@
	push	256					; 00000100H
	lea	ecx, DWORD PTR _mpfilter$[ebp]
	push	ecx
	call	_Q_snprintf
	add	esp, 16					; 00000010H

; 685  : 	t = FS_Search( "maps/*.bsp", false, onlyingamedir );

	mov	eax, DWORD PTR _onlyingamedir$[ebp]
	push	eax
	push	0
	push	OFFSET ??_C@_0L@OKPFMBPD@maps?1?$CK?4bsp@
	call	_FS_Search
	add	esp, 12					; 0000000cH
	mov	DWORD PTR _t$[ebp], eax

; 686  : 
; 687  : 	if( !t )

	cmp	DWORD PTR _t$[ebp], 0
	jne	SHORT $LN8@Cmd_CheckM

; 688  : 	{
; 689  : 		if( onlyingamedir )

	cmp	DWORD PTR _onlyingamedir$[ebp], 0
	je	SHORT $LN9@Cmd_CheckM

; 690  : 		{
; 691  : 			// mod doesn't contain any maps (probably this is a bot)
; 692  : 			return Cmd_CheckMapsList_R( fRefresh, false );

	push	0
	mov	eax, DWORD PTR _fRefresh$[ebp]
	push	eax
	call	_Cmd_CheckMapsList_R
	add	esp, 8
	jmp	$LN1@Cmd_CheckM
$LN9@Cmd_CheckM:

; 693  : 		}
; 694  : 		return false;

	xor	eax, eax
	jmp	$LN1@Cmd_CheckM
$LN8@Cmd_CheckM:

; 695  : 	}
; 696  : 
; 697  : 	buffer = Mem_Calloc( host.mempool, t->numfilenames * 2 * sizeof( result ));

	mov	eax, DWORD PTR ?__LINE__Var@?0??Cmd_CheckMapsList_R@@9@9
	add	eax, 27					; 0000001bH
	push	eax
	push	OFFSET ??_C@_0DG@HHLKLKJI@D?3?2DevDragon?2XashFE?2dev?2src?2eng@
	push	1
	mov	ecx, DWORD PTR _t$[ebp]
	mov	edx, DWORD PTR [ecx]
	shl	edx, 1
	shl	edx, 8
	push	edx
	mov	eax, DWORD PTR _host+236
	push	eax
	call	__Mem_Alloc
	add	esp, 20					; 00000014H
	mov	DWORD PTR _buffer$[ebp], eax

; 698  : 	use_filter = Q_strlen( GI->mp_filter ) ? true : false;

	mov	eax, DWORD PTR _SI+768
	add	eax, 1368				; 00000558H
	push	eax
	call	_Q_strlen
	add	esp, 4
	test	eax, eax
	je	SHORT $LN33@Cmd_CheckM
	mov	DWORD PTR tv129[ebp], 1
	jmp	SHORT $LN34@Cmd_CheckM
$LN33@Cmd_CheckM:
	mov	DWORD PTR tv129[ebp], 0
$LN34@Cmd_CheckM:
	mov	ecx, DWORD PTR tv129[ebp]
	mov	DWORD PTR _use_filter$[ebp], ecx

; 699  : 
; 700  : 	for( i = 0; i < t->numfilenames; i++ )

	mov	DWORD PTR _i$[ebp], 0
	jmp	SHORT $LN4@Cmd_CheckM
$LN2@Cmd_CheckM:
	mov	eax, DWORD PTR _i$[ebp]
	add	eax, 1
	mov	DWORD PTR _i$[ebp], eax
$LN4@Cmd_CheckM:
	mov	eax, DWORD PTR _t$[ebp]
	mov	ecx, DWORD PTR _i$[ebp]
	cmp	ecx, DWORD PTR [eax]
	jge	$LN3@Cmd_CheckM

; 701  : 	{
; 702  : 		char		*ents = NULL, *pfile;

	mov	DWORD PTR _ents$11[ebp], 0

; 703  : 		int		lumpofs = 0, lumplen = 0;

	mov	DWORD PTR _lumpofs$9[ebp], 0
	mov	DWORD PTR _lumplen$8[ebp], 0

; 704  : 		string		mapname, message, entfilename;
; 705  : 
; 706  : 		if( Q_stricmp( COM_FileExtension( t->filenames[i] ), "bsp" ))

	push	99999					; 0001869fH
	push	OFFSET ??_C@_03DGBMLAJE@bsp@
	mov	eax, DWORD PTR _t$[ebp]
	mov	ecx, DWORD PTR [eax+4]
	mov	edx, DWORD PTR _i$[ebp]
	mov	eax, DWORD PTR [ecx+edx*4]
	push	eax
	call	_COM_FileExtension
	add	esp, 4
	push	eax
	call	_Q_strnicmp
	add	esp, 12					; 0000000cH
	test	eax, eax
	je	SHORT $LN10@Cmd_CheckM

; 707  : 			continue;

	jmp	SHORT $LN2@Cmd_CheckM
$LN10@Cmd_CheckM:

; 708  : 
; 709  : 		if( use_filter && !Q_strnicmp( t->filenames[i], mpfilter, Q_strlen( mpfilter )))

	cmp	DWORD PTR _use_filter$[ebp], 0
	je	SHORT $LN11@Cmd_CheckM
	lea	eax, DWORD PTR _mpfilter$[ebp]
	push	eax
	call	_Q_strlen
	add	esp, 4
	push	eax
	lea	ecx, DWORD PTR _mpfilter$[ebp]
	push	ecx
	mov	edx, DWORD PTR _t$[ebp]
	mov	eax, DWORD PTR [edx+4]
	mov	ecx, DWORD PTR _i$[ebp]
	mov	edx, DWORD PTR [eax+ecx*4]
	push	edx
	call	_Q_strnicmp
	add	esp, 12					; 0000000cH
	test	eax, eax
	jne	SHORT $LN11@Cmd_CheckM

; 710  : 			continue;

	jmp	$LN2@Cmd_CheckM
$LN11@Cmd_CheckM:

; 711  : 
; 712  : 		f = FS_Open( t->filenames[i], "rb", onlyingamedir );

	mov	eax, DWORD PTR _onlyingamedir$[ebp]
	push	eax
	push	OFFSET ??_C@_02JDPG@rb@
	mov	ecx, DWORD PTR _t$[ebp]
	mov	edx, DWORD PTR [ecx+4]
	mov	eax, DWORD PTR _i$[ebp]
	mov	ecx, DWORD PTR [edx+eax*4]
	push	ecx
	call	_FS_Open
	add	esp, 12					; 0000000cH
	mov	DWORD PTR _f$[ebp], eax

; 713  : 		COM_FileBase( t->filenames[i], mapname );

	lea	eax, DWORD PTR _mapname$7[ebp]
	push	eax
	mov	ecx, DWORD PTR _t$[ebp]
	mov	edx, DWORD PTR [ecx+4]
	mov	eax, DWORD PTR _i$[ebp]
	mov	ecx, DWORD PTR [edx+eax*4]
	push	ecx
	call	_COM_FileBase
	add	esp, 8

; 714  : 
; 715  : 		if( f )

	cmp	DWORD PTR _f$[ebp], 0
	je	$LN12@Cmd_CheckM

; 716  : 		{
; 717  : 			int	num_spawnpoints = 0;

	mov	DWORD PTR _num_spawnpoints$4[ebp], 0

; 718  : 			dheader_t	*header;
; 719  : 
; 720  : 			memset( buf, 0, MAX_SYSPATH );

	push	1024					; 00000400H
	push	0
	lea	eax, DWORD PTR _buf$[ebp]
	push	eax
	call	_memset
	add	esp, 12					; 0000000cH

; 721  : 			FS_Read( f, buf, MAX_SYSPATH );

	push	1024					; 00000400H
	lea	eax, DWORD PTR _buf$[ebp]
	push	eax
	mov	ecx, DWORD PTR _f$[ebp]
	push	ecx
	call	_FS_Read
	add	esp, 12					; 0000000cH

; 722  : 			header = (dheader_t *)buf;

	lea	eax, DWORD PTR _buf$[ebp]
	mov	DWORD PTR _header$3[ebp], eax

; 723  : 
; 724  : 			// check all the lumps and some other errors
; 725  : 			if( !Mod_TestBmodelLumps( t->filenames[i], buf, true ))

	push	1
	lea	eax, DWORD PTR _buf$[ebp]
	push	eax
	mov	ecx, DWORD PTR _t$[ebp]
	mov	edx, DWORD PTR [ecx+4]
	mov	eax, DWORD PTR _i$[ebp]
	mov	ecx, DWORD PTR [edx+eax*4]
	push	ecx
	call	_Mod_TestBmodelLumps
	add	esp, 12					; 0000000cH
	test	eax, eax
	jne	SHORT $LN13@Cmd_CheckM

; 726  : 			{
; 727  : 				FS_Close( f );

	mov	eax, DWORD PTR _f$[ebp]
	push	eax
	call	_FS_Close
	add	esp, 4

; 728  : 				continue;

	jmp	$LN2@Cmd_CheckM
$LN13@Cmd_CheckM:

; 729  : 			}
; 730  : 
; 731  : 			// after call Mod_TestBmodelLumps we gurantee what map is valid                              
; 732  : 			lumpofs = header->lumps[LUMP_ENTITIES].fileofs;

	mov	eax, 8
	imul	ecx, eax, 0
	mov	edx, DWORD PTR _header$3[ebp]
	mov	eax, DWORD PTR [edx+ecx+4]
	mov	DWORD PTR _lumpofs$9[ebp], eax

; 733  : 			lumplen = header->lumps[LUMP_ENTITIES].filelen;

	mov	eax, 8
	imul	ecx, eax, 0
	mov	edx, DWORD PTR _header$3[ebp]
	mov	eax, DWORD PTR [edx+ecx+8]
	mov	DWORD PTR _lumplen$8[ebp], eax

; 734  : 
; 735  : 			Q_strncpy( entfilename, t->filenames[i], sizeof( entfilename ));

	push	256					; 00000100H
	mov	eax, DWORD PTR _t$[ebp]
	mov	ecx, DWORD PTR [eax+4]
	mov	edx, DWORD PTR _i$[ebp]
	mov	eax, DWORD PTR [ecx+edx*4]
	push	eax
	lea	ecx, DWORD PTR _entfilename$5[ebp]
	push	ecx
	call	_Q_strncpy
	add	esp, 12					; 0000000cH

; 736  : 			COM_StripExtension( entfilename );

	lea	eax, DWORD PTR _entfilename$5[ebp]
	push	eax
	call	_COM_StripExtension
	add	esp, 4

; 737  : 			COM_DefaultExtension( entfilename, ".ent" );

	push	OFFSET ??_C@_04ECMOMEGO@?4ent@
	lea	eax, DWORD PTR _entfilename$5[ebp]
	push	eax
	call	_COM_DefaultExtension
	add	esp, 8

; 738  : 			ents = FS_LoadFile( entfilename, NULL, true );

	push	1
	push	0
	lea	eax, DWORD PTR _entfilename$5[ebp]
	push	eax
	call	_FS_LoadFile
	add	esp, 12					; 0000000cH
	mov	DWORD PTR _ents$11[ebp], eax

; 739  : 
; 740  : 			if( !ents && lumplen >= 10 )

	cmp	DWORD PTR _ents$11[ebp], 0
	jne	SHORT $LN14@Cmd_CheckM
	cmp	DWORD PTR _lumplen$8[ebp], 10		; 0000000aH
	jl	SHORT $LN14@Cmd_CheckM

; 741  : 			{
; 742  : 				FS_Seek( f, lumpofs, SEEK_SET );

	push	0
	mov	eax, DWORD PTR _lumpofs$9[ebp]
	push	eax
	mov	ecx, DWORD PTR _f$[ebp]
	push	ecx
	call	_FS_Seek
	add	esp, 12					; 0000000cH

; 743  : 				ents = Z_Calloc( lumplen + 1 );

	mov	eax, DWORD PTR ?__LINE__Var@?0??Cmd_CheckMapsList_R@@9@9
	add	eax, 73					; 00000049H
	push	eax
	push	OFFSET ??_C@_0DG@HHLKLKJI@D?3?2DevDragon?2XashFE?2dev?2src?2eng@
	push	1
	mov	ecx, DWORD PTR _lumplen$8[ebp]
	add	ecx, 1
	push	ecx
	mov	edx, DWORD PTR _host+236
	push	edx
	call	__Mem_Alloc
	add	esp, 20					; 00000014H
	mov	DWORD PTR _ents$11[ebp], eax

; 744  : 				FS_Read( f, ents, lumplen );

	mov	eax, DWORD PTR _lumplen$8[ebp]
	push	eax
	mov	ecx, DWORD PTR _ents$11[ebp]
	push	ecx
	mov	edx, DWORD PTR _f$[ebp]
	push	edx
	call	_FS_Read
	add	esp, 12					; 0000000cH
$LN14@Cmd_CheckM:

; 745  : 			}
; 746  : 
; 747  : 			if( ents )

	cmp	DWORD PTR _ents$11[ebp], 0
	je	$LN15@Cmd_CheckM

; 748  : 			{
; 749  : 				// if there are entities to parse, a missing message key just
; 750  : 				// means there is no title, so clear the message string now
; 751  : 				char	token[MAX_TOKEN];
; 752  : 				qboolean	worldspawn = true;

	mov	DWORD PTR _worldspawn$1[ebp], 1

; 753  : 
; 754  : 				Q_strncpy( message, "No Title", MAX_STRING );

	push	256					; 00000100H
	push	OFFSET ??_C@_08HHPHHNPP@No?5Title@
	lea	eax, DWORD PTR _message$6[ebp]
	push	eax
	call	_Q_strncpy
	add	esp, 12					; 0000000cH

; 755  : 				pfile = ents;

	mov	eax, DWORD PTR _ents$11[ebp]
	mov	DWORD PTR _pfile$10[ebp], eax
$LN5@Cmd_CheckM:

; 756  : 
; 757  : 				while(( pfile = COM_ParseFile( pfile, token )) != NULL )

	lea	eax, DWORD PTR _token$2[ebp]
	push	eax
	mov	ecx, DWORD PTR _pfile$10[ebp]
	push	ecx
	call	_COM_ParseFile
	add	esp, 8
	mov	DWORD PTR _pfile$10[ebp], eax
	cmp	DWORD PTR _pfile$10[ebp], 0
	je	$LN6@Cmd_CheckM

; 758  : 				{
; 759  : 					if( token[0] == '}' && worldspawn )

	mov	eax, 1
	imul	ecx, eax, 0
	movsx	edx, BYTE PTR _token$2[ebp+ecx]
	cmp	edx, 125				; 0000007dH
	jne	SHORT $LN16@Cmd_CheckM
	cmp	DWORD PTR _worldspawn$1[ebp], 0
	je	SHORT $LN16@Cmd_CheckM

; 760  : 						worldspawn = false;

	mov	DWORD PTR _worldspawn$1[ebp], 0
	jmp	$LN17@Cmd_CheckM
$LN16@Cmd_CheckM:

; 761  : 					else if( !Q_strcmp( token, "message" ) && worldspawn )

	push	99999					; 0001869fH
	push	OFFSET ??_C@_07ONPBMBOP@message@
	lea	eax, DWORD PTR _token$2[ebp]
	push	eax
	call	_Q_strncmp
	add	esp, 12					; 0000000cH
	test	eax, eax
	jne	SHORT $LN18@Cmd_CheckM
	cmp	DWORD PTR _worldspawn$1[ebp], 0
	je	SHORT $LN18@Cmd_CheckM

; 762  : 					{
; 763  : 						// get the message contents
; 764  : 						pfile = COM_ParseFile( pfile, message );

	lea	eax, DWORD PTR _message$6[ebp]
	push	eax
	mov	ecx, DWORD PTR _pfile$10[ebp]
	push	ecx
	call	_COM_ParseFile
	add	esp, 8
	mov	DWORD PTR _pfile$10[ebp], eax

; 765  : 					}

	jmp	SHORT $LN17@Cmd_CheckM
$LN18@Cmd_CheckM:

; 766  : 					else if( !Q_strcmp( token, "classname" ))

	push	99999					; 0001869fH
	push	OFFSET ??_C@_09CNJINBGN@classname@
	lea	eax, DWORD PTR _token$2[ebp]
	push	eax
	call	_Q_strncmp
	add	esp, 12					; 0000000cH
	test	eax, eax
	jne	SHORT $LN17@Cmd_CheckM

; 767  : 					{
; 768  : 						pfile = COM_ParseFile( pfile, token );

	lea	eax, DWORD PTR _token$2[ebp]
	push	eax
	mov	ecx, DWORD PTR _pfile$10[ebp]
	push	ecx
	call	_COM_ParseFile
	add	esp, 8
	mov	DWORD PTR _pfile$10[ebp], eax

; 769  : 						if( !Q_strcmp( token, GI->mp_entity ) || use_filter )

	push	99999					; 0001869fH
	mov	eax, DWORD PTR _SI+768
	add	eax, 1336				; 00000538H
	push	eax
	lea	ecx, DWORD PTR _token$2[ebp]
	push	ecx
	call	_Q_strncmp
	add	esp, 12					; 0000000cH
	test	eax, eax
	je	SHORT $LN22@Cmd_CheckM
	cmp	DWORD PTR _use_filter$[ebp], 0
	je	SHORT $LN17@Cmd_CheckM
$LN22@Cmd_CheckM:

; 770  : 							num_spawnpoints++;

	mov	eax, DWORD PTR _num_spawnpoints$4[ebp]
	add	eax, 1
	mov	DWORD PTR _num_spawnpoints$4[ebp], eax
$LN17@Cmd_CheckM:

; 771  : 					}
; 772  : 					if( num_spawnpoints ) break; // valid map

	cmp	DWORD PTR _num_spawnpoints$4[ebp], 0
	je	SHORT $LN23@Cmd_CheckM
	jmp	SHORT $LN6@Cmd_CheckM
$LN23@Cmd_CheckM:

; 773  : 				}

	jmp	$LN5@Cmd_CheckM
$LN6@Cmd_CheckM:

; 774  : 				Mem_Free( ents );

	mov	eax, DWORD PTR ?__LINE__Var@?0??Cmd_CheckMapsList_R@@9@9
	add	eax, 104				; 00000068H
	push	eax
	push	OFFSET ??_C@_0DG@HHLKLKJI@D?3?2DevDragon?2XashFE?2dev?2src?2eng@
	mov	ecx, DWORD PTR _ents$11[ebp]
	push	ecx
	call	__Mem_Free
	add	esp, 12					; 0000000cH
$LN15@Cmd_CheckM:

; 775  : 			}
; 776  : 
; 777  : 			if( f ) FS_Close( f );

	cmp	DWORD PTR _f$[ebp], 0
	je	SHORT $LN24@Cmd_CheckM
	mov	eax, DWORD PTR _f$[ebp]
	push	eax
	call	_FS_Close
	add	esp, 4
$LN24@Cmd_CheckM:

; 778  : 
; 779  : 			if( num_spawnpoints )

	cmp	DWORD PTR _num_spawnpoints$4[ebp], 0
	je	SHORT $LN12@Cmd_CheckM

; 780  : 			{
; 781  : 				// format: mapname "maptitle"\n
; 782  : 				Q_sprintf( result, "%s \"%s\"\n", mapname, message );

	lea	eax, DWORD PTR _message$6[ebp]
	push	eax
	lea	ecx, DWORD PTR _mapname$7[ebp]
	push	ecx
	push	OFFSET ??_C@_08MHBLPCGN@?$CFs?5?$CC?$CFs?$CC?6@
	lea	edx, DWORD PTR _result$[ebp]
	push	edx
	call	_Q_sprintf
	add	esp, 16					; 00000010H

; 783  : 				Q_strcat( buffer, result ); // add new string

	push	99999					; 0001869fH
	lea	eax, DWORD PTR _result$[ebp]
	push	eax
	mov	ecx, DWORD PTR _buffer$[ebp]
	push	ecx
	call	_Q_strncat
	add	esp, 12					; 0000000cH
$LN12@Cmd_CheckM:

; 784  : 			}
; 785  : 		}
; 786  : 	}

	jmp	$LN2@Cmd_CheckM
$LN3@Cmd_CheckM:

; 787  : 
; 788  : 	if( t ) Mem_Free( t ); // free search result

	cmp	DWORD PTR _t$[ebp], 0
	je	SHORT $LN26@Cmd_CheckM
	mov	eax, DWORD PTR ?__LINE__Var@?0??Cmd_CheckMapsList_R@@9@9
	add	eax, 118				; 00000076H
	push	eax
	push	OFFSET ??_C@_0DG@HHLKLKJI@D?3?2DevDragon?2XashFE?2dev?2src?2eng@
	mov	ecx, DWORD PTR _t$[ebp]
	push	ecx
	call	__Mem_Free
	add	esp, 12					; 0000000cH
$LN26@Cmd_CheckM:

; 789  : 	size = Q_strlen( buffer );

	mov	eax, DWORD PTR _buffer$[ebp]
	push	eax
	call	_Q_strlen
	add	esp, 4
	mov	DWORD PTR _size$[ebp], eax

; 790  : 
; 791  : 	if( !size )

	cmp	DWORD PTR _size$[ebp], 0
	jne	SHORT $LN27@Cmd_CheckM

; 792  : 	{
; 793  :           	if( buffer ) Mem_Free( buffer );

	cmp	DWORD PTR _buffer$[ebp], 0
	je	SHORT $LN28@Cmd_CheckM
	mov	eax, DWORD PTR ?__LINE__Var@?0??Cmd_CheckMapsList_R@@9@9
	add	eax, 123				; 0000007bH
	push	eax
	push	OFFSET ??_C@_0DG@HHLKLKJI@D?3?2DevDragon?2XashFE?2dev?2src?2eng@
	mov	ecx, DWORD PTR _buffer$[ebp]
	push	ecx
	call	__Mem_Free
	add	esp, 12					; 0000000cH
$LN28@Cmd_CheckM:

; 794  : 
; 795  : 		if( onlyingamedir )

	cmp	DWORD PTR _onlyingamedir$[ebp], 0
	je	SHORT $LN29@Cmd_CheckM

; 796  : 			return Cmd_CheckMapsList_R( fRefresh, false );

	push	0
	mov	eax, DWORD PTR _fRefresh$[ebp]
	push	eax
	call	_Cmd_CheckMapsList_R
	add	esp, 8
	jmp	SHORT $LN1@Cmd_CheckM
$LN29@Cmd_CheckM:

; 797  : 		return false;

	xor	eax, eax
	jmp	SHORT $LN1@Cmd_CheckM
$LN27@Cmd_CheckM:

; 798  : 	}
; 799  : 
; 800  : 	// write generated maps.lst
; 801  : 	if( FS_WriteFile( "maps.lst", buffer, Q_strlen( buffer )))

	mov	eax, DWORD PTR _buffer$[ebp]
	push	eax
	call	_Q_strlen
	add	esp, 4
	push	eax
	mov	ecx, DWORD PTR _buffer$[ebp]
	push	ecx
	push	OFFSET ??_C@_08NLKADBOG@maps?4lst@
	call	_FS_WriteFile
	add	esp, 12					; 0000000cH
	test	eax, eax
	je	SHORT $LN30@Cmd_CheckM

; 802  : 	{
; 803  :           	if( buffer ) Mem_Free( buffer );

	cmp	DWORD PTR _buffer$[ebp], 0
	je	SHORT $LN31@Cmd_CheckM
	mov	eax, DWORD PTR ?__LINE__Var@?0??Cmd_CheckMapsList_R@@9@9
	add	eax, 133				; 00000085H
	push	eax
	push	OFFSET ??_C@_0DG@HHLKLKJI@D?3?2DevDragon?2XashFE?2dev?2src?2eng@
	mov	ecx, DWORD PTR _buffer$[ebp]
	push	ecx
	call	__Mem_Free
	add	esp, 12					; 0000000cH
$LN31@Cmd_CheckM:

; 804  : 		return true;

	mov	eax, 1
	jmp	SHORT $LN1@Cmd_CheckM
$LN30@Cmd_CheckM:

; 805  : 	}
; 806  : 	return false;

	xor	eax, eax
$LN1@Cmd_CheckM:

; 807  : }

	pop	edi
	pop	esi
	pop	ebx
	mov	ecx, DWORD PTR __$ArrayPad$[ebp]
	xor	ecx, ebp
	call	@__security_check_cookie@4
	mov	esp, ebp
	pop	ebp
	ret	0
_Cmd_CheckMapsList_R ENDP
_TEXT	ENDS
; Function compile flags: /Odtp /ZI
; File D:\DevDragon\XashFE\dev\src\engine\common\con_utils.c
;	COMDAT _Cmd_GetCDList
_TEXT	SEGMENT
tv85 = -2672						; size = 4
_cd_command$ = -2348					; size = 32
_matchbuf$ = -2316					; size = 256
_cdcommands$ = -2060					; size = 2048
_numcdcommands$ = -12					; size = 4
_i$ = -8						; size = 4
__$ArrayPad$ = -4					; size = 4
_s$ = 8							; size = 4
_completedname$ = 12					; size = 4
_length$ = 16						; size = 4
_Cmd_GetCDList PROC					; COMDAT

; 619  : {

	push	ebp
	mov	ebp, esp
	sub	esp, 2672				; 00000a70H
	mov	eax, DWORD PTR ___security_cookie
	xor	eax, ebp
	mov	DWORD PTR __$ArrayPad$[ebp], eax
	push	ebx
	push	esi
	push	edi

; 620  : 	int i, numcdcommands;
; 621  : 	string	cdcommands[8];
; 622  : 	string	matchbuf;
; 623  : 
; 624  : 	const char *cd_command[] =

	mov	DWORD PTR _cd_command$[ebp], OFFSET ??_C@_04NIDJFNBE@info@
	mov	DWORD PTR _cd_command$[ebp+4], OFFSET ??_C@_04GKOOIABA@loop@
	mov	DWORD PTR _cd_command$[ebp+8], OFFSET ??_C@_03MCADLMAF@off@
	mov	DWORD PTR _cd_command$[ebp+12], OFFSET ??_C@_02LIELOMNJ@on@
	mov	DWORD PTR _cd_command$[ebp+16], OFFSET ??_C@_05PDJBBECF@pause@
	mov	DWORD PTR _cd_command$[ebp+20], OFFSET ??_C@_04GBHMDDO@play@
	mov	DWORD PTR _cd_command$[ebp+24], OFFSET ??_C@_06PLELHCEK@resume@
	mov	DWORD PTR _cd_command$[ebp+28], OFFSET ??_C@_04PEGFANN@stop@

; 625  : 	{
; 626  : 	"info",
; 627  : 	"loop",
; 628  : 	"off",
; 629  : 	"on",
; 630  : 	"pause",
; 631  : 	"play",
; 632  : 	"resume",
; 633  : 	"stop",
; 634  : 	};
; 635  : 
; 636  : 	// compare CD command list with current keyword
; 637  : 	for( i = 0, numcdcommands = 0; i < 8; i++ )

	mov	DWORD PTR _i$[ebp], 0
	mov	DWORD PTR _numcdcommands$[ebp], 0
	jmp	SHORT $LN4@Cmd_GetCDL
$LN2@Cmd_GetCDL:
	mov	eax, DWORD PTR _i$[ebp]
	add	eax, 1
	mov	DWORD PTR _i$[ebp], eax
$LN4@Cmd_GetCDL:
	cmp	DWORD PTR _i$[ebp], 8
	jge	SHORT $LN3@Cmd_GetCDL

; 638  : 	{
; 639  : 		if(( *s == '*' ) || !Q_strnicmp( cd_command[i], s, Q_strlen( s )))

	mov	eax, DWORD PTR _s$[ebp]
	movsx	ecx, BYTE PTR [eax]
	cmp	ecx, 42					; 0000002aH
	je	SHORT $LN12@Cmd_GetCDL
	mov	eax, DWORD PTR _s$[ebp]
	push	eax
	call	_Q_strlen
	add	esp, 4
	push	eax
	mov	ecx, DWORD PTR _s$[ebp]
	push	ecx
	mov	edx, DWORD PTR _i$[ebp]
	mov	eax, DWORD PTR _cd_command$[ebp+edx*4]
	push	eax
	call	_Q_strnicmp
	add	esp, 12					; 0000000cH
	test	eax, eax
	jne	SHORT $LN11@Cmd_GetCDL
$LN12@Cmd_GetCDL:

; 640  : 			Q_strcpy( cdcommands[numcdcommands++], cd_command[i] );

	mov	eax, DWORD PTR _numcdcommands$[ebp]
	shl	eax, 8
	lea	ecx, DWORD PTR _cdcommands$[ebp+eax]
	mov	DWORD PTR tv85[ebp], ecx
	push	99999					; 0001869fH
	mov	edx, DWORD PTR _i$[ebp]
	mov	eax, DWORD PTR _cd_command$[ebp+edx*4]
	push	eax
	mov	ecx, DWORD PTR tv85[ebp]
	push	ecx
	call	_Q_strncpy
	add	esp, 12					; 0000000cH
	mov	edx, DWORD PTR _numcdcommands$[ebp]
	add	edx, 1
	mov	DWORD PTR _numcdcommands$[ebp], edx
$LN11@Cmd_GetCDL:

; 641  : 	}

	jmp	SHORT $LN2@Cmd_GetCDL
$LN3@Cmd_GetCDL:

; 642  : 
; 643  : 	if( !numcdcommands ) return false;

	cmp	DWORD PTR _numcdcommands$[ebp], 0
	jne	SHORT $LN13@Cmd_GetCDL
	xor	eax, eax
	jmp	$LN1@Cmd_GetCDL
$LN13@Cmd_GetCDL:

; 644  : 	Q_strncpy( matchbuf, cdcommands[0], MAX_STRING );

	push	256					; 00000100H
	mov	eax, 256				; 00000100H
	imul	ecx, eax, 0
	lea	edx, DWORD PTR _cdcommands$[ebp+ecx]
	push	edx
	lea	eax, DWORD PTR _matchbuf$[ebp]
	push	eax
	call	_Q_strncpy
	add	esp, 12					; 0000000cH

; 645  : 	if( completedname && length )

	cmp	DWORD PTR _completedname$[ebp], 0
	je	SHORT $LN14@Cmd_GetCDL
	cmp	DWORD PTR _length$[ebp], 0
	je	SHORT $LN14@Cmd_GetCDL

; 646  : 		Q_strncpy( completedname, matchbuf, length );

	mov	eax, DWORD PTR _length$[ebp]
	push	eax
	lea	ecx, DWORD PTR _matchbuf$[ebp]
	push	ecx
	mov	edx, DWORD PTR _completedname$[ebp]
	push	edx
	call	_Q_strncpy
	add	esp, 12					; 0000000cH
$LN14@Cmd_GetCDL:

; 647  : 	if( numcdcommands == 1 ) return true;

	cmp	DWORD PTR _numcdcommands$[ebp], 1
	jne	SHORT $LN15@Cmd_GetCDL
	mov	eax, 1
	jmp	$LN1@Cmd_GetCDL
$LN15@Cmd_GetCDL:

; 648  : 
; 649  : 	for( i = 0; i < numcdcommands; i++ )

	mov	DWORD PTR _i$[ebp], 0
	jmp	SHORT $LN7@Cmd_GetCDL
$LN5@Cmd_GetCDL:
	mov	eax, DWORD PTR _i$[ebp]
	add	eax, 1
	mov	DWORD PTR _i$[ebp], eax
$LN7@Cmd_GetCDL:
	mov	eax, DWORD PTR _i$[ebp]
	cmp	eax, DWORD PTR _numcdcommands$[ebp]
	jge	SHORT $LN6@Cmd_GetCDL

; 650  : 	{
; 651  : 		Q_strncpy( matchbuf, cdcommands[i], MAX_STRING );

	push	256					; 00000100H
	mov	eax, DWORD PTR _i$[ebp]
	shl	eax, 8
	lea	ecx, DWORD PTR _cdcommands$[ebp+eax]
	push	ecx
	lea	edx, DWORD PTR _matchbuf$[ebp]
	push	edx
	call	_Q_strncpy
	add	esp, 12					; 0000000cH

; 652  : 		Con_Printf( "%16s\n", matchbuf );

	lea	eax, DWORD PTR _matchbuf$[ebp]
	push	eax
	push	OFFSET ??_C@_05PMAFMCBB@?$CF16s?6@
	call	_Con_Printf
	add	esp, 8

; 653  : 	}

	jmp	SHORT $LN5@Cmd_GetCDL
$LN6@Cmd_GetCDL:

; 654  : 
; 655  : 	Con_Printf( "\n^3 %i commands found.\n", numcdcommands );

	mov	eax, DWORD PTR _numcdcommands$[ebp]
	push	eax
	push	OFFSET ??_C@_0BI@PNEMOMCO@?6?$FO3?5?$CFi?5commands?5found?4?6@
	call	_Con_Printf
	add	esp, 8

; 656  : 
; 657  : 	// cut shortestMatch to the amount common with s
; 658  : 	if( completedname && length )

	cmp	DWORD PTR _completedname$[ebp], 0
	je	SHORT $LN16@Cmd_GetCDL
	cmp	DWORD PTR _length$[ebp], 0
	je	SHORT $LN16@Cmd_GetCDL

; 659  : 	{
; 660  : 		for( i = 0; matchbuf[i]; i++ )

	mov	DWORD PTR _i$[ebp], 0
	jmp	SHORT $LN10@Cmd_GetCDL
$LN8@Cmd_GetCDL:
	mov	eax, DWORD PTR _i$[ebp]
	add	eax, 1
	mov	DWORD PTR _i$[ebp], eax
$LN10@Cmd_GetCDL:
	mov	eax, DWORD PTR _i$[ebp]
	movsx	ecx, BYTE PTR _matchbuf$[ebp+eax]
	test	ecx, ecx
	je	SHORT $LN16@Cmd_GetCDL

; 661  : 		{
; 662  : 			if( Q_tolower( completedname[i] ) != Q_tolower( matchbuf[i] ))

	mov	eax, DWORD PTR _completedname$[ebp]
	add	eax, DWORD PTR _i$[ebp]
	movzx	ecx, BYTE PTR [eax]
	push	ecx
	call	_Q_tolower
	add	esp, 4
	movsx	esi, al
	mov	edx, DWORD PTR _i$[ebp]
	movzx	eax, BYTE PTR _matchbuf$[ebp+edx]
	push	eax
	call	_Q_tolower
	add	esp, 4
	movsx	ecx, al
	cmp	esi, ecx
	je	SHORT $LN17@Cmd_GetCDL

; 663  : 				completedname[i] = 0;

	mov	eax, DWORD PTR _completedname$[ebp]
	add	eax, DWORD PTR _i$[ebp]
	mov	BYTE PTR [eax], 0
$LN17@Cmd_GetCDL:

; 664  : 		}

	jmp	SHORT $LN8@Cmd_GetCDL
$LN16@Cmd_GetCDL:

; 665  : 	}
; 666  : 	return true;

	mov	eax, 1
$LN1@Cmd_GetCDL:

; 667  : }

	pop	edi
	pop	esi
	pop	ebx
	mov	ecx, DWORD PTR __$ArrayPad$[ebp]
	xor	ecx, ebp
	call	@__security_check_cookie@4
	mov	esp, ebp
	pop	ebp
	ret	0
_Cmd_GetCDList ENDP
_TEXT	ENDS
; Function compile flags: /Odtp /ZI
; File D:\DevDragon\XashFE\dev\src\engine\common\con_utils.c
;	COMDAT _Cmd_GetGamesList
_TEXT	SEGMENT
tv90 = -131856						; size = 4
_matchbuf$ = -131340					; size = 256
_gamedirs$ = -131084					; size = 131072
_numgamedirs$ = -12					; size = 4
_i$ = -8						; size = 4
__$ArrayPad$ = -4					; size = 4
_s$ = 8							; size = 4
_completedname$ = 12					; size = 4
_length$ = 16						; size = 4
_Cmd_GetGamesList PROC					; COMDAT

; 569  : {

	push	ebp
	mov	ebp, esp
	mov	eax, 131856				; 00020310H
	call	__chkstk
	mov	eax, DWORD PTR ___security_cookie
	xor	eax, ebp
	mov	DWORD PTR __$ArrayPad$[ebp], eax
	push	ebx
	push	esi
	push	edi

; 570  : 	int	i, numgamedirs;
; 571  : 	string	gamedirs[MAX_MODS];
; 572  : 	string	matchbuf;
; 573  : 
; 574  : 	// stand-alone games doesn't have cmd "game"
; 575  : 	if( !Cmd_Exists( "game" ))

	push	OFFSET ??_C@_04MJNAPEEI@game@
	call	_Cmd_Exists
	add	esp, 4
	test	eax, eax
	jne	SHORT $LN11@Cmd_GetGam

; 576  : 		return false;

	xor	eax, eax
	jmp	$LN1@Cmd_GetGam
$LN11@Cmd_GetGam:

; 577  : 
; 578  : 	// compare gamelist with current keyword
; 579  : 	for( i = 0, numgamedirs = 0; i < SI.numgames; i++ )

	mov	DWORD PTR _i$[ebp], 0
	mov	DWORD PTR _numgamedirs$[ebp], 0
	jmp	SHORT $LN4@Cmd_GetGam
$LN2@Cmd_GetGam:
	mov	eax, DWORD PTR _i$[ebp]
	add	eax, 1
	mov	DWORD PTR _i$[ebp], eax
$LN4@Cmd_GetGam:
	mov	eax, DWORD PTR _i$[ebp]
	cmp	eax, DWORD PTR _SI+2820
	jge	SHORT $LN3@Cmd_GetGam

; 580  : 	{
; 581  : 		if(( *s == '*' ) || !Q_strnicmp( SI.games[i]->gamefolder, s, Q_strlen( s )))

	mov	eax, DWORD PTR _s$[ebp]
	movsx	ecx, BYTE PTR [eax]
	cmp	ecx, 42					; 0000002aH
	je	SHORT $LN13@Cmd_GetGam
	mov	eax, DWORD PTR _s$[ebp]
	push	eax
	call	_Q_strlen
	add	esp, 4
	push	eax
	mov	ecx, DWORD PTR _s$[ebp]
	push	ecx
	mov	edx, DWORD PTR _i$[ebp]
	mov	eax, DWORD PTR _SI[edx*4+772]
	push	eax
	call	_Q_strnicmp
	add	esp, 12					; 0000000cH
	test	eax, eax
	jne	SHORT $LN12@Cmd_GetGam
$LN13@Cmd_GetGam:

; 582  : 			Q_strcpy( gamedirs[numgamedirs++], SI.games[i]->gamefolder ); 

	mov	eax, DWORD PTR _numgamedirs$[ebp]
	shl	eax, 8
	lea	ecx, DWORD PTR _gamedirs$[ebp+eax]
	mov	DWORD PTR tv90[ebp], ecx
	push	99999					; 0001869fH
	mov	edx, DWORD PTR _i$[ebp]
	mov	eax, DWORD PTR _SI[edx*4+772]
	push	eax
	mov	ecx, DWORD PTR tv90[ebp]
	push	ecx
	call	_Q_strncpy
	add	esp, 12					; 0000000cH
	mov	edx, DWORD PTR _numgamedirs$[ebp]
	add	edx, 1
	mov	DWORD PTR _numgamedirs$[ebp], edx
$LN12@Cmd_GetGam:

; 583  : 	}

	jmp	$LN2@Cmd_GetGam
$LN3@Cmd_GetGam:

; 584  : 
; 585  : 	if( !numgamedirs ) return false;

	cmp	DWORD PTR _numgamedirs$[ebp], 0
	jne	SHORT $LN14@Cmd_GetGam
	xor	eax, eax
	jmp	$LN1@Cmd_GetGam
$LN14@Cmd_GetGam:

; 586  : 	Q_strncpy( matchbuf, gamedirs[0], MAX_STRING ); 

	push	256					; 00000100H
	mov	eax, 256				; 00000100H
	imul	ecx, eax, 0
	lea	edx, DWORD PTR _gamedirs$[ebp+ecx]
	push	edx
	lea	eax, DWORD PTR _matchbuf$[ebp]
	push	eax
	call	_Q_strncpy
	add	esp, 12					; 0000000cH

; 587  : 	if( completedname && length )

	cmp	DWORD PTR _completedname$[ebp], 0
	je	SHORT $LN15@Cmd_GetGam
	cmp	DWORD PTR _length$[ebp], 0
	je	SHORT $LN15@Cmd_GetGam

; 588  : 		Q_strncpy( completedname, matchbuf, length );

	mov	eax, DWORD PTR _length$[ebp]
	push	eax
	lea	ecx, DWORD PTR _matchbuf$[ebp]
	push	ecx
	mov	edx, DWORD PTR _completedname$[ebp]
	push	edx
	call	_Q_strncpy
	add	esp, 12					; 0000000cH
$LN15@Cmd_GetGam:

; 589  : 	if( numgamedirs == 1 ) return true;

	cmp	DWORD PTR _numgamedirs$[ebp], 1
	jne	SHORT $LN16@Cmd_GetGam
	mov	eax, 1
	jmp	$LN1@Cmd_GetGam
$LN16@Cmd_GetGam:

; 590  : 
; 591  : 	for( i = 0; i < numgamedirs; i++ )

	mov	DWORD PTR _i$[ebp], 0
	jmp	SHORT $LN7@Cmd_GetGam
$LN5@Cmd_GetGam:
	mov	eax, DWORD PTR _i$[ebp]
	add	eax, 1
	mov	DWORD PTR _i$[ebp], eax
$LN7@Cmd_GetGam:
	mov	eax, DWORD PTR _i$[ebp]
	cmp	eax, DWORD PTR _numgamedirs$[ebp]
	jge	SHORT $LN6@Cmd_GetGam

; 592  : 	{
; 593  : 		Q_strncpy( matchbuf, gamedirs[i], MAX_STRING ); 

	push	256					; 00000100H
	mov	eax, DWORD PTR _i$[ebp]
	shl	eax, 8
	lea	ecx, DWORD PTR _gamedirs$[ebp+eax]
	push	ecx
	lea	edx, DWORD PTR _matchbuf$[ebp]
	push	edx
	call	_Q_strncpy
	add	esp, 12					; 0000000cH

; 594  : 		Con_Printf( "%16s\n", matchbuf );

	lea	eax, DWORD PTR _matchbuf$[ebp]
	push	eax
	push	OFFSET ??_C@_05PMAFMCBB@?$CF16s?6@
	call	_Con_Printf
	add	esp, 8

; 595  : 	}

	jmp	SHORT $LN5@Cmd_GetGam
$LN6@Cmd_GetGam:

; 596  : 
; 597  : 	Con_Printf( "\n^3 %i games found.\n", numgamedirs );

	mov	eax, DWORD PTR _numgamedirs$[ebp]
	push	eax
	push	OFFSET ??_C@_0BF@JGEEIMNB@?6?$FO3?5?$CFi?5games?5found?4?6@
	call	_Con_Printf
	add	esp, 8

; 598  : 
; 599  : 	// cut shortestMatch to the amount common with s
; 600  : 	if( completedname && length )

	cmp	DWORD PTR _completedname$[ebp], 0
	je	SHORT $LN17@Cmd_GetGam
	cmp	DWORD PTR _length$[ebp], 0
	je	SHORT $LN17@Cmd_GetGam

; 601  : 	{
; 602  : 		for( i = 0; matchbuf[i]; i++ )

	mov	DWORD PTR _i$[ebp], 0
	jmp	SHORT $LN10@Cmd_GetGam
$LN8@Cmd_GetGam:
	mov	eax, DWORD PTR _i$[ebp]
	add	eax, 1
	mov	DWORD PTR _i$[ebp], eax
$LN10@Cmd_GetGam:
	mov	eax, DWORD PTR _i$[ebp]
	movsx	ecx, BYTE PTR _matchbuf$[ebp+eax]
	test	ecx, ecx
	je	SHORT $LN17@Cmd_GetGam

; 603  : 		{
; 604  : 			if( Q_tolower( completedname[i] ) != Q_tolower( matchbuf[i] ))

	mov	eax, DWORD PTR _completedname$[ebp]
	add	eax, DWORD PTR _i$[ebp]
	movzx	ecx, BYTE PTR [eax]
	push	ecx
	call	_Q_tolower
	add	esp, 4
	movsx	esi, al
	mov	edx, DWORD PTR _i$[ebp]
	movzx	eax, BYTE PTR _matchbuf$[ebp+edx]
	push	eax
	call	_Q_tolower
	add	esp, 4
	movsx	ecx, al
	cmp	esi, ecx
	je	SHORT $LN18@Cmd_GetGam

; 605  : 				completedname[i] = 0;

	mov	eax, DWORD PTR _completedname$[ebp]
	add	eax, DWORD PTR _i$[ebp]
	mov	BYTE PTR [eax], 0
$LN18@Cmd_GetGam:

; 606  : 		}

	jmp	SHORT $LN8@Cmd_GetGam
$LN17@Cmd_GetGam:

; 607  : 	}
; 608  : 	return true;

	mov	eax, 1
$LN1@Cmd_GetGam:

; 609  : }

	pop	edi
	pop	esi
	pop	ebx
	mov	ecx, DWORD PTR __$ArrayPad$[ebp]
	xor	ecx, ebp
	call	@__security_check_cookie@4
	mov	esp, ebp
	pop	ebp
	ret	0
_Cmd_GetGamesList ENDP
_TEXT	ENDS
; Function compile flags: /Odtp /ZI
; File D:\DevDragon\XashFE\dev\src\engine\common\con_utils.c
;	COMDAT _Cmd_GetCustomList
_TEXT	SEGMENT
_numitems$ = -272					; size = 4
_i$ = -268						; size = 4
_matchbuf$ = -264					; size = 256
_t$ = -8						; size = 4
__$ArrayPad$ = -4					; size = 4
_s$ = 8							; size = 4
_completedname$ = 12					; size = 4
_length$ = 16						; size = 4
_Cmd_GetCustomList PROC					; COMDAT

; 523  : {

	push	ebp
	mov	ebp, esp
	sub	esp, 336				; 00000150H
	mov	eax, DWORD PTR ___security_cookie
	xor	eax, ebp
	mov	DWORD PTR __$ArrayPad$[ebp], eax
	push	ebx
	push	esi
	push	edi

; 524  : 	search_t		*t;
; 525  : 	string		matchbuf;
; 526  : 	int		i, numitems;
; 527  : 
; 528  : 	t = FS_Search( va( "%s*.hpk", s ), true, false );

	push	0
	push	1
	mov	eax, DWORD PTR _s$[ebp]
	push	eax
	push	OFFSET ??_C@_07CGHDEPH@?$CFs?$CK?4hpk@
	call	_va
	add	esp, 8
	push	eax
	call	_FS_Search
	add	esp, 12					; 0000000cH
	mov	DWORD PTR _t$[ebp], eax

; 529  : 	if( !t ) return false;

	cmp	DWORD PTR _t$[ebp], 0
	jne	SHORT $LN8@Cmd_GetCus
	xor	eax, eax
	jmp	$LN1@Cmd_GetCus
$LN8@Cmd_GetCus:

; 530  : 
; 531  : 	COM_FileBase( t->filenames[0], matchbuf ); 

	lea	eax, DWORD PTR _matchbuf$[ebp]
	push	eax
	mov	ecx, 4
	imul	edx, ecx, 0
	mov	eax, DWORD PTR _t$[ebp]
	mov	ecx, DWORD PTR [eax+4]
	mov	edx, DWORD PTR [ecx+edx]
	push	edx
	call	_COM_FileBase
	add	esp, 8

; 532  : 	if( completedname && length )

	cmp	DWORD PTR _completedname$[ebp], 0
	je	SHORT $LN9@Cmd_GetCus
	cmp	DWORD PTR _length$[ebp], 0
	je	SHORT $LN9@Cmd_GetCus

; 533  : 		Q_strncpy( completedname, matchbuf, length );

	mov	eax, DWORD PTR _length$[ebp]
	push	eax
	lea	ecx, DWORD PTR _matchbuf$[ebp]
	push	ecx
	mov	edx, DWORD PTR _completedname$[ebp]
	push	edx
	call	_Q_strncpy
	add	esp, 12					; 0000000cH
$LN9@Cmd_GetCus:

; 534  : 	if( t->numfilenames == 1 ) return true;

	mov	eax, DWORD PTR _t$[ebp]
	cmp	DWORD PTR [eax], 1
	jne	SHORT $LN10@Cmd_GetCus
	mov	eax, 1
	jmp	$LN1@Cmd_GetCus
$LN10@Cmd_GetCus:

; 535  : 
; 536  : 	for(i = 0, numitems = 0; i < t->numfilenames; i++)

	mov	DWORD PTR _i$[ebp], 0
	mov	DWORD PTR _numitems$[ebp], 0
	jmp	SHORT $LN4@Cmd_GetCus
$LN2@Cmd_GetCus:
	mov	eax, DWORD PTR _i$[ebp]
	add	eax, 1
	mov	DWORD PTR _i$[ebp], eax
$LN4@Cmd_GetCus:
	mov	eax, DWORD PTR _t$[ebp]
	mov	ecx, DWORD PTR _i$[ebp]
	cmp	ecx, DWORD PTR [eax]
	jge	SHORT $LN3@Cmd_GetCus

; 537  : 	{
; 538  : 		if( Q_stricmp( COM_FileExtension( t->filenames[i] ), "hpk" ))

	push	99999					; 0001869fH
	push	OFFSET ??_C@_03PCNBCFDD@hpk@
	mov	eax, DWORD PTR _t$[ebp]
	mov	ecx, DWORD PTR [eax+4]
	mov	edx, DWORD PTR _i$[ebp]
	mov	eax, DWORD PTR [ecx+edx*4]
	push	eax
	call	_COM_FileExtension
	add	esp, 4
	push	eax
	call	_Q_strnicmp
	add	esp, 12					; 0000000cH
	test	eax, eax
	je	SHORT $LN11@Cmd_GetCus

; 539  : 			continue;

	jmp	SHORT $LN2@Cmd_GetCus
$LN11@Cmd_GetCus:

; 540  : 
; 541  : 		COM_FileBase( t->filenames[i], matchbuf );

	lea	eax, DWORD PTR _matchbuf$[ebp]
	push	eax
	mov	ecx, DWORD PTR _t$[ebp]
	mov	edx, DWORD PTR [ecx+4]
	mov	eax, DWORD PTR _i$[ebp]
	mov	ecx, DWORD PTR [edx+eax*4]
	push	ecx
	call	_COM_FileBase
	add	esp, 8

; 542  : 		Con_Printf( "%16s\n", matchbuf );

	lea	eax, DWORD PTR _matchbuf$[ebp]
	push	eax
	push	OFFSET ??_C@_05PMAFMCBB@?$CF16s?6@
	call	_Con_Printf
	add	esp, 8

; 543  : 		numitems++;

	mov	eax, DWORD PTR _numitems$[ebp]
	add	eax, 1
	mov	DWORD PTR _numitems$[ebp], eax

; 544  : 	}

	jmp	$LN2@Cmd_GetCus
$LN3@Cmd_GetCus:

; 545  : 
; 546  : 	Con_Printf( "\n^3 %i items found.\n", numitems );

	mov	eax, DWORD PTR _numitems$[ebp]
	push	eax
	push	OFFSET ??_C@_0BF@EIDIFLCD@?6?$FO3?5?$CFi?5items?5found?4?6@
	call	_Con_Printf
	add	esp, 8

; 547  : 	Mem_Free( t );

	mov	eax, DWORD PTR ?__LINE__Var@?0??Cmd_GetCustomList@@9@9
	add	eax, 24					; 00000018H
	push	eax
	push	OFFSET ??_C@_0DG@HHLKLKJI@D?3?2DevDragon?2XashFE?2dev?2src?2eng@
	mov	ecx, DWORD PTR _t$[ebp]
	push	ecx
	call	__Mem_Free
	add	esp, 12					; 0000000cH

; 548  : 
; 549  : 	// cut shortestMatch to the amount common with s
; 550  : 	if( completedname && length )

	cmp	DWORD PTR _completedname$[ebp], 0
	je	SHORT $LN12@Cmd_GetCus
	cmp	DWORD PTR _length$[ebp], 0
	je	SHORT $LN12@Cmd_GetCus

; 551  : 	{
; 552  : 		for( i = 0; matchbuf[i]; i++ )

	mov	DWORD PTR _i$[ebp], 0
	jmp	SHORT $LN7@Cmd_GetCus
$LN5@Cmd_GetCus:
	mov	eax, DWORD PTR _i$[ebp]
	add	eax, 1
	mov	DWORD PTR _i$[ebp], eax
$LN7@Cmd_GetCus:
	mov	eax, DWORD PTR _i$[ebp]
	movsx	ecx, BYTE PTR _matchbuf$[ebp+eax]
	test	ecx, ecx
	je	SHORT $LN12@Cmd_GetCus

; 553  : 		{
; 554  : 			if( Q_tolower( completedname[i] ) != Q_tolower( matchbuf[i] ))

	mov	eax, DWORD PTR _completedname$[ebp]
	add	eax, DWORD PTR _i$[ebp]
	movzx	ecx, BYTE PTR [eax]
	push	ecx
	call	_Q_tolower
	add	esp, 4
	movsx	esi, al
	mov	edx, DWORD PTR _i$[ebp]
	movzx	eax, BYTE PTR _matchbuf$[ebp+edx]
	push	eax
	call	_Q_tolower
	add	esp, 4
	movsx	ecx, al
	cmp	esi, ecx
	je	SHORT $LN13@Cmd_GetCus

; 555  : 				completedname[i] = 0;

	mov	eax, DWORD PTR _completedname$[ebp]
	add	eax, DWORD PTR _i$[ebp]
	mov	BYTE PTR [eax], 0
$LN13@Cmd_GetCus:

; 556  : 		}

	jmp	SHORT $LN5@Cmd_GetCus
$LN12@Cmd_GetCus:

; 557  : 	}
; 558  : 	return true;

	mov	eax, 1
$LN1@Cmd_GetCus:

; 559  : }

	pop	edi
	pop	esi
	pop	ebx
	mov	ecx, DWORD PTR __$ArrayPad$[ebp]
	xor	ecx, ebp
	call	@__security_check_cookie@4
	mov	esp, ebp
	pop	ebp
	ret	0
_Cmd_GetCustomList ENDP
_TEXT	ENDS
; Function compile flags: /Odtp /ZI
; File D:\DevDragon\XashFE\dev\src\engine\common\con_utils.c
;	COMDAT _Cmd_GetItemsList
_TEXT	SEGMENT
_numitems$ = -272					; size = 4
_i$ = -268						; size = 4
_matchbuf$ = -264					; size = 256
_t$ = -8						; size = 4
__$ArrayPad$ = -4					; size = 4
_s$ = 8							; size = 4
_completedname$ = 12					; size = 4
_length$ = 16						; size = 4
_Cmd_GetItemsList PROC					; COMDAT

; 476  : {

	push	ebp
	mov	ebp, esp
	sub	esp, 336				; 00000150H
	mov	eax, DWORD PTR ___security_cookie
	xor	eax, ebp
	mov	DWORD PTR __$ArrayPad$[ebp], eax
	push	ebx
	push	esi
	push	edi

; 477  : 	search_t		*t;
; 478  : 	string		matchbuf;
; 479  : 	int		i, numitems;
; 480  : 
; 481  : 	if( !clgame.itemspath[0] ) return false; // not in game yet

	mov	eax, 1
	imul	ecx, eax, 0
	movsx	edx, BYTE PTR _clgame[ecx+740]
	test	edx, edx
	jne	SHORT $LN8@Cmd_GetIte
	xor	eax, eax
	jmp	$LN1@Cmd_GetIte
$LN8@Cmd_GetIte:

; 482  : 	t = FS_Search( va( "%s/%s*.txt", clgame.itemspath, s ), true, false );

	push	0
	push	1
	mov	eax, DWORD PTR _s$[ebp]
	push	eax
	push	OFFSET _clgame+740
	push	OFFSET ??_C@_0L@GCLJLNAP@?$CFs?1?$CFs?$CK?4txt@
	call	_va
	add	esp, 12					; 0000000cH
	push	eax
	call	_FS_Search
	add	esp, 12					; 0000000cH
	mov	DWORD PTR _t$[ebp], eax

; 483  : 	if( !t ) return false;

	cmp	DWORD PTR _t$[ebp], 0
	jne	SHORT $LN9@Cmd_GetIte
	xor	eax, eax
	jmp	$LN1@Cmd_GetIte
$LN9@Cmd_GetIte:

; 484  : 
; 485  : 	COM_FileBase( t->filenames[0], matchbuf ); 

	lea	eax, DWORD PTR _matchbuf$[ebp]
	push	eax
	mov	ecx, 4
	imul	edx, ecx, 0
	mov	eax, DWORD PTR _t$[ebp]
	mov	ecx, DWORD PTR [eax+4]
	mov	edx, DWORD PTR [ecx+edx]
	push	edx
	call	_COM_FileBase
	add	esp, 8

; 486  : 	if( completedname && length )

	cmp	DWORD PTR _completedname$[ebp], 0
	je	SHORT $LN10@Cmd_GetIte
	cmp	DWORD PTR _length$[ebp], 0
	je	SHORT $LN10@Cmd_GetIte

; 487  : 		Q_strncpy( completedname, matchbuf, length );

	mov	eax, DWORD PTR _length$[ebp]
	push	eax
	lea	ecx, DWORD PTR _matchbuf$[ebp]
	push	ecx
	mov	edx, DWORD PTR _completedname$[ebp]
	push	edx
	call	_Q_strncpy
	add	esp, 12					; 0000000cH
$LN10@Cmd_GetIte:

; 488  : 	if( t->numfilenames == 1 ) return true;

	mov	eax, DWORD PTR _t$[ebp]
	cmp	DWORD PTR [eax], 1
	jne	SHORT $LN11@Cmd_GetIte
	mov	eax, 1
	jmp	$LN1@Cmd_GetIte
$LN11@Cmd_GetIte:

; 489  : 
; 490  : 	for(i = 0, numitems = 0; i < t->numfilenames; i++)

	mov	DWORD PTR _i$[ebp], 0
	mov	DWORD PTR _numitems$[ebp], 0
	jmp	SHORT $LN4@Cmd_GetIte
$LN2@Cmd_GetIte:
	mov	eax, DWORD PTR _i$[ebp]
	add	eax, 1
	mov	DWORD PTR _i$[ebp], eax
$LN4@Cmd_GetIte:
	mov	eax, DWORD PTR _t$[ebp]
	mov	ecx, DWORD PTR _i$[ebp]
	cmp	ecx, DWORD PTR [eax]
	jge	SHORT $LN3@Cmd_GetIte

; 491  : 	{
; 492  : 		if( Q_stricmp( COM_FileExtension( t->filenames[i] ), "txt" ))

	push	99999					; 0001869fH
	push	OFFSET ??_C@_03CLFHJCDC@txt@
	mov	eax, DWORD PTR _t$[ebp]
	mov	ecx, DWORD PTR [eax+4]
	mov	edx, DWORD PTR _i$[ebp]
	mov	eax, DWORD PTR [ecx+edx*4]
	push	eax
	call	_COM_FileExtension
	add	esp, 4
	push	eax
	call	_Q_strnicmp
	add	esp, 12					; 0000000cH
	test	eax, eax
	je	SHORT $LN12@Cmd_GetIte

; 493  : 			continue;

	jmp	SHORT $LN2@Cmd_GetIte
$LN12@Cmd_GetIte:

; 494  : 
; 495  : 		COM_FileBase( t->filenames[i], matchbuf );

	lea	eax, DWORD PTR _matchbuf$[ebp]
	push	eax
	mov	ecx, DWORD PTR _t$[ebp]
	mov	edx, DWORD PTR [ecx+4]
	mov	eax, DWORD PTR _i$[ebp]
	mov	ecx, DWORD PTR [edx+eax*4]
	push	ecx
	call	_COM_FileBase
	add	esp, 8

; 496  : 		Con_Printf( "%16s\n", matchbuf );

	lea	eax, DWORD PTR _matchbuf$[ebp]
	push	eax
	push	OFFSET ??_C@_05PMAFMCBB@?$CF16s?6@
	call	_Con_Printf
	add	esp, 8

; 497  : 		numitems++;

	mov	eax, DWORD PTR _numitems$[ebp]
	add	eax, 1
	mov	DWORD PTR _numitems$[ebp], eax

; 498  : 	}

	jmp	$LN2@Cmd_GetIte
$LN3@Cmd_GetIte:

; 499  : 
; 500  : 	Con_Printf( "\n^3 %i items found.\n", numitems );

	mov	eax, DWORD PTR _numitems$[ebp]
	push	eax
	push	OFFSET ??_C@_0BF@EIDIFLCD@?6?$FO3?5?$CFi?5items?5found?4?6@
	call	_Con_Printf
	add	esp, 8

; 501  : 	Mem_Free( t );

	mov	eax, DWORD PTR ?__LINE__Var@?0??Cmd_GetItemsList@@9@9
	add	eax, 25					; 00000019H
	push	eax
	push	OFFSET ??_C@_0DG@HHLKLKJI@D?3?2DevDragon?2XashFE?2dev?2src?2eng@
	mov	ecx, DWORD PTR _t$[ebp]
	push	ecx
	call	__Mem_Free
	add	esp, 12					; 0000000cH

; 502  : 
; 503  : 	// cut shortestMatch to the amount common with s
; 504  : 	if( completedname && length )

	cmp	DWORD PTR _completedname$[ebp], 0
	je	SHORT $LN13@Cmd_GetIte
	cmp	DWORD PTR _length$[ebp], 0
	je	SHORT $LN13@Cmd_GetIte

; 505  : 	{
; 506  : 		for( i = 0; matchbuf[i]; i++ )

	mov	DWORD PTR _i$[ebp], 0
	jmp	SHORT $LN7@Cmd_GetIte
$LN5@Cmd_GetIte:
	mov	eax, DWORD PTR _i$[ebp]
	add	eax, 1
	mov	DWORD PTR _i$[ebp], eax
$LN7@Cmd_GetIte:
	mov	eax, DWORD PTR _i$[ebp]
	movsx	ecx, BYTE PTR _matchbuf$[ebp+eax]
	test	ecx, ecx
	je	SHORT $LN13@Cmd_GetIte

; 507  : 		{
; 508  : 			if( Q_tolower( completedname[i] ) != Q_tolower( matchbuf[i] ))

	mov	eax, DWORD PTR _completedname$[ebp]
	add	eax, DWORD PTR _i$[ebp]
	movzx	ecx, BYTE PTR [eax]
	push	ecx
	call	_Q_tolower
	add	esp, 4
	movsx	esi, al
	mov	edx, DWORD PTR _i$[ebp]
	movzx	eax, BYTE PTR _matchbuf$[ebp+edx]
	push	eax
	call	_Q_tolower
	add	esp, 4
	movsx	ecx, al
	cmp	esi, ecx
	je	SHORT $LN14@Cmd_GetIte

; 509  : 				completedname[i] = 0;

	mov	eax, DWORD PTR _completedname$[ebp]
	add	eax, DWORD PTR _i$[ebp]
	mov	BYTE PTR [eax], 0
$LN14@Cmd_GetIte:

; 510  : 		}

	jmp	SHORT $LN5@Cmd_GetIte
$LN13@Cmd_GetIte:

; 511  : 	}
; 512  : 	return true;

	mov	eax, 1
$LN1@Cmd_GetIte:

; 513  : }

	pop	edi
	pop	esi
	pop	ebx
	mov	ecx, DWORD PTR __$ArrayPad$[ebp]
	xor	ecx, ebp
	call	@__security_check_cookie@4
	mov	esp, ebp
	pop	ebp
	ret	0
_Cmd_GetItemsList ENDP
_TEXT	ENDS
; Function compile flags: /Odtp /ZI
; File D:\DevDragon\XashFE\dev\src\engine\common\con_utils.c
;	COMDAT _Cmd_GetSoundList
_TEXT	SEGMENT
_ext$1 = -276						; size = 4
_numsounds$ = -272					; size = 4
_i$ = -268						; size = 4
_matchbuf$ = -264					; size = 256
_t$ = -8						; size = 4
__$ArrayPad$ = -4					; size = 4
_s$ = 8							; size = 4
_completedname$ = 12					; size = 4
_length$ = 16						; size = 4
_Cmd_GetSoundList PROC					; COMDAT

; 425  : {

	push	ebp
	mov	ebp, esp
	sub	esp, 340				; 00000154H
	mov	eax, DWORD PTR ___security_cookie
	xor	eax, ebp
	mov	DWORD PTR __$ArrayPad$[ebp], eax
	push	ebx
	push	esi
	push	edi

; 426  : 	search_t		*t;
; 427  : 	string		matchbuf;
; 428  : 	int		i, numsounds;
; 429  : 
; 430  : 	t = FS_Search( va( "%s%s*.*", DEFAULT_SOUNDPATH, s ), true, false );

	push	0
	push	1
	mov	eax, DWORD PTR _s$[ebp]
	push	eax
	push	OFFSET ??_C@_06PBLIODKG@sound?1@
	push	OFFSET ??_C@_07INOPGABA@?$CFs?$CFs?$CK?4?$CK@
	call	_va
	add	esp, 12					; 0000000cH
	push	eax
	call	_FS_Search
	add	esp, 12					; 0000000cH
	mov	DWORD PTR _t$[ebp], eax

; 431  : 	if( !t ) return false;

	cmp	DWORD PTR _t$[ebp], 0
	jne	SHORT $LN8@Cmd_GetSou
	xor	eax, eax
	jmp	$LN1@Cmd_GetSou
$LN8@Cmd_GetSou:

; 432  : 
; 433  : 	Q_strncpy( matchbuf, t->filenames[0] + Q_strlen( DEFAULT_SOUNDPATH ), MAX_STRING ); 

	push	256					; 00000100H
	mov	eax, 4
	imul	esi, eax, 0
	mov	ecx, DWORD PTR _t$[ebp]
	mov	edi, DWORD PTR [ecx+4]
	push	OFFSET ??_C@_06PBLIODKG@sound?1@
	call	_Q_strlen
	add	esp, 4
	add	eax, DWORD PTR [edi+esi]
	push	eax
	lea	edx, DWORD PTR _matchbuf$[ebp]
	push	edx
	call	_Q_strncpy
	add	esp, 12					; 0000000cH

; 434  : 	COM_StripExtension( matchbuf ); 

	lea	eax, DWORD PTR _matchbuf$[ebp]
	push	eax
	call	_COM_StripExtension
	add	esp, 4

; 435  : 	if( completedname && length )

	cmp	DWORD PTR _completedname$[ebp], 0
	je	SHORT $LN9@Cmd_GetSou
	cmp	DWORD PTR _length$[ebp], 0
	je	SHORT $LN9@Cmd_GetSou

; 436  : 		Q_strncpy( completedname, matchbuf, length );

	mov	eax, DWORD PTR _length$[ebp]
	push	eax
	lea	ecx, DWORD PTR _matchbuf$[ebp]
	push	ecx
	mov	edx, DWORD PTR _completedname$[ebp]
	push	edx
	call	_Q_strncpy
	add	esp, 12					; 0000000cH
$LN9@Cmd_GetSou:

; 437  : 	if( t->numfilenames == 1 ) return true;

	mov	eax, DWORD PTR _t$[ebp]
	cmp	DWORD PTR [eax], 1
	jne	SHORT $LN10@Cmd_GetSou
	mov	eax, 1
	jmp	$LN1@Cmd_GetSou
$LN10@Cmd_GetSou:

; 438  : 
; 439  : 	for(i = 0, numsounds = 0; i < t->numfilenames; i++)

	mov	DWORD PTR _i$[ebp], 0
	mov	DWORD PTR _numsounds$[ebp], 0
	jmp	SHORT $LN4@Cmd_GetSou
$LN2@Cmd_GetSou:
	mov	eax, DWORD PTR _i$[ebp]
	add	eax, 1
	mov	DWORD PTR _i$[ebp], eax
$LN4@Cmd_GetSou:
	mov	eax, DWORD PTR _t$[ebp]
	mov	ecx, DWORD PTR _i$[ebp]
	cmp	ecx, DWORD PTR [eax]
	jge	$LN3@Cmd_GetSou

; 440  : 	{
; 441  : 		const char *ext = COM_FileExtension( t->filenames[i] ); 

	mov	eax, DWORD PTR _t$[ebp]
	mov	ecx, DWORD PTR [eax+4]
	mov	edx, DWORD PTR _i$[ebp]
	mov	eax, DWORD PTR [ecx+edx*4]
	push	eax
	call	_COM_FileExtension
	add	esp, 4
	mov	DWORD PTR _ext$1[ebp], eax

; 442  : 
; 443  : 		if( Q_stricmp( ext, "wav" ) && Q_stricmp( ext, "mp3" ))

	push	99999					; 0001869fH
	push	OFFSET ??_C@_03BICDMHKB@wav@
	mov	eax, DWORD PTR _ext$1[ebp]
	push	eax
	call	_Q_strnicmp
	add	esp, 12					; 0000000cH
	test	eax, eax
	je	SHORT $LN11@Cmd_GetSou
	push	99999					; 0001869fH
	push	OFFSET ??_C@_03LHGNACFN@mp3@
	mov	eax, DWORD PTR _ext$1[ebp]
	push	eax
	call	_Q_strnicmp
	add	esp, 12					; 0000000cH
	test	eax, eax
	je	SHORT $LN11@Cmd_GetSou

; 444  : 			continue;

	jmp	SHORT $LN2@Cmd_GetSou
$LN11@Cmd_GetSou:

; 445  : 
; 446  : 		Q_strncpy( matchbuf, t->filenames[i] + Q_strlen( DEFAULT_SOUNDPATH ), MAX_STRING ); 

	push	256					; 00000100H
	mov	eax, DWORD PTR _t$[ebp]
	mov	esi, DWORD PTR [eax+4]
	push	OFFSET ??_C@_06PBLIODKG@sound?1@
	call	_Q_strlen
	add	esp, 4
	mov	ecx, DWORD PTR _i$[ebp]
	add	eax, DWORD PTR [esi+ecx*4]
	push	eax
	lea	edx, DWORD PTR _matchbuf$[ebp]
	push	edx
	call	_Q_strncpy
	add	esp, 12					; 0000000cH

; 447  : 		COM_StripExtension( matchbuf );

	lea	eax, DWORD PTR _matchbuf$[ebp]
	push	eax
	call	_COM_StripExtension
	add	esp, 4

; 448  : 		Con_Printf( "%16s\n", matchbuf );

	lea	eax, DWORD PTR _matchbuf$[ebp]
	push	eax
	push	OFFSET ??_C@_05PMAFMCBB@?$CF16s?6@
	call	_Con_Printf
	add	esp, 8

; 449  : 		numsounds++;

	mov	eax, DWORD PTR _numsounds$[ebp]
	add	eax, 1
	mov	DWORD PTR _numsounds$[ebp], eax

; 450  : 	}

	jmp	$LN2@Cmd_GetSou
$LN3@Cmd_GetSou:

; 451  : 
; 452  : 	Con_Printf( "\n^3 %i sounds found.\n", numsounds );

	mov	eax, DWORD PTR _numsounds$[ebp]
	push	eax
	push	OFFSET ??_C@_0BG@NNHFMCOI@?6?$FO3?5?$CFi?5sounds?5found?4?6@
	call	_Con_Printf
	add	esp, 8

; 453  : 	Mem_Free( t );

	mov	eax, DWORD PTR ?__LINE__Var@?0??Cmd_GetSoundList@@9@9
	add	eax, 28					; 0000001cH
	push	eax
	push	OFFSET ??_C@_0DG@HHLKLKJI@D?3?2DevDragon?2XashFE?2dev?2src?2eng@
	mov	ecx, DWORD PTR _t$[ebp]
	push	ecx
	call	__Mem_Free
	add	esp, 12					; 0000000cH

; 454  : 
; 455  : 	// cut shortestMatch to the amount common with s
; 456  : 	if( completedname && length )

	cmp	DWORD PTR _completedname$[ebp], 0
	je	SHORT $LN12@Cmd_GetSou
	cmp	DWORD PTR _length$[ebp], 0
	je	SHORT $LN12@Cmd_GetSou

; 457  : 	{
; 458  : 		for( i = 0; matchbuf[i]; i++ )

	mov	DWORD PTR _i$[ebp], 0
	jmp	SHORT $LN7@Cmd_GetSou
$LN5@Cmd_GetSou:
	mov	eax, DWORD PTR _i$[ebp]
	add	eax, 1
	mov	DWORD PTR _i$[ebp], eax
$LN7@Cmd_GetSou:
	mov	eax, DWORD PTR _i$[ebp]
	movsx	ecx, BYTE PTR _matchbuf$[ebp+eax]
	test	ecx, ecx
	je	SHORT $LN12@Cmd_GetSou

; 459  : 		{
; 460  : 			if( Q_tolower( completedname[i] ) != Q_tolower( matchbuf[i] ))

	mov	eax, DWORD PTR _completedname$[ebp]
	add	eax, DWORD PTR _i$[ebp]
	movzx	ecx, BYTE PTR [eax]
	push	ecx
	call	_Q_tolower
	add	esp, 4
	movsx	esi, al
	mov	edx, DWORD PTR _i$[ebp]
	movzx	eax, BYTE PTR _matchbuf$[ebp+edx]
	push	eax
	call	_Q_tolower
	add	esp, 4
	movsx	ecx, al
	cmp	esi, ecx
	je	SHORT $LN13@Cmd_GetSou

; 461  : 				completedname[i] = 0;

	mov	eax, DWORD PTR _completedname$[ebp]
	add	eax, DWORD PTR _i$[ebp]
	mov	BYTE PTR [eax], 0
$LN13@Cmd_GetSou:

; 462  : 		}

	jmp	SHORT $LN5@Cmd_GetSou
$LN12@Cmd_GetSou:

; 463  : 	}
; 464  : 
; 465  : 	return true;

	mov	eax, 1
$LN1@Cmd_GetSou:

; 466  : }

	pop	edi
	pop	esi
	pop	ebx
	mov	ecx, DWORD PTR __$ArrayPad$[ebp]
	xor	ecx, ebp
	call	@__security_check_cookie@4
	mov	esp, ebp
	pop	ebp
	ret	0
_Cmd_GetSoundList ENDP
_TEXT	ENDS
; Function compile flags: /Odtp /ZI
; File D:\DevDragon\XashFE\dev\src\engine\common\con_utils.c
;	COMDAT _Cmd_GetConfigList
_TEXT	SEGMENT
_numconfigs$ = -272					; size = 4
_i$ = -268						; size = 4
_matchbuf$ = -264					; size = 256
_t$ = -8						; size = 4
__$ArrayPad$ = -4					; size = 4
_s$ = 8							; size = 4
_completedname$ = 12					; size = 4
_length$ = 16						; size = 4
_Cmd_GetConfigList PROC					; COMDAT

; 378  : {

	push	ebp
	mov	ebp, esp
	sub	esp, 336				; 00000150H
	mov	eax, DWORD PTR ___security_cookie
	xor	eax, ebp
	mov	DWORD PTR __$ArrayPad$[ebp], eax
	push	ebx
	push	esi
	push	edi

; 379  : 	search_t		*t;
; 380  : 	string		matchbuf;
; 381  : 	int		i, numconfigs;
; 382  : 
; 383  : 	t = FS_Search( va( "%s*.cfg", s ), true, false );

	push	0
	push	1
	mov	eax, DWORD PTR _s$[ebp]
	push	eax
	push	OFFSET ??_C@_07GBHICDDI@?$CFs?$CK?4cfg@
	call	_va
	add	esp, 8
	push	eax
	call	_FS_Search
	add	esp, 12					; 0000000cH
	mov	DWORD PTR _t$[ebp], eax

; 384  : 	if( !t ) return false;

	cmp	DWORD PTR _t$[ebp], 0
	jne	SHORT $LN8@Cmd_GetCon
	xor	eax, eax
	jmp	$LN1@Cmd_GetCon
$LN8@Cmd_GetCon:

; 385  : 
; 386  : 	COM_FileBase( t->filenames[0], matchbuf ); 

	lea	eax, DWORD PTR _matchbuf$[ebp]
	push	eax
	mov	ecx, 4
	imul	edx, ecx, 0
	mov	eax, DWORD PTR _t$[ebp]
	mov	ecx, DWORD PTR [eax+4]
	mov	edx, DWORD PTR [ecx+edx]
	push	edx
	call	_COM_FileBase
	add	esp, 8

; 387  : 	if( completedname && length )

	cmp	DWORD PTR _completedname$[ebp], 0
	je	SHORT $LN9@Cmd_GetCon
	cmp	DWORD PTR _length$[ebp], 0
	je	SHORT $LN9@Cmd_GetCon

; 388  : 		Q_strncpy( completedname, matchbuf, length );

	mov	eax, DWORD PTR _length$[ebp]
	push	eax
	lea	ecx, DWORD PTR _matchbuf$[ebp]
	push	ecx
	mov	edx, DWORD PTR _completedname$[ebp]
	push	edx
	call	_Q_strncpy
	add	esp, 12					; 0000000cH
$LN9@Cmd_GetCon:

; 389  : 	if( t->numfilenames == 1 ) return true;

	mov	eax, DWORD PTR _t$[ebp]
	cmp	DWORD PTR [eax], 1
	jne	SHORT $LN10@Cmd_GetCon
	mov	eax, 1
	jmp	$LN1@Cmd_GetCon
$LN10@Cmd_GetCon:

; 390  : 
; 391  : 	for( i = 0, numconfigs = 0; i < t->numfilenames; i++ )

	mov	DWORD PTR _i$[ebp], 0
	mov	DWORD PTR _numconfigs$[ebp], 0
	jmp	SHORT $LN4@Cmd_GetCon
$LN2@Cmd_GetCon:
	mov	eax, DWORD PTR _i$[ebp]
	add	eax, 1
	mov	DWORD PTR _i$[ebp], eax
$LN4@Cmd_GetCon:
	mov	eax, DWORD PTR _t$[ebp]
	mov	ecx, DWORD PTR _i$[ebp]
	cmp	ecx, DWORD PTR [eax]
	jge	SHORT $LN3@Cmd_GetCon

; 392  : 	{
; 393  : 		if( Q_stricmp( COM_FileExtension( t->filenames[i] ), "cfg" ))

	push	99999					; 0001869fH
	push	OFFSET ??_C@_03JBMODCPM@cfg@
	mov	eax, DWORD PTR _t$[ebp]
	mov	ecx, DWORD PTR [eax+4]
	mov	edx, DWORD PTR _i$[ebp]
	mov	eax, DWORD PTR [ecx+edx*4]
	push	eax
	call	_COM_FileExtension
	add	esp, 4
	push	eax
	call	_Q_strnicmp
	add	esp, 12					; 0000000cH
	test	eax, eax
	je	SHORT $LN11@Cmd_GetCon

; 394  : 			continue;

	jmp	SHORT $LN2@Cmd_GetCon
$LN11@Cmd_GetCon:

; 395  : 
; 396  : 		COM_FileBase( t->filenames[i], matchbuf );

	lea	eax, DWORD PTR _matchbuf$[ebp]
	push	eax
	mov	ecx, DWORD PTR _t$[ebp]
	mov	edx, DWORD PTR [ecx+4]
	mov	eax, DWORD PTR _i$[ebp]
	mov	ecx, DWORD PTR [edx+eax*4]
	push	ecx
	call	_COM_FileBase
	add	esp, 8

; 397  : 		Con_Printf( "%16s\n", matchbuf );

	lea	eax, DWORD PTR _matchbuf$[ebp]
	push	eax
	push	OFFSET ??_C@_05PMAFMCBB@?$CF16s?6@
	call	_Con_Printf
	add	esp, 8

; 398  : 		numconfigs++;

	mov	eax, DWORD PTR _numconfigs$[ebp]
	add	eax, 1
	mov	DWORD PTR _numconfigs$[ebp], eax

; 399  : 	}

	jmp	$LN2@Cmd_GetCon
$LN3@Cmd_GetCon:

; 400  : 
; 401  : 	Con_Printf( "\n^3 %i configs found.\n", numconfigs );

	mov	eax, DWORD PTR _numconfigs$[ebp]
	push	eax
	push	OFFSET ??_C@_0BH@IKMLIICG@?6?$FO3?5?$CFi?5configs?5found?4?6@
	call	_Con_Printf
	add	esp, 8

; 402  : 	Mem_Free( t );

	mov	eax, DWORD PTR ?__LINE__Var@?0??Cmd_GetConfigList@@9@9
	add	eax, 24					; 00000018H
	push	eax
	push	OFFSET ??_C@_0DG@HHLKLKJI@D?3?2DevDragon?2XashFE?2dev?2src?2eng@
	mov	ecx, DWORD PTR _t$[ebp]
	push	ecx
	call	__Mem_Free
	add	esp, 12					; 0000000cH

; 403  : 
; 404  : 	// cut shortestMatch to the amount common with s
; 405  : 	if( completedname && length )

	cmp	DWORD PTR _completedname$[ebp], 0
	je	SHORT $LN12@Cmd_GetCon
	cmp	DWORD PTR _length$[ebp], 0
	je	SHORT $LN12@Cmd_GetCon

; 406  : 	{
; 407  : 		for( i = 0; matchbuf[i]; i++ )

	mov	DWORD PTR _i$[ebp], 0
	jmp	SHORT $LN7@Cmd_GetCon
$LN5@Cmd_GetCon:
	mov	eax, DWORD PTR _i$[ebp]
	add	eax, 1
	mov	DWORD PTR _i$[ebp], eax
$LN7@Cmd_GetCon:
	mov	eax, DWORD PTR _i$[ebp]
	movsx	ecx, BYTE PTR _matchbuf$[ebp+eax]
	test	ecx, ecx
	je	SHORT $LN12@Cmd_GetCon

; 408  : 		{
; 409  : 			if( Q_tolower( completedname[i] ) != Q_tolower( matchbuf[i] ))

	mov	eax, DWORD PTR _completedname$[ebp]
	add	eax, DWORD PTR _i$[ebp]
	movzx	ecx, BYTE PTR [eax]
	push	ecx
	call	_Q_tolower
	add	esp, 4
	movsx	esi, al
	mov	edx, DWORD PTR _i$[ebp]
	movzx	eax, BYTE PTR _matchbuf$[ebp+edx]
	push	eax
	call	_Q_tolower
	add	esp, 4
	movsx	ecx, al
	cmp	esi, ecx
	je	SHORT $LN13@Cmd_GetCon

; 410  : 				completedname[i] = 0;

	mov	eax, DWORD PTR _completedname$[ebp]
	add	eax, DWORD PTR _i$[ebp]
	mov	BYTE PTR [eax], 0
$LN13@Cmd_GetCon:

; 411  : 		}

	jmp	SHORT $LN5@Cmd_GetCon
$LN12@Cmd_GetCon:

; 412  : 	}
; 413  : 
; 414  : 	return true;

	mov	eax, 1
$LN1@Cmd_GetCon:

; 415  : }

	pop	edi
	pop	esi
	pop	ebx
	mov	ecx, DWORD PTR __$ArrayPad$[ebp]
	xor	ecx, ebp
	call	@__security_check_cookie@4
	mov	esp, ebp
	pop	ebp
	ret	0
_Cmd_GetConfigList ENDP
_TEXT	ENDS
; Function compile flags: /Odtp /ZI
; File D:\DevDragon\XashFE\dev\src\engine\common\con_utils.c
;	COMDAT _Cmd_GetSavesList
_TEXT	SEGMENT
_numsaves$ = -272					; size = 4
_i$ = -268						; size = 4
_matchbuf$ = -264					; size = 256
_t$ = -8						; size = 4
__$ArrayPad$ = -4					; size = 4
_s$ = 8							; size = 4
_completedname$ = 12					; size = 4
_length$ = 16						; size = 4
_Cmd_GetSavesList PROC					; COMDAT

; 331  : {

	push	ebp
	mov	ebp, esp
	sub	esp, 336				; 00000150H
	mov	eax, DWORD PTR ___security_cookie
	xor	eax, ebp
	mov	DWORD PTR __$ArrayPad$[ebp], eax
	push	ebx
	push	esi
	push	edi

; 332  : 	search_t		*t;
; 333  : 	string		matchbuf;
; 334  : 	int		i, numsaves;
; 335  : 
; 336  : 	t = FS_Search( va( "%s%s*.sav", DEFAULT_SAVE_DIRECTORY, s ), true, true );	// lookup only in gamedir

	push	1
	push	1
	mov	eax, DWORD PTR _s$[ebp]
	push	eax
	push	OFFSET ??_C@_05HFINLBCI@save?1@
	push	OFFSET ??_C@_09IBAFMBKJ@?$CFs?$CFs?$CK?4sav@
	call	_va
	add	esp, 12					; 0000000cH
	push	eax
	call	_FS_Search
	add	esp, 12					; 0000000cH
	mov	DWORD PTR _t$[ebp], eax

; 337  : 	if( !t ) return false;

	cmp	DWORD PTR _t$[ebp], 0
	jne	SHORT $LN8@Cmd_GetSav
	xor	eax, eax
	jmp	$LN1@Cmd_GetSav
$LN8@Cmd_GetSav:

; 338  : 
; 339  : 	COM_FileBase( t->filenames[0], matchbuf ); 

	lea	eax, DWORD PTR _matchbuf$[ebp]
	push	eax
	mov	ecx, 4
	imul	edx, ecx, 0
	mov	eax, DWORD PTR _t$[ebp]
	mov	ecx, DWORD PTR [eax+4]
	mov	edx, DWORD PTR [ecx+edx]
	push	edx
	call	_COM_FileBase
	add	esp, 8

; 340  : 	if( completedname && length )

	cmp	DWORD PTR _completedname$[ebp], 0
	je	SHORT $LN9@Cmd_GetSav
	cmp	DWORD PTR _length$[ebp], 0
	je	SHORT $LN9@Cmd_GetSav

; 341  : 		Q_strncpy( completedname, matchbuf, length );

	mov	eax, DWORD PTR _length$[ebp]
	push	eax
	lea	ecx, DWORD PTR _matchbuf$[ebp]
	push	ecx
	mov	edx, DWORD PTR _completedname$[ebp]
	push	edx
	call	_Q_strncpy
	add	esp, 12					; 0000000cH
$LN9@Cmd_GetSav:

; 342  : 	if( t->numfilenames == 1 ) return true;

	mov	eax, DWORD PTR _t$[ebp]
	cmp	DWORD PTR [eax], 1
	jne	SHORT $LN10@Cmd_GetSav
	mov	eax, 1
	jmp	$LN1@Cmd_GetSav
$LN10@Cmd_GetSav:

; 343  : 
; 344  : 	for( i = 0, numsaves = 0; i < t->numfilenames; i++ )

	mov	DWORD PTR _i$[ebp], 0
	mov	DWORD PTR _numsaves$[ebp], 0
	jmp	SHORT $LN4@Cmd_GetSav
$LN2@Cmd_GetSav:
	mov	eax, DWORD PTR _i$[ebp]
	add	eax, 1
	mov	DWORD PTR _i$[ebp], eax
$LN4@Cmd_GetSav:
	mov	eax, DWORD PTR _t$[ebp]
	mov	ecx, DWORD PTR _i$[ebp]
	cmp	ecx, DWORD PTR [eax]
	jge	SHORT $LN3@Cmd_GetSav

; 345  : 	{
; 346  : 		if( Q_stricmp( COM_FileExtension( t->filenames[i] ), "sav" ))

	push	99999					; 0001869fH
	push	OFFSET ??_C@_03JHEBFAPG@sav@
	mov	eax, DWORD PTR _t$[ebp]
	mov	ecx, DWORD PTR [eax+4]
	mov	edx, DWORD PTR _i$[ebp]
	mov	eax, DWORD PTR [ecx+edx*4]
	push	eax
	call	_COM_FileExtension
	add	esp, 4
	push	eax
	call	_Q_strnicmp
	add	esp, 12					; 0000000cH
	test	eax, eax
	je	SHORT $LN11@Cmd_GetSav

; 347  : 			continue;

	jmp	SHORT $LN2@Cmd_GetSav
$LN11@Cmd_GetSav:

; 348  : 
; 349  : 		COM_FileBase( t->filenames[i], matchbuf );

	lea	eax, DWORD PTR _matchbuf$[ebp]
	push	eax
	mov	ecx, DWORD PTR _t$[ebp]
	mov	edx, DWORD PTR [ecx+4]
	mov	eax, DWORD PTR _i$[ebp]
	mov	ecx, DWORD PTR [edx+eax*4]
	push	ecx
	call	_COM_FileBase
	add	esp, 8

; 350  : 		Con_Printf( "%16s\n", matchbuf );

	lea	eax, DWORD PTR _matchbuf$[ebp]
	push	eax
	push	OFFSET ??_C@_05PMAFMCBB@?$CF16s?6@
	call	_Con_Printf
	add	esp, 8

; 351  : 		numsaves++;

	mov	eax, DWORD PTR _numsaves$[ebp]
	add	eax, 1
	mov	DWORD PTR _numsaves$[ebp], eax

; 352  : 	}

	jmp	$LN2@Cmd_GetSav
$LN3@Cmd_GetSav:

; 353  : 
; 354  : 	Con_Printf( "\n^3 %i saves found.\n", numsaves );

	mov	eax, DWORD PTR _numsaves$[ebp]
	push	eax
	push	OFFSET ??_C@_0BF@JENAHGFE@?6?$FO3?5?$CFi?5saves?5found?4?6@
	call	_Con_Printf
	add	esp, 8

; 355  : 	Mem_Free( t );

	mov	eax, DWORD PTR ?__LINE__Var@?0??Cmd_GetSavesList@@9@9
	add	eax, 24					; 00000018H
	push	eax
	push	OFFSET ??_C@_0DG@HHLKLKJI@D?3?2DevDragon?2XashFE?2dev?2src?2eng@
	mov	ecx, DWORD PTR _t$[ebp]
	push	ecx
	call	__Mem_Free
	add	esp, 12					; 0000000cH

; 356  : 
; 357  : 	// cut shortestMatch to the amount common with s
; 358  : 	if( completedname && length )

	cmp	DWORD PTR _completedname$[ebp], 0
	je	SHORT $LN12@Cmd_GetSav
	cmp	DWORD PTR _length$[ebp], 0
	je	SHORT $LN12@Cmd_GetSav

; 359  : 	{
; 360  : 		for( i = 0; matchbuf[i]; i++ )

	mov	DWORD PTR _i$[ebp], 0
	jmp	SHORT $LN7@Cmd_GetSav
$LN5@Cmd_GetSav:
	mov	eax, DWORD PTR _i$[ebp]
	add	eax, 1
	mov	DWORD PTR _i$[ebp], eax
$LN7@Cmd_GetSav:
	mov	eax, DWORD PTR _i$[ebp]
	movsx	ecx, BYTE PTR _matchbuf$[ebp+eax]
	test	ecx, ecx
	je	SHORT $LN12@Cmd_GetSav

; 361  : 		{
; 362  : 			if( Q_tolower( completedname[i] ) != Q_tolower( matchbuf[i] ))

	mov	eax, DWORD PTR _completedname$[ebp]
	add	eax, DWORD PTR _i$[ebp]
	movzx	ecx, BYTE PTR [eax]
	push	ecx
	call	_Q_tolower
	add	esp, 4
	movsx	esi, al
	mov	edx, DWORD PTR _i$[ebp]
	movzx	eax, BYTE PTR _matchbuf$[ebp+edx]
	push	eax
	call	_Q_tolower
	add	esp, 4
	movsx	ecx, al
	cmp	esi, ecx
	je	SHORT $LN13@Cmd_GetSav

; 363  : 				completedname[i] = 0;

	mov	eax, DWORD PTR _completedname$[ebp]
	add	eax, DWORD PTR _i$[ebp]
	mov	BYTE PTR [eax], 0
$LN13@Cmd_GetSav:

; 364  : 		}

	jmp	SHORT $LN5@Cmd_GetSav
$LN12@Cmd_GetSav:

; 365  : 	}
; 366  : 
; 367  : 	return true;

	mov	eax, 1
$LN1@Cmd_GetSav:

; 368  : }

	pop	edi
	pop	esi
	pop	ebx
	mov	ecx, DWORD PTR __$ArrayPad$[ebp]
	xor	ecx, ebp
	call	@__security_check_cookie@4
	mov	esp, ebp
	pop	ebp
	ret	0
_Cmd_GetSavesList ENDP
_TEXT	ENDS
; Function compile flags: /Odtp /ZI
; File D:\DevDragon\XashFE\dev\src\engine\common\con_utils.c
;	COMDAT _Cmd_GetMusicList
_TEXT	SEGMENT
_ext$1 = -276						; size = 4
_numtracks$ = -272					; size = 4
_i$ = -268						; size = 4
_matchbuf$ = -264					; size = 256
_t$ = -8						; size = 4
__$ArrayPad$ = -4					; size = 4
_s$ = 8							; size = 4
_completedname$ = 12					; size = 4
_length$ = 16						; size = 4
_Cmd_GetMusicList PROC					; COMDAT

; 283  : {

	push	ebp
	mov	ebp, esp
	sub	esp, 340				; 00000154H
	mov	eax, DWORD PTR ___security_cookie
	xor	eax, ebp
	mov	DWORD PTR __$ArrayPad$[ebp], eax
	push	ebx
	push	esi
	push	edi

; 284  : 	search_t		*t;
; 285  : 	string		matchbuf;
; 286  : 	int		i, numtracks;
; 287  : 
; 288  : 	t = FS_Search( va( "media/%s*.*", s ), true, false );

	push	0
	push	1
	mov	eax, DWORD PTR _s$[ebp]
	push	eax
	push	OFFSET ??_C@_0M@GFAIPCKL@media?1?$CFs?$CK?4?$CK@
	call	_va
	add	esp, 8
	push	eax
	call	_FS_Search
	add	esp, 12					; 0000000cH
	mov	DWORD PTR _t$[ebp], eax

; 289  : 	if( !t ) return false;

	cmp	DWORD PTR _t$[ebp], 0
	jne	SHORT $LN8@Cmd_GetMus
	xor	eax, eax
	jmp	$LN1@Cmd_GetMus
$LN8@Cmd_GetMus:

; 290  : 
; 291  : 	COM_FileBase( t->filenames[0], matchbuf ); 

	lea	eax, DWORD PTR _matchbuf$[ebp]
	push	eax
	mov	ecx, 4
	imul	edx, ecx, 0
	mov	eax, DWORD PTR _t$[ebp]
	mov	ecx, DWORD PTR [eax+4]
	mov	edx, DWORD PTR [ecx+edx]
	push	edx
	call	_COM_FileBase
	add	esp, 8

; 292  : 	if( completedname && length )

	cmp	DWORD PTR _completedname$[ebp], 0
	je	SHORT $LN9@Cmd_GetMus
	cmp	DWORD PTR _length$[ebp], 0
	je	SHORT $LN9@Cmd_GetMus

; 293  : 		Q_strncpy( completedname, matchbuf, length );

	mov	eax, DWORD PTR _length$[ebp]
	push	eax
	lea	ecx, DWORD PTR _matchbuf$[ebp]
	push	ecx
	mov	edx, DWORD PTR _completedname$[ebp]
	push	edx
	call	_Q_strncpy
	add	esp, 12					; 0000000cH
$LN9@Cmd_GetMus:

; 294  : 	if( t->numfilenames == 1 ) return true;

	mov	eax, DWORD PTR _t$[ebp]
	cmp	DWORD PTR [eax], 1
	jne	SHORT $LN10@Cmd_GetMus
	mov	eax, 1
	jmp	$LN1@Cmd_GetMus
$LN10@Cmd_GetMus:

; 295  : 
; 296  : 	for(i = 0, numtracks = 0; i < t->numfilenames; i++)

	mov	DWORD PTR _i$[ebp], 0
	mov	DWORD PTR _numtracks$[ebp], 0
	jmp	SHORT $LN4@Cmd_GetMus
$LN2@Cmd_GetMus:
	mov	eax, DWORD PTR _i$[ebp]
	add	eax, 1
	mov	DWORD PTR _i$[ebp], eax
$LN4@Cmd_GetMus:
	mov	eax, DWORD PTR _t$[ebp]
	mov	ecx, DWORD PTR _i$[ebp]
	cmp	ecx, DWORD PTR [eax]
	jge	$LN3@Cmd_GetMus

; 297  : 	{
; 298  : 		const char *ext = COM_FileExtension( t->filenames[i] ); 

	mov	eax, DWORD PTR _t$[ebp]
	mov	ecx, DWORD PTR [eax+4]
	mov	edx, DWORD PTR _i$[ebp]
	mov	eax, DWORD PTR [ecx+edx*4]
	push	eax
	call	_COM_FileExtension
	add	esp, 4
	mov	DWORD PTR _ext$1[ebp], eax

; 299  : 
; 300  : 		if( Q_stricmp( ext, "wav" ) && Q_stricmp( ext, "mp3" ))

	push	99999					; 0001869fH
	push	OFFSET ??_C@_03BICDMHKB@wav@
	mov	eax, DWORD PTR _ext$1[ebp]
	push	eax
	call	_Q_strnicmp
	add	esp, 12					; 0000000cH
	test	eax, eax
	je	SHORT $LN11@Cmd_GetMus
	push	99999					; 0001869fH
	push	OFFSET ??_C@_03LHGNACFN@mp3@
	mov	eax, DWORD PTR _ext$1[ebp]
	push	eax
	call	_Q_strnicmp
	add	esp, 12					; 0000000cH
	test	eax, eax
	je	SHORT $LN11@Cmd_GetMus

; 301  : 			continue;

	jmp	SHORT $LN2@Cmd_GetMus
$LN11@Cmd_GetMus:

; 302  : 
; 303  : 		COM_FileBase( t->filenames[i], matchbuf );

	lea	eax, DWORD PTR _matchbuf$[ebp]
	push	eax
	mov	ecx, DWORD PTR _t$[ebp]
	mov	edx, DWORD PTR [ecx+4]
	mov	eax, DWORD PTR _i$[ebp]
	mov	ecx, DWORD PTR [edx+eax*4]
	push	ecx
	call	_COM_FileBase
	add	esp, 8

; 304  : 		Con_Printf( "%16s\n", matchbuf );

	lea	eax, DWORD PTR _matchbuf$[ebp]
	push	eax
	push	OFFSET ??_C@_05PMAFMCBB@?$CF16s?6@
	call	_Con_Printf
	add	esp, 8

; 305  : 		numtracks++;

	mov	eax, DWORD PTR _numtracks$[ebp]
	add	eax, 1
	mov	DWORD PTR _numtracks$[ebp], eax

; 306  : 	}

	jmp	$LN2@Cmd_GetMus
$LN3@Cmd_GetMus:

; 307  : 
; 308  : 	Con_Printf( "\n^3 %i soundtracks found.\n", numtracks );

	mov	eax, DWORD PTR _numtracks$[ebp]
	push	eax
	push	OFFSET ??_C@_0BL@IJMELGH@?6?$FO3?5?$CFi?5soundtracks?5found?4?6@
	call	_Con_Printf
	add	esp, 8

; 309  : 	Mem_Free(t);

	mov	eax, DWORD PTR ?__LINE__Var@?0??Cmd_GetMusicList@@9@9
	add	eax, 26					; 0000001aH
	push	eax
	push	OFFSET ??_C@_0DG@HHLKLKJI@D?3?2DevDragon?2XashFE?2dev?2src?2eng@
	mov	ecx, DWORD PTR _t$[ebp]
	push	ecx
	call	__Mem_Free
	add	esp, 12					; 0000000cH

; 310  : 
; 311  : 	// cut shortestMatch to the amount common with s
; 312  : 	if( completedname && length )

	cmp	DWORD PTR _completedname$[ebp], 0
	je	SHORT $LN12@Cmd_GetMus
	cmp	DWORD PTR _length$[ebp], 0
	je	SHORT $LN12@Cmd_GetMus

; 313  : 	{
; 314  : 		for( i = 0; matchbuf[i]; i++ )

	mov	DWORD PTR _i$[ebp], 0
	jmp	SHORT $LN7@Cmd_GetMus
$LN5@Cmd_GetMus:
	mov	eax, DWORD PTR _i$[ebp]
	add	eax, 1
	mov	DWORD PTR _i$[ebp], eax
$LN7@Cmd_GetMus:
	mov	eax, DWORD PTR _i$[ebp]
	movsx	ecx, BYTE PTR _matchbuf$[ebp+eax]
	test	ecx, ecx
	je	SHORT $LN12@Cmd_GetMus

; 315  : 		{
; 316  : 			if( Q_tolower( completedname[i] ) != Q_tolower( matchbuf[i] ))

	mov	eax, DWORD PTR _completedname$[ebp]
	add	eax, DWORD PTR _i$[ebp]
	movzx	ecx, BYTE PTR [eax]
	push	ecx
	call	_Q_tolower
	add	esp, 4
	movsx	esi, al
	mov	edx, DWORD PTR _i$[ebp]
	movzx	eax, BYTE PTR _matchbuf$[ebp+edx]
	push	eax
	call	_Q_tolower
	add	esp, 4
	movsx	ecx, al
	cmp	esi, ecx
	je	SHORT $LN13@Cmd_GetMus

; 317  : 				completedname[i] = 0;

	mov	eax, DWORD PTR _completedname$[ebp]
	add	eax, DWORD PTR _i$[ebp]
	mov	BYTE PTR [eax], 0
$LN13@Cmd_GetMus:

; 318  : 		}

	jmp	SHORT $LN5@Cmd_GetMus
$LN12@Cmd_GetMus:

; 319  : 	}
; 320  : 	return true;

	mov	eax, 1
$LN1@Cmd_GetMus:

; 321  : }

	pop	edi
	pop	esi
	pop	ebx
	mov	ecx, DWORD PTR __$ArrayPad$[ebp]
	xor	ecx, ebp
	call	@__security_check_cookie@4
	mov	esp, ebp
	pop	ebp
	ret	0
_Cmd_GetMusicList ENDP
_TEXT	ENDS
; Function compile flags: /Odtp /ZI
; File D:\DevDragon\XashFE\dev\src\engine\common\con_utils.c
;	COMDAT _Cmd_AutocompleteName
_TEXT	SEGMENT
_list$ = -4						; size = 4
_source$ = 8						; size = 4
_buffer$ = 12						; size = 4
_bufsize$ = 16						; size = 4
_Cmd_AutocompleteName PROC				; COMDAT

; 863  : {

	push	ebp
	mov	ebp, esp
	sub	esp, 68					; 00000044H
	push	ebx
	push	esi
	push	edi

; 864  : 	autocomplete_list_t	*list;
; 865  : 
; 866  : 	for( list = cmd_list; list->name; list++ )

	mov	DWORD PTR _list$[ebp], OFFSET _cmd_list
	jmp	SHORT $LN4@Cmd_Autoco
$LN2@Cmd_Autoco:
	mov	eax, DWORD PTR _list$[ebp]
	add	eax, 8
	mov	DWORD PTR _list$[ebp], eax
$LN4@Cmd_Autoco:
	mov	eax, DWORD PTR _list$[ebp]
	cmp	DWORD PTR [eax], 0
	je	SHORT $LN3@Cmd_Autoco

; 867  : 	{
; 868  : 		if( Cmd_CheckName( list->name ))

	mov	eax, DWORD PTR _list$[ebp]
	mov	ecx, DWORD PTR [eax]
	push	ecx
	call	_Cmd_CheckName
	add	esp, 4
	test	eax, eax
	je	SHORT $LN5@Cmd_Autoco

; 869  : 			return list->func( source, buffer, bufsize ); 

	mov	eax, DWORD PTR _bufsize$[ebp]
	push	eax
	mov	ecx, DWORD PTR _buffer$[ebp]
	push	ecx
	mov	edx, DWORD PTR _source$[ebp]
	push	edx
	mov	eax, DWORD PTR _list$[ebp]
	mov	ecx, DWORD PTR [eax+4]
	call	ecx
	add	esp, 12					; 0000000cH
	jmp	SHORT $LN1@Cmd_Autoco
$LN5@Cmd_Autoco:

; 870  : 	}

	jmp	SHORT $LN2@Cmd_Autoco
$LN3@Cmd_Autoco:

; 871  : 
; 872  : 	return false;

	xor	eax, eax
$LN1@Cmd_Autoco:

; 873  : }

	pop	edi
	pop	esi
	pop	ebx
	mov	esp, ebp
	pop	ebp
	ret	0
_Cmd_AutocompleteName ENDP
_TEXT	ENDS
; Function compile flags: /Odtp /ZI
; File D:\DevDragon\XashFE\dev\src\engine\common\con_utils.c
;	COMDAT _Cmd_CheckMapsList
_TEXT	SEGMENT
_fRefresh$ = 8						; size = 4
_Cmd_CheckMapsList PROC					; COMDAT

; 810  : {

	push	ebp
	mov	ebp, esp
	sub	esp, 64					; 00000040H
	push	ebx
	push	esi
	push	edi

; 811  : 	return Cmd_CheckMapsList_R( fRefresh, true );

	push	1
	mov	eax, DWORD PTR _fRefresh$[ebp]
	push	eax
	call	_Cmd_CheckMapsList_R
	add	esp, 8

; 812  : }

	pop	edi
	pop	esi
	pop	ebx
	mov	esp, ebp
	pop	ebp
	ret	0
_Cmd_CheckMapsList ENDP
_TEXT	ENDS
; Function compile flags: /Odtp /ZI
; File D:\DevDragon\XashFE\dev\src\engine\common\con_utils.c
;	COMDAT _Key_EnumCmds_f
_TEXT	SEGMENT
_f$ = -4						; size = 4
_Key_EnumCmds_f PROC					; COMDAT

; 1043 : {

	push	ebp
	mov	ebp, esp
	sub	esp, 68					; 00000044H
	push	ebx
	push	esi
	push	edi

; 1044 : 	file_t	*f;
; 1045 : 
; 1046 : 	FS_AllowDirectPaths( true );

	push	1
	call	_FS_AllowDirectPaths
	add	esp, 4

; 1047 : 	if( FS_FileExists( "../help.txt", false ))

	push	0
	push	OFFSET ??_C@_0M@KMAPEIHN@?4?4?1help?4txt@
	call	_FS_FileExists
	add	esp, 8
	test	eax, eax
	je	SHORT $LN2@Key_EnumCm

; 1048 : 	{
; 1049 : 		Con_Printf( "help.txt already exist\n" );

	push	OFFSET ??_C@_0BI@KIALEEOJ@help?4txt?5already?5exist?6@
	call	_Con_Printf
	add	esp, 4

; 1050 : 		FS_AllowDirectPaths( false );

	push	0
	call	_FS_AllowDirectPaths
	add	esp, 4

; 1051 : 		return;

	jmp	$LN1@Key_EnumCm
$LN2@Key_EnumCm:

; 1052 : 	}
; 1053 : 
; 1054 : 	f = FS_Open( "../help.txt", "w", false );

	push	0
	push	OFFSET ??_C@_01NOFIACDB@w@
	push	OFFSET ??_C@_0M@KMAPEIHN@?4?4?1help?4txt@
	call	_FS_Open
	add	esp, 12					; 0000000cH
	mov	DWORD PTR _f$[ebp], eax

; 1055 : 	if( f )

	cmp	DWORD PTR _f$[ebp], 0
	je	$LN3@Key_EnumCm

; 1056 : 	{
; 1057 : 		FS_Printf( f, "//=======================================================================\n");

	push	OFFSET ??_C@_0EL@KHMJEPHG@?1?1?$DN?$DN?$DN?$DN?$DN?$DN?$DN?$DN?$DN?$DN?$DN?$DN?$DN?$DN?$DN?$DN?$DN?$DN?$DN?$DN?$DN?$DN?$DN?$DN?$DN?$DN?$DN?$DN?$DN@
	mov	eax, DWORD PTR _f$[ebp]
	push	eax
	call	_FS_Printf
	add	esp, 8

; 1058 : 		FS_Printf( f, "//\t\t\tCopyright XashXT Group %s \n", Q_timestamp( TIME_YEAR_ONLY ));

	push	4
	call	_Q_timestamp
	add	esp, 4
	push	eax
	push	OFFSET ??_C@_0CC@POOFDBJP@?1?1?7?7?7Copyright?5XashXT?5Group?5?$CFs?5@
	mov	eax, DWORD PTR _f$[ebp]
	push	eax
	call	_FS_Printf
	add	esp, 12					; 0000000cH

; 1059 : 		FS_Printf( f, "//\t\thelp.txt - xash commands and console variables\n");

	push	OFFSET ??_C@_0DE@NCPEHHOO@?1?1?7?7help?4txt?5?9?5xash?5commands?5an@
	mov	eax, DWORD PTR _f$[ebp]
	push	eax
	call	_FS_Printf
	add	esp, 8

; 1060 : 		FS_Printf( f, "//=======================================================================\n");

	push	OFFSET ??_C@_0EL@KHMJEPHG@?1?1?$DN?$DN?$DN?$DN?$DN?$DN?$DN?$DN?$DN?$DN?$DN?$DN?$DN?$DN?$DN?$DN?$DN?$DN?$DN?$DN?$DN?$DN?$DN?$DN?$DN?$DN?$DN?$DN?$DN@
	mov	eax, DWORD PTR _f$[ebp]
	push	eax
	call	_FS_Printf
	add	esp, 8

; 1061 : 
; 1062 : 		FS_Printf( f, "\n\n\t\t\tconsole variables\n\n");

	push	OFFSET ??_C@_0BJ@LMNLCAJM@?6?6?7?7?7console?5variables?6?6@
	mov	eax, DWORD PTR _f$[ebp]
	push	eax
	call	_FS_Printf
	add	esp, 8

; 1063 : 		Cvar_LookupVars( 0, NULL, f, Cmd_WriteHelp ); 

	push	OFFSET _Cmd_WriteHelp
	mov	eax, DWORD PTR _f$[ebp]
	push	eax
	push	0
	push	0
	call	_Cvar_LookupVars
	add	esp, 16					; 00000010H

; 1064 : 		FS_Printf( f, "\n\n\t\t\tconsole commands\n\n");

	push	OFFSET ??_C@_0BI@CMNGEOJ@?6?6?7?7?7console?5commands?6?6@
	mov	eax, DWORD PTR _f$[ebp]
	push	eax
	call	_FS_Printf
	add	esp, 8

; 1065 : 		Cmd_LookupCmds( NULL, f, Cmd_WriteHelp ); 

	push	OFFSET _Cmd_WriteHelp
	mov	eax, DWORD PTR _f$[ebp]
	push	eax
	push	0
	call	_Cmd_LookupCmds
	add	esp, 12					; 0000000cH

; 1066 :   		FS_Printf( f, "\n\n");

	push	OFFSET ??_C@_02PHMGELLB@?6?6@
	mov	eax, DWORD PTR _f$[ebp]
	push	eax
	call	_FS_Printf
	add	esp, 8

; 1067 : 		FS_Close( f );

	mov	eax, DWORD PTR _f$[ebp]
	push	eax
	call	_FS_Close
	add	esp, 4

; 1068 : 		Con_Printf( "help.txt created\n" );

	push	OFFSET ??_C@_0BC@MHONJBH@help?4txt?5created?6@
	call	_Con_Printf
	add	esp, 4

; 1069 : 	}

	jmp	SHORT $LN4@Key_EnumCm
$LN3@Key_EnumCm:

; 1070 : 	else Con_Printf( S_ERROR "couldn't write help.txt.\n");

	push	OFFSET ??_C@_0CF@OEHFKECM@?$FO1Error?3?$FO7?5couldn?8t?5write?5help?4@
	call	_Con_Printf
	add	esp, 4
$LN4@Key_EnumCm:

; 1071 : 	FS_AllowDirectPaths( false );

	push	0
	call	_FS_AllowDirectPaths
	add	esp, 4
$LN1@Key_EnumCm:

; 1072 : }

	pop	edi
	pop	esi
	pop	ebx
	mov	esp, ebp
	pop	ebp
	ret	0
_Key_EnumCmds_f ENDP
_TEXT	ENDS
; Function compile flags: /Odtp /ZI
; File D:\DevDragon\XashFE\dev\src\engine\common\con_utils.c
;	COMDAT _Host_WriteConfig
_TEXT	SEGMENT
_f$ = -12						; size = 4
_jlook$ = -8						; size = 4
_mlook$ = -4						; size = 4
_Host_WriteConfig PROC					; COMDAT

; 920  : {

	push	ebp
	mov	ebp, esp
	sub	esp, 76					; 0000004cH
	push	ebx
	push	esi
	push	edi

; 921  : 	kbutton_t	*mlook = NULL;

	mov	DWORD PTR _mlook$[ebp], 0

; 922  : 	kbutton_t	*jlook = NULL;

	mov	DWORD PTR _jlook$[ebp], 0

; 923  : 	file_t	*f;
; 924  : 
; 925  : 	if( !clgame.hInstance ) return;

	cmp	DWORD PTR _clgame, 0
	jne	SHORT $LN2@Host_Write
	jmp	$LN1@Host_Write
$LN2@Host_Write:

; 926  : 
; 927  : 
; 928  : 	f = FS_Open( "config.cfg", "w", false );

	push	0
	push	OFFSET ??_C@_01NOFIACDB@w@
	push	OFFSET ??_C@_0L@MFNMKHHD@config?4cfg@
	call	_FS_Open
	add	esp, 12					; 0000000cH
	mov	DWORD PTR _f$[ebp], eax

; 929  : 	if( f )

	cmp	DWORD PTR _f$[ebp], 0
	je	$LN3@Host_Write

; 930  : 	{
; 931  : 		Con_Reportf( "Host_WriteConfig()\n" );

	push	OFFSET ??_C@_0BE@OEIHADBA@Host_WriteConfig?$CI?$CJ?6@
	call	_Con_Reportf
	add	esp, 4

; 932  : 		FS_Printf( f, "//=======================================================================\n");

	push	OFFSET ??_C@_0EL@KHMJEPHG@?1?1?$DN?$DN?$DN?$DN?$DN?$DN?$DN?$DN?$DN?$DN?$DN?$DN?$DN?$DN?$DN?$DN?$DN?$DN?$DN?$DN?$DN?$DN?$DN?$DN?$DN?$DN?$DN?$DN?$DN@
	mov	eax, DWORD PTR _f$[ebp]
	push	eax
	call	_FS_Printf
	add	esp, 8

; 933  : 		FS_Printf( f, "//\t\t\tCopyright XashXT Group %s \n", Q_timestamp( TIME_YEAR_ONLY ));

	push	4
	call	_Q_timestamp
	add	esp, 4
	push	eax
	push	OFFSET ??_C@_0CC@POOFDBJP@?1?1?7?7?7Copyright?5XashXT?5Group?5?$CFs?5@
	mov	eax, DWORD PTR _f$[ebp]
	push	eax
	call	_FS_Printf
	add	esp, 12					; 0000000cH

; 934  : 		FS_Printf( f, "//\t\t\tconfig.cfg - archive of cvars\n" );

	push	OFFSET ??_C@_0CE@DOEHJBLH@?1?1?7?7?7config?4cfg?5?9?5archive?5of?5cv@
	mov	eax, DWORD PTR _f$[ebp]
	push	eax
	call	_FS_Printf
	add	esp, 8

; 935  : 		FS_Printf( f, "//=======================================================================\n" );

	push	OFFSET ??_C@_0EL@KHMJEPHG@?1?1?$DN?$DN?$DN?$DN?$DN?$DN?$DN?$DN?$DN?$DN?$DN?$DN?$DN?$DN?$DN?$DN?$DN?$DN?$DN?$DN?$DN?$DN?$DN?$DN?$DN?$DN?$DN?$DN?$DN@
	mov	eax, DWORD PTR _f$[ebp]
	push	eax
	call	_FS_Printf
	add	esp, 8

; 936  : 		Key_WriteBindings( f );

	mov	eax, DWORD PTR _f$[ebp]
	push	eax
	call	_Key_WriteBindings
	add	esp, 4

; 937  : 		Cvar_WriteVariables( f, FCVAR_ARCHIVE );

	push	1
	mov	eax, DWORD PTR _f$[ebp]
	push	eax
	call	_Cvar_WriteVariables
	add	esp, 8

; 938  : 		Info_WriteVars( f );

	mov	eax, DWORD PTR _f$[ebp]
	push	eax
	call	_Info_WriteVars
	add	esp, 4

; 939  : 
; 940  : 		if( clgame.hInstance )

	cmp	DWORD PTR _clgame, 0
	je	SHORT $LN5@Host_Write

; 941  : 		{
; 942  : 			mlook = (kbutton_t *)clgame.dllFuncs.KB_Find( "in_mlook" );

	push	OFFSET ??_C@_08LHKFKIJF@in_mlook@
	call	DWORD PTR _clgame+72
	add	esp, 4
	mov	DWORD PTR _mlook$[ebp], eax

; 943  : 			jlook = (kbutton_t *)clgame.dllFuncs.KB_Find( "in_jlook" );

	push	OFFSET ??_C@_08KKKAJICN@in_jlook@
	call	DWORD PTR _clgame+72
	add	esp, 4
	mov	DWORD PTR _jlook$[ebp], eax
$LN5@Host_Write:

; 944  : 		}
; 945  : 
; 946  : 		if( mlook && ( mlook->state & 1 )) 

	cmp	DWORD PTR _mlook$[ebp], 0
	je	SHORT $LN6@Host_Write
	mov	eax, DWORD PTR _mlook$[ebp]
	mov	ecx, DWORD PTR [eax+8]
	and	ecx, 1
	je	SHORT $LN6@Host_Write

; 947  : 			FS_Printf( f, "+mlook\n" );

	push	OFFSET ??_C@_07GNNMHHBA@?$CLmlook?6@
	mov	eax, DWORD PTR _f$[ebp]
	push	eax
	call	_FS_Printf
	add	esp, 8
$LN6@Host_Write:

; 948  : 
; 949  : 		if( jlook && ( jlook->state & 1 ))

	cmp	DWORD PTR _jlook$[ebp], 0
	je	SHORT $LN7@Host_Write
	mov	eax, DWORD PTR _jlook$[ebp]
	mov	ecx, DWORD PTR [eax+8]
	and	ecx, 1
	je	SHORT $LN7@Host_Write

; 950  : 			FS_Printf( f, "+jlook\n" );

	push	OFFSET ??_C@_07KIHLEJJO@?$CLjlook?6@
	mov	eax, DWORD PTR _f$[ebp]
	push	eax
	call	_FS_Printf
	add	esp, 8
$LN7@Host_Write:

; 951  : 
; 952  : 		FS_Printf( f, "exec userconfig.cfg" );

	push	OFFSET ??_C@_0BE@JIGGELHM@exec?5userconfig?4cfg@
	mov	eax, DWORD PTR _f$[ebp]
	push	eax
	call	_FS_Printf
	add	esp, 8

; 953  : 
; 954  : 		FS_Close( f );

	mov	eax, DWORD PTR _f$[ebp]
	push	eax
	call	_FS_Close
	add	esp, 4

; 955  : 	}

	jmp	SHORT $LN1@Host_Write
$LN3@Host_Write:

; 956  : 	else Con_DPrintf( S_ERROR "Couldn't write config.cfg.\n" );

	push	OFFSET ??_C@_0CH@NOPFFNLI@?$FO1Error?3?$FO7?5Couldn?8t?5write?5confi@
	call	_Con_DPrintf
	add	esp, 4
$LN1@Host_Write:

; 957  : }

	pop	edi
	pop	esi
	pop	ebx
	mov	esp, ebp
	pop	ebp
	ret	0
_Host_WriteConfig ENDP
_TEXT	ENDS
; Function compile flags: /Odtp /ZI
; File D:\DevDragon\XashFE\dev\src\engine\common\con_utils.c
;	COMDAT _Host_WriteVideoConfig
_TEXT	SEGMENT
_f$ = -4						; size = 4
_Host_WriteVideoConfig PROC				; COMDAT

; 1025 : {

	push	ebp
	mov	ebp, esp
	sub	esp, 68					; 00000044H
	push	ebx
	push	esi
	push	edi

; 1026 : 	file_t	*f;
; 1027 : 
; 1028 : 	f = FS_Open( "video.cfg", "w", false );

	push	0
	push	OFFSET ??_C@_01NOFIACDB@w@
	push	OFFSET ??_C@_09FCOLKGFP@video?4cfg@
	call	_FS_Open
	add	esp, 12					; 0000000cH
	mov	DWORD PTR _f$[ebp], eax

; 1029 : 	if( f )

	cmp	DWORD PTR _f$[ebp], 0
	je	SHORT $LN2@Host_Write

; 1030 : 	{
; 1031 : 		Con_Reportf( "Host_WriteVideoConfig()\n" );

	push	OFFSET ??_C@_0BJ@LJHJNAJM@Host_WriteVideoConfig?$CI?$CJ?6@
	call	_Con_Reportf
	add	esp, 4

; 1032 : 		FS_Printf( f, "//=======================================================================\n" );

	push	OFFSET ??_C@_0EL@KHMJEPHG@?1?1?$DN?$DN?$DN?$DN?$DN?$DN?$DN?$DN?$DN?$DN?$DN?$DN?$DN?$DN?$DN?$DN?$DN?$DN?$DN?$DN?$DN?$DN?$DN?$DN?$DN?$DN?$DN?$DN?$DN@
	mov	eax, DWORD PTR _f$[ebp]
	push	eax
	call	_FS_Printf
	add	esp, 8

; 1033 : 		FS_Printf( f, "//\t\t\tCopyright XashXT Group %s \n", Q_timestamp( TIME_YEAR_ONLY ));

	push	4
	call	_Q_timestamp
	add	esp, 4
	push	eax
	push	OFFSET ??_C@_0CC@POOFDBJP@?1?1?7?7?7Copyright?5XashXT?5Group?5?$CFs?5@
	mov	eax, DWORD PTR _f$[ebp]
	push	eax
	call	_FS_Printf
	add	esp, 12					; 0000000cH

; 1034 : 		FS_Printf( f, "//\t\tvideo.cfg - archive of renderer variables\n");

	push	OFFSET ??_C@_0CP@HLPEGJHK@?1?1?7?7video?4cfg?5?9?5archive?5of?5rend@
	mov	eax, DWORD PTR _f$[ebp]
	push	eax
	call	_FS_Printf
	add	esp, 8

; 1035 : 		FS_Printf( f, "//=======================================================================\n" );

	push	OFFSET ??_C@_0EL@KHMJEPHG@?1?1?$DN?$DN?$DN?$DN?$DN?$DN?$DN?$DN?$DN?$DN?$DN?$DN?$DN?$DN?$DN?$DN?$DN?$DN?$DN?$DN?$DN?$DN?$DN?$DN?$DN?$DN?$DN?$DN?$DN@
	mov	eax, DWORD PTR _f$[ebp]
	push	eax
	call	_FS_Printf
	add	esp, 8

; 1036 : 		Cvar_WriteVariables( f, FCVAR_RENDERINFO );

	push	65536					; 00010000H
	mov	eax, DWORD PTR _f$[ebp]
	push	eax
	call	_Cvar_WriteVariables
	add	esp, 8

; 1037 : 		FS_Close( f );	

	mov	eax, DWORD PTR _f$[ebp]
	push	eax
	call	_FS_Close
	add	esp, 4

; 1038 : 	}                                                

	jmp	SHORT $LN1@Host_Write
$LN2@Host_Write:

; 1039 : 	else Con_DPrintf( S_ERROR "can't update video.cfg.\n" );

	push	OFFSET ??_C@_0CE@NICGLLCF@?$FO1Error?3?$FO7?5can?8t?5update?5video?4c@
	call	_Con_DPrintf
	add	esp, 4
$LN1@Host_Write:

; 1040 : }

	pop	edi
	pop	esi
	pop	ebx
	mov	esp, ebp
	pop	ebp
	ret	0
_Host_WriteVideoConfig ENDP
_TEXT	ENDS
; Function compile flags: /Odtp /ZI
; File D:\DevDragon\XashFE\dev\src\engine\common\con_utils.c
;	COMDAT _Host_WriteOpenGLConfig
_TEXT	SEGMENT
_f$ = -4						; size = 4
_Host_WriteOpenGLConfig PROC				; COMDAT

; 998  : {

	push	ebp
	mov	ebp, esp
	sub	esp, 68					; 00000044H
	push	ebx
	push	esi
	push	edi

; 999  : 	file_t	*f;
; 1000 : 
; 1001 : 
; 1002 : 	f = FS_Open( "opengl.cfg", "w", false );

	push	0
	push	OFFSET ??_C@_01NOFIACDB@w@
	push	OFFSET ??_C@_0L@HCCLOBCH@opengl?4cfg@
	call	_FS_Open
	add	esp, 12					; 0000000cH
	mov	DWORD PTR _f$[ebp], eax

; 1003 : 	if( f )

	cmp	DWORD PTR _f$[ebp], 0
	je	$LN2@Host_Write

; 1004 : 	{
; 1005 : 		Con_Reportf( "Host_WriteGLConfig()\n" );

	push	OFFSET ??_C@_0BG@JBIOIEOC@Host_WriteGLConfig?$CI?$CJ?6@
	call	_Con_Reportf
	add	esp, 4

; 1006 : 		FS_Printf( f, "//=======================================================================\n" );

	push	OFFSET ??_C@_0EL@KHMJEPHG@?1?1?$DN?$DN?$DN?$DN?$DN?$DN?$DN?$DN?$DN?$DN?$DN?$DN?$DN?$DN?$DN?$DN?$DN?$DN?$DN?$DN?$DN?$DN?$DN?$DN?$DN?$DN?$DN?$DN?$DN@
	mov	eax, DWORD PTR _f$[ebp]
	push	eax
	call	_FS_Printf
	add	esp, 8

; 1007 : 		FS_Printf( f, "//\t\t\tCopyright XashXT Group %s \n", Q_timestamp( TIME_YEAR_ONLY ));

	push	4
	call	_Q_timestamp
	add	esp, 4
	push	eax
	push	OFFSET ??_C@_0CC@POOFDBJP@?1?1?7?7?7Copyright?5XashXT?5Group?5?$CFs?5@
	mov	eax, DWORD PTR _f$[ebp]
	push	eax
	call	_FS_Printf
	add	esp, 12					; 0000000cH

; 1008 : 		FS_Printf( f, "//\t\t    opengl.cfg - archive of opengl extension cvars\n");

	push	OFFSET ??_C@_0DI@MKGFABPO@?1?1?7?7?5?5?5?5opengl?4cfg?5?9?5archive?5of@
	mov	eax, DWORD PTR _f$[ebp]
	push	eax
	call	_FS_Printf
	add	esp, 8

; 1009 : 		FS_Printf( f, "//=======================================================================\n" );

	push	OFFSET ??_C@_0EL@KHMJEPHG@?1?1?$DN?$DN?$DN?$DN?$DN?$DN?$DN?$DN?$DN?$DN?$DN?$DN?$DN?$DN?$DN?$DN?$DN?$DN?$DN?$DN?$DN?$DN?$DN?$DN?$DN?$DN?$DN?$DN?$DN@
	mov	eax, DWORD PTR _f$[ebp]
	push	eax
	call	_FS_Printf
	add	esp, 8

; 1010 : 		FS_Printf( f, "\n" );

	push	OFFSET ??_C@_01EEMJAFIK@?6@
	mov	eax, DWORD PTR _f$[ebp]
	push	eax
	call	_FS_Printf
	add	esp, 8

; 1011 : 		Cmd_WriteOpenGLVariables( f );

	mov	eax, DWORD PTR _f$[ebp]
	push	eax
	call	_Cmd_WriteOpenGLVariables
	add	esp, 4

; 1012 : 		FS_Close( f );	

	mov	eax, DWORD PTR _f$[ebp]
	push	eax
	call	_FS_Close
	add	esp, 4

; 1013 : 	}                                                

	jmp	SHORT $LN1@Host_Write
$LN2@Host_Write:

; 1014 : 	else Con_DPrintf( S_ERROR "can't update opengl.cfg.\n" );

	push	OFFSET ??_C@_0CF@GLDHHHKH@?$FO1Error?3?$FO7?5can?8t?5update?5opengl?4@
	call	_Con_DPrintf
	add	esp, 4
$LN1@Host_Write:

; 1015 : }

	pop	edi
	pop	esi
	pop	ebx
	mov	esp, ebp
	pop	ebp
	ret	0
_Host_WriteOpenGLConfig ENDP
_TEXT	ENDS
; Function compile flags: /Odtp /ZI
; File D:\DevDragon\XashFE\dev\src\engine\common\con_utils.c
;	COMDAT _Host_WriteServerConfig
_TEXT	SEGMENT
_f$ = -4						; size = 4
_name$ = 8						; size = 4
_Host_WriteServerConfig PROC				; COMDAT

; 967  : {

	push	ebp
	mov	ebp, esp
	sub	esp, 68					; 00000044H
	push	ebx
	push	esi
	push	edi

; 968  : 	file_t	*f;
; 969  : 
; 970  : 	SV_InitGameProgs();	// collect user variables

	call	_SV_InitGameProgs

; 971  : 
; 972  : 	// FIXME: move this out until menu parser is done
; 973  : 	CSCR_LoadDefaultCVars( "settings.scr" );

	push	OFFSET ??_C@_0N@FAPIMONE@settings?4scr@
	call	_CSCR_LoadDefaultCVars
	add	esp, 4

; 974  : 	
; 975  : 	if(( f = FS_Open( name, "w", false )) != NULL )

	push	0
	push	OFFSET ??_C@_01NOFIACDB@w@
	mov	eax, DWORD PTR _name$[ebp]
	push	eax
	call	_FS_Open
	add	esp, 12					; 0000000cH
	mov	DWORD PTR _f$[ebp], eax
	cmp	DWORD PTR _f$[ebp], 0
	je	SHORT $LN2@Host_Write

; 976  : 	{
; 977  : 		FS_Printf( f, "//=======================================================================\n" );

	push	OFFSET ??_C@_0EL@KHMJEPHG@?1?1?$DN?$DN?$DN?$DN?$DN?$DN?$DN?$DN?$DN?$DN?$DN?$DN?$DN?$DN?$DN?$DN?$DN?$DN?$DN?$DN?$DN?$DN?$DN?$DN?$DN?$DN?$DN?$DN?$DN@
	mov	eax, DWORD PTR _f$[ebp]
	push	eax
	call	_FS_Printf
	add	esp, 8

; 978  : 		FS_Printf( f, "//\t\t\tCopyright XashXT Group %s \n", Q_timestamp( TIME_YEAR_ONLY ));

	push	4
	call	_Q_timestamp
	add	esp, 4
	push	eax
	push	OFFSET ??_C@_0CC@POOFDBJP@?1?1?7?7?7Copyright?5XashXT?5Group?5?$CFs?5@
	mov	eax, DWORD PTR _f$[ebp]
	push	eax
	call	_FS_Printf
	add	esp, 12					; 0000000cH

; 979  : 		FS_Printf( f, "//\t\tgame.cfg - multiplayer server temporare config\n" );

	push	OFFSET ??_C@_0DE@KAOFAALG@?1?1?7?7game?4cfg?5?9?5multiplayer?5serv@
	mov	eax, DWORD PTR _f$[ebp]
	push	eax
	call	_FS_Printf
	add	esp, 8

; 980  : 		FS_Printf( f, "//=======================================================================\n" );

	push	OFFSET ??_C@_0EL@KHMJEPHG@?1?1?$DN?$DN?$DN?$DN?$DN?$DN?$DN?$DN?$DN?$DN?$DN?$DN?$DN?$DN?$DN?$DN?$DN?$DN?$DN?$DN?$DN?$DN?$DN?$DN?$DN?$DN?$DN?$DN?$DN@
	mov	eax, DWORD PTR _f$[ebp]
	push	eax
	call	_FS_Printf
	add	esp, 8

; 981  : 		Cvar_WriteVariables( f, FCVAR_SERVER );

	push	4
	mov	eax, DWORD PTR _f$[ebp]
	push	eax
	call	_Cvar_WriteVariables
	add	esp, 8

; 982  : 		CSCR_WriteGameCVars( f, "settings.scr" );

	push	OFFSET ??_C@_0N@FAPIMONE@settings?4scr@
	mov	eax, DWORD PTR _f$[ebp]
	push	eax
	call	_CSCR_WriteGameCVars
	add	esp, 8

; 983  : 		FS_Close( f );

	mov	eax, DWORD PTR _f$[ebp]
	push	eax
	call	_FS_Close
	add	esp, 4

; 984  : 	}

	jmp	SHORT $LN3@Host_Write
$LN2@Host_Write:

; 985  : 	else Con_DPrintf( S_ERROR "Couldn't write %s.\n", name );

	mov	eax, DWORD PTR _name$[ebp]
	push	eax
	push	OFFSET ??_C@_0BP@MIAAEOIH@?$FO1Error?3?$FO7?5Couldn?8t?5write?5?$CFs?4?6@
	call	_Con_DPrintf
	add	esp, 8
$LN3@Host_Write:

; 986  : 
; 987  : 	SV_FreeGameProgs();	// release progs with all variables

	call	_SV_FreeGameProgs

; 988  : }

	pop	edi
	pop	esi
	pop	ebx
	mov	esp, ebp
	pop	ebp
	ret	0
_Host_WriteServerConfig ENDP
_TEXT	ENDS
; Function compile flags: /Odtp /ZI
; File D:\DevDragon\XashFE\dev\src\engine\common\con_utils.c
;	COMDAT _Cmd_GetMovieList
_TEXT	SEGMENT
_nummovies$ = -272					; size = 4
_i$ = -268						; size = 4
_matchbuf$ = -264					; size = 256
_t$ = -8						; size = 4
__$ArrayPad$ = -4					; size = 4
_s$ = 8							; size = 4
_completedname$ = 12					; size = 4
_length$ = 16						; size = 4
_Cmd_GetMovieList PROC					; COMDAT

; 236  : {

	push	ebp
	mov	ebp, esp
	sub	esp, 336				; 00000150H
	mov	eax, DWORD PTR ___security_cookie
	xor	eax, ebp
	mov	DWORD PTR __$ArrayPad$[ebp], eax
	push	ebx
	push	esi
	push	edi

; 237  : 	search_t		*t;
; 238  : 	string		matchbuf;
; 239  : 	int		i, nummovies;
; 240  : 
; 241  : 	t = FS_Search( va( "media/%s*.avi", s ), true, false );

	push	0
	push	1
	mov	eax, DWORD PTR _s$[ebp]
	push	eax
	push	OFFSET ??_C@_0O@LGBGIICK@media?1?$CFs?$CK?4avi@
	call	_va
	add	esp, 8
	push	eax
	call	_FS_Search
	add	esp, 12					; 0000000cH
	mov	DWORD PTR _t$[ebp], eax

; 242  : 	if( !t ) return false;

	cmp	DWORD PTR _t$[ebp], 0
	jne	SHORT $LN8@Cmd_GetMov
	xor	eax, eax
	jmp	$LN1@Cmd_GetMov
$LN8@Cmd_GetMov:

; 243  : 
; 244  : 	COM_FileBase( t->filenames[0], matchbuf ); 

	lea	eax, DWORD PTR _matchbuf$[ebp]
	push	eax
	mov	ecx, 4
	imul	edx, ecx, 0
	mov	eax, DWORD PTR _t$[ebp]
	mov	ecx, DWORD PTR [eax+4]
	mov	edx, DWORD PTR [ecx+edx]
	push	edx
	call	_COM_FileBase
	add	esp, 8

; 245  : 	if( completedname && length )

	cmp	DWORD PTR _completedname$[ebp], 0
	je	SHORT $LN9@Cmd_GetMov
	cmp	DWORD PTR _length$[ebp], 0
	je	SHORT $LN9@Cmd_GetMov

; 246  : 		Q_strncpy( completedname, matchbuf, length );

	mov	eax, DWORD PTR _length$[ebp]
	push	eax
	lea	ecx, DWORD PTR _matchbuf$[ebp]
	push	ecx
	mov	edx, DWORD PTR _completedname$[ebp]
	push	edx
	call	_Q_strncpy
	add	esp, 12					; 0000000cH
$LN9@Cmd_GetMov:

; 247  : 	if( t->numfilenames == 1 ) return true;

	mov	eax, DWORD PTR _t$[ebp]
	cmp	DWORD PTR [eax], 1
	jne	SHORT $LN10@Cmd_GetMov
	mov	eax, 1
	jmp	$LN1@Cmd_GetMov
$LN10@Cmd_GetMov:

; 248  : 
; 249  : 	for(i = 0, nummovies = 0; i < t->numfilenames; i++)

	mov	DWORD PTR _i$[ebp], 0
	mov	DWORD PTR _nummovies$[ebp], 0
	jmp	SHORT $LN4@Cmd_GetMov
$LN2@Cmd_GetMov:
	mov	eax, DWORD PTR _i$[ebp]
	add	eax, 1
	mov	DWORD PTR _i$[ebp], eax
$LN4@Cmd_GetMov:
	mov	eax, DWORD PTR _t$[ebp]
	mov	ecx, DWORD PTR _i$[ebp]
	cmp	ecx, DWORD PTR [eax]
	jge	SHORT $LN3@Cmd_GetMov

; 250  : 	{
; 251  : 		if( Q_stricmp( COM_FileExtension( t->filenames[i] ), "avi" ))

	push	99999					; 0001869fH
	push	OFFSET ??_C@_03LJGCHEIJ@avi@
	mov	eax, DWORD PTR _t$[ebp]
	mov	ecx, DWORD PTR [eax+4]
	mov	edx, DWORD PTR _i$[ebp]
	mov	eax, DWORD PTR [ecx+edx*4]
	push	eax
	call	_COM_FileExtension
	add	esp, 4
	push	eax
	call	_Q_strnicmp
	add	esp, 12					; 0000000cH
	test	eax, eax
	je	SHORT $LN11@Cmd_GetMov

; 252  : 			continue;

	jmp	SHORT $LN2@Cmd_GetMov
$LN11@Cmd_GetMov:

; 253  : 
; 254  : 		COM_FileBase( t->filenames[i], matchbuf );

	lea	eax, DWORD PTR _matchbuf$[ebp]
	push	eax
	mov	ecx, DWORD PTR _t$[ebp]
	mov	edx, DWORD PTR [ecx+4]
	mov	eax, DWORD PTR _i$[ebp]
	mov	ecx, DWORD PTR [edx+eax*4]
	push	ecx
	call	_COM_FileBase
	add	esp, 8

; 255  : 		Con_Printf( "%16s\n", matchbuf );

	lea	eax, DWORD PTR _matchbuf$[ebp]
	push	eax
	push	OFFSET ??_C@_05PMAFMCBB@?$CF16s?6@
	call	_Con_Printf
	add	esp, 8

; 256  : 		nummovies++;

	mov	eax, DWORD PTR _nummovies$[ebp]
	add	eax, 1
	mov	DWORD PTR _nummovies$[ebp], eax

; 257  : 	}

	jmp	$LN2@Cmd_GetMov
$LN3@Cmd_GetMov:

; 258  : 
; 259  : 	Con_Printf( "\n^3 %i movies found.\n", nummovies );

	mov	eax, DWORD PTR _nummovies$[ebp]
	push	eax
	push	OFFSET ??_C@_0BG@HMLIBPFD@?6?$FO3?5?$CFi?5movies?5found?4?6@
	call	_Con_Printf
	add	esp, 8

; 260  : 	Mem_Free( t );

	mov	eax, DWORD PTR ?__LINE__Var@?0??Cmd_GetMovieList@@9@9
	add	eax, 24					; 00000018H
	push	eax
	push	OFFSET ??_C@_0DG@HHLKLKJI@D?3?2DevDragon?2XashFE?2dev?2src?2eng@
	mov	ecx, DWORD PTR _t$[ebp]
	push	ecx
	call	__Mem_Free
	add	esp, 12					; 0000000cH

; 261  : 
; 262  : 	// cut shortestMatch to the amount common with s
; 263  : 	if( completedname && length )

	cmp	DWORD PTR _completedname$[ebp], 0
	je	SHORT $LN12@Cmd_GetMov
	cmp	DWORD PTR _length$[ebp], 0
	je	SHORT $LN12@Cmd_GetMov

; 264  : 	{
; 265  : 		for( i = 0; matchbuf[i]; i++ )

	mov	DWORD PTR _i$[ebp], 0
	jmp	SHORT $LN7@Cmd_GetMov
$LN5@Cmd_GetMov:
	mov	eax, DWORD PTR _i$[ebp]
	add	eax, 1
	mov	DWORD PTR _i$[ebp], eax
$LN7@Cmd_GetMov:
	mov	eax, DWORD PTR _i$[ebp]
	movsx	ecx, BYTE PTR _matchbuf$[ebp+eax]
	test	ecx, ecx
	je	SHORT $LN12@Cmd_GetMov

; 266  : 		{
; 267  : 			if( Q_tolower( completedname[i] ) != Q_tolower( matchbuf[i] ))

	mov	eax, DWORD PTR _completedname$[ebp]
	add	eax, DWORD PTR _i$[ebp]
	movzx	ecx, BYTE PTR [eax]
	push	ecx
	call	_Q_tolower
	add	esp, 4
	movsx	esi, al
	mov	edx, DWORD PTR _i$[ebp]
	movzx	eax, BYTE PTR _matchbuf$[ebp+edx]
	push	eax
	call	_Q_tolower
	add	esp, 4
	movsx	ecx, al
	cmp	esi, ecx
	je	SHORT $LN13@Cmd_GetMov

; 268  : 				completedname[i] = 0;

	mov	eax, DWORD PTR _completedname$[ebp]
	add	eax, DWORD PTR _i$[ebp]
	mov	BYTE PTR [eax], 0
$LN13@Cmd_GetMov:

; 269  : 		}

	jmp	SHORT $LN5@Cmd_GetMov
$LN12@Cmd_GetMov:

; 270  : 	}
; 271  : 
; 272  : 	return true;

	mov	eax, 1
$LN1@Cmd_GetMov:

; 273  : }

	pop	edi
	pop	esi
	pop	ebx
	mov	ecx, DWORD PTR __$ArrayPad$[ebp]
	xor	ecx, ebp
	call	@__security_check_cookie@4
	mov	esp, ebp
	pop	ebp
	ret	0
_Cmd_GetMovieList ENDP
_TEXT	ENDS
; Function compile flags: /Odtp /ZI
; File D:\DevDragon\XashFE\dev\src\engine\common\con_utils.c
;	COMDAT _Cmd_GetDemoList
_TEXT	SEGMENT
_numdems$ = -272					; size = 4
_i$ = -268						; size = 4
_matchbuf$ = -264					; size = 256
_t$ = -8						; size = 4
__$ArrayPad$ = -4					; size = 4
_s$ = 8							; size = 4
_completedname$ = 12					; size = 4
_length$ = 16						; size = 4
_Cmd_GetDemoList PROC					; COMDAT

; 189  : {

	push	ebp
	mov	ebp, esp
	sub	esp, 336				; 00000150H
	mov	eax, DWORD PTR ___security_cookie
	xor	eax, ebp
	mov	DWORD PTR __$ArrayPad$[ebp], eax
	push	ebx
	push	esi
	push	edi

; 190  : 	search_t		*t;
; 191  : 	string		matchbuf;
; 192  : 	int		i, numdems;
; 193  : 
; 194  : 	// lookup only in gamedir
; 195  : 	t = FS_Search( va( "%s*.dem", s ), true, true );

	push	1
	push	1
	mov	eax, DWORD PTR _s$[ebp]
	push	eax
	push	OFFSET ??_C@_07EAGENFC@?$CFs?$CK?4dem@
	call	_va
	add	esp, 8
	push	eax
	call	_FS_Search
	add	esp, 12					; 0000000cH
	mov	DWORD PTR _t$[ebp], eax

; 196  : 	if( !t ) return false;

	cmp	DWORD PTR _t$[ebp], 0
	jne	SHORT $LN8@Cmd_GetDem
	xor	eax, eax
	jmp	$LN1@Cmd_GetDem
$LN8@Cmd_GetDem:

; 197  : 
; 198  : 	COM_FileBase( t->filenames[0], matchbuf ); 

	lea	eax, DWORD PTR _matchbuf$[ebp]
	push	eax
	mov	ecx, 4
	imul	edx, ecx, 0
	mov	eax, DWORD PTR _t$[ebp]
	mov	ecx, DWORD PTR [eax+4]
	mov	edx, DWORD PTR [ecx+edx]
	push	edx
	call	_COM_FileBase
	add	esp, 8

; 199  : 	if( completedname && length )

	cmp	DWORD PTR _completedname$[ebp], 0
	je	SHORT $LN9@Cmd_GetDem
	cmp	DWORD PTR _length$[ebp], 0
	je	SHORT $LN9@Cmd_GetDem

; 200  : 		Q_strncpy( completedname, matchbuf, length );

	mov	eax, DWORD PTR _length$[ebp]
	push	eax
	lea	ecx, DWORD PTR _matchbuf$[ebp]
	push	ecx
	mov	edx, DWORD PTR _completedname$[ebp]
	push	edx
	call	_Q_strncpy
	add	esp, 12					; 0000000cH
$LN9@Cmd_GetDem:

; 201  : 	if( t->numfilenames == 1 ) return true;

	mov	eax, DWORD PTR _t$[ebp]
	cmp	DWORD PTR [eax], 1
	jne	SHORT $LN10@Cmd_GetDem
	mov	eax, 1
	jmp	$LN1@Cmd_GetDem
$LN10@Cmd_GetDem:

; 202  : 
; 203  : 	for( i = 0, numdems = 0; i < t->numfilenames; i++ )

	mov	DWORD PTR _i$[ebp], 0
	mov	DWORD PTR _numdems$[ebp], 0
	jmp	SHORT $LN4@Cmd_GetDem
$LN2@Cmd_GetDem:
	mov	eax, DWORD PTR _i$[ebp]
	add	eax, 1
	mov	DWORD PTR _i$[ebp], eax
$LN4@Cmd_GetDem:
	mov	eax, DWORD PTR _t$[ebp]
	mov	ecx, DWORD PTR _i$[ebp]
	cmp	ecx, DWORD PTR [eax]
	jge	SHORT $LN3@Cmd_GetDem

; 204  : 	{
; 205  : 		if( Q_stricmp( COM_FileExtension( t->filenames[i] ), "dem" ))

	push	99999					; 0001869fH
	push	OFFSET ??_C@_03PELAFMJG@dem@
	mov	eax, DWORD PTR _t$[ebp]
	mov	ecx, DWORD PTR [eax+4]
	mov	edx, DWORD PTR _i$[ebp]
	mov	eax, DWORD PTR [ecx+edx*4]
	push	eax
	call	_COM_FileExtension
	add	esp, 4
	push	eax
	call	_Q_strnicmp
	add	esp, 12					; 0000000cH
	test	eax, eax
	je	SHORT $LN11@Cmd_GetDem

; 206  : 			continue;

	jmp	SHORT $LN2@Cmd_GetDem
$LN11@Cmd_GetDem:

; 207  : 
; 208  : 		COM_FileBase( t->filenames[i], matchbuf );

	lea	eax, DWORD PTR _matchbuf$[ebp]
	push	eax
	mov	ecx, DWORD PTR _t$[ebp]
	mov	edx, DWORD PTR [ecx+4]
	mov	eax, DWORD PTR _i$[ebp]
	mov	ecx, DWORD PTR [edx+eax*4]
	push	ecx
	call	_COM_FileBase
	add	esp, 8

; 209  : 		Con_Printf( "%16s\n", matchbuf );

	lea	eax, DWORD PTR _matchbuf$[ebp]
	push	eax
	push	OFFSET ??_C@_05PMAFMCBB@?$CF16s?6@
	call	_Con_Printf
	add	esp, 8

; 210  : 		numdems++;

	mov	eax, DWORD PTR _numdems$[ebp]
	add	eax, 1
	mov	DWORD PTR _numdems$[ebp], eax

; 211  : 	}

	jmp	$LN2@Cmd_GetDem
$LN3@Cmd_GetDem:

; 212  : 
; 213  : 	Con_Printf( "\n^3 %i demos found.\n", numdems );

	mov	eax, DWORD PTR _numdems$[ebp]
	push	eax
	push	OFFSET ??_C@_0BF@MIDDJLBI@?6?$FO3?5?$CFi?5demos?5found?4?6@
	call	_Con_Printf
	add	esp, 8

; 214  : 	Mem_Free( t );

	mov	eax, DWORD PTR ?__LINE__Var@?0??Cmd_GetDemoList@@9@9
	add	eax, 25					; 00000019H
	push	eax
	push	OFFSET ??_C@_0DG@HHLKLKJI@D?3?2DevDragon?2XashFE?2dev?2src?2eng@
	mov	ecx, DWORD PTR _t$[ebp]
	push	ecx
	call	__Mem_Free
	add	esp, 12					; 0000000cH

; 215  : 
; 216  : 	// cut shortestMatch to the amount common with s
; 217  : 	if( completedname && length )

	cmp	DWORD PTR _completedname$[ebp], 0
	je	SHORT $LN12@Cmd_GetDem
	cmp	DWORD PTR _length$[ebp], 0
	je	SHORT $LN12@Cmd_GetDem

; 218  : 	{
; 219  : 		for( i = 0; matchbuf[i]; i++ )

	mov	DWORD PTR _i$[ebp], 0
	jmp	SHORT $LN7@Cmd_GetDem
$LN5@Cmd_GetDem:
	mov	eax, DWORD PTR _i$[ebp]
	add	eax, 1
	mov	DWORD PTR _i$[ebp], eax
$LN7@Cmd_GetDem:
	mov	eax, DWORD PTR _i$[ebp]
	movsx	ecx, BYTE PTR _matchbuf$[ebp+eax]
	test	ecx, ecx
	je	SHORT $LN12@Cmd_GetDem

; 220  : 		{
; 221  : 			if( Q_tolower( completedname[i] ) != Q_tolower( matchbuf[i] ))

	mov	eax, DWORD PTR _completedname$[ebp]
	add	eax, DWORD PTR _i$[ebp]
	movzx	ecx, BYTE PTR [eax]
	push	ecx
	call	_Q_tolower
	add	esp, 4
	movsx	esi, al
	mov	edx, DWORD PTR _i$[ebp]
	movzx	eax, BYTE PTR _matchbuf$[ebp+edx]
	push	eax
	call	_Q_tolower
	add	esp, 4
	movsx	ecx, al
	cmp	esi, ecx
	je	SHORT $LN13@Cmd_GetDem

; 222  : 				completedname[i] = 0;

	mov	eax, DWORD PTR _completedname$[ebp]
	add	eax, DWORD PTR _i$[ebp]
	mov	BYTE PTR [eax], 0
$LN13@Cmd_GetDem:

; 223  : 		}

	jmp	SHORT $LN5@Cmd_GetDem
$LN12@Cmd_GetDem:

; 224  : 	}
; 225  : 	return true;

	mov	eax, 1
$LN1@Cmd_GetDem:

; 226  : }

	pop	edi
	pop	esi
	pop	ebx
	mov	ecx, DWORD PTR __$ArrayPad$[ebp]
	xor	ecx, ebp
	call	@__security_check_cookie@4
	mov	esp, ebp
	pop	ebp
	ret	0
_Cmd_GetDemoList ENDP
_TEXT	ENDS
; Function compile flags: /Odtp /ZI
; File D:\DevDragon\XashFE\dev\src\engine\common\con_utils.c
;	COMDAT _Cmd_GetMapList
_TEXT	SEGMENT
tv271 = -4740						; size = 4
tv270 = -4740						; size = 4
$T1 = -4736						; size = 4
_token$2 = -4220					; size = 2048
_hdrext$3 = -2172					; size = 4
_header$4 = -2168					; size = 4
_version$5 = -2164					; size = 4
_validmap$6 = -2160					; size = 4
_pfile$7 = -2156					; size = 4
_ents$8 = -2152						; size = 4
_lumplen$9 = -2148					; size = 4
_lumpofs$10 = -2144					; size = 4
_ver$11 = -2140						; size = 4
_ext$12 = -2136						; size = 4
_entfilename$13 = -2132					; size = 64
_nummaps$ = -2068					; size = 4
_i$ = -2064						; size = 4
_buf$ = -2060						; size = 1024
_matchbuf$ = -1036					; size = 256
_generator$ = -780					; size = 256
_compiler$ = -524					; size = 256
_message$ = -268					; size = 256
_f$ = -12						; size = 4
_t$ = -8						; size = 4
__$ArrayPad$ = -4					; size = 4
_s$ = 8							; size = 4
_completedname$ = 12					; size = 4
_length$ = 16						; size = 4
_Cmd_GetMapList PROC					; COMDAT

; 43   : {

	push	ebp
	mov	ebp, esp
	mov	eax, 4740				; 00001284H
	call	__chkstk
	mov	eax, DWORD PTR ___security_cookie
	xor	eax, ebp
	mov	DWORD PTR __$ArrayPad$[ebp], eax
	push	ebx
	push	esi
	push	edi

; 44   : 	search_t		*t;
; 45   : 	file_t		*f;
; 46   : 	string		message;
; 47   : 	string		compiler;
; 48   : 	string		generator;
; 49   : 	string		matchbuf;
; 50   : 	byte		buf[MAX_SYSPATH]; // 1 kb
; 51   : 	int		i, nummaps;
; 52   : 
; 53   : 	t = FS_Search( va( "maps/%s*.bsp", s ), true, con_gamemaps->value );

	mov	eax, DWORD PTR _con_gamemaps
	cvttss2si ecx, DWORD PTR [eax+12]
	push	ecx
	push	1
	mov	edx, DWORD PTR _s$[ebp]
	push	edx
	push	OFFSET ??_C@_0N@OIMAIDOG@maps?1?$CFs?$CK?4bsp@
	call	_va
	add	esp, 8
	push	eax
	call	_FS_Search
	add	esp, 12					; 0000000cH
	mov	DWORD PTR _t$[ebp], eax

; 54   : 	if( !t ) return false;

	cmp	DWORD PTR _t$[ebp], 0
	jne	SHORT $LN14@Cmd_GetMap
	xor	eax, eax
	jmp	$LN1@Cmd_GetMap
$LN14@Cmd_GetMap:

; 55   : 
; 56   : 	COM_FileBase( t->filenames[0], matchbuf ); 

	lea	eax, DWORD PTR _matchbuf$[ebp]
	push	eax
	mov	ecx, 4
	imul	edx, ecx, 0
	mov	eax, DWORD PTR _t$[ebp]
	mov	ecx, DWORD PTR [eax+4]
	mov	edx, DWORD PTR [ecx+edx]
	push	edx
	call	_COM_FileBase
	add	esp, 8

; 57   : 	if( completedname && length ) 

	cmp	DWORD PTR _completedname$[ebp], 0
	je	SHORT $LN15@Cmd_GetMap
	cmp	DWORD PTR _length$[ebp], 0
	je	SHORT $LN15@Cmd_GetMap

; 58   : 		Q_strncpy( completedname, matchbuf, length );

	mov	eax, DWORD PTR _length$[ebp]
	push	eax
	lea	ecx, DWORD PTR _matchbuf$[ebp]
	push	ecx
	mov	edx, DWORD PTR _completedname$[ebp]
	push	edx
	call	_Q_strncpy
	add	esp, 12					; 0000000cH
$LN15@Cmd_GetMap:

; 59   : 	if( t->numfilenames == 1 ) return true;

	mov	eax, DWORD PTR _t$[ebp]
	cmp	DWORD PTR [eax], 1
	jne	SHORT $LN16@Cmd_GetMap
	mov	eax, 1
	jmp	$LN1@Cmd_GetMap
$LN16@Cmd_GetMap:

; 60   : 
; 61   : 	for( i = 0, nummaps = 0; i < t->numfilenames; i++ )

	mov	DWORD PTR _i$[ebp], 0
	mov	DWORD PTR _nummaps$[ebp], 0
	jmp	SHORT $LN4@Cmd_GetMap
$LN2@Cmd_GetMap:
	mov	eax, DWORD PTR _i$[ebp]
	add	eax, 1
	mov	DWORD PTR _i$[ebp], eax
$LN4@Cmd_GetMap:
	mov	eax, DWORD PTR _t$[ebp]
	mov	ecx, DWORD PTR _i$[ebp]
	cmp	ecx, DWORD PTR [eax]
	jge	$LN3@Cmd_GetMap

; 62   : 	{
; 63   : 		char		entfilename[MAX_QPATH];
; 64   : 		const char	*ext = COM_FileExtension( t->filenames[i] ); 

	mov	eax, DWORD PTR _t$[ebp]
	mov	ecx, DWORD PTR [eax+4]
	mov	edx, DWORD PTR _i$[ebp]
	mov	eax, DWORD PTR [ecx+edx*4]
	push	eax
	call	_COM_FileExtension
	add	esp, 4
	mov	DWORD PTR _ext$12[ebp], eax

; 65   : 		int		ver = -1, lumpofs = 0, lumplen = 0;

	mov	DWORD PTR _ver$11[ebp], -1
	mov	DWORD PTR _lumpofs$10[ebp], 0
	mov	DWORD PTR _lumplen$9[ebp], 0

; 66   : 		char		*ents = NULL, *pfile;

	mov	DWORD PTR _ents$8[ebp], 0

; 67   : 		qboolean		validmap = false;

	mov	DWORD PTR _validmap$6[ebp], 0

; 68   : 		int		version = 0;

	mov	DWORD PTR _version$5[ebp], 0

; 69   : 
; 70   : 		if( Q_stricmp( ext, "bsp" )) continue;

	push	99999					; 0001869fH
	push	OFFSET ??_C@_03DGBMLAJE@bsp@
	mov	eax, DWORD PTR _ext$12[ebp]
	push	eax
	call	_Q_strnicmp
	add	esp, 12					; 0000000cH
	test	eax, eax
	je	SHORT $LN17@Cmd_GetMap
	jmp	$LN2@Cmd_GetMap
$LN17@Cmd_GetMap:

; 71   : 		Q_strncpy( message, "^1error^7", sizeof( message ));

	push	256					; 00000100H
	push	OFFSET ??_C@_09LIFBNPB@?$FO1error?$FO7@
	lea	eax, DWORD PTR _message$[ebp]
	push	eax
	call	_Q_strncpy
	add	esp, 12					; 0000000cH

; 72   : 		Q_strncpy( compiler, "", sizeof( compiler ));

	push	256					; 00000100H
	push	OFFSET ??_C@_00CNPNBAHC@@
	lea	eax, DWORD PTR _compiler$[ebp]
	push	eax
	call	_Q_strncpy
	add	esp, 12					; 0000000cH

; 73   : 		Q_strncpy( generator, "", sizeof( generator ));

	push	256					; 00000100H
	push	OFFSET ??_C@_00CNPNBAHC@@
	lea	eax, DWORD PTR _generator$[ebp]
	push	eax
	call	_Q_strncpy
	add	esp, 12					; 0000000cH

; 74   : 		f = FS_Open( t->filenames[i], "rb", con_gamemaps->value );

	mov	eax, DWORD PTR _con_gamemaps
	cvttss2si ecx, DWORD PTR [eax+12]
	push	ecx
	push	OFFSET ??_C@_02JDPG@rb@
	mov	edx, DWORD PTR _t$[ebp]
	mov	eax, DWORD PTR [edx+4]
	mov	ecx, DWORD PTR _i$[ebp]
	mov	edx, DWORD PTR [eax+ecx*4]
	push	edx
	call	_FS_Open
	add	esp, 12					; 0000000cH
	mov	DWORD PTR _f$[ebp], eax

; 75   : 	
; 76   : 		if( f )

	cmp	DWORD PTR _f$[ebp], 0
	je	$LN22@Cmd_GetMap

; 77   : 		{
; 78   : 			dheader_t		*header;
; 79   : 			dextrahdr_t	*hdrext;
; 80   : 
; 81   : 			memset( buf, 0, sizeof( buf ));

	push	1024					; 00000400H
	push	0
	lea	eax, DWORD PTR _buf$[ebp]
	push	eax
	call	_memset
	add	esp, 12					; 0000000cH

; 82   : 			FS_Read( f, buf, sizeof( buf ));

	push	1024					; 00000400H
	lea	eax, DWORD PTR _buf$[ebp]
	push	eax
	mov	ecx, DWORD PTR _f$[ebp]
	push	ecx
	call	_FS_Read
	add	esp, 12					; 0000000cH

; 83   : 			header = (dheader_t *)buf;

	lea	eax, DWORD PTR _buf$[ebp]
	mov	DWORD PTR _header$4[ebp], eax

; 84   : 			ver = header->version;

	mov	eax, DWORD PTR _header$4[ebp]
	mov	ecx, DWORD PTR [eax]
	mov	DWORD PTR _ver$11[ebp], ecx

; 85   : 
; 86   : 			// check all the lumps and some other errors
; 87   : 			if( Mod_TestBmodelLumps( t->filenames[i], buf, true ))

	push	1
	lea	eax, DWORD PTR _buf$[ebp]
	push	eax
	mov	ecx, DWORD PTR _t$[ebp]
	mov	edx, DWORD PTR [ecx+4]
	mov	eax, DWORD PTR _i$[ebp]
	mov	ecx, DWORD PTR [edx+eax*4]
	push	ecx
	call	_Mod_TestBmodelLumps
	add	esp, 12					; 0000000cH
	test	eax, eax
	je	SHORT $LN19@Cmd_GetMap

; 88   : 			{
; 89   : 				lumpofs = header->lumps[LUMP_ENTITIES].fileofs;

	mov	eax, 8
	imul	ecx, eax, 0
	mov	edx, DWORD PTR _header$4[ebp]
	mov	eax, DWORD PTR [edx+ecx+4]
	mov	DWORD PTR _lumpofs$10[ebp], eax

; 90   : 				lumplen = header->lumps[LUMP_ENTITIES].filelen;

	mov	eax, 8
	imul	ecx, eax, 0
	mov	edx, DWORD PTR _header$4[ebp]
	mov	eax, DWORD PTR [edx+ecx+8]
	mov	DWORD PTR _lumplen$9[ebp], eax

; 91   : 				ver = header->version;

	mov	eax, DWORD PTR _header$4[ebp]
	mov	ecx, DWORD PTR [eax]
	mov	DWORD PTR _ver$11[ebp], ecx
$LN19@Cmd_GetMap:

; 92   : 			}
; 93   : 
; 94   : 			hdrext = (dextrahdr_t *)((byte *)buf + sizeof( dheader_t ));

	lea	eax, DWORD PTR _buf$[ebp+124]
	mov	DWORD PTR _hdrext$3[ebp], eax

; 95   : 			if( hdrext->id == IDEXTRAHEADER ) version = hdrext->version;

	mov	eax, DWORD PTR _hdrext$3[ebp]
	cmp	DWORD PTR [eax], 1213415768		; 48534158H
	jne	SHORT $LN20@Cmd_GetMap
	mov	eax, DWORD PTR _hdrext$3[ebp]
	mov	ecx, DWORD PTR [eax+4]
	mov	DWORD PTR _version$5[ebp], ecx
$LN20@Cmd_GetMap:

; 96   : 
; 97   : 			Q_strncpy( entfilename, t->filenames[i], sizeof( entfilename ));

	push	64					; 00000040H
	mov	eax, DWORD PTR _t$[ebp]
	mov	ecx, DWORD PTR [eax+4]
	mov	edx, DWORD PTR _i$[ebp]
	mov	eax, DWORD PTR [ecx+edx*4]
	push	eax
	lea	ecx, DWORD PTR _entfilename$13[ebp]
	push	ecx
	call	_Q_strncpy
	add	esp, 12					; 0000000cH

; 98   : 			COM_StripExtension( entfilename );

	lea	eax, DWORD PTR _entfilename$13[ebp]
	push	eax
	call	_COM_StripExtension
	add	esp, 4

; 99   : 			COM_DefaultExtension( entfilename, ".ent" );

	push	OFFSET ??_C@_04ECMOMEGO@?4ent@
	lea	eax, DWORD PTR _entfilename$13[ebp]
	push	eax
	call	_COM_DefaultExtension
	add	esp, 8

; 100  : 			ents = FS_LoadFile( entfilename, NULL, true );

	push	1
	push	0
	lea	eax, DWORD PTR _entfilename$13[ebp]
	push	eax
	call	_FS_LoadFile
	add	esp, 12					; 0000000cH
	mov	DWORD PTR _ents$8[ebp], eax

; 101  : 
; 102  : 			if( !ents && lumplen >= 10 )

	cmp	DWORD PTR _ents$8[ebp], 0
	jne	SHORT $LN21@Cmd_GetMap
	cmp	DWORD PTR _lumplen$9[ebp], 10		; 0000000aH
	jl	SHORT $LN21@Cmd_GetMap

; 103  : 			{
; 104  : 				FS_Seek( f, lumpofs, SEEK_SET );

	push	0
	mov	eax, DWORD PTR _lumpofs$10[ebp]
	push	eax
	mov	ecx, DWORD PTR _f$[ebp]
	push	ecx
	call	_FS_Seek
	add	esp, 12					; 0000000cH

; 105  : 				ents = (char *)Mem_Calloc( host.mempool, lumplen + 1 );

	mov	eax, DWORD PTR ?__LINE__Var@?0??Cmd_GetMapList@@9@9
	add	eax, 62					; 0000003eH
	push	eax
	push	OFFSET ??_C@_0DG@HHLKLKJI@D?3?2DevDragon?2XashFE?2dev?2src?2eng@
	push	1
	mov	ecx, DWORD PTR _lumplen$9[ebp]
	add	ecx, 1
	push	ecx
	mov	edx, DWORD PTR _host+236
	push	edx
	call	__Mem_Alloc
	add	esp, 20					; 00000014H
	mov	DWORD PTR _ents$8[ebp], eax

; 106  : 				FS_Read( f, ents, lumplen );

	mov	eax, DWORD PTR _lumplen$9[ebp]
	push	eax
	mov	ecx, DWORD PTR _ents$8[ebp]
	push	ecx
	mov	edx, DWORD PTR _f$[ebp]
	push	edx
	call	_FS_Read
	add	esp, 12					; 0000000cH
$LN21@Cmd_GetMap:

; 107  : 			}
; 108  : 
; 109  : 			if( ents )

	cmp	DWORD PTR _ents$8[ebp], 0
	je	$LN22@Cmd_GetMap

; 110  : 			{
; 111  : 				// if there are entities to parse, a missing message key just
; 112  : 				// means there is no title, so clear the message string now
; 113  : 				char	token[2048];
; 114  : 
; 115  : 				message[0] = 0; // remove 'error'

	mov	eax, 1
	imul	ecx, eax, 0
	mov	DWORD PTR $T1[ebp], ecx
	cmp	DWORD PTR $T1[ebp], 256			; 00000100H
	jae	SHORT $LN45@Cmd_GetMap
	jmp	SHORT $LN46@Cmd_GetMap
$LN45@Cmd_GetMap:
	call	___report_rangecheckfailure
$LN46@Cmd_GetMap:
	mov	edx, DWORD PTR $T1[ebp]
	mov	BYTE PTR _message$[ebp+edx], 0

; 116  : 				pfile = ents;

	mov	eax, DWORD PTR _ents$8[ebp]
	mov	DWORD PTR _pfile$7[ebp], eax
$LN47@Cmd_GetMap:

; 117  : 
; 118  : 				while(( pfile = COM_ParseFile( pfile, token )) != NULL )

	lea	eax, DWORD PTR _token$2[ebp]
	push	eax
	mov	ecx, DWORD PTR _pfile$7[ebp]
	push	ecx
	call	_COM_ParseFile
	add	esp, 8
	mov	DWORD PTR _pfile$7[ebp], eax
	cmp	DWORD PTR _pfile$7[ebp], 0
	je	$LN6@Cmd_GetMap

; 119  : 				{
; 120  : 					if( !Q_strcmp( token, "{" )) continue;

	push	99999					; 0001869fH
	push	OFFSET ??_C@_01HCONENDN@?$HL@
	lea	eax, DWORD PTR _token$2[ebp]
	push	eax
	call	_Q_strncmp
	add	esp, 12					; 0000000cH
	test	eax, eax
	jne	SHORT $LN23@Cmd_GetMap
	jmp	SHORT $LN47@Cmd_GetMap
	jmp	$LN32@Cmd_GetMap
$LN23@Cmd_GetMap:

; 121  : 					else if( !Q_strcmp( token, "}" )) break;

	push	99999					; 0001869fH
	push	OFFSET ??_C@_01CELHOKLL@?$HN@
	lea	eax, DWORD PTR _token$2[ebp]
	push	eax
	call	_Q_strncmp
	add	esp, 12					; 0000000cH
	test	eax, eax
	jne	SHORT $LN25@Cmd_GetMap
	jmp	$LN6@Cmd_GetMap
	jmp	$LN32@Cmd_GetMap
$LN25@Cmd_GetMap:

; 122  : 					else if( !Q_strcmp( token, "message" ))

	push	99999					; 0001869fH
	push	OFFSET ??_C@_07ONPBMBOP@message@
	lea	eax, DWORD PTR _token$2[ebp]
	push	eax
	call	_Q_strncmp
	add	esp, 12					; 0000000cH
	test	eax, eax
	jne	SHORT $LN27@Cmd_GetMap

; 123  : 					{
; 124  : 						// get the message contents
; 125  : 						pfile = COM_ParseFile( pfile, message );

	lea	eax, DWORD PTR _message$[ebp]
	push	eax
	mov	ecx, DWORD PTR _pfile$7[ebp]
	push	ecx
	call	_COM_ParseFile
	add	esp, 8
	mov	DWORD PTR _pfile$7[ebp], eax

; 126  : 					}

	jmp	$LN32@Cmd_GetMap
$LN27@Cmd_GetMap:

; 127  : 					else if( !Q_strcmp( token, "compiler" ) || !Q_strcmp( token, "_compiler" ))

	push	99999					; 0001869fH
	push	OFFSET ??_C@_08CCFHILPL@compiler@
	lea	eax, DWORD PTR _token$2[ebp]
	push	eax
	call	_Q_strncmp
	add	esp, 12					; 0000000cH
	test	eax, eax
	je	SHORT $LN31@Cmd_GetMap
	push	99999					; 0001869fH
	push	OFFSET ??_C@_09GPMLCKOG@_compiler@
	lea	eax, DWORD PTR _token$2[ebp]
	push	eax
	call	_Q_strncmp
	add	esp, 12					; 0000000cH
	test	eax, eax
	jne	SHORT $LN29@Cmd_GetMap
$LN31@Cmd_GetMap:

; 128  : 					{
; 129  : 						// get the message contents
; 130  : 						pfile = COM_ParseFile( pfile, compiler );

	lea	eax, DWORD PTR _compiler$[ebp]
	push	eax
	mov	ecx, DWORD PTR _pfile$7[ebp]
	push	ecx
	call	_COM_ParseFile
	add	esp, 8
	mov	DWORD PTR _pfile$7[ebp], eax

; 131  : 					}

	jmp	SHORT $LN32@Cmd_GetMap
$LN29@Cmd_GetMap:

; 132  : 					else if( !Q_strcmp( token, "generator" ) || !Q_strcmp( token, "_generator" ))

	push	99999					; 0001869fH
	push	OFFSET ??_C@_09HNDCMPDF@generator@
	lea	eax, DWORD PTR _token$2[ebp]
	push	eax
	call	_Q_strncmp
	add	esp, 12					; 0000000cH
	test	eax, eax
	je	SHORT $LN33@Cmd_GetMap
	push	99999					; 0001869fH
	push	OFFSET ??_C@_0L@BOHJDPEN@_generator@
	lea	eax, DWORD PTR _token$2[ebp]
	push	eax
	call	_Q_strncmp
	add	esp, 12					; 0000000cH
	test	eax, eax
	jne	SHORT $LN32@Cmd_GetMap
$LN33@Cmd_GetMap:

; 133  : 					{
; 134  : 						// get the message contents
; 135  : 						pfile = COM_ParseFile( pfile, generator );

	lea	eax, DWORD PTR _generator$[ebp]
	push	eax
	mov	ecx, DWORD PTR _pfile$7[ebp]
	push	ecx
	call	_COM_ParseFile
	add	esp, 8
	mov	DWORD PTR _pfile$7[ebp], eax
$LN32@Cmd_GetMap:

; 136  : 					}
; 137  : 				}

	jmp	$LN47@Cmd_GetMap
$LN6@Cmd_GetMap:

; 138  : 				Mem_Free( ents );

	mov	eax, DWORD PTR ?__LINE__Var@?0??Cmd_GetMapList@@9@9
	add	eax, 95					; 0000005fH
	push	eax
	push	OFFSET ??_C@_0DG@HHLKLKJI@D?3?2DevDragon?2XashFE?2dev?2src?2eng@
	mov	ecx, DWORD PTR _ents$8[ebp]
	push	ecx
	call	__Mem_Free
	add	esp, 12					; 0000000cH
$LN22@Cmd_GetMap:

; 139  : 			}
; 140  : 		}
; 141  : 
; 142  : 		if( f ) FS_Close(f);

	cmp	DWORD PTR _f$[ebp], 0
	je	SHORT $LN34@Cmd_GetMap
	mov	eax, DWORD PTR _f$[ebp]
	push	eax
	call	_FS_Close
	add	esp, 4
$LN34@Cmd_GetMap:

; 143  : 		COM_FileBase( t->filenames[i], matchbuf );

	lea	eax, DWORD PTR _matchbuf$[ebp]
	push	eax
	mov	ecx, DWORD PTR _t$[ebp]
	mov	edx, DWORD PTR [ecx+4]
	mov	eax, DWORD PTR _i$[ebp]
	mov	ecx, DWORD PTR [edx+eax*4]
	push	ecx
	call	_COM_FileBase
	add	esp, 8

; 144  : 
; 145  : 		switch( ver )

	mov	eax, DWORD PTR _ver$11[ebp]
	mov	DWORD PTR tv270[ebp], eax
	cmp	DWORD PTR tv270[ebp], 29		; 0000001dH
	je	SHORT $LN35@Cmd_GetMap
	cmp	DWORD PTR tv270[ebp], 30		; 0000001eH
	je	SHORT $LN37@Cmd_GetMap
	cmp	DWORD PTR tv270[ebp], 844124994		; 32505342H
	je	SHORT $LN36@Cmd_GetMap
	jmp	$LN42@Cmd_GetMap
$LN35@Cmd_GetMap:

; 146  : 		{
; 147  : 		case Q1BSP_VERSION:
; 148  : 			Q_strncpy( buf, "Quake", sizeof( buf ));

	push	1024					; 00000400H
	push	OFFSET ??_C@_05GHEPMBPE@Quake@
	lea	eax, DWORD PTR _buf$[ebp]
	push	eax
	call	_Q_strncpy
	add	esp, 12					; 0000000cH

; 149  : 			break;

	jmp	$LN7@Cmd_GetMap
$LN36@Cmd_GetMap:

; 150  : 		case QBSP2_VERSION:
; 151  : 			Q_strncpy( buf, "Darkplaces BSP2", sizeof( buf ));

	push	1024					; 00000400H
	push	OFFSET ??_C@_0BA@ONNKGFBG@Darkplaces?5BSP2@
	lea	eax, DWORD PTR _buf$[ebp]
	push	eax
	call	_Q_strncpy
	add	esp, 12					; 0000000cH

; 152  : 			break;

	jmp	$LN7@Cmd_GetMap
$LN37@Cmd_GetMap:

; 153  : 		case HLBSP_VERSION:
; 154  : 			switch( version )

	mov	eax, DWORD PTR _version$5[ebp]
	mov	DWORD PTR tv271[ebp], eax
	cmp	DWORD PTR tv271[ebp], 1
	je	SHORT $LN38@Cmd_GetMap
	cmp	DWORD PTR tv271[ebp], 2
	je	SHORT $LN39@Cmd_GetMap
	cmp	DWORD PTR tv271[ebp], 4
	je	SHORT $LN40@Cmd_GetMap
	jmp	SHORT $LN41@Cmd_GetMap
$LN38@Cmd_GetMap:

; 155  : 			{
; 156  : 			case 1: Q_strncpy( buf, "XashXT old format", sizeof( buf )); break;

	push	1024					; 00000400H
	push	OFFSET ??_C@_0BC@PIEDICIK@XashXT?5old?5format@
	lea	eax, DWORD PTR _buf$[ebp]
	push	eax
	call	_Q_strncpy
	add	esp, 12					; 0000000cH
	jmp	SHORT $LN9@Cmd_GetMap
$LN39@Cmd_GetMap:

; 157  : 			case 2: Q_strncpy( buf, "Paranoia 2: Savior", sizeof( buf )); break;

	push	1024					; 00000400H
	push	OFFSET ??_C@_0BD@MEIKLKL@Paranoia?52?3?5Savior@
	lea	eax, DWORD PTR _buf$[ebp]
	push	eax
	call	_Q_strncpy
	add	esp, 12					; 0000000cH
	jmp	SHORT $LN9@Cmd_GetMap
$LN40@Cmd_GetMap:

; 158  : 			case 4: Q_strncpy( buf, "Half-Life extended", sizeof( buf )); break;

	push	1024					; 00000400H
	push	OFFSET ??_C@_0BD@COCOECAF@Half?9Life?5extended@
	lea	eax, DWORD PTR _buf$[ebp]
	push	eax
	call	_Q_strncpy
	add	esp, 12					; 0000000cH
	jmp	SHORT $LN9@Cmd_GetMap
$LN41@Cmd_GetMap:

; 159  : 			default: Q_strncpy( buf, "Half-Life", sizeof( buf )); break;

	push	1024					; 00000400H
	push	OFFSET ??_C@_09IBONLKEI@Half?9Life@
	lea	eax, DWORD PTR _buf$[ebp]
	push	eax
	call	_Q_strncpy
	add	esp, 12					; 0000000cH
$LN9@Cmd_GetMap:

; 160  : 			}
; 161  : 			break;

	jmp	SHORT $LN7@Cmd_GetMap
$LN42@Cmd_GetMap:

; 162  : 		default:	Q_strncpy( buf, "??", sizeof( buf )); break;

	push	1024					; 00000400H
	push	OFFSET ??_C@_02HHFHKOHM@?$DP?$DP@
	lea	eax, DWORD PTR _buf$[ebp]
	push	eax
	call	_Q_strncpy
	add	esp, 12					; 0000000cH
$LN7@Cmd_GetMap:

; 163  : 		}
; 164  : 
; 165  : 		Con_Printf( "%16s (%s) ^3%s^7 ^2%s %s^7\n", matchbuf, buf, message, compiler, generator );

	lea	eax, DWORD PTR _generator$[ebp]
	push	eax
	lea	ecx, DWORD PTR _compiler$[ebp]
	push	ecx
	lea	edx, DWORD PTR _message$[ebp]
	push	edx
	lea	eax, DWORD PTR _buf$[ebp]
	push	eax
	lea	ecx, DWORD PTR _matchbuf$[ebp]
	push	ecx
	push	OFFSET ??_C@_0BM@HPCPIGGF@?$CF16s?5?$CI?$CFs?$CJ?5?$FO3?$CFs?$FO7?5?$FO2?$CFs?5?$CFs?$FO7?6@
	call	_Con_Printf
	add	esp, 24					; 00000018H

; 166  : 		nummaps++;

	mov	eax, DWORD PTR _nummaps$[ebp]
	add	eax, 1
	mov	DWORD PTR _nummaps$[ebp], eax

; 167  : 	}

	jmp	$LN2@Cmd_GetMap
$LN3@Cmd_GetMap:

; 168  : 
; 169  : 	Con_Printf( "\n^3 %i maps found.\n", nummaps );

	mov	eax, DWORD PTR _nummaps$[ebp]
	push	eax
	push	OFFSET ??_C@_0BE@LPOMNFKB@?6?$FO3?5?$CFi?5maps?5found?4?6@
	call	_Con_Printf
	add	esp, 8

; 170  : 	Mem_Free( t );

	mov	eax, DWORD PTR ?__LINE__Var@?0??Cmd_GetMapList@@9@9
	add	eax, 127				; 0000007fH
	push	eax
	push	OFFSET ??_C@_0DG@HHLKLKJI@D?3?2DevDragon?2XashFE?2dev?2src?2eng@
	mov	ecx, DWORD PTR _t$[ebp]
	push	ecx
	call	__Mem_Free
	add	esp, 12					; 0000000cH

; 171  : 
; 172  : 	// cut shortestMatch to the amount common with s
; 173  : 	for( i = 0; matchbuf[i]; i++ )

	mov	DWORD PTR _i$[ebp], 0
	jmp	SHORT $LN13@Cmd_GetMap
$LN11@Cmd_GetMap:
	mov	eax, DWORD PTR _i$[ebp]
	add	eax, 1
	mov	DWORD PTR _i$[ebp], eax
$LN13@Cmd_GetMap:
	mov	eax, DWORD PTR _i$[ebp]
	movsx	ecx, BYTE PTR _matchbuf$[ebp+eax]
	test	ecx, ecx
	je	SHORT $LN12@Cmd_GetMap

; 174  : 	{
; 175  : 		if( Q_tolower( completedname[i] ) != Q_tolower( matchbuf[i] ))

	mov	eax, DWORD PTR _completedname$[ebp]
	add	eax, DWORD PTR _i$[ebp]
	movzx	ecx, BYTE PTR [eax]
	push	ecx
	call	_Q_tolower
	add	esp, 4
	movsx	esi, al
	mov	edx, DWORD PTR _i$[ebp]
	movzx	eax, BYTE PTR _matchbuf$[ebp+edx]
	push	eax
	call	_Q_tolower
	add	esp, 4
	movsx	ecx, al
	cmp	esi, ecx
	je	SHORT $LN43@Cmd_GetMap

; 176  : 			completedname[i] = 0;

	mov	eax, DWORD PTR _completedname$[ebp]
	add	eax, DWORD PTR _i$[ebp]
	mov	BYTE PTR [eax], 0
$LN43@Cmd_GetMap:

; 177  : 	}

	jmp	SHORT $LN11@Cmd_GetMap
$LN12@Cmd_GetMap:

; 178  : 	return true;

	mov	eax, 1
$LN1@Cmd_GetMap:

; 179  : }

	pop	edi
	pop	esi
	pop	ebx
	mov	ecx, DWORD PTR __$ArrayPad$[ebp]
	xor	ecx, ebp
	call	@__security_check_cookie@4
	mov	esp, ebp
	pop	ebp
	ret	0
_Cmd_GetMapList ENDP
_TEXT	ENDS
END
