; Listing generated by Microsoft (R) Optimizing Compiler Version 19.37.32705.0 

	TITLE	D:\DevDragon\XashFE\dev\src\temp\engine\!debug\custom.obj
	.686P
	.XMM
	include listing.inc
	.model	flat

INCLUDELIB MSVCRTD
INCLUDELIB OLDNAMES

PUBLIC	_COM_ClearCustomizationList
PUBLIC	_COM_CreateCustomization
PUBLIC	_COM_SizeofResourceList
PUBLIC	_CustomDecal_Validate
PUBLIC	??_C@_09DMNOKPHB@?$CDlogo?4bmp@			; `string'
PUBLIC	?__LINE__Var@?0??COM_ClearCustomizationList@@9@9 ; `COM_ClearCustomizationList'::`1'::__LINE__Var
PUBLIC	??_C@_0DD@JODPHGOH@D?3?2DevDragon?2XashFE?2dev?2src?2eng@ ; `string'
PUBLIC	?__LINE__Var@?0??COM_CreateCustomization@@9@9	; `COM_CreateCustomization'::`1'::__LINE__Var
PUBLIC	??_C@_0L@DHBFCELB@custom?4hpk@			; `string'
EXTRN	_memset:PROC
EXTRN	__Mem_Alloc:PROC
EXTRN	__Mem_Free:PROC
EXTRN	_FS_LoadFile:PROC
EXTRN	_FS_LoadImage:PROC
EXTRN	_FS_FreeImage:PROC
EXTRN	_CL_Active:PROC
EXTRN	_HPAK_GetDataPointer:PROC
EXTRN	_R_DecalRemoveAll:PROC
EXTRN	_host:BYTE
;	COMDAT ??_C@_0L@DHBFCELB@custom?4hpk@
CONST	SEGMENT
??_C@_0L@DHBFCELB@custom?4hpk@ DB 'custom.hpk', 00H	; `string'
CONST	ENDS
;	COMDAT ?__LINE__Var@?0??COM_CreateCustomization@@9@9
_DATA	SEGMENT
?__LINE__Var@?0??COM_CreateCustomization@@9@9 DD 03eH	; `COM_CreateCustomization'::`1'::__LINE__Var
_DATA	ENDS
;	COMDAT ??_C@_0DD@JODPHGOH@D?3?2DevDragon?2XashFE?2dev?2src?2eng@
CONST	SEGMENT
??_C@_0DD@JODPHGOH@D?3?2DevDragon?2XashFE?2dev?2src?2eng@ DB 'D:\DevDrago'
	DB	'n\XashFE\dev\src\engine\common\custom.c', 00H ; `string'
CONST	ENDS
;	COMDAT ?__LINE__Var@?0??COM_ClearCustomizationList@@9@9
_DATA	SEGMENT
?__LINE__Var@?0??COM_ClearCustomizationList@@9@9 DD 022H ; `COM_ClearCustomizationList'::`1'::__LINE__Var
_DATA	ENDS
;	COMDAT ??_C@_09DMNOKPHB@?$CDlogo?4bmp@
CONST	SEGMENT
??_C@_09DMNOKPHB@?$CDlogo?4bmp@ DB '#logo.bmp', 00H	; `string'
CONST	ENDS
; Function compile flags: /Odtp /ZI
; File D:\DevDragon\XashFE\dev\src\engine\common\custom.c
;	COMDAT _CustomDecal_Validate
_TEXT	SEGMENT
_test$ = -4						; size = 4
_raw$ = 8						; size = 4
_nFileSize$ = 12					; size = 4
_CustomDecal_Validate PROC				; COMDAT

; 20   : {

	push	ebp
	mov	ebp, esp
	sub	esp, 68					; 00000044H
	push	ebx
	push	esi
	push	edi

; 21   : 	rgbdata_t	*test = FS_LoadImage( "#logo.bmp", raw, nFileSize );

	mov	eax, DWORD PTR _nFileSize$[ebp]
	push	eax
	mov	ecx, DWORD PTR _raw$[ebp]
	push	ecx
	push	OFFSET ??_C@_09DMNOKPHB@?$CDlogo?4bmp@
	call	_FS_LoadImage
	add	esp, 12					; 0000000cH
	mov	DWORD PTR _test$[ebp], eax

; 22   : 
; 23   : 	if( test )

	cmp	DWORD PTR _test$[ebp], 0
	je	SHORT $LN2@CustomDeca

; 24   : 	{
; 25   : 		// all's ok, logo is valid
; 26   : 		FS_FreeImage( test );

	mov	eax, DWORD PTR _test$[ebp]
	push	eax
	call	_FS_FreeImage
	add	esp, 4

; 27   : 		return true;

	mov	eax, 1
	jmp	SHORT $LN1@CustomDeca
$LN2@CustomDeca:

; 28   : 	}
; 29   : 
; 30   : 	return false;

	xor	eax, eax
$LN1@CustomDeca:

; 31   : }

	pop	edi
	pop	esi
	pop	ebx
	mov	esp, ebp
	pop	ebp
	ret	0
_CustomDecal_Validate ENDP
_TEXT	ENDS
; Function compile flags: /Odtp /ZI
; File D:\DevDragon\XashFE\dev\src\engine\common\custom.c
;	COMDAT _COM_SizeofResourceList
_TEXT	SEGMENT
_p$ = -8						; size = 4
_nSize$ = -4						; size = 4
_pList$ = 8						; size = 4
_ri$ = 12						; size = 4
_COM_SizeofResourceList PROC				; COMDAT

; 134  : {

	push	ebp
	mov	ebp, esp
	sub	esp, 72					; 00000048H
	push	ebx
	push	esi
	push	edi

; 135  : 	int		nSize = 0;

	mov	DWORD PTR _nSize$[ebp], 0

; 136  : 	resource_t	*p;
; 137  : 
; 138  : 	memset( ri, 0, sizeof( *ri ));

	push	32					; 00000020H
	push	0
	mov	eax, DWORD PTR _ri$[ebp]
	push	eax
	call	_memset
	add	esp, 12					; 0000000cH

; 139  : 
; 140  : 	for( p = pList->pNext; p != pList; p = p->pNext )

	mov	eax, DWORD PTR _pList$[ebp]
	mov	ecx, DWORD PTR [eax+128]
	mov	DWORD PTR _p$[ebp], ecx
	jmp	SHORT $LN4@COM_Sizeof
$LN2@COM_Sizeof:
	mov	eax, DWORD PTR _p$[ebp]
	mov	ecx, DWORD PTR [eax+128]
	mov	DWORD PTR _p$[ebp], ecx
$LN4@COM_Sizeof:
	mov	eax, DWORD PTR _p$[ebp]
	cmp	eax, DWORD PTR _pList$[ebp]
	je	SHORT $LN3@COM_Sizeof

; 141  : 	{
; 142  : 		nSize += p->nDownloadSize;

	mov	eax, DWORD PTR _p$[ebp]
	mov	ecx, DWORD PTR _nSize$[ebp]
	add	ecx, DWORD PTR [eax+72]
	mov	DWORD PTR _nSize$[ebp], ecx

; 143  : 
; 144  : 		if( p->type == t_model && p->nIndex == 1 )

	mov	eax, DWORD PTR _p$[ebp]
	cmp	DWORD PTR [eax+64], 2
	jne	SHORT $LN5@COM_Sizeof
	mov	eax, DWORD PTR _p$[ebp]
	cmp	DWORD PTR [eax+68], 1
	jne	SHORT $LN5@COM_Sizeof

; 145  : 			ri->info[t_world].size += p->nDownloadSize;

	mov	eax, 4
	imul	ecx, eax, 6
	mov	edx, DWORD PTR _ri$[ebp]
	mov	eax, DWORD PTR [edx+ecx]
	mov	ecx, DWORD PTR _p$[ebp]
	add	eax, DWORD PTR [ecx+72]
	mov	edx, 4
	imul	ecx, edx, 6
	mov	edx, DWORD PTR _ri$[ebp]
	mov	DWORD PTR [edx+ecx], eax
	jmp	SHORT $LN6@COM_Sizeof
$LN5@COM_Sizeof:

; 146  : 		else ri->info[p->type].size += p->nDownloadSize;

	mov	eax, DWORD PTR _p$[ebp]
	mov	ecx, DWORD PTR [eax+64]
	mov	edx, DWORD PTR _ri$[ebp]
	mov	eax, DWORD PTR [edx+ecx*4]
	mov	ecx, DWORD PTR _p$[ebp]
	add	eax, DWORD PTR [ecx+72]
	mov	edx, DWORD PTR _p$[ebp]
	mov	ecx, DWORD PTR [edx+64]
	mov	edx, DWORD PTR _ri$[ebp]
	mov	DWORD PTR [edx+ecx*4], eax
$LN6@COM_Sizeof:

; 147  : 	}

	jmp	SHORT $LN2@COM_Sizeof
$LN3@COM_Sizeof:

; 148  : 
; 149  : 	return nSize;

	mov	eax, DWORD PTR _nSize$[ebp]

; 150  : }

	pop	edi
	pop	esi
	pop	ebx
	mov	esp, ebp
	pop	ebp
	ret	0
_COM_SizeofResourceList ENDP
_TEXT	ENDS
; Function compile flags: /Odtp /ZI
; File D:\DevDragon\XashFE\dev\src\engine\common\custom.c
;	COMDAT _COM_CreateCustomization
_TEXT	SEGMENT
_pCust$ = -12						; size = 4
_checksize$ = -8					; size = 4
_bError$ = -4						; size = 4
_pListHead$ = 8						; size = 4
_pResource$ = 12					; size = 4
_playernumber$ = 16					; size = 4
_flags$ = 20						; size = 4
_pOut$ = 24						; size = 4
_nLumps$ = 28						; size = 4
_COM_CreateCustomization PROC				; COMDAT

; 62   : {

	push	ebp
	mov	ebp, esp
	sub	esp, 76					; 0000004cH
	push	ebx
	push	esi
	push	edi

; 63   : 	qboolean		bError = false;

	mov	DWORD PTR _bError$[ebp], 0

; 64   : 	int		checksize = 0;

	mov	DWORD PTR _checksize$[ebp], 0

; 65   : 	customization_t	*pCust;
; 66   : 
; 67   : 	if( pOut ) *pOut = NULL;

	cmp	DWORD PTR _pOut$[ebp], 0
	je	SHORT $LN2@COM_Create
	mov	eax, DWORD PTR _pOut$[ebp]
	mov	DWORD PTR [eax], 0
$LN2@COM_Create:

; 68   : 
; 69   : 	pCust = Z_Calloc( sizeof( customization_t ));

	mov	eax, DWORD PTR ?__LINE__Var@?0??COM_CreateCustomization@@9@9
	add	eax, 7
	push	eax
	push	OFFSET ??_C@_0DD@JODPHGOH@D?3?2DevDragon?2XashFE?2dev?2src?2eng@
	push	1
	push	164					; 000000a4H
	mov	ecx, DWORD PTR _host+236
	push	ecx
	call	__Mem_Alloc
	add	esp, 20					; 00000014H
	mov	DWORD PTR _pCust$[ebp], eax

; 70   : 	pCust->resource = *pResource;

	mov	edi, DWORD PTR _pCust$[ebp]
	add	edi, 4
	mov	ecx, 34					; 00000022H
	mov	esi, DWORD PTR _pResource$[ebp]
	rep movsd

; 71   : 
; 72   : 	if( pResource->nDownloadSize <= 0 )

	mov	eax, DWORD PTR _pResource$[ebp]
	cmp	DWORD PTR [eax+72], 0
	jg	SHORT $LN3@COM_Create

; 73   : 		goto CustomizationError;

	jmp	$CustomizationError$20
$LN3@COM_Create:

; 74   : 
; 75   : 	pCust->bInUse = true;

	mov	eax, DWORD PTR _pCust$[ebp]
	mov	DWORD PTR [eax], 1

; 76   : 
; 77   : 	if( FBitSet( flags, FCUST_FROMHPAK ))

	mov	eax, DWORD PTR _flags$[ebp]
	and	eax, 1
	je	SHORT $LN4@COM_Create

; 78   : 	{
; 79   : 		if( !HPAK_GetDataPointer( CUSTOM_RES_PATH, pResource, (byte **)&pCust->pBuffer, NULL ))

	push	0
	mov	eax, DWORD PTR _pCust$[ebp]
	add	eax, 156				; 0000009cH
	push	eax
	mov	ecx, DWORD PTR _pResource$[ebp]
	push	ecx
	push	OFFSET ??_C@_0L@DHBFCELB@custom?4hpk@
	call	_HPAK_GetDataPointer
	add	esp, 16					; 00000010H
	test	eax, eax
	jne	SHORT $LN6@COM_Create

; 80   : 			bError = true;

	mov	DWORD PTR _bError$[ebp], 1
$LN6@COM_Create:

; 81   : 	}

	jmp	SHORT $LN5@COM_Create
$LN4@COM_Create:

; 82   : 	else
; 83   : 	{
; 84   : 
; 85   : 		pCust->pBuffer = FS_LoadFile( pResource->szFileName, &checksize, true );

	push	1
	lea	eax, DWORD PTR _checksize$[ebp]
	push	eax
	mov	ecx, DWORD PTR _pResource$[ebp]
	push	ecx
	call	_FS_LoadFile
	add	esp, 12					; 0000000cH
	mov	edx, DWORD PTR _pCust$[ebp]
	mov	DWORD PTR [edx+156], eax

; 86   : 		if( checksize != pCust->resource.nDownloadSize )

	mov	eax, DWORD PTR _pCust$[ebp]
	mov	ecx, DWORD PTR _checksize$[ebp]
	cmp	ecx, DWORD PTR [eax+76]
	je	SHORT $LN5@COM_Create

; 87   : 			bError = true;

	mov	DWORD PTR _bError$[ebp], 1
$LN5@COM_Create:

; 88   : 	}
; 89   : 
; 90   : 	if( bError )

	cmp	DWORD PTR _bError$[ebp], 0
	je	SHORT $LN8@COM_Create

; 91   : 		goto CustomizationError;

	jmp	$CustomizationError$20
$LN8@COM_Create:

; 92   : 
; 93   : 	if( FBitSet( pCust->resource.ucFlags, RES_CUSTOM ) && pCust->resource.type == t_decal )

	mov	eax, DWORD PTR _pCust$[ebp]
	movzx	ecx, BYTE PTR [eax+80]
	and	ecx, 4
	je	$LN9@COM_Create
	mov	eax, DWORD PTR _pCust$[ebp]
	cmp	DWORD PTR [eax+68], 3
	jne	$LN9@COM_Create

; 94   : 	{
; 95   : 		pCust->resource.playernum = playernumber;

	mov	eax, DWORD PTR _pCust$[ebp]
	mov	cl, BYTE PTR _playernumber$[ebp]
	mov	BYTE PTR [eax+97], cl

; 96   : 
; 97   : 		if( CustomDecal_Validate( pCust->pBuffer, pResource->nDownloadSize ))

	mov	eax, DWORD PTR _pResource$[ebp]
	mov	ecx, DWORD PTR [eax+72]
	push	ecx
	mov	edx, DWORD PTR _pCust$[ebp]
	mov	eax, DWORD PTR [edx+156]
	push	eax
	call	_CustomDecal_Validate
	add	esp, 8
	test	eax, eax
	je	$LN9@COM_Create

; 98   : 		{
; 99   : 			if( !FBitSet( flags, FCUST_IGNOREINIT ))

	mov	eax, DWORD PTR _flags$[ebp]
	and	eax, 4
	jne	$LN9@COM_Create

; 100  : 			{
; 101  : 				if( pResource->nDownloadSize >= (1 * 1024) && pResource->nDownloadSize <= ( 16 * 1024 ))

	mov	eax, DWORD PTR _pResource$[ebp]
	cmp	DWORD PTR [eax+72], 1024		; 00000400H
	jl	$LN9@COM_Create
	mov	eax, DWORD PTR _pResource$[ebp]
	cmp	DWORD PTR [eax+72], 16384		; 00004000H
	jg	SHORT $LN9@COM_Create

; 102  : 				{
; 103  : 					pCust->bTranslated = true;

	mov	eax, DWORD PTR _pCust$[ebp]
	mov	DWORD PTR [eax+140], 1

; 104  : 					pCust->nUserData1 = 0;

	mov	eax, DWORD PTR _pCust$[ebp]
	mov	DWORD PTR [eax+144], 0

; 105  : 					pCust->nUserData2 = 1;

	mov	eax, DWORD PTR _pCust$[ebp]
	mov	DWORD PTR [eax+148], 1

; 106  : 
; 107  : 					if( !FBitSet( flags, FCUST_WIPEDATA ))

	mov	eax, DWORD PTR _flags$[ebp]
	and	eax, 2
	jne	SHORT $LN13@COM_Create

; 108  : 						pCust->pInfo = FS_LoadImage( "#logo.bmp", pCust->pBuffer, pCust->resource.nDownloadSize );

	mov	eax, DWORD PTR _pCust$[ebp]
	mov	ecx, DWORD PTR [eax+76]
	push	ecx
	mov	edx, DWORD PTR _pCust$[ebp]
	mov	eax, DWORD PTR [edx+156]
	push	eax
	push	OFFSET ??_C@_09DMNOKPHB@?$CDlogo?4bmp@
	call	_FS_LoadImage
	add	esp, 12					; 0000000cH
	mov	ecx, DWORD PTR _pCust$[ebp]
	mov	DWORD PTR [ecx+152], eax
	jmp	SHORT $LN14@COM_Create
$LN13@COM_Create:

; 109  : 					else pCust->pInfo = NULL;

	mov	eax, DWORD PTR _pCust$[ebp]
	mov	DWORD PTR [eax+152], 0
$LN14@COM_Create:

; 110  : 					if( nLumps ) *nLumps = 1;

	cmp	DWORD PTR _nLumps$[ebp], 0
	je	SHORT $LN9@COM_Create
	mov	eax, DWORD PTR _nLumps$[ebp]
	mov	DWORD PTR [eax], 1
$LN9@COM_Create:

; 111  : 				}
; 112  : 			}
; 113  : 		}
; 114  : 	}
; 115  : 
; 116  : 	if( pOut ) *pOut = pCust;

	cmp	DWORD PTR _pOut$[ebp], 0
	je	SHORT $LN16@COM_Create
	mov	eax, DWORD PTR _pOut$[ebp]
	mov	ecx, DWORD PTR _pCust$[ebp]
	mov	DWORD PTR [eax], ecx
$LN16@COM_Create:

; 117  : 	pCust->pNext = pListHead->pNext;

	mov	eax, DWORD PTR _pCust$[ebp]
	mov	ecx, DWORD PTR _pListHead$[ebp]
	mov	edx, DWORD PTR [ecx+160]
	mov	DWORD PTR [eax+160], edx

; 118  : 	pListHead->pNext = pCust;

	mov	eax, DWORD PTR _pListHead$[ebp]
	mov	ecx, DWORD PTR _pCust$[ebp]
	mov	DWORD PTR [eax+160], ecx

; 119  : 
; 120  : 	return true;

	mov	eax, 1
	jmp	SHORT $LN1@COM_Create
$CustomizationError$20:

; 121  : 
; 122  : CustomizationError:
; 123  : 	if( pCust->pBuffer )

	mov	eax, DWORD PTR _pCust$[ebp]
	cmp	DWORD PTR [eax+156], 0
	je	SHORT $LN17@COM_Create

; 124  : 		Mem_Free( pCust->pBuffer );

	mov	eax, DWORD PTR ?__LINE__Var@?0??COM_CreateCustomization@@9@9
	add	eax, 62					; 0000003eH
	push	eax
	push	OFFSET ??_C@_0DD@JODPHGOH@D?3?2DevDragon?2XashFE?2dev?2src?2eng@
	mov	ecx, DWORD PTR _pCust$[ebp]
	mov	edx, DWORD PTR [ecx+156]
	push	edx
	call	__Mem_Free
	add	esp, 12					; 0000000cH
$LN17@COM_Create:

; 125  : 
; 126  : 	if( pCust->pInfo )

	mov	eax, DWORD PTR _pCust$[ebp]
	cmp	DWORD PTR [eax+152], 0
	je	SHORT $LN18@COM_Create

; 127  : 		Mem_Free( pCust->pInfo );

	mov	eax, DWORD PTR ?__LINE__Var@?0??COM_CreateCustomization@@9@9
	add	eax, 65					; 00000041H
	push	eax
	push	OFFSET ??_C@_0DD@JODPHGOH@D?3?2DevDragon?2XashFE?2dev?2src?2eng@
	mov	ecx, DWORD PTR _pCust$[ebp]
	mov	edx, DWORD PTR [ecx+152]
	push	edx
	call	__Mem_Free
	add	esp, 12					; 0000000cH
$LN18@COM_Create:

; 128  : 	Mem_Free( pCust );

	mov	eax, DWORD PTR ?__LINE__Var@?0??COM_CreateCustomization@@9@9
	add	eax, 66					; 00000042H
	push	eax
	push	OFFSET ??_C@_0DD@JODPHGOH@D?3?2DevDragon?2XashFE?2dev?2src?2eng@
	mov	ecx, DWORD PTR _pCust$[ebp]
	push	ecx
	call	__Mem_Free
	add	esp, 12					; 0000000cH

; 129  : 
; 130  : 	return false;

	xor	eax, eax
$LN1@COM_Create:

; 131  : }

	pop	edi
	pop	esi
	pop	ebx
	mov	esp, ebp
	pop	ebp
	ret	0
_COM_CreateCustomization ENDP
_TEXT	ENDS
; Function compile flags: /Odtp /ZI
; File D:\DevDragon\XashFE\dev\src\engine\common\custom.c
;	COMDAT _COM_ClearCustomizationList
_TEXT	SEGMENT
_pNext$ = -8						; size = 4
_pCurrent$ = -4						; size = 4
_pHead$ = 8						; size = 4
_bCleanDecals$ = 12					; size = 4
_COM_ClearCustomizationList PROC			; COMDAT

; 34   : {

	push	ebp
	mov	ebp, esp
	sub	esp, 72					; 00000048H
	push	ebx
	push	esi
	push	edi

; 35   : 	customization_t	*pCurrent;
; 36   : 	customization_t	*pNext;
; 37   : 
; 38   : 	for( pCurrent = pHead->pNext; pCurrent != NULL; pCurrent = pNext )

	mov	eax, DWORD PTR _pHead$[ebp]
	mov	ecx, DWORD PTR [eax+160]
	mov	DWORD PTR _pCurrent$[ebp], ecx
	jmp	SHORT $LN4@COM_ClearC
$LN2@COM_ClearC:
	mov	eax, DWORD PTR _pNext$[ebp]
	mov	DWORD PTR _pCurrent$[ebp], eax
$LN4@COM_ClearC:
	cmp	DWORD PTR _pCurrent$[ebp], 0
	je	$LN3@COM_ClearC

; 39   : 	{
; 40   : 		pNext = pCurrent->pNext;

	mov	eax, DWORD PTR _pCurrent$[ebp]
	mov	ecx, DWORD PTR [eax+160]
	mov	DWORD PTR _pNext$[ebp], ecx

; 41   : 
; 42   : 		if( pCurrent->bInUse && pCurrent->pBuffer )

	mov	eax, DWORD PTR _pCurrent$[ebp]
	cmp	DWORD PTR [eax], 0
	je	SHORT $LN5@COM_ClearC
	mov	eax, DWORD PTR _pCurrent$[ebp]
	cmp	DWORD PTR [eax+156], 0
	je	SHORT $LN5@COM_ClearC

; 43   : 			Mem_Free( pCurrent->pBuffer );

	mov	eax, DWORD PTR ?__LINE__Var@?0??COM_ClearCustomizationList@@9@9
	add	eax, 9
	push	eax
	push	OFFSET ??_C@_0DD@JODPHGOH@D?3?2DevDragon?2XashFE?2dev?2src?2eng@
	mov	ecx, DWORD PTR _pCurrent$[ebp]
	mov	edx, DWORD PTR [ecx+156]
	push	edx
	call	__Mem_Free
	add	esp, 12					; 0000000cH
$LN5@COM_ClearC:

; 44   : 
; 45   : 		if( pCurrent->bInUse && pCurrent->pInfo )

	mov	eax, DWORD PTR _pCurrent$[ebp]
	cmp	DWORD PTR [eax], 0
	je	SHORT $LN6@COM_ClearC
	mov	eax, DWORD PTR _pCurrent$[ebp]
	cmp	DWORD PTR [eax+152], 0
	je	SHORT $LN6@COM_ClearC

; 46   : 		{
; 47   : 			if( pCurrent->resource.type == t_decal )

	mov	eax, DWORD PTR _pCurrent$[ebp]
	cmp	DWORD PTR [eax+68], 3
	jne	SHORT $LN7@COM_ClearC

; 48   : 			{
; 49   : 				if( bCleanDecals && CL_Active( ))

	cmp	DWORD PTR _bCleanDecals$[ebp], 0
	je	SHORT $LN7@COM_ClearC
	call	_CL_Active
	test	eax, eax
	je	SHORT $LN7@COM_ClearC

; 50   : 					R_DecalRemoveAll( pCurrent->nUserData1 );

	mov	eax, DWORD PTR _pCurrent$[ebp]
	mov	ecx, DWORD PTR [eax+144]
	push	ecx
	call	_R_DecalRemoveAll
	add	esp, 4
$LN7@COM_ClearC:

; 51   : 			}
; 52   : 
; 53   : 			FS_FreeImage( pCurrent->pInfo );

	mov	eax, DWORD PTR _pCurrent$[ebp]
	mov	ecx, DWORD PTR [eax+152]
	push	ecx
	call	_FS_FreeImage
	add	esp, 4
$LN6@COM_ClearC:

; 54   : 		}
; 55   : 		Mem_Free( pCurrent );

	mov	eax, DWORD PTR ?__LINE__Var@?0??COM_ClearCustomizationList@@9@9
	add	eax, 21					; 00000015H
	push	eax
	push	OFFSET ??_C@_0DD@JODPHGOH@D?3?2DevDragon?2XashFE?2dev?2src?2eng@
	mov	ecx, DWORD PTR _pCurrent$[ebp]
	push	ecx
	call	__Mem_Free
	add	esp, 12					; 0000000cH

; 56   : 	}

	jmp	$LN2@COM_ClearC
$LN3@COM_ClearC:

; 57   : 
; 58   : 	pHead->pNext = NULL;

	mov	eax, DWORD PTR _pHead$[ebp]
	mov	DWORD PTR [eax+160], 0

; 59   : }

	pop	edi
	pop	esi
	pop	ebx
	mov	esp, ebp
	pop	ebp
	ret	0
_COM_ClearCustomizationList ENDP
_TEXT	ENDS
END
