; Listing generated by Microsoft (R) Optimizing Compiler Version 19.37.32705.0 

	TITLE	D:\DevDragon\XashFE\dev\src\temp\engine\!debug\gamma.obj
	.686P
	.XMM
	include listing.inc
	.model	flat

INCLUDELIB MSVCRTD
INCLUDELIB OLDNAMES

_DATA	SEGMENT
COMM	_pglGetError:DWORD
COMM	_pglGetString:DWORD
COMM	_pglAccum:DWORD
COMM	_pglAlphaFunc:DWORD
COMM	_pglArrayElement:DWORD
COMM	_pglBegin:DWORD
COMM	_pglBindTexture:DWORD
COMM	_pglBitmap:DWORD
COMM	_pglBlendFunc:DWORD
COMM	_pglCallList:DWORD
COMM	_pglCallLists:DWORD
COMM	_pglClear:DWORD
COMM	_pglClearAccum:DWORD
COMM	_pglClearColor:DWORD
COMM	_pglClearDepth:DWORD
COMM	_pglClearIndex:DWORD
COMM	_pglClearStencil:DWORD
COMM	_pglIsEnabled:DWORD
COMM	_pglIsList:DWORD
COMM	_pglIsTexture:DWORD
COMM	_pglClipPlane:DWORD
COMM	_pglColor3b:DWORD
COMM	_pglColor3bv:DWORD
COMM	_pglColor3d:DWORD
COMM	_pglColor3dv:DWORD
COMM	_pglColor3f:DWORD
COMM	_pglColor3fv:DWORD
COMM	_pglColor3i:DWORD
COMM	_pglColor3iv:DWORD
COMM	_pglColor3s:DWORD
COMM	_pglColor3sv:DWORD
COMM	_pglColor3ub:DWORD
COMM	_pglColor3ubv:DWORD
COMM	_pglColor3ui:DWORD
COMM	_pglColor3uiv:DWORD
COMM	_pglColor3us:DWORD
COMM	_pglColor3usv:DWORD
COMM	_pglColor4b:DWORD
COMM	_pglColor4bv:DWORD
COMM	_pglColor4d:DWORD
COMM	_pglColor4dv:DWORD
COMM	_pglColor4f:DWORD
COMM	_pglColor4fv:DWORD
COMM	_pglColor4i:DWORD
COMM	_pglColor4iv:DWORD
COMM	_pglColor4s:DWORD
COMM	_pglColor4sv:DWORD
COMM	_pglColor4ub:DWORD
COMM	_pglColor4ubv:DWORD
COMM	_pglColor4ui:DWORD
COMM	_pglColor4uiv:DWORD
COMM	_pglColor4us:DWORD
COMM	_pglColor4usv:DWORD
COMM	_pglColorMask:DWORD
COMM	_pglColorMaterial:DWORD
COMM	_pglColorPointer:DWORD
COMM	_pglCopyPixels:DWORD
COMM	_pglCopyTexImage1D:DWORD
COMM	_pglCopyTexImage2D:DWORD
COMM	_pglCopyTexSubImage1D:DWORD
COMM	_pglCopyTexSubImage2D:DWORD
COMM	_pglCullFace:DWORD
COMM	_pglDeleteLists:DWORD
COMM	_pglDeleteTextures:DWORD
COMM	_pglDepthFunc:DWORD
COMM	_pglDepthMask:DWORD
COMM	_pglDepthRange:DWORD
COMM	_pglDisable:DWORD
COMM	_pglDisableClientState:DWORD
COMM	_pglDrawArrays:DWORD
COMM	_pglDrawBuffer:DWORD
COMM	_pglDrawElements:DWORD
COMM	_pglDrawPixels:DWORD
COMM	_pglEdgeFlag:DWORD
COMM	_pglEdgeFlagPointer:DWORD
COMM	_pglEdgeFlagv:DWORD
COMM	_pglEnable:DWORD
COMM	_pglEnableClientState:DWORD
COMM	_pglEnd:DWORD
COMM	_pglEndList:DWORD
COMM	_pglEvalCoord1d:DWORD
COMM	_pglEvalCoord1dv:DWORD
COMM	_pglEvalCoord1f:DWORD
COMM	_pglEvalCoord1fv:DWORD
COMM	_pglEvalCoord2d:DWORD
COMM	_pglEvalCoord2dv:DWORD
COMM	_pglEvalCoord2f:DWORD
COMM	_pglEvalCoord2fv:DWORD
COMM	_pglEvalMesh1:DWORD
COMM	_pglEvalMesh2:DWORD
COMM	_pglEvalPoint1:DWORD
COMM	_pglEvalPoint2:DWORD
COMM	_pglFeedbackBuffer:DWORD
COMM	_pglFinish:DWORD
COMM	_pglFlush:DWORD
COMM	_pglFogf:DWORD
COMM	_pglFogfv:DWORD
COMM	_pglFogi:DWORD
COMM	_pglFogiv:DWORD
COMM	_pglFrontFace:DWORD
COMM	_pglFrustum:DWORD
COMM	_pglGenTextures:DWORD
COMM	_pglGetBooleanv:DWORD
COMM	_pglGetClipPlane:DWORD
COMM	_pglGetDoublev:DWORD
COMM	_pglGetFloatv:DWORD
COMM	_pglGetIntegerv:DWORD
COMM	_pglGetLightfv:DWORD
COMM	_pglGetLightiv:DWORD
COMM	_pglGetMapdv:DWORD
COMM	_pglGetMapfv:DWORD
COMM	_pglGetMapiv:DWORD
COMM	_pglGetMaterialfv:DWORD
COMM	_pglGetMaterialiv:DWORD
COMM	_pglGetPixelMapfv:DWORD
COMM	_pglGetPixelMapuiv:DWORD
COMM	_pglGetPixelMapusv:DWORD
COMM	_pglGetPointerv:DWORD
COMM	_pglGetPolygonStipple:DWORD
COMM	_pglGetTexEnvfv:DWORD
COMM	_pglGetTexEnviv:DWORD
COMM	_pglGetTexGendv:DWORD
COMM	_pglGetTexGenfv:DWORD
COMM	_pglGetTexGeniv:DWORD
COMM	_pglGetTexImage:DWORD
COMM	_pglGetTexLevelParameterfv:DWORD
COMM	_pglGetTexLevelParameteriv:DWORD
COMM	_pglGetTexParameterfv:DWORD
COMM	_pglGetTexParameteriv:DWORD
COMM	_pglHint:DWORD
COMM	_pglIndexMask:DWORD
COMM	_pglIndexPointer:DWORD
COMM	_pglIndexd:DWORD
COMM	_pglIndexdv:DWORD
COMM	_pglIndexf:DWORD
COMM	_pglIndexfv:DWORD
COMM	_pglIndexi:DWORD
COMM	_pglIndexiv:DWORD
COMM	_pglIndexs:DWORD
COMM	_pglIndexsv:DWORD
COMM	_pglIndexub:DWORD
COMM	_pglIndexubv:DWORD
COMM	_pglInitNames:DWORD
COMM	_pglInterleavedArrays:DWORD
COMM	_pglLightModelf:DWORD
COMM	_pglLightModelfv:DWORD
COMM	_pglLightModeli:DWORD
COMM	_pglLightModeliv:DWORD
COMM	_pglLightf:DWORD
COMM	_pglLightfv:DWORD
COMM	_pglLighti:DWORD
COMM	_pglLightiv:DWORD
COMM	_pglLineStipple:DWORD
COMM	_pglLineWidth:DWORD
COMM	_pglListBase:DWORD
COMM	_pglLoadIdentity:DWORD
COMM	_pglLoadMatrixd:DWORD
COMM	_pglLoadMatrixf:DWORD
COMM	_pglLoadName:DWORD
COMM	_pglLogicOp:DWORD
COMM	_pglMap1d:DWORD
COMM	_pglMap1f:DWORD
COMM	_pglMap2d:DWORD
COMM	_pglMap2f:DWORD
COMM	_pglMapGrid1d:DWORD
COMM	_pglMapGrid1f:DWORD
COMM	_pglMapGrid2d:DWORD
COMM	_pglMapGrid2f:DWORD
COMM	_pglMaterialf:DWORD
COMM	_pglMaterialfv:DWORD
COMM	_pglMateriali:DWORD
COMM	_pglMaterialiv:DWORD
COMM	_pglMatrixMode:DWORD
COMM	_pglMultMatrixd:DWORD
COMM	_pglMultMatrixf:DWORD
COMM	_pglNewList:DWORD
COMM	_pglNormal3b:DWORD
COMM	_pglNormal3bv:DWORD
COMM	_pglNormal3d:DWORD
COMM	_pglNormal3dv:DWORD
COMM	_pglNormal3f:DWORD
COMM	_pglNormal3fv:DWORD
COMM	_pglNormal3i:DWORD
COMM	_pglNormal3iv:DWORD
COMM	_pglNormal3s:DWORD
COMM	_pglNormal3sv:DWORD
COMM	_pglNormalPointer:DWORD
COMM	_pglOrtho:DWORD
COMM	_pglPassThrough:DWORD
COMM	_pglPixelMapfv:DWORD
COMM	_pglPixelMapuiv:DWORD
COMM	_pglPixelMapusv:DWORD
COMM	_pglPixelStoref:DWORD
COMM	_pglPixelStorei:DWORD
COMM	_pglPixelTransferf:DWORD
COMM	_pglPixelTransferi:DWORD
COMM	_pglPixelZoom:DWORD
COMM	_pglPointSize:DWORD
COMM	_pglPolygonMode:DWORD
COMM	_pglPolygonOffset:DWORD
COMM	_pglPolygonStipple:DWORD
COMM	_pglPopAttrib:DWORD
COMM	_pglPopClientAttrib:DWORD
COMM	_pglPopMatrix:DWORD
COMM	_pglPopName:DWORD
COMM	_pglPushAttrib:DWORD
COMM	_pglPushClientAttrib:DWORD
COMM	_pglPushMatrix:DWORD
COMM	_pglPushName:DWORD
COMM	_pglRasterPos2d:DWORD
COMM	_pglRasterPos2dv:DWORD
COMM	_pglRasterPos2f:DWORD
COMM	_pglRasterPos2fv:DWORD
COMM	_pglRasterPos2i:DWORD
COMM	_pglRasterPos2iv:DWORD
COMM	_pglRasterPos2s:DWORD
COMM	_pglRasterPos2sv:DWORD
COMM	_pglRasterPos3d:DWORD
COMM	_pglRasterPos3dv:DWORD
COMM	_pglRasterPos3f:DWORD
COMM	_pglRasterPos3fv:DWORD
COMM	_pglRasterPos3i:DWORD
COMM	_pglRasterPos3iv:DWORD
COMM	_pglRasterPos3s:DWORD
COMM	_pglRasterPos3sv:DWORD
COMM	_pglRasterPos4d:DWORD
COMM	_pglRasterPos4dv:DWORD
COMM	_pglRasterPos4f:DWORD
COMM	_pglRasterPos4fv:DWORD
COMM	_pglRasterPos4i:DWORD
COMM	_pglRasterPos4iv:DWORD
COMM	_pglRasterPos4s:DWORD
COMM	_pglRasterPos4sv:DWORD
COMM	_pglReadBuffer:DWORD
COMM	_pglReadPixels:DWORD
COMM	_pglRectd:DWORD
COMM	_pglRectdv:DWORD
COMM	_pglRectf:DWORD
COMM	_pglRectfv:DWORD
COMM	_pglRecti:DWORD
COMM	_pglRectiv:DWORD
COMM	_pglRects:DWORD
COMM	_pglRectsv:DWORD
COMM	_pglRotated:DWORD
COMM	_pglRotatef:DWORD
COMM	_pglScaled:DWORD
COMM	_pglScalef:DWORD
COMM	_pglScissor:DWORD
COMM	_pglSelectBuffer:DWORD
COMM	_pglShadeModel:DWORD
COMM	_pglStencilFunc:DWORD
COMM	_pglStencilMask:DWORD
COMM	_pglStencilOp:DWORD
COMM	_pglTexCoord1d:DWORD
COMM	_pglTexCoord1dv:DWORD
COMM	_pglTexCoord1f:DWORD
COMM	_pglTexCoord1fv:DWORD
COMM	_pglTexCoord1i:DWORD
COMM	_pglTexCoord1iv:DWORD
COMM	_pglTexCoord1s:DWORD
COMM	_pglTexCoord1sv:DWORD
COMM	_pglTexCoord2d:DWORD
COMM	_pglTexCoord2dv:DWORD
COMM	_pglTexCoord2f:DWORD
COMM	_pglTexCoord2fv:DWORD
COMM	_pglTexCoord2i:DWORD
COMM	_pglTexCoord2iv:DWORD
COMM	_pglTexCoord2s:DWORD
COMM	_pglTexCoord2sv:DWORD
COMM	_pglTexCoord3d:DWORD
COMM	_pglTexCoord3dv:DWORD
COMM	_pglTexCoord3f:DWORD
COMM	_pglTexCoord3fv:DWORD
COMM	_pglTexCoord3i:DWORD
COMM	_pglTexCoord3iv:DWORD
COMM	_pglTexCoord3s:DWORD
COMM	_pglTexCoord3sv:DWORD
COMM	_pglTexCoord4d:DWORD
COMM	_pglTexCoord4dv:DWORD
COMM	_pglTexCoord4f:DWORD
COMM	_pglTexCoord4fv:DWORD
COMM	_pglTexCoord4i:DWORD
COMM	_pglTexCoord4iv:DWORD
COMM	_pglTexCoord4s:DWORD
COMM	_pglTexCoord4sv:DWORD
COMM	_pglTexCoordPointer:DWORD
COMM	_pglTexEnvf:DWORD
COMM	_pglTexEnvfv:DWORD
COMM	_pglTexEnvi:DWORD
COMM	_pglTexEnviv:DWORD
COMM	_pglTexGend:DWORD
COMM	_pglTexGendv:DWORD
COMM	_pglTexGenf:DWORD
COMM	_pglTexGenfv:DWORD
COMM	_pglTexGeni:DWORD
COMM	_pglTexGeniv:DWORD
COMM	_pglTexImage1D:DWORD
COMM	_pglTexImage2D:DWORD
COMM	_pglTexParameterf:DWORD
COMM	_pglTexParameterfv:DWORD
COMM	_pglTexParameteri:DWORD
COMM	_pglTexParameteriv:DWORD
COMM	_pglTexSubImage1D:DWORD
COMM	_pglTexSubImage2D:DWORD
COMM	_pglTranslated:DWORD
COMM	_pglTranslatef:DWORD
COMM	_pglVertex2d:DWORD
COMM	_pglVertex2dv:DWORD
COMM	_pglVertex2f:DWORD
COMM	_pglVertex2fv:DWORD
COMM	_pglVertex2i:DWORD
COMM	_pglVertex2iv:DWORD
COMM	_pglVertex2s:DWORD
COMM	_pglVertex2sv:DWORD
COMM	_pglVertex3d:DWORD
COMM	_pglVertex3dv:DWORD
COMM	_pglVertex3f:DWORD
COMM	_pglVertex3fv:DWORD
COMM	_pglVertex3i:DWORD
COMM	_pglVertex3iv:DWORD
COMM	_pglVertex3s:DWORD
COMM	_pglVertex3sv:DWORD
COMM	_pglVertex4d:DWORD
COMM	_pglVertex4dv:DWORD
COMM	_pglVertex4f:DWORD
COMM	_pglVertex4fv:DWORD
COMM	_pglVertex4i:DWORD
COMM	_pglVertex4iv:DWORD
COMM	_pglVertex4s:DWORD
COMM	_pglVertex4sv:DWORD
COMM	_pglVertexPointer:DWORD
COMM	_pglViewport:DWORD
COMM	_pglPointParameterfEXT:DWORD
COMM	_pglPointParameterfvEXT:DWORD
COMM	_pglLockArraysEXT:DWORD
COMM	_pglUnlockArraysEXT:DWORD
COMM	_pglActiveTextureARB:DWORD
COMM	_pglClientActiveTextureARB:DWORD
COMM	_pglGetCompressedTexImage:DWORD
COMM	_pglDrawRangeElements:DWORD
COMM	_pglDrawRangeElementsEXT:DWORD
COMM	_pglMultiTexCoord1f:DWORD
COMM	_pglMultiTexCoord2f:DWORD
COMM	_pglMultiTexCoord3f:DWORD
COMM	_pglMultiTexCoord4f:DWORD
COMM	_pglActiveTexture:DWORD
COMM	_pglClientActiveTexture:DWORD
COMM	_pglCompressedTexImage3DARB:DWORD
COMM	_pglCompressedTexImage2DARB:DWORD
COMM	_pglCompressedTexImage1DARB:DWORD
COMM	_pglCompressedTexSubImage3DARB:DWORD
COMM	_pglCompressedTexSubImage2DARB:DWORD
COMM	_pglCompressedTexSubImage1DARB:DWORD
COMM	_pglDeleteObjectARB:DWORD
COMM	_pglGetHandleARB:DWORD
COMM	_pglDetachObjectARB:DWORD
COMM	_pglCreateShaderObjectARB:DWORD
COMM	_pglShaderSourceARB:DWORD
COMM	_pglCompileShaderARB:DWORD
COMM	_pglCreateProgramObjectARB:DWORD
COMM	_pglAttachObjectARB:DWORD
COMM	_pglLinkProgramARB:DWORD
COMM	_pglUseProgramObjectARB:DWORD
COMM	_pglValidateProgramARB:DWORD
COMM	_pglBindProgramARB:DWORD
COMM	_pglDeleteProgramsARB:DWORD
COMM	_pglGenProgramsARB:DWORD
COMM	_pglProgramStringARB:DWORD
COMM	_pglProgramEnvParameter4fARB:DWORD
COMM	_pglProgramLocalParameter4fARB:DWORD
COMM	_pglUniform1fARB:DWORD
COMM	_pglUniform2fARB:DWORD
COMM	_pglUniform3fARB:DWORD
COMM	_pglUniform4fARB:DWORD
COMM	_pglUniform1iARB:DWORD
COMM	_pglUniform2iARB:DWORD
COMM	_pglUniform3iARB:DWORD
COMM	_pglUniform4iARB:DWORD
COMM	_pglUniform1fvARB:DWORD
COMM	_pglUniform2fvARB:DWORD
COMM	_pglUniform3fvARB:DWORD
COMM	_pglUniform4fvARB:DWORD
COMM	_pglUniform1ivARB:DWORD
COMM	_pglUniform2ivARB:DWORD
COMM	_pglUniform3ivARB:DWORD
COMM	_pglUniform4ivARB:DWORD
COMM	_pglUniformMatrix2fvARB:DWORD
COMM	_pglUniformMatrix3fvARB:DWORD
COMM	_pglUniformMatrix4fvARB:DWORD
COMM	_pglGetObjectParameterfvARB:DWORD
COMM	_pglGetObjectParameterivARB:DWORD
COMM	_pglGetInfoLogARB:DWORD
COMM	_pglGetAttachedObjectsARB:DWORD
COMM	_pglGetUniformLocationARB:DWORD
COMM	_pglGetActiveUniformARB:DWORD
COMM	_pglGetUniformfvARB:DWORD
COMM	_pglGetUniformivARB:DWORD
COMM	_pglGetShaderSourceARB:DWORD
COMM	_pglTexImage3D:DWORD
COMM	_pglTexSubImage3D:DWORD
COMM	_pglCopyTexSubImage3D:DWORD
COMM	_pglBlendEquationEXT:DWORD
COMM	_pglStencilOpSeparate:DWORD
COMM	_pglStencilFuncSeparate:DWORD
COMM	_pglActiveStencilFaceEXT:DWORD
COMM	_pglVertexAttribPointerARB:DWORD
COMM	_pglEnableVertexAttribArrayARB:DWORD
COMM	_pglDisableVertexAttribArrayARB:DWORD
COMM	_pglBindAttribLocationARB:DWORD
COMM	_pglGetActiveAttribARB:DWORD
COMM	_pglGetAttribLocationARB:DWORD
COMM	_pglBindFragDataLocation:DWORD
COMM	_pglVertexAttrib2fARB:DWORD
COMM	_pglVertexAttrib2fvARB:DWORD
COMM	_pglVertexAttrib3fvARB:DWORD
COMM	_pglBindBufferARB:DWORD
COMM	_pglDeleteBuffersARB:DWORD
COMM	_pglGenBuffersARB:DWORD
COMM	_pglIsBufferARB:DWORD
COMM	_pglMapBufferARB:DWORD
COMM	_pglUnmapBufferARB:DWORD
COMM	_pglBufferDataARB:DWORD
COMM	_pglBufferSubDataARB:DWORD
COMM	_pglGenQueriesARB:DWORD
COMM	_pglDeleteQueriesARB:DWORD
COMM	_pglIsQueryARB:DWORD
COMM	_pglBeginQueryARB:DWORD
COMM	_pglEndQueryARB:DWORD
COMM	_pglGetQueryivARB:DWORD
COMM	_pglGetQueryObjectivARB:DWORD
COMM	_pglGetQueryObjectuivARB:DWORD
COMM	_pglDebugMessageControlARB:DWORD
COMM	_pglDebugMessageInsertARB:DWORD
COMM	_pglDebugMessageCallbackARB:DWORD
COMM	_pglGetDebugMessageLogARB:DWORD
COMM	_pglIsRenderbuffer:DWORD
COMM	_pglBindRenderbuffer:DWORD
COMM	_pglDeleteRenderbuffers:DWORD
COMM	_pglGenRenderbuffers:DWORD
COMM	_pglRenderbufferStorage:DWORD
COMM	_pglRenderbufferStorageMultisample:DWORD
COMM	_pglGetRenderbufferParameteriv:DWORD
COMM	_pglIsFramebuffer:DWORD
COMM	_pglBindFramebuffer:DWORD
COMM	_pglDeleteFramebuffers:DWORD
COMM	_pglGenFramebuffers:DWORD
COMM	_pglCheckFramebufferStatus:DWORD
COMM	_pglFramebufferTexture1D:DWORD
COMM	_pglFramebufferTexture2D:DWORD
COMM	_pglFramebufferTexture3D:DWORD
COMM	_pglFramebufferTextureLayer:DWORD
COMM	_pglFramebufferRenderbuffer:DWORD
COMM	_pglGetFramebufferAttachmentParameteriv:DWORD
COMM	_pglBlitFramebuffer:DWORD
COMM	_pglDrawBuffersARB:DWORD
COMM	_pglGenerateMipmap:DWORD
COMM	_pglBindVertexArray:DWORD
COMM	_pglDeleteVertexArrays:DWORD
COMM	_pglGenVertexArrays:DWORD
COMM	_pglIsVertexArray:DWORD
COMM	_pglSwapInterval:DWORD
COMM	_pwglSwapBuffers:DWORD
COMM	_pwglCopyContext:DWORD
COMM	_pwglCreateContext:DWORD
COMM	_pwglCreateLayerContext:DWORD
COMM	_pwglDeleteContext:DWORD
COMM	_pwglGetCurrentContext:DWORD
COMM	_pwglGetProcAddress:DWORD
COMM	_pwglMakeCurrent:DWORD
COMM	_pwglShareLists:DWORD
COMM	_pwglUseFontBitmaps:DWORD
COMM	_pwglUseFontOutlines:DWORD
COMM	_pwglDescribeLayerPlane:DWORD
COMM	_pwglSetLayerPaletteEntries:DWORD
COMM	_pwglGetLayerPaletteEntries:DWORD
COMM	_pwglRealizeLayerPalette:DWORD
COMM	_pwglSwapLayerBuffers:DWORD
COMM	_pwglSwapIntervalEXT:DWORD
COMM	_pwglCreateContextAttribsARB:DWORD
COMM	_pwglGetPixelFormatAttribiv:DWORD
COMM	_pwglChoosePixelFormat:DWORD
COMM	_pwglGetExtensionsStringEXT:DWORD
_DATA	ENDS
PUBLIC	_BuildGammaTable
PUBLIC	_LightToTexGamma
PUBLIC	_TextureToGamma
PUBLIC	__real@00000000
PUBLIC	__real@3d4ccccd
PUBLIC	__real@3d99999a
PUBLIC	__real@3e000000
PUBLIC	__real@3f000000
PUBLIC	__real@3f600000
PUBLIC	__real@3f800000
PUBLIC	__real@3fe66666
PUBLIC	__real@3feccccccccccccd
PUBLIC	__real@3ff0000000000000
PUBLIC	__real@400199999999999a
PUBLIC	__real@40400000
PUBLIC	__real@406fe00000000000
PUBLIC	__real@408ff80000000000
PUBLIC	__real@41200000
PUBLIC	__real@437f0000
EXTRN	_pow:PROC
EXTRN	__fltused:DWORD
_BSS	SEGMENT
_texgammatable DB 0100H DUP (?)
_lightgammatable DB 0100H DUP (?)
_lineargammatable DD 0400H DUP (?)
_screengammatable DD 0400H DUP (?)
_BSS	ENDS
;	COMDAT __real@437f0000
CONST	SEGMENT
__real@437f0000 DD 0437f0000r			; 255
CONST	ENDS
;	COMDAT __real@41200000
CONST	SEGMENT
__real@41200000 DD 041200000r			; 10
CONST	ENDS
;	COMDAT __real@408ff80000000000
CONST	SEGMENT
__real@408ff80000000000 DQ 0408ff80000000000r	; 1023
CONST	ENDS
;	COMDAT __real@406fe00000000000
CONST	SEGMENT
__real@406fe00000000000 DQ 0406fe00000000000r	; 255
CONST	ENDS
;	COMDAT __real@40400000
CONST	SEGMENT
__real@40400000 DD 040400000r			; 3
CONST	ENDS
;	COMDAT __real@400199999999999a
CONST	SEGMENT
__real@400199999999999a DQ 0400199999999999ar	; 2.2
CONST	ENDS
;	COMDAT __real@3ff0000000000000
CONST	SEGMENT
__real@3ff0000000000000 DQ 03ff0000000000000r	; 1
CONST	ENDS
;	COMDAT __real@3feccccccccccccd
CONST	SEGMENT
__real@3feccccccccccccd DQ 03feccccccccccccdr	; 0.9
CONST	ENDS
;	COMDAT __real@3fe66666
CONST	SEGMENT
__real@3fe66666 DD 03fe66666r			; 1.8
CONST	ENDS
;	COMDAT __real@3f800000
CONST	SEGMENT
__real@3f800000 DD 03f800000r			; 1
CONST	ENDS
;	COMDAT __real@3f600000
CONST	SEGMENT
__real@3f600000 DD 03f600000r			; 0.875
CONST	ENDS
;	COMDAT __real@3f000000
CONST	SEGMENT
__real@3f000000 DD 03f000000r			; 0.5
CONST	ENDS
;	COMDAT __real@3e000000
CONST	SEGMENT
__real@3e000000 DD 03e000000r			; 0.125
CONST	ENDS
;	COMDAT __real@3d99999a
CONST	SEGMENT
__real@3d99999a DD 03d99999ar			; 0.075
CONST	ENDS
;	COMDAT __real@3d4ccccd
CONST	SEGMENT
__real@3d4ccccd DD 03d4ccccdr			; 0.05
CONST	ENDS
;	COMDAT __real@00000000
CONST	SEGMENT
__real@00000000 DD 000000000r			; 0
CONST	ENDS
; Function compile flags: /Odtp /ZI
; File D:\DevDragon\XashFE\dev\src\engine\common\gamma.c
;	COMDAT _TextureToGamma
_TEXT	SEGMENT
_b$ = 8							; size = 1
_TextureToGamma PROC					; COMDAT

; 86   : {

	push	ebp
	mov	ebp, esp
	sub	esp, 64					; 00000040H
	push	ebx
	push	esi
	push	edi

; 87   : 	return texgammatable[b];

	movzx	eax, BYTE PTR _b$[ebp]
	movzx	eax, BYTE PTR _texgammatable[eax]

; 88   : }

	pop	edi
	pop	esi
	pop	ebx
	mov	esp, ebp
	pop	ebp
	ret	0
_TextureToGamma ENDP
_TEXT	ENDS
; Function compile flags: /Odtp /ZI
; File D:\DevDragon\XashFE\dev\src\engine\common\gamma.c
;	COMDAT _LightToTexGamma
_TEXT	SEGMENT
_b$ = 8							; size = 1
_LightToTexGamma PROC					; COMDAT

; 81   : {

	push	ebp
	mov	ebp, esp
	sub	esp, 64					; 00000040H
	push	ebx
	push	esi
	push	edi

; 82   : 	return lightgammatable[b];

	movzx	eax, BYTE PTR _b$[ebp]
	movzx	eax, BYTE PTR _lightgammatable[eax]

; 83   : }

	pop	edi
	pop	esi
	pop	ebx
	mov	esp, ebp
	pop	ebp
	ret	0
_LightToTexGamma ENDP
_TEXT	ENDS
; Function compile flags: /Odtp /ZI
; File D:\DevDragon\XashFE\dev\src\engine\common\gamma.c
;	COMDAT _BuildGammaTable
_TEXT	SEGMENT
tv278 = -96						; size = 8
tv269 = -96						; size = 8
tv256 = -96						; size = 8
tv243 = -96						; size = 8
tv170 = -96						; size = 4
tv150 = -96						; size = 4
tv71 = -96						; size = 4
tv67 = -96						; size = 4
tv169 = -92						; size = 4
tv149 = -92						; size = 4
tv70 = -92						; size = 4
tv66 = -92						; size = 4
_g3$ = -24						; size = 4
_g1$ = -20						; size = 4
_g$ = -16						; size = 4
_f$ = -12						; size = 4
_inf$ = -8						; size = 4
_i$ = -4						; size = 4
_lightgamma$ = 8					; size = 4
_brightness$ = 12					; size = 4
_BuildGammaTable PROC					; COMDAT

; 29   : {

	push	ebp
	mov	ebp, esp
	sub	esp, 96					; 00000060H
	push	ebx
	push	esi
	push	edi

; 30   : 	int	i, inf;
; 31   : 	float	f, g, g1, g3;
; 32   : 
; 33   : 	lightgamma = bound( 1.8f, lightgamma, 3.0f );

	movss	xmm0, DWORD PTR _lightgamma$[ebp]
	comiss	xmm0, DWORD PTR __real@3fe66666
	jb	SHORT $LN21@BuildGamma
	movss	xmm0, DWORD PTR __real@40400000
	comiss	xmm0, DWORD PTR _lightgamma$[ebp]
	jbe	SHORT $LN19@BuildGamma
	movss	xmm0, DWORD PTR _lightgamma$[ebp]
	movss	DWORD PTR tv66[ebp], xmm0
	jmp	SHORT $LN20@BuildGamma
$LN19@BuildGamma:
	movss	xmm0, DWORD PTR __real@40400000
	movss	DWORD PTR tv66[ebp], xmm0
$LN20@BuildGamma:
	movss	xmm0, DWORD PTR tv66[ebp]
	movss	DWORD PTR tv67[ebp], xmm0
	jmp	SHORT $LN22@BuildGamma
$LN21@BuildGamma:
	movss	xmm0, DWORD PTR __real@3fe66666
	movss	DWORD PTR tv67[ebp], xmm0
$LN22@BuildGamma:
	movss	xmm0, DWORD PTR tv67[ebp]
	movss	DWORD PTR _lightgamma$[ebp], xmm0

; 34   : 	brightness = bound( 0.0f, brightness, 10.0f );

	movss	xmm0, DWORD PTR _brightness$[ebp]
	comiss	xmm0, DWORD PTR __real@00000000
	jb	SHORT $LN25@BuildGamma
	movss	xmm0, DWORD PTR __real@41200000
	comiss	xmm0, DWORD PTR _brightness$[ebp]
	jbe	SHORT $LN23@BuildGamma
	movss	xmm0, DWORD PTR _brightness$[ebp]
	movss	DWORD PTR tv70[ebp], xmm0
	jmp	SHORT $LN24@BuildGamma
$LN23@BuildGamma:
	movss	xmm0, DWORD PTR __real@41200000
	movss	DWORD PTR tv70[ebp], xmm0
$LN24@BuildGamma:
	movss	xmm0, DWORD PTR tv70[ebp]
	movss	DWORD PTR tv71[ebp], xmm0
	jmp	SHORT $LN26@BuildGamma
$LN25@BuildGamma:
	xorps	xmm0, xmm0
	movss	DWORD PTR tv71[ebp], xmm0
$LN26@BuildGamma:
	movss	xmm0, DWORD PTR tv71[ebp]
	movss	DWORD PTR _brightness$[ebp], xmm0

; 35   : 
; 36   : 	if( brightness <= 0.0f )

	xorps	xmm0, xmm0
	comiss	xmm0, DWORD PTR _brightness$[ebp]
	jb	SHORT $LN11@BuildGamma

; 37   : 		g3 = 0.125f;

	movss	xmm0, DWORD PTR __real@3e000000
	movss	DWORD PTR _g3$[ebp], xmm0
	jmp	SHORT $LN14@BuildGamma
$LN11@BuildGamma:

; 38   : 	else if( brightness > 1.0f )

	movss	xmm0, DWORD PTR _brightness$[ebp]
	comiss	xmm0, DWORD PTR __real@3f800000
	jbe	SHORT $LN13@BuildGamma

; 39   : 		g3 = 0.05f;

	movss	xmm0, DWORD PTR __real@3d4ccccd
	movss	DWORD PTR _g3$[ebp], xmm0
	jmp	SHORT $LN14@BuildGamma
$LN13@BuildGamma:

; 40   : 	else g3 = 0.125f - (brightness * brightness) * 0.075f;

	movss	xmm0, DWORD PTR _brightness$[ebp]
	mulss	xmm0, DWORD PTR _brightness$[ebp]
	mulss	xmm0, DWORD PTR __real@3d99999a
	movss	xmm1, DWORD PTR __real@3e000000
	subss	xmm1, xmm0
	movss	DWORD PTR _g3$[ebp], xmm1
$LN14@BuildGamma:

; 41   : 
; 42   : 	g = 1.0f / lightgamma;

	movss	xmm0, DWORD PTR __real@3f800000
	divss	xmm0, DWORD PTR _lightgamma$[ebp]
	movss	DWORD PTR _g$[ebp], xmm0

; 43   : 	g1 = GAMMA * g; 

	cvtss2sd xmm0, DWORD PTR _g$[ebp]
	mulsd	xmm0, QWORD PTR __real@400199999999999a
	cvtsd2ss xmm0, xmm0
	movss	DWORD PTR _g1$[ebp], xmm0

; 44   : 
; 45   : 	for( i = 0; i < 256; i++ )

	mov	DWORD PTR _i$[ebp], 0
	jmp	SHORT $LN4@BuildGamma
$LN2@BuildGamma:
	mov	eax, DWORD PTR _i$[ebp]
	add	eax, 1
	mov	DWORD PTR _i$[ebp], eax
$LN4@BuildGamma:
	cmp	DWORD PTR _i$[ebp], 256			; 00000100H
	jge	$LN3@BuildGamma

; 46   : 	{
; 47   : 		f = pow( i / 255.f, GAMMA );

	sub	esp, 8
	movsd	xmm0, QWORD PTR __real@400199999999999a
	movsd	QWORD PTR [esp], xmm0
	cvtsi2ss xmm0, DWORD PTR _i$[ebp]
	divss	xmm0, DWORD PTR __real@437f0000
	cvtss2sd xmm0, xmm0
	sub	esp, 8
	movsd	QWORD PTR [esp], xmm0
	call	_pow
	add	esp, 16					; 00000010H
	fstp	DWORD PTR _f$[ebp]

; 48   : 
; 49   : 		// scale up
; 50   : 		if( brightness > 1.0f )

	movss	xmm0, DWORD PTR _brightness$[ebp]
	comiss	xmm0, DWORD PTR __real@3f800000
	jbe	SHORT $LN15@BuildGamma

; 51   : 			f = f * brightness;

	movss	xmm0, DWORD PTR _f$[ebp]
	mulss	xmm0, DWORD PTR _brightness$[ebp]
	movss	DWORD PTR _f$[ebp], xmm0
$LN15@BuildGamma:

; 52   : 
; 53   : 		// shift up
; 54   : 		if( f <= g3 ) f = (f / g3) * 0.125f;

	movss	xmm0, DWORD PTR _g3$[ebp]
	comiss	xmm0, DWORD PTR _f$[ebp]
	jb	SHORT $LN16@BuildGamma
	movss	xmm0, DWORD PTR _f$[ebp]
	divss	xmm0, DWORD PTR _g3$[ebp]
	mulss	xmm0, DWORD PTR __real@3e000000
	movss	DWORD PTR _f$[ebp], xmm0
	jmp	SHORT $LN17@BuildGamma
$LN16@BuildGamma:

; 55   : 		else f = 0.125f + ((f - g3) / (1.0f - g3)) * 0.875f;

	movss	xmm0, DWORD PTR _f$[ebp]
	subss	xmm0, DWORD PTR _g3$[ebp]
	movss	xmm1, DWORD PTR __real@3f800000
	subss	xmm1, DWORD PTR _g3$[ebp]
	divss	xmm0, xmm1
	mulss	xmm0, DWORD PTR __real@3f600000
	addss	xmm0, DWORD PTR __real@3e000000
	movss	DWORD PTR _f$[ebp], xmm0
$LN17@BuildGamma:

; 56   : 
; 57   : 		// convert linear space to desired gamma space
; 58   : 		inf = (int)( 255.0 * pow( f, g ));

	cvtss2sd xmm0, DWORD PTR _g$[ebp]
	sub	esp, 8
	movsd	QWORD PTR [esp], xmm0
	cvtss2sd xmm0, DWORD PTR _f$[ebp]
	sub	esp, 8
	movsd	QWORD PTR [esp], xmm0
	call	_pow
	add	esp, 16					; 00000010H
	fstp	QWORD PTR tv243[ebp]
	movsd	xmm0, QWORD PTR tv243[ebp]
	mulsd	xmm0, QWORD PTR __real@406fe00000000000
	cvttsd2si eax, xmm0
	mov	DWORD PTR _inf$[ebp], eax

; 59   : 
; 60   : 		lightgammatable[i] = bound( 0, inf, 255 );

	cmp	DWORD PTR _inf$[ebp], 0
	jl	SHORT $LN29@BuildGamma
	cmp	DWORD PTR _inf$[ebp], 255		; 000000ffH
	jge	SHORT $LN27@BuildGamma
	mov	eax, DWORD PTR _inf$[ebp]
	mov	DWORD PTR tv149[ebp], eax
	jmp	SHORT $LN28@BuildGamma
$LN27@BuildGamma:
	mov	DWORD PTR tv149[ebp], 255		; 000000ffH
$LN28@BuildGamma:
	mov	ecx, DWORD PTR tv149[ebp]
	mov	DWORD PTR tv150[ebp], ecx
	jmp	SHORT $LN30@BuildGamma
$LN29@BuildGamma:
	mov	DWORD PTR tv150[ebp], 0
$LN30@BuildGamma:
	mov	edx, DWORD PTR _i$[ebp]
	mov	al, BYTE PTR tv150[ebp]
	mov	BYTE PTR _lightgammatable[edx], al

; 61   : 	}

	jmp	$LN2@BuildGamma
$LN3@BuildGamma:

; 62   : 
; 63   : 	for( i = 0; i < 256; i++ )

	mov	DWORD PTR _i$[ebp], 0
	jmp	SHORT $LN7@BuildGamma
$LN5@BuildGamma:
	mov	eax, DWORD PTR _i$[ebp]
	add	eax, 1
	mov	DWORD PTR _i$[ebp], eax
$LN7@BuildGamma:
	cmp	DWORD PTR _i$[ebp], 256			; 00000100H
	jge	$LN6@BuildGamma

; 64   : 	{
; 65   : 		f = 255.0 * pow(( float )i / 255.0f, TEXGAMMA );

	sub	esp, 8
	movsd	xmm0, QWORD PTR __real@3feccccccccccccd
	movsd	QWORD PTR [esp], xmm0
	cvtsi2ss xmm0, DWORD PTR _i$[ebp]
	divss	xmm0, DWORD PTR __real@437f0000
	cvtss2sd xmm0, xmm0
	sub	esp, 8
	movsd	QWORD PTR [esp], xmm0
	call	_pow
	add	esp, 16					; 00000010H
	fstp	QWORD PTR tv256[ebp]
	movsd	xmm0, QWORD PTR tv256[ebp]
	mulsd	xmm0, QWORD PTR __real@406fe00000000000
	cvtsd2ss xmm0, xmm0
	movss	DWORD PTR _f$[ebp], xmm0

; 66   : 		inf = (int)(f + 0.5f);

	movss	xmm0, DWORD PTR _f$[ebp]
	addss	xmm0, DWORD PTR __real@3f000000
	cvttss2si eax, xmm0
	mov	DWORD PTR _inf$[ebp], eax

; 67   : 		texgammatable[i] = bound( 0, inf, 255 );

	cmp	DWORD PTR _inf$[ebp], 0
	jl	SHORT $LN33@BuildGamma
	cmp	DWORD PTR _inf$[ebp], 255		; 000000ffH
	jge	SHORT $LN31@BuildGamma
	mov	eax, DWORD PTR _inf$[ebp]
	mov	DWORD PTR tv169[ebp], eax
	jmp	SHORT $LN32@BuildGamma
$LN31@BuildGamma:
	mov	DWORD PTR tv169[ebp], 255		; 000000ffH
$LN32@BuildGamma:
	mov	ecx, DWORD PTR tv169[ebp]
	mov	DWORD PTR tv170[ebp], ecx
	jmp	SHORT $LN34@BuildGamma
$LN33@BuildGamma:
	mov	DWORD PTR tv170[ebp], 0
$LN34@BuildGamma:
	mov	edx, DWORD PTR _i$[ebp]
	mov	al, BYTE PTR tv170[ebp]
	mov	BYTE PTR _texgammatable[edx], al

; 68   : 	}

	jmp	$LN5@BuildGamma
$LN6@BuildGamma:

; 69   : 
; 70   : 	for( i = 0; i < 1024; i++ )

	mov	DWORD PTR _i$[ebp], 0
	jmp	SHORT $LN10@BuildGamma
$LN8@BuildGamma:
	mov	eax, DWORD PTR _i$[ebp]
	add	eax, 1
	mov	DWORD PTR _i$[ebp], eax
$LN10@BuildGamma:
	cmp	DWORD PTR _i$[ebp], 1024		; 00000400H
	jge	$LN9@BuildGamma

; 71   : 	{
; 72   : 		// convert from screen gamma space to linear space
; 73   : 		lineargammatable[i] = 1023 * pow( i / 1023.0, g1 );

	cvtss2sd xmm0, DWORD PTR _g1$[ebp]
	sub	esp, 8
	movsd	QWORD PTR [esp], xmm0
	cvtsi2sd xmm0, DWORD PTR _i$[ebp]
	divsd	xmm0, QWORD PTR __real@408ff80000000000
	sub	esp, 8
	movsd	QWORD PTR [esp], xmm0
	call	_pow
	add	esp, 16					; 00000010H
	fstp	QWORD PTR tv269[ebp]
	movsd	xmm0, QWORD PTR tv269[ebp]
	mulsd	xmm0, QWORD PTR __real@408ff80000000000
	cvttsd2si eax, xmm0
	mov	ecx, DWORD PTR _i$[ebp]
	mov	DWORD PTR _lineargammatable[ecx*4], eax

; 74   : 
; 75   : 		// convert from linear gamma space to screen space
; 76   : 		screengammatable[i] = 1023 * pow( i / 1023.0, 1.0 / g1 );

	cvtss2sd xmm0, DWORD PTR _g1$[ebp]
	movsd	xmm1, QWORD PTR __real@3ff0000000000000
	divsd	xmm1, xmm0
	sub	esp, 8
	movsd	QWORD PTR [esp], xmm1
	cvtsi2sd xmm0, DWORD PTR _i$[ebp]
	divsd	xmm0, QWORD PTR __real@408ff80000000000
	sub	esp, 8
	movsd	QWORD PTR [esp], xmm0
	call	_pow
	add	esp, 16					; 00000010H
	fstp	QWORD PTR tv278[ebp]
	movsd	xmm0, QWORD PTR tv278[ebp]
	mulsd	xmm0, QWORD PTR __real@408ff80000000000
	cvttsd2si eax, xmm0
	mov	ecx, DWORD PTR _i$[ebp]
	mov	DWORD PTR _screengammatable[ecx*4], eax

; 77   : 	}

	jmp	$LN8@BuildGamma
$LN9@BuildGamma:

; 78   : }

	pop	edi
	pop	esi
	pop	ebx
	mov	esp, ebp
	pop	ebp
	ret	0
_BuildGammaTable ENDP
_TEXT	ENDS
END
