; Listing generated by Microsoft (R) Optimizing Compiler Version 19.37.32705.0 

	TITLE	D:\DevDragon\XashFE\dev\src\temp\engine\!debug\infostring.obj
	.686P
	.XMM
	include listing.inc
	.model	flat

INCLUDELIB MSVCRTD
INCLUDELIB OLDNAMES

PUBLIC	_Info_ValueForKey
PUBLIC	_Info_RemovePrefixedKeys
PUBLIC	_Info_RemoveKey
PUBLIC	_Info_SetValueForKey
PUBLIC	_Info_SetValueForStarKey
PUBLIC	_Info_IsValid
PUBLIC	_Info_WriteVars
PUBLIC	_Info_Print
PUBLIC	_Info_IsKeyImportant
PUBLIC	_Info_FindLargestKey
PUBLIC	??_C@_02DKCKIIND@?$CFs@				; `string'
PUBLIC	??_C@_07NAGJLFKN@?$CInull?$CJ?6@		; `string'
PUBLIC	??_C@_03OFAPEBGM@?$CFs?6@			; `string'
PUBLIC	??_C@_0BD@NFJFLDNN@setinfo?5?$CC?$CFs?$CC?5?$CC?$CFs?$CC?6@ ; `string'
PUBLIC	??_C@_00CNPNBAHC@@				; `string'
PUBLIC	??_C@_01KICIPPFI@?2@				; `string'
PUBLIC	??_C@_04MEMAJGDJ@name@				; `string'
PUBLIC	??_C@_05NCCFOPHA@model@				; `string'
PUBLIC	??_C@_04HCCHHEEF@rate@				; `string'
PUBLIC	??_C@_08OLGKFJAO@topcolor@			; `string'
PUBLIC	??_C@_0M@IIFIMDEK@bottomcolor@			; `string'
PUBLIC	??_C@_0O@GLEIJHMA@cl_updaterate@		; `string'
PUBLIC	??_C@_05COECHLGF@cl_lw@				; `string'
PUBLIC	??_C@_05OMKMDA@cl_lc@				; `string'
PUBLIC	??_C@_09EFLGBOKH@cl_nopred@			; `string'
PUBLIC	??_C@_0DO@EBIHOIJD@?$FO1Error?3?$FO7?5SetValueForKey?3?5can?8@ ; `string'
PUBLIC	??_C@_02DJGKEECL@?4?4@				; `string'
PUBLIC	??_C@_01BJJEKLCA@?$CC@				; `string'
PUBLIC	??_C@_0DO@BPOIKNMJ@?$FO1Error?3?$FO7?5SetValueForKey?3?5can?8@ ; `string'
PUBLIC	??_C@_06NELKLDPM@?2?$CFs?2?$CFs@		; `string'
PUBLIC	??_C@_04KADBPNCB@team@				; `string'
PUBLIC	??_C@_0BM@GEPEAMFM@?$FO1Error?3?$FO7?5Can?8t?5set?5?$CKkeys?6@ ; `string'
EXTRN	___report_rangecheckfailure:PROC
EXTRN	_memset:PROC
EXTRN	_Q_strlen:PROC
EXTRN	_Q_tolower:PROC
EXTRN	_Q_strncpy:PROC
EXTRN	_Q_strnicmp:PROC
EXTRN	_Q_strncmp:PROC
EXTRN	_Q_strstr:PROC
EXTRN	_Q_snprintf:PROC
EXTRN	_Cvar_FindVarExt:PROC
EXTRN	_FS_Printf:PROC
EXTRN	_Con_Printf:PROC
EXTRN	_CL_Userinfo:PROC
EXTRN	@__security_check_cookie@4:PROC
EXTRN	___security_cookie:DWORD
_BSS	SEGMENT
?value@?1??Info_WriteVars@@9@9 DB 0800H DUP (?)		; `Info_WriteVars'::`2'::value
?valueindex@?1??Info_WriteVars@@9@9 DD 01H DUP (?)	; `Info_WriteVars'::`2'::valueindex
?value@?1??Info_ValueForKey@@9@9 DB 0200H DUP (?)	; `Info_ValueForKey'::`2'::value
?valueindex@?1??Info_ValueForKey@@9@9 DD 01H DUP (?)	; `Info_ValueForKey'::`2'::valueindex
?largest_key@?1??Info_FindLargestKey@@9@9 DB 080H DUP (?) ; `Info_FindLargestKey'::`2'::largest_key
_BSS	ENDS
;	COMDAT ??_C@_0BM@GEPEAMFM@?$FO1Error?3?$FO7?5Can?8t?5set?5?$CKkeys?6@
CONST	SEGMENT
??_C@_0BM@GEPEAMFM@?$FO1Error?3?$FO7?5Can?8t?5set?5?$CKkeys?6@ DB '^1Erro'
	DB	'r:^7 Can''t set *keys', 0aH, 00H		; `string'
CONST	ENDS
;	COMDAT ??_C@_04KADBPNCB@team@
CONST	SEGMENT
??_C@_04KADBPNCB@team@ DB 'team', 00H			; `string'
CONST	ENDS
;	COMDAT ??_C@_06NELKLDPM@?2?$CFs?2?$CFs@
CONST	SEGMENT
??_C@_06NELKLDPM@?2?$CFs?2?$CFs@ DB '\%s\%s', 00H	; `string'
CONST	ENDS
;	COMDAT ??_C@_0DO@BPOIKNMJ@?$FO1Error?3?$FO7?5SetValueForKey?3?5can?8@
CONST	SEGMENT
??_C@_0DO@BPOIKNMJ@?$FO1Error?3?$FO7?5SetValueForKey?3?5can?8@ DB '^1Erro'
	DB	'r:^7 SetValueForKey: can''t use keys or values with a "', 0aH
	DB	00H						; `string'
CONST	ENDS
;	COMDAT ??_C@_01BJJEKLCA@?$CC@
CONST	SEGMENT
??_C@_01BJJEKLCA@?$CC@ DB '"', 00H			; `string'
CONST	ENDS
;	COMDAT ??_C@_02DJGKEECL@?4?4@
CONST	SEGMENT
??_C@_02DJGKEECL@?4?4@ DB '..', 00H			; `string'
CONST	ENDS
;	COMDAT ??_C@_0DO@EBIHOIJD@?$FO1Error?3?$FO7?5SetValueForKey?3?5can?8@
CONST	SEGMENT
??_C@_0DO@EBIHOIJD@?$FO1Error?3?$FO7?5SetValueForKey?3?5can?8@ DB '^1Erro'
	DB	'r:^7 SetValueForKey: can''t use keys or values with a \', 0aH
	DB	00H						; `string'
CONST	ENDS
;	COMDAT ??_C@_09EFLGBOKH@cl_nopred@
CONST	SEGMENT
??_C@_09EFLGBOKH@cl_nopred@ DB 'cl_nopred', 00H		; `string'
CONST	ENDS
;	COMDAT ??_C@_05OMKMDA@cl_lc@
CONST	SEGMENT
??_C@_05OMKMDA@cl_lc@ DB 'cl_lc', 00H			; `string'
CONST	ENDS
;	COMDAT ??_C@_05COECHLGF@cl_lw@
CONST	SEGMENT
??_C@_05COECHLGF@cl_lw@ DB 'cl_lw', 00H			; `string'
CONST	ENDS
;	COMDAT ??_C@_0O@GLEIJHMA@cl_updaterate@
CONST	SEGMENT
??_C@_0O@GLEIJHMA@cl_updaterate@ DB 'cl_updaterate', 00H ; `string'
CONST	ENDS
;	COMDAT ??_C@_0M@IIFIMDEK@bottomcolor@
CONST	SEGMENT
??_C@_0M@IIFIMDEK@bottomcolor@ DB 'bottomcolor', 00H	; `string'
CONST	ENDS
;	COMDAT ??_C@_08OLGKFJAO@topcolor@
CONST	SEGMENT
??_C@_08OLGKFJAO@topcolor@ DB 'topcolor', 00H		; `string'
CONST	ENDS
;	COMDAT ??_C@_04HCCHHEEF@rate@
CONST	SEGMENT
??_C@_04HCCHHEEF@rate@ DB 'rate', 00H			; `string'
CONST	ENDS
;	COMDAT ??_C@_05NCCFOPHA@model@
CONST	SEGMENT
??_C@_05NCCFOPHA@model@ DB 'model', 00H			; `string'
CONST	ENDS
;	COMDAT ??_C@_04MEMAJGDJ@name@
CONST	SEGMENT
??_C@_04MEMAJGDJ@name@ DB 'name', 00H			; `string'
CONST	ENDS
;	COMDAT ??_C@_01KICIPPFI@?2@
CONST	SEGMENT
??_C@_01KICIPPFI@?2@ DB '\', 00H			; `string'
CONST	ENDS
;	COMDAT ??_C@_00CNPNBAHC@@
CONST	SEGMENT
??_C@_00CNPNBAHC@@ DB 00H				; `string'
CONST	ENDS
;	COMDAT ??_C@_0BD@NFJFLDNN@setinfo?5?$CC?$CFs?$CC?5?$CC?$CFs?$CC?6@
CONST	SEGMENT
??_C@_0BD@NFJFLDNN@setinfo?5?$CC?$CFs?$CC?5?$CC?$CFs?$CC?6@ DB 'setinfo "'
	DB	'%s" "%s"', 0aH, 00H				; `string'
CONST	ENDS
;	COMDAT ??_C@_03OFAPEBGM@?$CFs?6@
CONST	SEGMENT
??_C@_03OFAPEBGM@?$CFs?6@ DB '%s', 0aH, 00H		; `string'
CONST	ENDS
;	COMDAT ??_C@_07NAGJLFKN@?$CInull?$CJ?6@
CONST	SEGMENT
??_C@_07NAGJLFKN@?$CInull?$CJ?6@ DB '(null)', 0aH, 00H	; `string'
CONST	ENDS
;	COMDAT ??_C@_02DKCKIIND@?$CFs@
CONST	SEGMENT
??_C@_02DKCKIIND@?$CFs@ DB '%s', 00H			; `string'
CONST	ENDS
;	COMDAT voltbl
voltbl	SEGMENT
_volmd	DW	010H
	DW	0227H
voltbl	ENDS
;	COMDAT voltbl
voltbl	SEGMENT
_volmd	DW	010H
	DW	01f1H
voltbl	ENDS
;	COMDAT voltbl
voltbl	SEGMENT
_volmd	DW	010H
	DW	0196H
voltbl	ENDS
;	COMDAT voltbl
voltbl	SEGMENT
_volmd	DW	010H
	DW	016fH
voltbl	ENDS
;	COMDAT voltbl
voltbl	SEGMENT
_volmd	DW	010H
	DW	02cbH
voltbl	ENDS
;	COMDAT voltbl
voltbl	SEGMENT
_volmd	DW	010H
	DW	01d5H
voltbl	ENDS
;	COMDAT voltbl
voltbl	SEGMENT
_volmd	DW	010H
	DW	0164H
voltbl	ENDS
;	COMDAT voltbl
voltbl	SEGMENT
_volmd	DW	010H
	DW	01b1H
voltbl	ENDS
; Function compile flags: /Odtp /ZI
; File D:\DevDragon\XashFE\dev\src\engine\common\infostring.c
;	COMDAT _Info_FindLargestKey
_TEXT	SEGMENT
$T1 = -348						; size = 4
_size$2 = -280						; size = 4
_o$ = -276						; size = 4
_count$ = -272						; size = 4
_l$ = -268						; size = 4
_largest_size$ = -264					; size = 4
_value$ = -260						; size = 128
_key$ = -132						; size = 128
__$ArrayPad$ = -4					; size = 4
_s$ = 8							; size = 4
_Info_FindLargestKey PROC				; COMDAT

; 357  : {

	push	ebp
	mov	ebp, esp
	sub	esp, 348				; 0000015cH
	mov	eax, DWORD PTR ___security_cookie
	xor	eax, ebp
	mov	DWORD PTR __$ArrayPad$[ebp], eax
	push	ebx
	push	esi
	push	edi

; 358  : 	char	key[MAX_KV_SIZE];
; 359  : 	char	value[MAX_KV_SIZE];
; 360  : 	static	char largest_key[128];
; 361  : 	int	largest_size = 0;

	mov	DWORD PTR _largest_size$[ebp], 0

; 362  : 	int	l, count;
; 363  : 	char	*o;
; 364  : 
; 365  : 	*largest_key = 0;

	mov	eax, 1
	imul	ecx, eax, 0
	mov	DWORD PTR $T1[ebp], ecx
	cmp	DWORD PTR $T1[ebp], 128			; 00000080H
	jae	SHORT $LN13@Info_FindL
	jmp	SHORT $LN14@Info_FindL
$LN13@Info_FindL:
	call	___report_rangecheckfailure
$LN14@Info_FindL:
	mov	edx, DWORD PTR $T1[ebp]
	mov	BYTE PTR ?largest_key@?1??Info_FindLargestKey@@9@9[edx], 0

; 366  : 
; 367  : 	if( *s == '\\' ) s++;

	mov	eax, DWORD PTR _s$[ebp]
	movsx	ecx, BYTE PTR [eax]
	cmp	ecx, 92					; 0000005cH
	jne	SHORT $LN2@Info_FindL
	mov	eax, DWORD PTR _s$[ebp]
	add	eax, 1
	mov	DWORD PTR _s$[ebp], eax
$LN2@Info_FindL:

; 368  : 
; 369  : 	while( *s )

	mov	eax, DWORD PTR _s$[ebp]
	movsx	ecx, BYTE PTR [eax]
	test	ecx, ecx
	je	$LN3@Info_FindL

; 370  : 	{
; 371  : 		int	size = 0;

	mov	DWORD PTR _size$2[ebp], 0

; 372  : 
; 373  : 		count = 0;

	mov	DWORD PTR _count$[ebp], 0

; 374  : 		o = key;

	lea	eax, DWORD PTR _key$[ebp]
	mov	DWORD PTR _o$[ebp], eax
$LN4@Info_FindL:

; 375  : 
; 376  : 		while( count < (MAX_KV_SIZE - 1) && *s && *s != '\\' )

	cmp	DWORD PTR _count$[ebp], 127		; 0000007fH
	jge	SHORT $LN5@Info_FindL
	mov	eax, DWORD PTR _s$[ebp]
	movsx	ecx, BYTE PTR [eax]
	test	ecx, ecx
	je	SHORT $LN5@Info_FindL
	mov	eax, DWORD PTR _s$[ebp]
	movsx	ecx, BYTE PTR [eax]
	cmp	ecx, 92					; 0000005cH
	je	SHORT $LN5@Info_FindL

; 377  : 		{
; 378  : 			*o++ = *s++;

	mov	eax, DWORD PTR _o$[ebp]
	mov	ecx, DWORD PTR _s$[ebp]
	mov	dl, BYTE PTR [ecx]
	mov	BYTE PTR [eax], dl
	mov	eax, DWORD PTR _o$[ebp]
	add	eax, 1
	mov	DWORD PTR _o$[ebp], eax
	mov	ecx, DWORD PTR _s$[ebp]
	add	ecx, 1
	mov	DWORD PTR _s$[ebp], ecx

; 379  : 			count++;

	mov	eax, DWORD PTR _count$[ebp]
	add	eax, 1
	mov	DWORD PTR _count$[ebp], eax

; 380  : 		}

	jmp	SHORT $LN4@Info_FindL
$LN5@Info_FindL:

; 381  : 
; 382  : 		l = o - key;

	mov	eax, DWORD PTR _o$[ebp]
	lea	ecx, DWORD PTR _key$[ebp]
	sub	eax, ecx
	mov	DWORD PTR _l$[ebp], eax

; 383  : 		*o = 0;

	mov	eax, DWORD PTR _o$[ebp]
	mov	BYTE PTR [eax], 0

; 384  : 		size = Q_strlen( key );

	lea	eax, DWORD PTR _key$[ebp]
	push	eax
	call	_Q_strlen
	add	esp, 4
	mov	DWORD PTR _size$2[ebp], eax

; 385  : 
; 386  : 		if( !*s ) return largest_key;

	mov	eax, DWORD PTR _s$[ebp]
	movsx	ecx, BYTE PTR [eax]
	test	ecx, ecx
	jne	SHORT $LN9@Info_FindL
	mov	eax, OFFSET ?largest_key@?1??Info_FindLargestKey@@9@9
	jmp	$LN12@Info_FindL
$LN9@Info_FindL:

; 387  : 
; 388  : 		count = 0;

	mov	DWORD PTR _count$[ebp], 0

; 389  : 		o = value;

	lea	eax, DWORD PTR _value$[ebp]
	mov	DWORD PTR _o$[ebp], eax

; 390  : 		s++;

	mov	eax, DWORD PTR _s$[ebp]
	add	eax, 1
	mov	DWORD PTR _s$[ebp], eax
$LN6@Info_FindL:

; 391  : 		while( count < (MAX_KV_SIZE - 1) && *s && *s != '\\' )

	cmp	DWORD PTR _count$[ebp], 127		; 0000007fH
	jge	SHORT $LN7@Info_FindL
	mov	eax, DWORD PTR _s$[ebp]
	movsx	ecx, BYTE PTR [eax]
	test	ecx, ecx
	je	SHORT $LN7@Info_FindL
	mov	eax, DWORD PTR _s$[ebp]
	movsx	ecx, BYTE PTR [eax]
	cmp	ecx, 92					; 0000005cH
	je	SHORT $LN7@Info_FindL

; 392  : 		{
; 393  : 			*o++ = *s++;

	mov	eax, DWORD PTR _o$[ebp]
	mov	ecx, DWORD PTR _s$[ebp]
	mov	dl, BYTE PTR [ecx]
	mov	BYTE PTR [eax], dl
	mov	eax, DWORD PTR _o$[ebp]
	add	eax, 1
	mov	DWORD PTR _o$[ebp], eax
	mov	ecx, DWORD PTR _s$[ebp]
	add	ecx, 1
	mov	DWORD PTR _s$[ebp], ecx

; 394  : 			count++;

	mov	eax, DWORD PTR _count$[ebp]
	add	eax, 1
	mov	DWORD PTR _count$[ebp], eax

; 395  : 		}

	jmp	SHORT $LN6@Info_FindL
$LN7@Info_FindL:

; 396  : 		*o = 0;

	mov	eax, DWORD PTR _o$[ebp]
	mov	BYTE PTR [eax], 0

; 397  : 
; 398  : 		if( *s ) s++;

	mov	eax, DWORD PTR _s$[ebp]
	movsx	ecx, BYTE PTR [eax]
	test	ecx, ecx
	je	SHORT $LN10@Info_FindL
	mov	eax, DWORD PTR _s$[ebp]
	add	eax, 1
	mov	DWORD PTR _s$[ebp], eax
$LN10@Info_FindL:

; 399  : 
; 400  : 		size += Q_strlen( value );

	lea	eax, DWORD PTR _value$[ebp]
	push	eax
	call	_Q_strlen
	add	esp, 4
	add	eax, DWORD PTR _size$2[ebp]
	mov	DWORD PTR _size$2[ebp], eax

; 401  : 
; 402  : 		if(( size > largest_size ) && !Info_IsKeyImportant( key ))

	mov	eax, DWORD PTR _size$2[ebp]
	cmp	eax, DWORD PTR _largest_size$[ebp]
	jle	SHORT $LN11@Info_FindL
	lea	eax, DWORD PTR _key$[ebp]
	push	eax
	call	_Info_IsKeyImportant
	add	esp, 4
	test	eax, eax
	jne	SHORT $LN11@Info_FindL

; 403  : 		{
; 404  : 			Q_strncpy( largest_key, key, sizeof( largest_key ));

	push	128					; 00000080H
	lea	eax, DWORD PTR _key$[ebp]
	push	eax
	push	OFFSET ?largest_key@?1??Info_FindLargestKey@@9@9
	call	_Q_strncpy
	add	esp, 12					; 0000000cH

; 405  : 			largest_size = size;

	mov	eax, DWORD PTR _size$2[ebp]
	mov	DWORD PTR _largest_size$[ebp], eax
$LN11@Info_FindL:

; 406  : 		}
; 407  : 	}

	jmp	$LN2@Info_FindL
$LN3@Info_FindL:

; 408  : 
; 409  : 	return largest_key;

	mov	eax, OFFSET ?largest_key@?1??Info_FindLargestKey@@9@9
$LN12@Info_FindL:

; 410  : }

	pop	edi
	pop	esi
	pop	ebx
	mov	ecx, DWORD PTR __$ArrayPad$[ebp]
	xor	ecx, ebp
	call	@__security_check_cookie@4
	mov	esp, ebp
	pop	ebp
	ret	0
_Info_FindLargestKey ENDP
_TEXT	ENDS
; Function compile flags: /Odtp /ZI
; File D:\DevDragon\XashFE\dev\src\engine\common\infostring.c
;	COMDAT _Info_IsKeyImportant
_TEXT	SEGMENT
_key$ = 8						; size = 4
_Info_IsKeyImportant PROC				; COMDAT

; 332  : {

	push	ebp
	mov	ebp, esp
	sub	esp, 64					; 00000040H
	push	ebx
	push	esi
	push	edi

; 333  : 	if( key[0] == '*' )

	mov	eax, 1
	imul	ecx, eax, 0
	mov	edx, DWORD PTR _key$[ebp]
	movsx	eax, BYTE PTR [edx+ecx]
	cmp	eax, 42					; 0000002aH
	jne	SHORT $LN2@Info_IsKey

; 334  : 		return true;

	mov	eax, 1
	jmp	$LN1@Info_IsKey
$LN2@Info_IsKey:

; 335  : 	if( !Q_strcmp( key, "name" ))

	push	99999					; 0001869fH
	push	OFFSET ??_C@_04MEMAJGDJ@name@
	mov	eax, DWORD PTR _key$[ebp]
	push	eax
	call	_Q_strncmp
	add	esp, 12					; 0000000cH
	test	eax, eax
	jne	SHORT $LN3@Info_IsKey

; 336  : 		return true;

	mov	eax, 1
	jmp	$LN1@Info_IsKey
$LN3@Info_IsKey:

; 337  : 	if( !Q_strcmp( key, "model" ))

	push	99999					; 0001869fH
	push	OFFSET ??_C@_05NCCFOPHA@model@
	mov	eax, DWORD PTR _key$[ebp]
	push	eax
	call	_Q_strncmp
	add	esp, 12					; 0000000cH
	test	eax, eax
	jne	SHORT $LN4@Info_IsKey

; 338  : 		return true;

	mov	eax, 1
	jmp	$LN1@Info_IsKey
$LN4@Info_IsKey:

; 339  : 	if( !Q_strcmp( key, "rate" ))

	push	99999					; 0001869fH
	push	OFFSET ??_C@_04HCCHHEEF@rate@
	mov	eax, DWORD PTR _key$[ebp]
	push	eax
	call	_Q_strncmp
	add	esp, 12					; 0000000cH
	test	eax, eax
	jne	SHORT $LN5@Info_IsKey

; 340  : 		return true;

	mov	eax, 1
	jmp	$LN1@Info_IsKey
$LN5@Info_IsKey:

; 341  : 	if( !Q_strcmp( key, "topcolor" ))

	push	99999					; 0001869fH
	push	OFFSET ??_C@_08OLGKFJAO@topcolor@
	mov	eax, DWORD PTR _key$[ebp]
	push	eax
	call	_Q_strncmp
	add	esp, 12					; 0000000cH
	test	eax, eax
	jne	SHORT $LN6@Info_IsKey

; 342  : 		return true;

	mov	eax, 1
	jmp	$LN1@Info_IsKey
$LN6@Info_IsKey:

; 343  : 	if( !Q_strcmp( key, "bottomcolor" ))

	push	99999					; 0001869fH
	push	OFFSET ??_C@_0M@IIFIMDEK@bottomcolor@
	mov	eax, DWORD PTR _key$[ebp]
	push	eax
	call	_Q_strncmp
	add	esp, 12					; 0000000cH
	test	eax, eax
	jne	SHORT $LN7@Info_IsKey

; 344  : 		return true;

	mov	eax, 1
	jmp	$LN1@Info_IsKey
$LN7@Info_IsKey:

; 345  : 	if( !Q_strcmp( key, "cl_updaterate" ))

	push	99999					; 0001869fH
	push	OFFSET ??_C@_0O@GLEIJHMA@cl_updaterate@
	mov	eax, DWORD PTR _key$[ebp]
	push	eax
	call	_Q_strncmp
	add	esp, 12					; 0000000cH
	test	eax, eax
	jne	SHORT $LN8@Info_IsKey

; 346  : 		return true;

	mov	eax, 1
	jmp	SHORT $LN1@Info_IsKey
$LN8@Info_IsKey:

; 347  : 	if( !Q_strcmp( key, "cl_lw" ))

	push	99999					; 0001869fH
	push	OFFSET ??_C@_05COECHLGF@cl_lw@
	mov	eax, DWORD PTR _key$[ebp]
	push	eax
	call	_Q_strncmp
	add	esp, 12					; 0000000cH
	test	eax, eax
	jne	SHORT $LN9@Info_IsKey

; 348  : 		return true;

	mov	eax, 1
	jmp	SHORT $LN1@Info_IsKey
$LN9@Info_IsKey:

; 349  : 	if( !Q_strcmp( key, "cl_lc" ))

	push	99999					; 0001869fH
	push	OFFSET ??_C@_05OMKMDA@cl_lc@
	mov	eax, DWORD PTR _key$[ebp]
	push	eax
	call	_Q_strncmp
	add	esp, 12					; 0000000cH
	test	eax, eax
	jne	SHORT $LN10@Info_IsKey

; 350  : 		return true;

	mov	eax, 1
	jmp	SHORT $LN1@Info_IsKey
$LN10@Info_IsKey:

; 351  : 	if( !Q_strcmp( key, "cl_nopred" ))

	push	99999					; 0001869fH
	push	OFFSET ??_C@_09EFLGBOKH@cl_nopred@
	mov	eax, DWORD PTR _key$[ebp]
	push	eax
	call	_Q_strncmp
	add	esp, 12					; 0000000cH
	test	eax, eax
	jne	SHORT $LN11@Info_IsKey

; 352  : 		return true;

	mov	eax, 1
	jmp	SHORT $LN1@Info_IsKey
$LN11@Info_IsKey:

; 353  : 	return false;

	xor	eax, eax
$LN1@Info_IsKey:

; 354  : }

	pop	edi
	pop	esi
	pop	ebx
	mov	esp, ebp
	pop	ebp
	ret	0
_Info_IsKeyImportant ENDP
_TEXT	ENDS
; Function compile flags: /Odtp /ZI
; File D:\DevDragon\XashFE\dev\src\engine\common\infostring.c
;	COMDAT _Info_Print
_TEXT	SEGMENT
$T1 = -340						; size = 4
_o$ = -272						; size = 4
_count$ = -268						; size = 4
_l$ = -264						; size = 4
_value$ = -260						; size = 128
_key$ = -132						; size = 128
__$ArrayPad$ = -4					; size = 4
_s$ = 8							; size = 4
_Info_Print PROC					; COMDAT

; 34   : {

	push	ebp
	mov	ebp, esp
	sub	esp, 340				; 00000154H
	mov	eax, DWORD PTR ___security_cookie
	xor	eax, ebp
	mov	DWORD PTR __$ArrayPad$[ebp], eax
	push	ebx
	push	esi
	push	edi

; 35   : 	char	key[MAX_KV_SIZE];
; 36   : 	char	value[MAX_KV_SIZE];
; 37   : 	int	l, count;
; 38   : 	char	*o;
; 39   : 
; 40   : 	if( *s == '\\' ) s++;

	mov	eax, DWORD PTR _s$[ebp]
	movsx	ecx, BYTE PTR [eax]
	cmp	ecx, 92					; 0000005cH
	jne	SHORT $LN2@Info_Print
	mov	eax, DWORD PTR _s$[ebp]
	add	eax, 1
	mov	DWORD PTR _s$[ebp], eax
$LN2@Info_Print:

; 41   : 
; 42   : 	while( *s )

	mov	eax, DWORD PTR _s$[ebp]
	movsx	ecx, BYTE PTR [eax]
	test	ecx, ecx
	je	$LN13@Info_Print

; 43   : 	{
; 44   : 		count = 0;

	mov	DWORD PTR _count$[ebp], 0

; 45   : 		o = key;

	lea	eax, DWORD PTR _key$[ebp]
	mov	DWORD PTR _o$[ebp], eax
$LN4@Info_Print:

; 46   : 
; 47   : 		while( count < (MAX_KV_SIZE - 1) && *s && *s != '\\' )

	cmp	DWORD PTR _count$[ebp], 127		; 0000007fH
	jge	SHORT $LN5@Info_Print
	mov	eax, DWORD PTR _s$[ebp]
	movsx	ecx, BYTE PTR [eax]
	test	ecx, ecx
	je	SHORT $LN5@Info_Print
	mov	eax, DWORD PTR _s$[ebp]
	movsx	ecx, BYTE PTR [eax]
	cmp	ecx, 92					; 0000005cH
	je	SHORT $LN5@Info_Print

; 48   : 		{
; 49   : 			*o++ = *s++;

	mov	eax, DWORD PTR _o$[ebp]
	mov	ecx, DWORD PTR _s$[ebp]
	mov	dl, BYTE PTR [ecx]
	mov	BYTE PTR [eax], dl
	mov	eax, DWORD PTR _o$[ebp]
	add	eax, 1
	mov	DWORD PTR _o$[ebp], eax
	mov	ecx, DWORD PTR _s$[ebp]
	add	ecx, 1
	mov	DWORD PTR _s$[ebp], ecx

; 50   : 			count++;

	mov	eax, DWORD PTR _count$[ebp]
	add	eax, 1
	mov	DWORD PTR _count$[ebp], eax

; 51   : 		}

	jmp	SHORT $LN4@Info_Print
$LN5@Info_Print:

; 52   : 
; 53   : 		l = o - key;

	mov	eax, DWORD PTR _o$[ebp]
	lea	ecx, DWORD PTR _key$[ebp]
	sub	eax, ecx
	mov	DWORD PTR _l$[ebp], eax

; 54   : 		if( l < 20 )

	cmp	DWORD PTR _l$[ebp], 20			; 00000014H
	jge	SHORT $LN9@Info_Print

; 55   : 		{
; 56   : 			memset( o, ' ', 20 - l );

	mov	eax, 20					; 00000014H
	sub	eax, DWORD PTR _l$[ebp]
	push	eax
	push	32					; 00000020H
	mov	ecx, DWORD PTR _o$[ebp]
	push	ecx
	call	_memset
	add	esp, 12					; 0000000cH

; 57   : 			key[20] = 0;

	mov	eax, 1
	imul	ecx, eax, 20
	mov	DWORD PTR $T1[ebp], ecx
	cmp	DWORD PTR $T1[ebp], 128			; 00000080H
	jae	SHORT $LN14@Info_Print
	jmp	SHORT $LN15@Info_Print
$LN14@Info_Print:
	call	___report_rangecheckfailure
$LN15@Info_Print:
	mov	edx, DWORD PTR $T1[ebp]
	mov	BYTE PTR _key$[ebp+edx], 0

; 58   : 		}

	jmp	SHORT $LN10@Info_Print
$LN9@Info_Print:

; 59   : 		else *o = 0;

	mov	eax, DWORD PTR _o$[ebp]
	mov	BYTE PTR [eax], 0
$LN10@Info_Print:

; 60   : 
; 61   : 		Con_Printf( "%s", key );

	lea	eax, DWORD PTR _key$[ebp]
	push	eax
	push	OFFSET ??_C@_02DKCKIIND@?$CFs@
	call	_Con_Printf
	add	esp, 8

; 62   : 
; 63   : 		if( !*s )

	mov	eax, DWORD PTR _s$[ebp]
	movsx	ecx, BYTE PTR [eax]
	test	ecx, ecx
	jne	SHORT $LN11@Info_Print

; 64   : 		{
; 65   : 			Con_Printf( "(null)\n" );

	push	OFFSET ??_C@_07NAGJLFKN@?$CInull?$CJ?6@
	call	_Con_Printf
	add	esp, 4

; 66   : 			return;

	jmp	$LN13@Info_Print
$LN11@Info_Print:

; 67   : 		}
; 68   : 
; 69   : 		count = 0;

	mov	DWORD PTR _count$[ebp], 0

; 70   : 		o = value;

	lea	eax, DWORD PTR _value$[ebp]
	mov	DWORD PTR _o$[ebp], eax

; 71   : 		s++;

	mov	eax, DWORD PTR _s$[ebp]
	add	eax, 1
	mov	DWORD PTR _s$[ebp], eax
$LN6@Info_Print:

; 72   : 		while( count < (MAX_KV_SIZE - 1) && *s && *s != '\\' )

	cmp	DWORD PTR _count$[ebp], 127		; 0000007fH
	jge	SHORT $LN7@Info_Print
	mov	eax, DWORD PTR _s$[ebp]
	movsx	ecx, BYTE PTR [eax]
	test	ecx, ecx
	je	SHORT $LN7@Info_Print
	mov	eax, DWORD PTR _s$[ebp]
	movsx	ecx, BYTE PTR [eax]
	cmp	ecx, 92					; 0000005cH
	je	SHORT $LN7@Info_Print

; 73   : 		{
; 74   : 			*o++ = *s++;

	mov	eax, DWORD PTR _o$[ebp]
	mov	ecx, DWORD PTR _s$[ebp]
	mov	dl, BYTE PTR [ecx]
	mov	BYTE PTR [eax], dl
	mov	eax, DWORD PTR _o$[ebp]
	add	eax, 1
	mov	DWORD PTR _o$[ebp], eax
	mov	ecx, DWORD PTR _s$[ebp]
	add	ecx, 1
	mov	DWORD PTR _s$[ebp], ecx

; 75   : 			count++;

	mov	eax, DWORD PTR _count$[ebp]
	add	eax, 1
	mov	DWORD PTR _count$[ebp], eax

; 76   : 		}

	jmp	SHORT $LN6@Info_Print
$LN7@Info_Print:

; 77   : 		*o = 0;

	mov	eax, DWORD PTR _o$[ebp]
	mov	BYTE PTR [eax], 0

; 78   : 
; 79   : 		if( *s ) s++;

	mov	eax, DWORD PTR _s$[ebp]
	movsx	ecx, BYTE PTR [eax]
	test	ecx, ecx
	je	SHORT $LN12@Info_Print
	mov	eax, DWORD PTR _s$[ebp]
	add	eax, 1
	mov	DWORD PTR _s$[ebp], eax
$LN12@Info_Print:

; 80   : 		Con_Printf( "%s\n", value );

	lea	eax, DWORD PTR _value$[ebp]
	push	eax
	push	OFFSET ??_C@_03OFAPEBGM@?$CFs?6@
	call	_Con_Printf
	add	esp, 8

; 81   : 	}

	jmp	$LN2@Info_Print
$LN13@Info_Print:

; 82   : }

	pop	edi
	pop	esi
	pop	ebx
	mov	ecx, DWORD PTR __$ArrayPad$[ebp]
	xor	ecx, ebp
	call	@__security_check_cookie@4
	mov	esp, ebp
	pop	ebp
	ret	0
_Info_Print ENDP
_TEXT	ENDS
; Function compile flags: /Odtp /ZI
; File D:\DevDragon\XashFE\dev\src\engine\common\infostring.c
;	COMDAT _Info_WriteVars
_TEXT	SEGMENT
_o$ = -528						; size = 4
_pcvar$ = -524						; size = 4
_pkey$ = -520						; size = 512
_s$ = -8						; size = 4
__$ArrayPad$ = -4					; size = 4
_f$ = 8							; size = 4
_Info_WriteVars PROC					; COMDAT

; 140  : {

	push	ebp
	mov	ebp, esp
	sub	esp, 656				; 00000290H
	mov	eax, DWORD PTR ___security_cookie
	xor	eax, ebp
	mov	DWORD PTR __$ArrayPad$[ebp], eax
	push	ebx
	push	esi
	push	edi

; 141  : 	char	*s = CL_Userinfo();

	call	_CL_Userinfo
	mov	DWORD PTR _s$[ebp], eax

; 142  : 	char	pkey[MAX_SERVERINFO_STRING];
; 143  : 	static	char value[4][MAX_SERVERINFO_STRING]; // use two buffers so compares work without stomping on each other
; 144  : 	static	int valueindex;
; 145  : 	convar_t	*pcvar;
; 146  : 	char	*o;
; 147  : 
; 148  : 	valueindex = (valueindex + 1) % 4;

	mov	eax, DWORD PTR ?valueindex@?1??Info_WriteVars@@9@9
	add	eax, 1
	and	eax, -2147483645			; 80000003H
	jns	SHORT $LN14@Info_Write
	dec	eax
	or	eax, -4					; fffffffcH
	inc	eax
$LN14@Info_Write:
	mov	DWORD PTR ?valueindex@?1??Info_WriteVars@@9@9, eax

; 149  : 	if( *s == '\\' ) s++;

	mov	eax, DWORD PTR _s$[ebp]
	movsx	ecx, BYTE PTR [eax]
	cmp	ecx, 92					; 0000005cH
	jne	SHORT $LN2@Info_Write
	mov	eax, DWORD PTR _s$[ebp]
	add	eax, 1
	mov	DWORD PTR _s$[ebp], eax
$LN2@Info_Write:

; 150  : 
; 151  : 	while( 1 )

	mov	eax, 1
	test	eax, eax
	je	$LN1@Info_Write

; 152  : 	{
; 153  : 		o = pkey;

	lea	eax, DWORD PTR _pkey$[ebp]
	mov	DWORD PTR _o$[ebp], eax
$LN4@Info_Write:

; 154  : 		while( *s != '\\' )

	mov	eax, DWORD PTR _s$[ebp]
	movsx	ecx, BYTE PTR [eax]
	cmp	ecx, 92					; 0000005cH
	je	SHORT $LN5@Info_Write

; 155  : 		{
; 156  : 			if( !*s ) return;

	mov	eax, DWORD PTR _s$[ebp]
	movsx	ecx, BYTE PTR [eax]
	test	ecx, ecx
	jne	SHORT $LN9@Info_Write
	jmp	$LN1@Info_Write
$LN9@Info_Write:

; 157  : 			*o++ = *s++;

	mov	eax, DWORD PTR _o$[ebp]
	mov	ecx, DWORD PTR _s$[ebp]
	mov	dl, BYTE PTR [ecx]
	mov	BYTE PTR [eax], dl
	mov	eax, DWORD PTR _o$[ebp]
	add	eax, 1
	mov	DWORD PTR _o$[ebp], eax
	mov	ecx, DWORD PTR _s$[ebp]
	add	ecx, 1
	mov	DWORD PTR _s$[ebp], ecx

; 158  : 		}

	jmp	SHORT $LN4@Info_Write
$LN5@Info_Write:

; 159  : 		*o = 0;

	mov	eax, DWORD PTR _o$[ebp]
	mov	BYTE PTR [eax], 0

; 160  : 		s++;

	mov	eax, DWORD PTR _s$[ebp]
	add	eax, 1
	mov	DWORD PTR _s$[ebp], eax

; 161  : 
; 162  : 		o = value[valueindex];

	mov	eax, DWORD PTR ?valueindex@?1??Info_WriteVars@@9@9
	shl	eax, 9
	add	eax, OFFSET ?value@?1??Info_WriteVars@@9@9
	mov	DWORD PTR _o$[ebp], eax
$LN6@Info_Write:

; 163  : 
; 164  : 		while( *s != '\\' && *s )

	mov	eax, DWORD PTR _s$[ebp]
	movsx	ecx, BYTE PTR [eax]
	cmp	ecx, 92					; 0000005cH
	je	SHORT $LN7@Info_Write
	mov	eax, DWORD PTR _s$[ebp]
	movsx	ecx, BYTE PTR [eax]
	test	ecx, ecx
	je	SHORT $LN7@Info_Write

; 165  : 		{
; 166  : 			if( !*s ) return;

	mov	eax, DWORD PTR _s$[ebp]
	movsx	ecx, BYTE PTR [eax]
	test	ecx, ecx
	jne	SHORT $LN10@Info_Write
	jmp	$LN1@Info_Write
$LN10@Info_Write:

; 167  : 			*o++ = *s++;

	mov	eax, DWORD PTR _o$[ebp]
	mov	ecx, DWORD PTR _s$[ebp]
	mov	dl, BYTE PTR [ecx]
	mov	BYTE PTR [eax], dl
	mov	eax, DWORD PTR _o$[ebp]
	add	eax, 1
	mov	DWORD PTR _o$[ebp], eax
	mov	ecx, DWORD PTR _s$[ebp]
	add	ecx, 1
	mov	DWORD PTR _s$[ebp], ecx

; 168  : 		}

	jmp	SHORT $LN6@Info_Write
$LN7@Info_Write:

; 169  : 		*o = 0;

	mov	eax, DWORD PTR _o$[ebp]
	mov	BYTE PTR [eax], 0

; 170  : 
; 171  : 		pcvar = Cvar_FindVar( pkey );

	push	0
	lea	eax, DWORD PTR _pkey$[ebp]
	push	eax
	call	_Cvar_FindVarExt
	add	esp, 8
	mov	DWORD PTR _pcvar$[ebp], eax

; 172  : 
; 173  : 		if( !pcvar && pkey[0] != '*' )  // don't store out star keys

	cmp	DWORD PTR _pcvar$[ebp], 0
	jne	SHORT $LN11@Info_Write
	mov	eax, 1
	imul	ecx, eax, 0
	movsx	edx, BYTE PTR _pkey$[ebp+ecx]
	cmp	edx, 42					; 0000002aH
	je	SHORT $LN11@Info_Write

; 174  : 			FS_Printf( f, "setinfo \"%s\" \"%s\"\n", pkey, value[valueindex] );

	mov	eax, DWORD PTR ?valueindex@?1??Info_WriteVars@@9@9
	shl	eax, 9
	add	eax, OFFSET ?value@?1??Info_WriteVars@@9@9
	push	eax
	lea	ecx, DWORD PTR _pkey$[ebp]
	push	ecx
	push	OFFSET ??_C@_0BD@NFJFLDNN@setinfo?5?$CC?$CFs?$CC?5?$CC?$CFs?$CC?6@
	mov	edx, DWORD PTR _f$[ebp]
	push	edx
	call	_FS_Printf
	add	esp, 16					; 00000010H
$LN11@Info_Write:

; 175  : 
; 176  : 		if( !*s ) return;

	mov	eax, DWORD PTR _s$[ebp]
	movsx	ecx, BYTE PTR [eax]
	test	ecx, ecx
	jne	SHORT $LN12@Info_Write
	jmp	SHORT $LN1@Info_Write
$LN12@Info_Write:

; 177  : 		s++;

	mov	eax, DWORD PTR _s$[ebp]
	add	eax, 1
	mov	DWORD PTR _s$[ebp], eax

; 178  : 	}

	jmp	$LN2@Info_Write
$LN1@Info_Write:

; 179  : }

	pop	edi
	pop	esi
	pop	ebx
	mov	ecx, DWORD PTR __$ArrayPad$[ebp]
	xor	ecx, ebp
	call	@__security_check_cookie@4
	mov	esp, ebp
	pop	ebp
	ret	0
_Info_WriteVars ENDP
_TEXT	ENDS
; Function compile flags: /Odtp /ZI
; File D:\DevDragon\XashFE\dev\src\engine\common\infostring.c
;	COMDAT _Info_IsValid
_TEXT	SEGMENT
_o$ = -268						; size = 4
_count$ = -264						; size = 4
_value$ = -260						; size = 128
_key$ = -132						; size = 128
__$ArrayPad$ = -4					; size = 4
_s$ = 8							; size = 4
_Info_IsValid PROC					; COMDAT

; 92   : {

	push	ebp
	mov	ebp, esp
	sub	esp, 332				; 0000014cH
	mov	eax, DWORD PTR ___security_cookie
	xor	eax, ebp
	mov	DWORD PTR __$ArrayPad$[ebp], eax
	push	ebx
	push	esi
	push	edi

; 93   : 	char	key[MAX_KV_SIZE];
; 94   : 	char	value[MAX_KV_SIZE];
; 95   : 	int	count;
; 96   : 	char	*o;
; 97   : 
; 98   : 	if( *s == '\\' ) s++;

	mov	eax, DWORD PTR _s$[ebp]
	movsx	ecx, BYTE PTR [eax]
	cmp	ecx, 92					; 0000005cH
	jne	SHORT $LN2@Info_IsVal
	mov	eax, DWORD PTR _s$[ebp]
	add	eax, 1
	mov	DWORD PTR _s$[ebp], eax
$LN2@Info_IsVal:

; 99   : 
; 100  : 	while( *s )

	mov	eax, DWORD PTR _s$[ebp]
	movsx	ecx, BYTE PTR [eax]
	test	ecx, ecx
	je	$LN3@Info_IsVal

; 101  : 	{
; 102  : 		count = 0;

	mov	DWORD PTR _count$[ebp], 0

; 103  : 		o = key;

	lea	eax, DWORD PTR _key$[ebp]
	mov	DWORD PTR _o$[ebp], eax
$LN4@Info_IsVal:

; 104  : 
; 105  : 		while( count < (MAX_KV_SIZE - 1) && *s && *s != '\\' )

	cmp	DWORD PTR _count$[ebp], 127		; 0000007fH
	jge	SHORT $LN5@Info_IsVal
	mov	eax, DWORD PTR _s$[ebp]
	movsx	ecx, BYTE PTR [eax]
	test	ecx, ecx
	je	SHORT $LN5@Info_IsVal
	mov	eax, DWORD PTR _s$[ebp]
	movsx	ecx, BYTE PTR [eax]
	cmp	ecx, 92					; 0000005cH
	je	SHORT $LN5@Info_IsVal

; 106  : 		{
; 107  : 			*o++ = *s++;

	mov	eax, DWORD PTR _o$[ebp]
	mov	ecx, DWORD PTR _s$[ebp]
	mov	dl, BYTE PTR [ecx]
	mov	BYTE PTR [eax], dl
	mov	eax, DWORD PTR _o$[ebp]
	add	eax, 1
	mov	DWORD PTR _o$[ebp], eax
	mov	ecx, DWORD PTR _s$[ebp]
	add	ecx, 1
	mov	DWORD PTR _s$[ebp], ecx

; 108  : 			count++;

	mov	eax, DWORD PTR _count$[ebp]
	add	eax, 1
	mov	DWORD PTR _count$[ebp], eax

; 109  : 		}

	jmp	SHORT $LN4@Info_IsVal
$LN5@Info_IsVal:

; 110  : 		*o = 0;

	mov	eax, DWORD PTR _o$[ebp]
	mov	BYTE PTR [eax], 0

; 111  : 
; 112  : 		if( !*s ) return false;

	mov	eax, DWORD PTR _s$[ebp]
	movsx	ecx, BYTE PTR [eax]
	test	ecx, ecx
	jne	SHORT $LN9@Info_IsVal
	xor	eax, eax
	jmp	$LN1@Info_IsVal
$LN9@Info_IsVal:

; 113  : 
; 114  : 		count = 0;

	mov	DWORD PTR _count$[ebp], 0

; 115  : 		o = value;

	lea	eax, DWORD PTR _value$[ebp]
	mov	DWORD PTR _o$[ebp], eax

; 116  : 		s++;

	mov	eax, DWORD PTR _s$[ebp]
	add	eax, 1
	mov	DWORD PTR _s$[ebp], eax
$LN6@Info_IsVal:

; 117  : 		while( count < (MAX_KV_SIZE - 1) && *s && *s != '\\' )

	cmp	DWORD PTR _count$[ebp], 127		; 0000007fH
	jge	SHORT $LN7@Info_IsVal
	mov	eax, DWORD PTR _s$[ebp]
	movsx	ecx, BYTE PTR [eax]
	test	ecx, ecx
	je	SHORT $LN7@Info_IsVal
	mov	eax, DWORD PTR _s$[ebp]
	movsx	ecx, BYTE PTR [eax]
	cmp	ecx, 92					; 0000005cH
	je	SHORT $LN7@Info_IsVal

; 118  : 		{
; 119  : 			*o++ = *s++;

	mov	eax, DWORD PTR _o$[ebp]
	mov	ecx, DWORD PTR _s$[ebp]
	mov	dl, BYTE PTR [ecx]
	mov	BYTE PTR [eax], dl
	mov	eax, DWORD PTR _o$[ebp]
	add	eax, 1
	mov	DWORD PTR _o$[ebp], eax
	mov	ecx, DWORD PTR _s$[ebp]
	add	ecx, 1
	mov	DWORD PTR _s$[ebp], ecx

; 120  : 			count++;

	mov	eax, DWORD PTR _count$[ebp]
	add	eax, 1
	mov	DWORD PTR _count$[ebp], eax

; 121  : 		}

	jmp	SHORT $LN6@Info_IsVal
$LN7@Info_IsVal:

; 122  : 		*o = 0;

	mov	eax, DWORD PTR _o$[ebp]
	mov	BYTE PTR [eax], 0

; 123  : 
; 124  : 		if( !Q_strlen( value ))

	lea	eax, DWORD PTR _value$[ebp]
	push	eax
	call	_Q_strlen
	add	esp, 4
	test	eax, eax
	jne	SHORT $LN10@Info_IsVal

; 125  : 			return false;

	xor	eax, eax
	jmp	SHORT $LN1@Info_IsVal
$LN10@Info_IsVal:

; 126  : 
; 127  : 		if( *s ) s++;

	mov	eax, DWORD PTR _s$[ebp]
	movsx	ecx, BYTE PTR [eax]
	test	ecx, ecx
	je	SHORT $LN11@Info_IsVal
	mov	eax, DWORD PTR _s$[ebp]
	add	eax, 1
	mov	DWORD PTR _s$[ebp], eax
$LN11@Info_IsVal:

; 128  : 	}

	jmp	$LN2@Info_IsVal
$LN3@Info_IsVal:

; 129  : 
; 130  : 	return true;

	mov	eax, 1
$LN1@Info_IsVal:

; 131  : }

	pop	edi
	pop	esi
	pop	ebx
	mov	ecx, DWORD PTR __$ArrayPad$[ebp]
	xor	ecx, ebp
	call	@__security_check_cookie@4
	mov	esp, ebp
	pop	ebp
	ret	0
_Info_IsValid ENDP
_TEXT	ENDS
; Function compile flags: /Odtp /ZI
; File D:\DevDragon\XashFE\dev\src\engine\common\infostring.c
;	COMDAT _Info_SetValueForStarKey
_TEXT	SEGMENT
tv172 = -1240						; size = 4
_largekey$1 = -1044					; size = 4
_team$ = -1040						; size = 4
_c$ = -1036						; size = 4
_v$ = -1032						; size = 4
_new$ = -1028						; size = 1024
__$ArrayPad$ = -4					; size = 4
_s$ = 8							; size = 4
_key$ = 12						; size = 4
_value$ = 16						; size = 4
_maxsize$ = 20						; size = 4
_Info_SetValueForStarKey PROC				; COMDAT

; 413  : {

	push	ebp
	mov	ebp, esp
	sub	esp, 1240				; 000004d8H
	mov	eax, DWORD PTR ___security_cookie
	xor	eax, ebp
	mov	DWORD PTR __$ArrayPad$[ebp], eax
	push	ebx
	push	esi
	push	edi

; 414  : 	char	new[1024], *v;
; 415  : 	int	c, team;
; 416  : 
; 417  : 	if( Q_strstr( key, "\\" ) || Q_strstr( value, "\\" ))

	push	OFFSET ??_C@_01KICIPPFI@?2@
	mov	eax, DWORD PTR _key$[ebp]
	push	eax
	call	_Q_strstr
	add	esp, 8
	test	eax, eax
	jne	SHORT $LN8@Info_SetVa
	push	OFFSET ??_C@_01KICIPPFI@?2@
	mov	eax, DWORD PTR _value$[ebp]
	push	eax
	call	_Q_strstr
	add	esp, 8
	test	eax, eax
	je	SHORT $LN7@Info_SetVa
$LN8@Info_SetVa:

; 418  : 	{
; 419  : 		Con_Printf( S_ERROR "SetValueForKey: can't use keys or values with a \\\n" );

	push	OFFSET ??_C@_0DO@EBIHOIJD@?$FO1Error?3?$FO7?5SetValueForKey?3?5can?8@
	call	_Con_Printf
	add	esp, 4

; 420  : 		return false;

	xor	eax, eax
	jmp	$LN1@Info_SetVa
$LN7@Info_SetVa:

; 421  : 	}
; 422  : 
; 423  : 	if( Q_strstr( key, ".." ) || Q_strstr( value, ".." ))

	push	OFFSET ??_C@_02DJGKEECL@?4?4@
	mov	eax, DWORD PTR _key$[ebp]
	push	eax
	call	_Q_strstr
	add	esp, 8
	test	eax, eax
	jne	SHORT $LN10@Info_SetVa
	push	OFFSET ??_C@_02DJGKEECL@?4?4@
	mov	eax, DWORD PTR _value$[ebp]
	push	eax
	call	_Q_strstr
	add	esp, 8
	test	eax, eax
	je	SHORT $LN9@Info_SetVa
$LN10@Info_SetVa:

; 424  : 		return false;

	xor	eax, eax
	jmp	$LN1@Info_SetVa
$LN9@Info_SetVa:

; 425  : 
; 426  : 	if( Q_strstr( key, "\"" ) || Q_strstr( value, "\"" ))

	push	OFFSET ??_C@_01BJJEKLCA@?$CC@
	mov	eax, DWORD PTR _key$[ebp]
	push	eax
	call	_Q_strstr
	add	esp, 8
	test	eax, eax
	jne	SHORT $LN12@Info_SetVa
	push	OFFSET ??_C@_01BJJEKLCA@?$CC@
	mov	eax, DWORD PTR _value$[ebp]
	push	eax
	call	_Q_strstr
	add	esp, 8
	test	eax, eax
	je	SHORT $LN11@Info_SetVa
$LN12@Info_SetVa:

; 427  : 	{
; 428  : 		Con_Printf( S_ERROR "SetValueForKey: can't use keys or values with a \"\n" );

	push	OFFSET ??_C@_0DO@BPOIKNMJ@?$FO1Error?3?$FO7?5SetValueForKey?3?5can?8@
	call	_Con_Printf
	add	esp, 4

; 429  : 		return false;

	xor	eax, eax
	jmp	$LN1@Info_SetVa
$LN11@Info_SetVa:

; 430  : 	}
; 431  : 
; 432  : 	if( Q_strlen( key ) > ( MAX_KV_SIZE - 1 ) || Q_strlen( value ) > ( MAX_KV_SIZE - 1 ))

	mov	eax, DWORD PTR _key$[ebp]
	push	eax
	call	_Q_strlen
	add	esp, 4
	cmp	eax, 127				; 0000007fH
	jg	SHORT $LN14@Info_SetVa
	mov	eax, DWORD PTR _value$[ebp]
	push	eax
	call	_Q_strlen
	add	esp, 4
	cmp	eax, 127				; 0000007fH
	jle	SHORT $LN13@Info_SetVa
$LN14@Info_SetVa:

; 433  : 		return false;

	xor	eax, eax
	jmp	$LN1@Info_SetVa
$LN13@Info_SetVa:

; 434  : 
; 435  : 	Info_RemoveKey( s, key );

	mov	eax, DWORD PTR _key$[ebp]
	push	eax
	mov	ecx, DWORD PTR _s$[ebp]
	push	ecx
	call	_Info_RemoveKey
	add	esp, 8

; 436  : 
; 437  : 	if( !value || !Q_strlen( value ))

	cmp	DWORD PTR _value$[ebp], 0
	je	SHORT $LN16@Info_SetVa
	mov	eax, DWORD PTR _value$[ebp]
	push	eax
	call	_Q_strlen
	add	esp, 4
	test	eax, eax
	jne	SHORT $LN15@Info_SetVa
$LN16@Info_SetVa:

; 438  : 		return true; // just clear variable

	mov	eax, 1
	jmp	$LN1@Info_SetVa
$LN15@Info_SetVa:

; 439  : 
; 440  : 	Q_snprintf( new, sizeof( new ), "\\%s\\%s", key, value );

	mov	eax, DWORD PTR _value$[ebp]
	push	eax
	mov	ecx, DWORD PTR _key$[ebp]
	push	ecx
	push	OFFSET ??_C@_06NELKLDPM@?2?$CFs?2?$CFs@
	push	1024					; 00000400H
	lea	edx, DWORD PTR _new$[ebp]
	push	edx
	call	_Q_snprintf
	add	esp, 20					; 00000014H

; 441  : 	if( Q_strlen( new ) + Q_strlen( s ) > maxsize )

	lea	eax, DWORD PTR _new$[ebp]
	push	eax
	call	_Q_strlen
	add	esp, 4
	mov	esi, eax
	mov	ecx, DWORD PTR _s$[ebp]
	push	ecx
	call	_Q_strlen
	add	esp, 4
	add	esi, eax
	cmp	esi, DWORD PTR _maxsize$[ebp]
	jle	$LN17@Info_SetVa

; 442  : 	{
; 443  : 		// no more room in buffer to add key/value
; 444  : 		if( Info_IsKeyImportant( key ))

	mov	eax, DWORD PTR _key$[ebp]
	push	eax
	call	_Info_IsKeyImportant
	add	esp, 4
	test	eax, eax
	je	SHORT $LN18@Info_SetVa
$LN4@Info_SetVa:

; 445  : 		{
; 446  : 			// keep removing the largest key/values until we have room
; 447  : 			char	*largekey;
; 448  : 
; 449  : 			do
; 450  : 			{
; 451  : 				largekey = Info_FindLargestKey( s );

	mov	eax, DWORD PTR _s$[ebp]
	push	eax
	call	_Info_FindLargestKey
	add	esp, 4
	mov	DWORD PTR _largekey$1[ebp], eax

; 452  : 				Info_RemoveKey( s, largekey );

	mov	eax, DWORD PTR _largekey$1[ebp]
	push	eax
	mov	ecx, DWORD PTR _s$[ebp]
	push	ecx
	call	_Info_RemoveKey
	add	esp, 8

; 453  : 			} while((( Q_strlen( new ) + Q_strlen( s )) >= maxsize ) && *largekey != 0 );

	lea	eax, DWORD PTR _new$[ebp]
	push	eax
	call	_Q_strlen
	add	esp, 4
	mov	esi, eax
	mov	ecx, DWORD PTR _s$[ebp]
	push	ecx
	call	_Q_strlen
	add	esp, 4
	add	esi, eax
	cmp	esi, DWORD PTR _maxsize$[ebp]
	jl	SHORT $LN3@Info_SetVa
	mov	eax, DWORD PTR _largekey$1[ebp]
	movsx	ecx, BYTE PTR [eax]
	test	ecx, ecx
	jne	SHORT $LN4@Info_SetVa
$LN3@Info_SetVa:

; 454  : 
; 455  : 			if( largekey[0] == 0 )

	mov	eax, 1
	imul	ecx, eax, 0
	mov	edx, DWORD PTR _largekey$1[ebp]
	movsx	eax, BYTE PTR [edx+ecx]
	test	eax, eax
	jne	SHORT $LN21@Info_SetVa

; 456  : 			{
; 457  : 				// no room to add setting
; 458  : 				return true; // info changed, new value can't saved

	mov	eax, 1
	jmp	$LN1@Info_SetVa
$LN21@Info_SetVa:

; 459  : 			}
; 460  : 		}

	jmp	SHORT $LN17@Info_SetVa
$LN18@Info_SetVa:

; 461  : 		else
; 462  : 		{
; 463  : 			// no room to add setting
; 464  : 			return true; // info changed, new value can't saved

	mov	eax, 1
	jmp	$LN1@Info_SetVa
$LN17@Info_SetVa:

; 465  : 		}
; 466  : 	}
; 467  : 
; 468  : 	// only copy ascii values
; 469  : 	s += Q_strlen( s );

	mov	eax, DWORD PTR _s$[ebp]
	push	eax
	call	_Q_strlen
	add	esp, 4
	add	eax, DWORD PTR _s$[ebp]
	mov	DWORD PTR _s$[ebp], eax

; 470  : 	v = new;

	lea	eax, DWORD PTR _new$[ebp]
	mov	DWORD PTR _v$[ebp], eax

; 471  : 
; 472  : 	team = ( Q_stricmp( key, "team" ) == 0 ) ? true : false;

	push	99999					; 0001869fH
	push	OFFSET ??_C@_04KADBPNCB@team@
	mov	eax, DWORD PTR _key$[ebp]
	push	eax
	call	_Q_strnicmp
	add	esp, 12					; 0000000cH
	test	eax, eax
	jne	SHORT $LN25@Info_SetVa
	mov	DWORD PTR tv172[ebp], 1
	jmp	SHORT $LN26@Info_SetVa
$LN25@Info_SetVa:
	mov	DWORD PTR tv172[ebp], 0
$LN26@Info_SetVa:
	mov	ecx, DWORD PTR tv172[ebp]
	mov	DWORD PTR _team$[ebp], ecx
$LN5@Info_SetVa:

; 473  : 
; 474  : 	while( *v )

	mov	eax, DWORD PTR _v$[ebp]
	movsx	ecx, BYTE PTR [eax]
	test	ecx, ecx
	je	SHORT $LN6@Info_SetVa

; 475  : 	{
; 476  : 		c = (byte)*v++;

	mov	eax, DWORD PTR _v$[ebp]
	movzx	ecx, BYTE PTR [eax]
	mov	DWORD PTR _c$[ebp], ecx
	mov	edx, DWORD PTR _v$[ebp]
	add	edx, 1
	mov	DWORD PTR _v$[ebp], edx

; 477  : 		if( team ) c = Q_tolower( c );

	cmp	DWORD PTR _team$[ebp], 0
	je	SHORT $LN22@Info_SetVa
	movzx	eax, BYTE PTR _c$[ebp]
	push	eax
	call	_Q_tolower
	add	esp, 4
	movsx	ecx, al
	mov	DWORD PTR _c$[ebp], ecx
$LN22@Info_SetVa:

; 478  : 		if( c > 13 ) *s++ = c;

	cmp	DWORD PTR _c$[ebp], 13			; 0000000dH
	jle	SHORT $LN23@Info_SetVa
	mov	eax, DWORD PTR _s$[ebp]
	mov	cl, BYTE PTR _c$[ebp]
	mov	BYTE PTR [eax], cl
	mov	edx, DWORD PTR _s$[ebp]
	add	edx, 1
	mov	DWORD PTR _s$[ebp], edx
$LN23@Info_SetVa:

; 479  : 	}

	jmp	SHORT $LN5@Info_SetVa
$LN6@Info_SetVa:

; 480  : 	*s = 0;

	mov	eax, DWORD PTR _s$[ebp]
	mov	BYTE PTR [eax], 0

; 481  : 
; 482  : 	// all done
; 483  : 	return true;

	mov	eax, 1
$LN1@Info_SetVa:

; 484  : }

	pop	edi
	pop	esi
	pop	ebx
	mov	ecx, DWORD PTR __$ArrayPad$[ebp]
	xor	ecx, ebp
	call	@__security_check_cookie@4
	mov	esp, ebp
	pop	ebp
	ret	0
_Info_SetValueForStarKey ENDP
_TEXT	ENDS
; Function compile flags: /Odtp /ZI
; File D:\DevDragon\XashFE\dev\src\engine\common\infostring.c
;	COMDAT _Info_SetValueForKey
_TEXT	SEGMENT
_s$ = 8							; size = 4
_key$ = 12						; size = 4
_value$ = 16						; size = 4
_maxsize$ = 20						; size = 4
_Info_SetValueForKey PROC				; COMDAT

; 487  : {

	push	ebp
	mov	ebp, esp
	sub	esp, 64					; 00000040H
	push	ebx
	push	esi
	push	edi

; 488  : 	if( key[0] == '*' )

	mov	eax, 1
	imul	ecx, eax, 0
	mov	edx, DWORD PTR _key$[ebp]
	movsx	eax, BYTE PTR [edx+ecx]
	cmp	eax, 42					; 0000002aH
	jne	SHORT $LN2@Info_SetVa

; 489  : 	{
; 490  : 		Con_Printf( S_ERROR "Can't set *keys\n" );

	push	OFFSET ??_C@_0BM@GEPEAMFM@?$FO1Error?3?$FO7?5Can?8t?5set?5?$CKkeys?6@
	call	_Con_Printf
	add	esp, 4

; 491  : 		return false;

	xor	eax, eax
	jmp	SHORT $LN1@Info_SetVa
$LN2@Info_SetVa:

; 492  : 	}
; 493  : 
; 494  : 	return Info_SetValueForStarKey( s, key, value, maxsize );

	mov	eax, DWORD PTR _maxsize$[ebp]
	push	eax
	mov	ecx, DWORD PTR _value$[ebp]
	push	ecx
	mov	edx, DWORD PTR _key$[ebp]
	push	edx
	mov	eax, DWORD PTR _s$[ebp]
	push	eax
	call	_Info_SetValueForStarKey
	add	esp, 16					; 00000010H
$LN1@Info_SetVa:

; 495  : }

	pop	edi
	pop	esi
	pop	ebx
	mov	esp, ebp
	pop	ebp
	ret	0
_Info_SetValueForKey ENDP
_TEXT	ENDS
; Function compile flags: /Odtp /ZI
; File D:\DevDragon\XashFE\dev\src\engine\common\infostring.c
;	COMDAT _Info_RemoveKey
_TEXT	SEGMENT
_o$ = -276						; size = 4
_count$ = -272						; size = 4
_cmpsize$ = -268					; size = 4
_value$ = -264						; size = 128
_pkey$ = -136						; size = 128
_start$ = -8						; size = 4
__$ArrayPad$ = -4					; size = 4
_s$ = 8							; size = 4
_key$ = 12						; size = 4
_Info_RemoveKey PROC					; COMDAT

; 234  : {

	push	ebp
	mov	ebp, esp
	sub	esp, 340				; 00000154H
	mov	eax, DWORD PTR ___security_cookie
	xor	eax, ebp
	mov	DWORD PTR __$ArrayPad$[ebp], eax
	push	ebx
	push	esi
	push	edi

; 235  : 	char	*start;
; 236  : 	char	pkey[MAX_KV_SIZE];
; 237  : 	char	value[MAX_KV_SIZE];
; 238  : 	int	cmpsize = Q_strlen( key );

	mov	eax, DWORD PTR _key$[ebp]
	push	eax
	call	_Q_strlen
	add	esp, 4
	mov	DWORD PTR _cmpsize$[ebp], eax

; 239  : 	int	count;
; 240  : 	char	*o;
; 241  : 
; 242  : 	if( cmpsize > ( MAX_KV_SIZE - 1 ))

	cmp	DWORD PTR _cmpsize$[ebp], 127		; 0000007fH
	jle	SHORT $LN8@Info_Remov

; 243  : 		cmpsize = MAX_KV_SIZE - 1;

	mov	DWORD PTR _cmpsize$[ebp], 127		; 0000007fH
$LN8@Info_Remov:

; 244  : 
; 245  : 	if( Q_strstr( key, "\\" ))

	push	OFFSET ??_C@_01KICIPPFI@?2@
	mov	eax, DWORD PTR _key$[ebp]
	push	eax
	call	_Q_strstr
	add	esp, 8
	test	eax, eax
	je	SHORT $LN2@Info_Remov

; 246  : 		return false;

	xor	eax, eax
	jmp	$LN1@Info_Remov
$LN2@Info_Remov:

; 247  : 
; 248  : 	while( 1 )

	mov	eax, 1
	test	eax, eax
	je	$LN1@Info_Remov

; 249  : 	{
; 250  : 		start = s;

	mov	eax, DWORD PTR _s$[ebp]
	mov	DWORD PTR _start$[ebp], eax

; 251  : 		if( *s == '\\' ) s++;

	mov	eax, DWORD PTR _s$[ebp]
	movsx	ecx, BYTE PTR [eax]
	cmp	ecx, 92					; 0000005cH
	jne	SHORT $LN10@Info_Remov
	mov	eax, DWORD PTR _s$[ebp]
	add	eax, 1
	mov	DWORD PTR _s$[ebp], eax
$LN10@Info_Remov:

; 252  : 		count = 0;

	mov	DWORD PTR _count$[ebp], 0

; 253  : 		o = pkey;

	lea	eax, DWORD PTR _pkey$[ebp]
	mov	DWORD PTR _o$[ebp], eax
$LN4@Info_Remov:

; 254  : 
; 255  : 		while( count < (MAX_KV_SIZE - 1) && *s != '\\' )

	cmp	DWORD PTR _count$[ebp], 127		; 0000007fH
	jge	SHORT $LN5@Info_Remov
	mov	eax, DWORD PTR _s$[ebp]
	movsx	ecx, BYTE PTR [eax]
	cmp	ecx, 92					; 0000005cH
	je	SHORT $LN5@Info_Remov

; 256  : 		{
; 257  : 			if( !*s ) return false;

	mov	eax, DWORD PTR _s$[ebp]
	movsx	ecx, BYTE PTR [eax]
	test	ecx, ecx
	jne	SHORT $LN11@Info_Remov
	xor	eax, eax
	jmp	$LN1@Info_Remov
$LN11@Info_Remov:

; 258  : 			*o++ = *s++;

	mov	eax, DWORD PTR _o$[ebp]
	mov	ecx, DWORD PTR _s$[ebp]
	mov	dl, BYTE PTR [ecx]
	mov	BYTE PTR [eax], dl
	mov	eax, DWORD PTR _o$[ebp]
	add	eax, 1
	mov	DWORD PTR _o$[ebp], eax
	mov	ecx, DWORD PTR _s$[ebp]
	add	ecx, 1
	mov	DWORD PTR _s$[ebp], ecx

; 259  : 			count++;

	mov	eax, DWORD PTR _count$[ebp]
	add	eax, 1
	mov	DWORD PTR _count$[ebp], eax

; 260  : 		}

	jmp	SHORT $LN4@Info_Remov
$LN5@Info_Remov:

; 261  : 		*o = 0;

	mov	eax, DWORD PTR _o$[ebp]
	mov	BYTE PTR [eax], 0

; 262  : 		s++;

	mov	eax, DWORD PTR _s$[ebp]
	add	eax, 1
	mov	DWORD PTR _s$[ebp], eax

; 263  : 
; 264  : 		count = 0;

	mov	DWORD PTR _count$[ebp], 0

; 265  : 		o = value;

	lea	eax, DWORD PTR _value$[ebp]
	mov	DWORD PTR _o$[ebp], eax
$LN6@Info_Remov:

; 266  : 
; 267  : 		while( count < (MAX_KV_SIZE - 1) && *s != '\\' && *s )

	cmp	DWORD PTR _count$[ebp], 127		; 0000007fH
	jge	SHORT $LN7@Info_Remov
	mov	eax, DWORD PTR _s$[ebp]
	movsx	ecx, BYTE PTR [eax]
	cmp	ecx, 92					; 0000005cH
	je	SHORT $LN7@Info_Remov
	mov	eax, DWORD PTR _s$[ebp]
	movsx	ecx, BYTE PTR [eax]
	test	ecx, ecx
	je	SHORT $LN7@Info_Remov

; 268  : 		{
; 269  : 			if( !*s ) return false;

	mov	eax, DWORD PTR _s$[ebp]
	movsx	ecx, BYTE PTR [eax]
	test	ecx, ecx
	jne	SHORT $LN12@Info_Remov
	xor	eax, eax
	jmp	$LN1@Info_Remov
$LN12@Info_Remov:

; 270  : 			*o++ = *s++;

	mov	eax, DWORD PTR _o$[ebp]
	mov	ecx, DWORD PTR _s$[ebp]
	mov	dl, BYTE PTR [ecx]
	mov	BYTE PTR [eax], dl
	mov	eax, DWORD PTR _o$[ebp]
	add	eax, 1
	mov	DWORD PTR _o$[ebp], eax
	mov	ecx, DWORD PTR _s$[ebp]
	add	ecx, 1
	mov	DWORD PTR _s$[ebp], ecx

; 271  : 			count++;

	mov	eax, DWORD PTR _count$[ebp]
	add	eax, 1
	mov	DWORD PTR _count$[ebp], eax

; 272  : 		}

	jmp	SHORT $LN6@Info_Remov
$LN7@Info_Remov:

; 273  : 		*o = 0;

	mov	eax, DWORD PTR _o$[ebp]
	mov	BYTE PTR [eax], 0

; 274  : 
; 275  : 		if( !Q_strncmp( key, pkey, cmpsize ))

	mov	eax, DWORD PTR _cmpsize$[ebp]
	push	eax
	lea	ecx, DWORD PTR _pkey$[ebp]
	push	ecx
	mov	edx, DWORD PTR _key$[ebp]
	push	edx
	call	_Q_strncmp
	add	esp, 12					; 0000000cH
	test	eax, eax
	jne	SHORT $LN13@Info_Remov

; 276  : 		{
; 277  : 			Q_strcpy( start, s ); // remove this part

	push	99999					; 0001869fH
	mov	eax, DWORD PTR _s$[ebp]
	push	eax
	mov	ecx, DWORD PTR _start$[ebp]
	push	ecx
	call	_Q_strncpy
	add	esp, 12					; 0000000cH

; 278  : 			return true;

	mov	eax, 1
	jmp	SHORT $LN1@Info_Remov
$LN13@Info_Remov:

; 279  : 		}
; 280  : 
; 281  : 		if( !*s ) return false;

	mov	eax, DWORD PTR _s$[ebp]
	movsx	ecx, BYTE PTR [eax]
	test	ecx, ecx
	jne	SHORT $LN14@Info_Remov
	xor	eax, eax
	jmp	SHORT $LN1@Info_Remov
$LN14@Info_Remov:

; 282  : 	}

	jmp	$LN2@Info_Remov
$LN1@Info_Remov:

; 283  : }

	pop	edi
	pop	esi
	pop	ebx
	mov	ecx, DWORD PTR __$ArrayPad$[ebp]
	xor	ecx, ebp
	call	@__security_check_cookie@4
	mov	esp, ebp
	pop	ebp
	ret	0
_Info_RemoveKey ENDP
_TEXT	ENDS
; Function compile flags: /Odtp /ZI
; File D:\DevDragon\XashFE\dev\src\engine\common\infostring.c
;	COMDAT _Info_RemovePrefixedKeys
_TEXT	SEGMENT
_count$ = -272						; size = 4
_value$ = -268						; size = 128
_pkey$ = -140						; size = 128
_o$ = -12						; size = 4
_s$ = -8						; size = 4
__$ArrayPad$ = -4					; size = 4
_start$ = 8						; size = 4
_prefix$ = 12						; size = 1
_Info_RemovePrefixedKeys PROC				; COMDAT

; 286  : {

	push	ebp
	mov	ebp, esp
	sub	esp, 336				; 00000150H
	mov	eax, DWORD PTR ___security_cookie
	xor	eax, ebp
	mov	DWORD PTR __$ArrayPad$[ebp], eax
	push	ebx
	push	esi
	push	edi

; 287  : 	char	*s, *o;
; 288  : 	char	pkey[MAX_KV_SIZE];
; 289  : 	char	value[MAX_KV_SIZE];
; 290  : 	int	count;
; 291  : 
; 292  : 	s = start;

	mov	eax, DWORD PTR _start$[ebp]
	mov	DWORD PTR _s$[ebp], eax
$LN2@Info_Remov:

; 293  : 
; 294  : 	while( 1 )

	mov	eax, 1
	test	eax, eax
	je	$LN1@Info_Remov

; 295  : 	{
; 296  : 		if( *s == '\\' ) s++;

	mov	eax, DWORD PTR _s$[ebp]
	movsx	ecx, BYTE PTR [eax]
	cmp	ecx, 92					; 0000005cH
	jne	SHORT $LN8@Info_Remov
	mov	eax, DWORD PTR _s$[ebp]
	add	eax, 1
	mov	DWORD PTR _s$[ebp], eax
$LN8@Info_Remov:

; 297  : 
; 298  : 		count = 0;

	mov	DWORD PTR _count$[ebp], 0

; 299  : 		o = pkey;

	lea	eax, DWORD PTR _pkey$[ebp]
	mov	DWORD PTR _o$[ebp], eax
$LN4@Info_Remov:

; 300  : 
; 301  : 		while( count < (MAX_KV_SIZE - 1) && *s != '\\' )

	cmp	DWORD PTR _count$[ebp], 127		; 0000007fH
	jge	SHORT $LN5@Info_Remov
	mov	eax, DWORD PTR _s$[ebp]
	movsx	ecx, BYTE PTR [eax]
	cmp	ecx, 92					; 0000005cH
	je	SHORT $LN5@Info_Remov

; 302  : 		{
; 303  : 			if( !*s ) return;

	mov	eax, DWORD PTR _s$[ebp]
	movsx	ecx, BYTE PTR [eax]
	test	ecx, ecx
	jne	SHORT $LN9@Info_Remov
	jmp	$LN1@Info_Remov
$LN9@Info_Remov:

; 304  : 			*o++ = *s++;

	mov	eax, DWORD PTR _o$[ebp]
	mov	ecx, DWORD PTR _s$[ebp]
	mov	dl, BYTE PTR [ecx]
	mov	BYTE PTR [eax], dl
	mov	eax, DWORD PTR _o$[ebp]
	add	eax, 1
	mov	DWORD PTR _o$[ebp], eax
	mov	ecx, DWORD PTR _s$[ebp]
	add	ecx, 1
	mov	DWORD PTR _s$[ebp], ecx

; 305  : 			count++;

	mov	eax, DWORD PTR _count$[ebp]
	add	eax, 1
	mov	DWORD PTR _count$[ebp], eax

; 306  : 		}

	jmp	SHORT $LN4@Info_Remov
$LN5@Info_Remov:

; 307  : 		*o = 0;

	mov	eax, DWORD PTR _o$[ebp]
	mov	BYTE PTR [eax], 0

; 308  : 		s++;

	mov	eax, DWORD PTR _s$[ebp]
	add	eax, 1
	mov	DWORD PTR _s$[ebp], eax

; 309  : 
; 310  : 		count = 0;

	mov	DWORD PTR _count$[ebp], 0

; 311  : 		o = value;

	lea	eax, DWORD PTR _value$[ebp]
	mov	DWORD PTR _o$[ebp], eax
$LN6@Info_Remov:

; 312  : 
; 313  : 		while( count < (MAX_KV_SIZE - 1) && *s && *s != '\\' )

	cmp	DWORD PTR _count$[ebp], 127		; 0000007fH
	jge	SHORT $LN7@Info_Remov
	mov	eax, DWORD PTR _s$[ebp]
	movsx	ecx, BYTE PTR [eax]
	test	ecx, ecx
	je	SHORT $LN7@Info_Remov
	mov	eax, DWORD PTR _s$[ebp]
	movsx	ecx, BYTE PTR [eax]
	cmp	ecx, 92					; 0000005cH
	je	SHORT $LN7@Info_Remov

; 314  : 		{
; 315  : 			if( !*s ) return;

	mov	eax, DWORD PTR _s$[ebp]
	movsx	ecx, BYTE PTR [eax]
	test	ecx, ecx
	jne	SHORT $LN10@Info_Remov
	jmp	SHORT $LN1@Info_Remov
$LN10@Info_Remov:

; 316  : 			*o++ = *s++;

	mov	eax, DWORD PTR _o$[ebp]
	mov	ecx, DWORD PTR _s$[ebp]
	mov	dl, BYTE PTR [ecx]
	mov	BYTE PTR [eax], dl
	mov	eax, DWORD PTR _o$[ebp]
	add	eax, 1
	mov	DWORD PTR _o$[ebp], eax
	mov	ecx, DWORD PTR _s$[ebp]
	add	ecx, 1
	mov	DWORD PTR _s$[ebp], ecx

; 317  : 			count++;

	mov	eax, DWORD PTR _count$[ebp]
	add	eax, 1
	mov	DWORD PTR _count$[ebp], eax

; 318  : 		}

	jmp	SHORT $LN6@Info_Remov
$LN7@Info_Remov:

; 319  : 		*o = 0;

	mov	eax, DWORD PTR _o$[ebp]
	mov	BYTE PTR [eax], 0

; 320  : 
; 321  : 		if( pkey[0] == prefix )

	mov	eax, 1
	imul	ecx, eax, 0
	movsx	edx, BYTE PTR _pkey$[ebp+ecx]
	movsx	eax, BYTE PTR _prefix$[ebp]
	cmp	edx, eax
	jne	SHORT $LN11@Info_Remov

; 322  : 		{
; 323  : 			Info_RemoveKey( start, pkey );

	lea	eax, DWORD PTR _pkey$[ebp]
	push	eax
	mov	ecx, DWORD PTR _start$[ebp]
	push	ecx
	call	_Info_RemoveKey
	add	esp, 8

; 324  : 			s = start;

	mov	eax, DWORD PTR _start$[ebp]
	mov	DWORD PTR _s$[ebp], eax
$LN11@Info_Remov:

; 325  : 		}
; 326  : 
; 327  : 		if( !*s ) return;

	mov	eax, DWORD PTR _s$[ebp]
	movsx	ecx, BYTE PTR [eax]
	test	ecx, ecx
	jne	SHORT $LN12@Info_Remov
	jmp	SHORT $LN1@Info_Remov
$LN12@Info_Remov:

; 328  : 	}

	jmp	$LN2@Info_Remov
$LN1@Info_Remov:

; 329  : }

	pop	edi
	pop	esi
	pop	ebx
	mov	ecx, DWORD PTR __$ArrayPad$[ebp]
	xor	ecx, ebp
	call	@__security_check_cookie@4
	mov	esp, ebp
	pop	ebp
	ret	0
_Info_RemovePrefixedKeys ENDP
_TEXT	ENDS
; Function compile flags: /Odtp /ZI
; File D:\DevDragon\XashFE\dev\src\engine\common\infostring.c
;	COMDAT _Info_ValueForKey
_TEXT	SEGMENT
_o$ = -140						; size = 4
_count$ = -136						; size = 4
_pkey$ = -132						; size = 128
__$ArrayPad$ = -4					; size = 4
_s$ = 8							; size = 4
_key$ = 12						; size = 4
_Info_ValueForKey PROC					; COMDAT

; 190  : {

	push	ebp
	mov	ebp, esp
	sub	esp, 204				; 000000ccH
	mov	eax, DWORD PTR ___security_cookie
	xor	eax, ebp
	mov	DWORD PTR __$ArrayPad$[ebp], eax
	push	ebx
	push	esi
	push	edi

; 191  : 	char	pkey[MAX_KV_SIZE];
; 192  : 	static	char value[4][MAX_KV_SIZE]; // use two buffers so compares work without stomping on each other
; 193  : 	static	int valueindex;
; 194  : 	int	count;
; 195  : 	char	*o;
; 196  : 	
; 197  : 	valueindex = (valueindex + 1) % 4;

	mov	eax, DWORD PTR ?valueindex@?1??Info_ValueForKey@@9@9
	add	eax, 1
	and	eax, -2147483645			; 80000003H
	jns	SHORT $LN14@Info_Value
	dec	eax
	or	eax, -4					; fffffffcH
	inc	eax
$LN14@Info_Value:
	mov	DWORD PTR ?valueindex@?1??Info_ValueForKey@@9@9, eax

; 198  : 	if( *s == '\\' ) s++;

	mov	eax, DWORD PTR _s$[ebp]
	movsx	ecx, BYTE PTR [eax]
	cmp	ecx, 92					; 0000005cH
	jne	SHORT $LN2@Info_Value
	mov	eax, DWORD PTR _s$[ebp]
	add	eax, 1
	mov	DWORD PTR _s$[ebp], eax
$LN2@Info_Value:

; 199  : 
; 200  : 	while( 1 )

	mov	eax, 1
	test	eax, eax
	je	$LN1@Info_Value

; 201  : 	{
; 202  : 		count = 0;

	mov	DWORD PTR _count$[ebp], 0

; 203  : 		o = pkey;

	lea	eax, DWORD PTR _pkey$[ebp]
	mov	DWORD PTR _o$[ebp], eax
$LN4@Info_Value:

; 204  : 
; 205  : 		while( count < (MAX_KV_SIZE - 1) && *s != '\\' )

	cmp	DWORD PTR _count$[ebp], 127		; 0000007fH
	jge	SHORT $LN5@Info_Value
	mov	eax, DWORD PTR _s$[ebp]
	movsx	ecx, BYTE PTR [eax]
	cmp	ecx, 92					; 0000005cH
	je	SHORT $LN5@Info_Value

; 206  : 		{
; 207  : 			if( !*s ) return "";

	mov	eax, DWORD PTR _s$[ebp]
	movsx	ecx, BYTE PTR [eax]
	test	ecx, ecx
	jne	SHORT $LN9@Info_Value
	mov	eax, OFFSET ??_C@_00CNPNBAHC@@
	jmp	$LN1@Info_Value
$LN9@Info_Value:

; 208  : 			*o++ = *s++;

	mov	eax, DWORD PTR _o$[ebp]
	mov	ecx, DWORD PTR _s$[ebp]
	mov	dl, BYTE PTR [ecx]
	mov	BYTE PTR [eax], dl
	mov	eax, DWORD PTR _o$[ebp]
	add	eax, 1
	mov	DWORD PTR _o$[ebp], eax
	mov	ecx, DWORD PTR _s$[ebp]
	add	ecx, 1
	mov	DWORD PTR _s$[ebp], ecx

; 209  : 			count++;

	mov	eax, DWORD PTR _count$[ebp]
	add	eax, 1
	mov	DWORD PTR _count$[ebp], eax

; 210  : 		}

	jmp	SHORT $LN4@Info_Value
$LN5@Info_Value:

; 211  : 
; 212  : 		*o = 0;

	mov	eax, DWORD PTR _o$[ebp]
	mov	BYTE PTR [eax], 0

; 213  : 		s++;

	mov	eax, DWORD PTR _s$[ebp]
	add	eax, 1
	mov	DWORD PTR _s$[ebp], eax

; 214  : 
; 215  : 		o = value[valueindex];

	mov	eax, DWORD PTR ?valueindex@?1??Info_ValueForKey@@9@9
	shl	eax, 7
	add	eax, OFFSET ?value@?1??Info_ValueForKey@@9@9
	mov	DWORD PTR _o$[ebp], eax

; 216  : 		count = 0;

	mov	DWORD PTR _count$[ebp], 0
$LN6@Info_Value:

; 217  : 
; 218  : 		while( count < (MAX_KV_SIZE - 1) && *s && *s != '\\' )

	cmp	DWORD PTR _count$[ebp], 127		; 0000007fH
	jge	SHORT $LN7@Info_Value
	mov	eax, DWORD PTR _s$[ebp]
	movsx	ecx, BYTE PTR [eax]
	test	ecx, ecx
	je	SHORT $LN7@Info_Value
	mov	eax, DWORD PTR _s$[ebp]
	movsx	ecx, BYTE PTR [eax]
	cmp	ecx, 92					; 0000005cH
	je	SHORT $LN7@Info_Value

; 219  : 		{
; 220  : 			if( !*s ) return "";

	mov	eax, DWORD PTR _s$[ebp]
	movsx	ecx, BYTE PTR [eax]
	test	ecx, ecx
	jne	SHORT $LN10@Info_Value
	mov	eax, OFFSET ??_C@_00CNPNBAHC@@
	jmp	$LN1@Info_Value
$LN10@Info_Value:

; 221  : 			*o++ = *s++;

	mov	eax, DWORD PTR _o$[ebp]
	mov	ecx, DWORD PTR _s$[ebp]
	mov	dl, BYTE PTR [ecx]
	mov	BYTE PTR [eax], dl
	mov	eax, DWORD PTR _o$[ebp]
	add	eax, 1
	mov	DWORD PTR _o$[ebp], eax
	mov	ecx, DWORD PTR _s$[ebp]
	add	ecx, 1
	mov	DWORD PTR _s$[ebp], ecx

; 222  : 			count++;

	mov	eax, DWORD PTR _count$[ebp]
	add	eax, 1
	mov	DWORD PTR _count$[ebp], eax

; 223  : 		}

	jmp	SHORT $LN6@Info_Value
$LN7@Info_Value:

; 224  : 		*o = 0;

	mov	eax, DWORD PTR _o$[ebp]
	mov	BYTE PTR [eax], 0

; 225  : 
; 226  : 		if( !Q_strcmp( key, pkey ))

	push	99999					; 0001869fH
	lea	eax, DWORD PTR _pkey$[ebp]
	push	eax
	mov	ecx, DWORD PTR _key$[ebp]
	push	ecx
	call	_Q_strncmp
	add	esp, 12					; 0000000cH
	test	eax, eax
	jne	SHORT $LN11@Info_Value

; 227  : 			return value[valueindex];

	mov	eax, DWORD PTR ?valueindex@?1??Info_ValueForKey@@9@9
	shl	eax, 7
	add	eax, OFFSET ?value@?1??Info_ValueForKey@@9@9
	jmp	SHORT $LN1@Info_Value
$LN11@Info_Value:

; 228  : 		if( !*s ) return "";

	mov	eax, DWORD PTR _s$[ebp]
	movsx	ecx, BYTE PTR [eax]
	test	ecx, ecx
	jne	SHORT $LN12@Info_Value
	mov	eax, OFFSET ??_C@_00CNPNBAHC@@
	jmp	SHORT $LN1@Info_Value
$LN12@Info_Value:

; 229  : 		s++;

	mov	eax, DWORD PTR _s$[ebp]
	add	eax, 1
	mov	DWORD PTR _s$[ebp], eax

; 230  : 	}

	jmp	$LN2@Info_Value
$LN1@Info_Value:

; 231  : }

	pop	edi
	pop	esi
	pop	ebx
	mov	ecx, DWORD PTR __$ArrayPad$[ebp]
	xor	ecx, ebp
	call	@__security_check_cookie@4
	mov	esp, ebp
	pop	ebp
	ret	0
_Info_ValueForKey ENDP
_TEXT	ENDS
END
