; Listing generated by Microsoft (R) Optimizing Compiler Version 19.37.32705.0 

	TITLE	D:\DevDragon\XashFE\dev\src\temp\engine\!debug\s_dsp.obj
	.686P
	.XMM
	include listing.inc
	.model	flat

INCLUDELIB MSVCRTD
INCLUDELIB OLDNAMES

PUBLIC	_rgsxpre
PUBLIC	_paintto
_DATA	SEGMENT
COMM	_idsp_room:DWORD
COMM	_dsp_off:DWORD
COMM	_roomwater_type:DWORD
COMM	_room_type:DWORD
COMM	_hisound:DWORD
COMM	_sxmod_mod:DWORD
COMM	_sxmod_lowpass:DWORD
COMM	_sxste_delay:DWORD
COMM	_sxrvb_lp:DWORD
COMM	_sxrvb_feedback:DWORD
COMM	_sxrvb_size:DWORD
COMM	_sxdly_lp:DWORD
COMM	_sxdly_feedback:DWORD
COMM	_sxdly_delay:DWORD
COMM	_dsp_room:DWORD
COMM	_idsp_dma_speed:DWORD
COMM	_room_typeprev:DWORD
COMM	_sxamodl:DWORD
COMM	_sxamodr:DWORD
COMM	_sxamodlt:DWORD
COMM	_sxamodrt:DWORD
COMM	_sxmod1cur:DWORD
COMM	_sxmod2cur:DWORD
COMM	_sxmod1:DWORD
COMM	_sxmod2:DWORD
COMM	_sxhires:DWORD
_DATA	ENDS
_BSS	SEGMENT
_paintto DD	01H DUP (?)
_BSS	ENDS
_DATA	SEGMENT
COMM	_rgsxdly:BYTE:0e0H
COMM	_rgsxlp:DWORD:0aH
_DATA	ENDS
CONST	SEGMENT
_rgsxpre DD	000000000r			; 0
	DD	000000000r			; 0
	DD	000000000r			; 0
	DD	000000000r			; 0
	DD	03f800000r			; 1
	DD	000000000r			; 0
	DD	000000000r			; 0
	DD	040000000r			; 2
	DD	000000000r			; 0
	DD	000000000r			; 0
	DD	000000000r			; 0
	DD	000000000r			; 0
	DD	000000000r			; 0
	DD	03f800000r			; 1
	DD	03d851eb8r			; 0.065
	DD	03dcccccdr			; 0.1
	DD	000000000r			; 0
	DD	03c23d70ar			; 0.01
	DD	000000000r			; 0
	DD	000000000r			; 0
	DD	000000000r			; 0
	DD	000000000r			; 0
	DD	03f800000r			; 1
	DD	03ca3d70ar			; 0.02
	DD	03f400000r			; 0.75
	DD	000000000r			; 0
	DD	03c23d70ar			; 0.01
	DD	000000000r			; 0
	DD	000000000r			; 0
	DD	000000000r			; 0
	DD	000000000r			; 0
	DD	03f800000r			; 1
	DD	03cf5c28fr			; 0.03
	DD	03f47ae14r			; 0.78
	DD	000000000r			; 0
	DD	03ca3d70ar			; 0.02
	DD	000000000r			; 0
	DD	000000000r			; 0
	DD	000000000r			; 0
	DD	000000000r			; 0
	DD	03f800000r			; 1
	DD	03d75c28fr			; 0.06
	DD	03f451eb8r			; 0.77
	DD	000000000r			; 0
	DD	03cf5c28fr			; 0.03
	DD	000000000r			; 0
	DD	000000000r			; 0
	DD	03d4ccccdr			; 0.05
	DD	03f59999ar			; 0.85
	DD	03f800000r			; 1
	DD	03c03126fr			; 0.008
	DD	03f75c28fr			; 0.96
	DD	040000000r			; 2
	DD	03c23d70ar			; 0.01
	DD	000000000r			; 0
	DD	000000000r			; 0
	DD	03d4ccccdr			; 0.05
	DD	03f6147aer			; 0.88
	DD	03f800000r			; 1
	DD	03c23d70ar			; 0.01
	DD	03f7ae148r			; 0.98
	DD	040000000r			; 2
	DD	03ca3d70ar			; 0.02
	DD	000000000r			; 0
	DD	000000000r			; 0
	DD	03d4ccccdr			; 0.05
	DD	03f6b851fr			; 0.92
	DD	03f800000r			; 1
	DD	03c75c28fr			; 0.015
	DD	03f7eb852r			; 0.995
	DD	040000000r			; 2
	DD	03d23d70ar			; 0.04
	DD	000000000r			; 0
	DD	000000000r			; 0
	DD	03d4ccccdr			; 0.05
	DD	03f570a3dr			; 0.84
	DD	03f800000r			; 1
	DD	000000000r			; 0
	DD	000000000r			; 0
	DD	040000000r			; 2
	DD	03c449ba6r			; 0.012
	DD	000000000r			; 0
	DD	000000000r			; 0
	DD	03d4ccccdr			; 0.05
	DD	03f666666r			; 0.9
	DD	03f800000r			; 1
	DD	000000000r			; 0
	DD	000000000r			; 0
	DD	040000000r			; 2
	DD	03c03126fr			; 0.008
	DD	000000000r			; 0
	DD	000000000r			; 0
	DD	03d4ccccdr			; 0.05
	DD	03f733333r			; 0.95
	DD	03f800000r			; 1
	DD	000000000r			; 0
	DD	000000000r			; 0
	DD	040000000r			; 2
	DD	03b83126fr			; 0.004
	DD	000000000r			; 0
	DD	000000000r			; 0
	DD	03d4ccccdr			; 0.05
	DD	03f333333r			; 0.7
	DD	000000000r			; 0
	DD	000000000r			; 0
	DD	000000000r			; 0
	DD	040000000r			; 2
	DD	03c449ba6r			; 0.012
	DD	000000000r			; 0
	DD	000000000r			; 0
	DD	03d6147aer			; 0.055
	DD	03f47ae14r			; 0.78
	DD	000000000r			; 0
	DD	000000000r			; 0
	DD	000000000r			; 0
	DD	040000000r			; 2
	DD	03c03126fr			; 0.008
	DD	000000000r			; 0
	DD	000000000r			; 0
	DD	03d4ccccdr			; 0.05
	DD	03f5c28f6r			; 0.86
	DD	000000000r			; 0
	DD	000000000r			; 0
	DD	000000000r			; 0
	DD	040000000r			; 2
	DD	03b03126fr			; 0.002
	DD	03f800000r			; 1
	DD	000000000r			; 0
	DD	000000000r			; 0
	DD	000000000r			; 0
	DD	03f800000r			; 1
	DD	000000000r			; 0
	DD	000000000r			; 0
	DD	040000000r			; 2
	DD	03c23d70ar			; 0.01
	DD	03f800000r			; 1
	DD	000000000r			; 0
	DD	000000000r			; 0
	DD	000000000r			; 0
	DD	03f800000r			; 1
	DD	03d75c28fr			; 0.06
	DD	03f59999ar			; 0.85
	DD	040000000r			; 2
	DD	03ca3d70ar			; 0.02
	DD	03f800000r			; 1
	DD	000000000r			; 0
	DD	000000000r			; 0
	DD	000000000r			; 0
	DD	03f800000r			; 1
	DD	03e4ccccdr			; 0.2
	DD	03f19999ar			; 0.6
	DD	040000000r			; 2
	DD	03d4ccccdr			; 0.05
	DD	000000000r			; 0
	DD	000000000r			; 0
	DD	03d4ccccdr			; 0.05
	DD	03f4ccccdr			; 0.8
	DD	03f800000r			; 1
	DD	000000000r			; 0
	DD	03ef5c28fr			; 0.48
	DD	040000000r			; 2
	DD	03c83126fr			; 0.016
	DD	000000000r			; 0
	DD	000000000r			; 0
	DD	03d75c28fr			; 0.06
	DD	03f666666r			; 0.9
	DD	03f800000r			; 1
	DD	000000000r			; 0
	DD	03f051eb8r			; 0.52
	DD	040000000r			; 2
	DD	03c23d70ar			; 0.01
	DD	000000000r			; 0
	DD	000000000r			; 0
	DD	03d8f5c29r			; 0.07
	DD	03f70a3d7r			; 0.94
	DD	03f800000r			; 1
	DD	03e99999ar			; 0.3
	DD	03f19999ar			; 0.6
	DD	040000000r			; 2
	DD	03c03126fr			; 0.008
	DD	000000000r			; 0
	DD	000000000r			; 0
	DD	000000000r			; 0
	DD	000000000r			; 0
	DD	03f800000r			; 1
	DD	03e99999ar			; 0.3
	DD	03ed70a3dr			; 0.42
	DD	040000000r			; 2
	DD	000000000r			; 0
	DD	000000000r			; 0
	DD	000000000r			; 0
	DD	000000000r			; 0
	DD	000000000r			; 0
	DD	03f800000r			; 1
	DD	03eb33333r			; 0.35
	DD	03ef5c28fr			; 0.48
	DD	040000000r			; 2
	DD	000000000r			; 0
	DD	000000000r			; 0
	DD	000000000r			; 0
	DD	000000000r			; 0
	DD	000000000r			; 0
	DD	03f800000r			; 1
	DD	03ec28f5cr			; 0.38
	DD	03f19999ar			; 0.6
	DD	040000000r			; 2
	DD	000000000r			; 0
	DD	000000000r			; 0
	DD	000000000r			; 0
	DD	03d4ccccdr			; 0.05
	DD	03f666666r			; 0.9
	DD	03f800000r			; 1
	DD	03e4ccccdr			; 0.2
	DD	03e8f5c29r			; 0.28
	DD	000000000r			; 0
	DD	000000000r			; 0
	DD	000000000r			; 0
	DD	000000000r			; 0
	DD	03d8f5c29r			; 0.07
	DD	03f666666r			; 0.9
	DD	03f800000r			; 1
	DD	03e99999ar			; 0.3
	DD	03ecccccdr			; 0.4
	DD	000000000r			; 0
	DD	000000000r			; 0
	DD	000000000r			; 0
	DD	000000000r			; 0
	DD	03db851ecr			; 0.09
	DD	03f666666r			; 0.9
	DD	03f800000r			; 1
	DD	03eb33333r			; 0.35
	DD	03f000000r			; 0.5
	DD	000000000r			; 0
	DD	000000000r			; 0
	DD	000000000r			; 0
	DD	03f800000r			; 1
	DD	03c23d70ar			; 0.01
	DD	03f666666r			; 0.9
	DD	000000000r			; 0
	DD	000000000r			; 0
	DD	000000000r			; 0
	DD	040000000r			; 2
	DD	03d4ccccdr			; 0.05
	DD	000000000r			; 0
	DD	000000000r			; 0
	DD	000000000r			; 0
	DD	000000000r			; 0
	DD	03f800000r			; 1
	DD	03c1374bcr			; 0.009
	DD	03f7fbe77r			; 0.999
	DD	040000000r			; 2
	DD	03d23d70ar			; 0.04
	DD	000000000r			; 0
	DD	000000000r			; 0
	DD	03a83126fr			; 0.001
	DD	03f7fbe77r			; 0.999
	DD	000000000r			; 0
	DD	03e4ccccdr			; 0.2
	DD	03f4ccccdr			; 0.8
	DD	040000000r			; 2
	DD	03d4ccccdr			; 0.05
CONST	ENDS
PUBLIC	_SX_Init
PUBLIC	_SX_Free
PUBLIC	_CheckNewDspPresets
PUBLIC	_DSP_Process
PUBLIC	_DSP_GetGain
PUBLIC	_DSP_ClearState
PUBLIC	_SX_Profiling_f
PUBLIC	_SX_ReloadRoomFX
PUBLIC	_DLY_Free
PUBLIC	_DLY_Init
PUBLIC	_DLY_MovePointer
PUBLIC	_DLY_CheckNewStereoDelayVal
PUBLIC	_DLY_DoStereoDelay
PUBLIC	_DLY_CheckNewDelayVal
PUBLIC	_DLY_DoDelay
PUBLIC	_RVB_SetUpDly
PUBLIC	_RVB_CheckNewReverbVal
PUBLIC	_RVB_DoReverbForOneDly
PUBLIC	_RVB_DoReverb
PUBLIC	_RVB_DoAMod
PUBLIC	??_C@_0DN@NPBBKMBL@dsp?5quality?4?51?5for?522k?0?52?5for?54@ ; `string'
PUBLIC	??_C@_01FDFGLJHB@2@				; `string'
PUBLIC	??_C@_0L@PEMOELHP@room_hires@			; `string'
PUBLIC	??_C@_0BH@BELPJFAK@disable?5DSP?5processing@	; `string'
PUBLIC	??_C@_01GBGANLPD@0@				; `string'
PUBLIC	??_C@_07LOCFINFM@dsp_off@			; `string'
PUBLIC	??_C@_0BA@KHJCHLBN@water?5room?5type@		; `string'
PUBLIC	??_C@_02JODNFKLN@14@				; `string'
PUBLIC	??_C@_0P@PBFLMBKC@waterroom_type@		; `string'
PUBLIC	??_C@_0BJ@PIIGGNGJ@current?5room?5type?5preset@	; `string'
PUBLIC	??_C@_09CFHPPHOC@room_type@			; `string'
PUBLIC	??_C@_0CG@BCHBINPO@for?5water?5fx?0?5lowpass?5for?5entir@ ; `string'
PUBLIC	??_C@_07GMMKNAEC@room_lp@			; `string'
PUBLIC	??_C@_0CF@LIAGIFDO@stereo?5amptitude?5modulation?5for@ ; `string'
PUBLIC	??_C@_08DGOJMHOH@room_mod@			; `string'
PUBLIC	??_C@_0CA@KKNEPFED@reverb?3?5initial?5reflection?5size@ ; `string'
PUBLIC	??_C@_09MKNBPJLL@room_size@			; `string'
PUBLIC	??_C@_0BD@IOJDPPFB@reverb?3?5decay?5time@	; `string'
PUBLIC	??_C@_09HJJJIOOO@room_refl@			; `string'
PUBLIC	??_C@_0CB@NGEDAKI@reverb?3?5low?5pass?5filtering?5leve@ ; `string'
PUBLIC	??_C@_01HIHLOKLC@1@				; `string'
PUBLIC	??_C@_0L@MANGFFAC@room_rvblp@			; `string'
PUBLIC	??_C@_0BH@DIIENECB@mono?5delay?3?5delay?5time@	; `string'
PUBLIC	??_C@_03LNMAPFD@0?48@				; `string'
PUBLIC	??_C@_0L@LNMAGPP@room_delay@			; `string'
PUBLIC	??_C@_0BH@OHDNBLPA@mono?5delay?3?5decay?5time@	; `string'
PUBLIC	??_C@_03PBDDOHNJ@0?42@				; `string'
PUBLIC	??_C@_0O@NEDGAAJJ@room_feedback@		; `string'
PUBLIC	??_C@_0CF@KACBMIA@mono?5delay?3?5low?5pass?5filtering?5@ ; `string'
PUBLIC	??_C@_0L@LIBBOLDJ@room_dlylp@			; `string'
PUBLIC	??_C@_0BI@FACMMAAK@left?5channel?5delay?5time@	; `string'
PUBLIC	??_C@_09CEFCDPFE@room_left@			; `string'
PUBLIC	??_C@_0CN@HKNGMDDO@dsp?5stress?9test?0?5first?5argument@ ; `string'
PUBLIC	??_C@_0M@LEACCLPF@dsp_profile@			; `string'
PUBLIC	?__LINE__Var@?0??DLY_Free@@9@9			; `DLY_Free'::`1'::__LINE__Var
PUBLIC	??_C@_0DC@EAHKHPGF@D?3?2DevDragon?2XashFE?2dev?2src?2eng@ ; `string'
PUBLIC	??_C@_0BP@FMOOONEG@idelay?5?$DO?$DN?50?5?$CG?$CG?5idelay?5?$DM?5MAXDLY@ ; `string'
PUBLIC	?__LINE__Var@?0??DLY_Init@@9@9			; `DLY_Init'::`1'::__LINE__Var
PUBLIC	??_C@_0CD@BPGODPAP@delay?5?$DO?50?40f?5?$CG?$CG?5delay?5?$DM?$DN?5MAX_DE@ ; `string'
PUBLIC	??_C@_0EE@BLHGIJAN@Profiling?510000?5calls?5to?5DSP?4?5S@ ; `string'
PUBLIC	??_C@_0BN@JGDKJGPP@?9?9?9?9?9?9?9?9?9?9?6Took?5?$CFg?5seconds?4?6@ ; `string'
PUBLIC	__real@00000000
PUBLIC	__real@3dcccccd
PUBLIC	__real@3ecccccd
PUBLIC	__real@3f35c28f
PUBLIC	__real@3f800000
PUBLIC	__real@437f0000
EXTRN	_memset:PROC
EXTRN	_Sys_DoubleTime:PROC
EXTRN	_Cmd_Argc:PROC
EXTRN	_Cmd_Argv:PROC
EXTRN	_Cmd_AddCommand:PROC
EXTRN	_Cmd_RemoveCommand:PROC
EXTRN	_Q_atof:PROC
EXTRN	__Mem_Alloc:PROC
EXTRN	__Mem_Free:PROC
EXTRN	_Cvar_Get:PROC
EXTRN	_Cvar_SetValue:PROC
EXTRN	_DBG_AssertFunction:PROC
EXTRN	_Con_Printf:PROC
EXTRN	_COM_RandomLong:PROC
EXTRN	@__security_check_cookie@4:PROC
EXTRN	__chkstk:PROC
EXTRN	_host:BYTE
EXTRN	_cls:BYTE
EXTRN	_s_listener:BYTE
EXTRN	___security_cookie:DWORD
EXTRN	__fltused:DWORD
;	COMDAT __real@437f0000
CONST	SEGMENT
__real@437f0000 DD 0437f0000r			; 255
CONST	ENDS
;	COMDAT __real@3f800000
CONST	SEGMENT
__real@3f800000 DD 03f800000r			; 1
CONST	ENDS
;	COMDAT __real@3f35c28f
CONST	SEGMENT
__real@3f35c28f DD 03f35c28fr			; 0.71
CONST	ENDS
;	COMDAT __real@3ecccccd
CONST	SEGMENT
__real@3ecccccd DD 03ecccccdr			; 0.4
CONST	ENDS
;	COMDAT __real@3dcccccd
CONST	SEGMENT
__real@3dcccccd DD 03dcccccdr			; 0.1
CONST	ENDS
;	COMDAT __real@00000000
CONST	SEGMENT
__real@00000000 DD 000000000r			; 0
CONST	ENDS
;	COMDAT ??_C@_0BN@JGDKJGPP@?9?9?9?9?9?9?9?9?9?9?6Took?5?$CFg?5seconds?4?6@
CONST	SEGMENT
??_C@_0BN@JGDKJGPP@?9?9?9?9?9?9?9?9?9?9?6Took?5?$CFg?5seconds?4?6@ DB '--'
	DB	'--------', 0aH, 'Took %g seconds.', 0aH, 00H ; `string'
CONST	ENDS
;	COMDAT ??_C@_0EE@BLHGIJAN@Profiling?510000?5calls?5to?5DSP?4?5S@
CONST	SEGMENT
??_C@_0EE@BLHGIJAN@Profiling?510000?5calls?5to?5DSP?4?5S@ DB 'Profiling 1'
	DB	'0000 calls to DSP. Sample count is 512, room_type is %i', 0aH
	DB	00H						; `string'
CONST	ENDS
;	COMDAT ??_C@_0CD@BPGODPAP@delay?5?$DO?50?40f?5?$CG?$CG?5delay?5?$DM?$DN?5MAX_DE@
CONST	SEGMENT
??_C@_0CD@BPGODPAP@delay?5?$DO?50?40f?5?$CG?$CG?5delay?5?$DM?$DN?5MAX_DE@ DB 'd'
	DB	'elay > 0.0f && delay <= MAX_DELAY', 00H	; `string'
CONST	ENDS
;	COMDAT ?__LINE__Var@?0??DLY_Init@@9@9
_DATA	SEGMENT
?__LINE__Var@?0??DLY_Init@@9@9 DD 0109H			; `DLY_Init'::`1'::__LINE__Var
_DATA	ENDS
;	COMDAT ??_C@_0BP@FMOOONEG@idelay?5?$DO?$DN?50?5?$CG?$CG?5idelay?5?$DM?5MAXDLY@
CONST	SEGMENT
??_C@_0BP@FMOOONEG@idelay?5?$DO?$DN?50?5?$CG?$CG?5idelay?5?$DM?5MAXDLY@ DB 'i'
	DB	'delay >= 0 && idelay < MAXDLY', 00H		; `string'
CONST	ENDS
;	COMDAT ??_C@_0DC@EAHKHPGF@D?3?2DevDragon?2XashFE?2dev?2src?2eng@
CONST	SEGMENT
??_C@_0DC@EAHKHPGF@D?3?2DevDragon?2XashFE?2dev?2src?2eng@ DB 'D:\DevDrago'
	DB	'n\XashFE\dev\src\engine\client\s_dsp.c', 00H ; `string'
CONST	ENDS
;	COMDAT ?__LINE__Var@?0??DLY_Free@@9@9
_DATA	SEGMENT
?__LINE__Var@?0??DLY_Free@@9@9 DD 0e5H			; `DLY_Free'::`1'::__LINE__Var
_DATA	ENDS
;	COMDAT ??_C@_0M@LEACCLPF@dsp_profile@
CONST	SEGMENT
??_C@_0M@LEACCLPF@dsp_profile@ DB 'dsp_profile', 00H	; `string'
CONST	ENDS
;	COMDAT ??_C@_0CN@HKNGMDDO@dsp?5stress?9test?0?5first?5argument@
CONST	SEGMENT
??_C@_0CN@HKNGMDDO@dsp?5stress?9test?0?5first?5argument@ DB 'dsp stress-t'
	DB	'est, first argument is room_type', 00H	; `string'
CONST	ENDS
;	COMDAT ??_C@_09CEFCDPFE@room_left@
CONST	SEGMENT
??_C@_09CEFCDPFE@room_left@ DB 'room_left', 00H		; `string'
CONST	ENDS
;	COMDAT ??_C@_0BI@FACMMAAK@left?5channel?5delay?5time@
CONST	SEGMENT
??_C@_0BI@FACMMAAK@left?5channel?5delay?5time@ DB 'left channel delay tim'
	DB	'e', 00H					; `string'
CONST	ENDS
;	COMDAT ??_C@_0L@LIBBOLDJ@room_dlylp@
CONST	SEGMENT
??_C@_0L@LIBBOLDJ@room_dlylp@ DB 'room_dlylp', 00H	; `string'
CONST	ENDS
;	COMDAT ??_C@_0CF@KACBMIA@mono?5delay?3?5low?5pass?5filtering?5@
CONST	SEGMENT
??_C@_0CF@KACBMIA@mono?5delay?3?5low?5pass?5filtering?5@ DB 'mono delay: '
	DB	'low pass filtering level', 00H		; `string'
CONST	ENDS
;	COMDAT ??_C@_0O@NEDGAAJJ@room_feedback@
CONST	SEGMENT
??_C@_0O@NEDGAAJJ@room_feedback@ DB 'room_feedback', 00H ; `string'
CONST	ENDS
;	COMDAT ??_C@_03PBDDOHNJ@0?42@
CONST	SEGMENT
??_C@_03PBDDOHNJ@0?42@ DB '0.2', 00H			; `string'
CONST	ENDS
;	COMDAT ??_C@_0BH@OHDNBLPA@mono?5delay?3?5decay?5time@
CONST	SEGMENT
??_C@_0BH@OHDNBLPA@mono?5delay?3?5decay?5time@ DB 'mono delay: decay time'
	DB	00H						; `string'
CONST	ENDS
;	COMDAT ??_C@_0L@LNMAGPP@room_delay@
CONST	SEGMENT
??_C@_0L@LNMAGPP@room_delay@ DB 'room_delay', 00H	; `string'
CONST	ENDS
;	COMDAT ??_C@_03LNMAPFD@0?48@
CONST	SEGMENT
??_C@_03LNMAPFD@0?48@ DB '0.8', 00H			; `string'
CONST	ENDS
;	COMDAT ??_C@_0BH@DIIENECB@mono?5delay?3?5delay?5time@
CONST	SEGMENT
??_C@_0BH@DIIENECB@mono?5delay?3?5delay?5time@ DB 'mono delay: delay time'
	DB	00H						; `string'
CONST	ENDS
;	COMDAT ??_C@_0L@MANGFFAC@room_rvblp@
CONST	SEGMENT
??_C@_0L@MANGFFAC@room_rvblp@ DB 'room_rvblp', 00H	; `string'
CONST	ENDS
;	COMDAT ??_C@_01HIHLOKLC@1@
CONST	SEGMENT
??_C@_01HIHLOKLC@1@ DB '1', 00H				; `string'
CONST	ENDS
;	COMDAT ??_C@_0CB@NGEDAKI@reverb?3?5low?5pass?5filtering?5leve@
CONST	SEGMENT
??_C@_0CB@NGEDAKI@reverb?3?5low?5pass?5filtering?5leve@ DB 'reverb: low p'
	DB	'ass filtering level', 00H			; `string'
CONST	ENDS
;	COMDAT ??_C@_09HJJJIOOO@room_refl@
CONST	SEGMENT
??_C@_09HJJJIOOO@room_refl@ DB 'room_refl', 00H		; `string'
CONST	ENDS
;	COMDAT ??_C@_0BD@IOJDPPFB@reverb?3?5decay?5time@
CONST	SEGMENT
??_C@_0BD@IOJDPPFB@reverb?3?5decay?5time@ DB 'reverb: decay time', 00H ; `string'
CONST	ENDS
;	COMDAT ??_C@_09MKNBPJLL@room_size@
CONST	SEGMENT
??_C@_09MKNBPJLL@room_size@ DB 'room_size', 00H		; `string'
CONST	ENDS
;	COMDAT ??_C@_0CA@KKNEPFED@reverb?3?5initial?5reflection?5size@
CONST	SEGMENT
??_C@_0CA@KKNEPFED@reverb?3?5initial?5reflection?5size@ DB 'reverb: initi'
	DB	'al reflection size', 00H			; `string'
CONST	ENDS
;	COMDAT ??_C@_08DGOJMHOH@room_mod@
CONST	SEGMENT
??_C@_08DGOJMHOH@room_mod@ DB 'room_mod', 00H		; `string'
CONST	ENDS
;	COMDAT ??_C@_0CF@LIAGIFDO@stereo?5amptitude?5modulation?5for@
CONST	SEGMENT
??_C@_0CF@LIAGIFDO@stereo?5amptitude?5modulation?5for@ DB 'stereo amptitu'
	DB	'de modulation for room', 00H		; `string'
CONST	ENDS
;	COMDAT ??_C@_07GMMKNAEC@room_lp@
CONST	SEGMENT
??_C@_07GMMKNAEC@room_lp@ DB 'room_lp', 00H		; `string'
CONST	ENDS
;	COMDAT ??_C@_0CG@BCHBINPO@for?5water?5fx?0?5lowpass?5for?5entir@
CONST	SEGMENT
??_C@_0CG@BCHBINPO@for?5water?5fx?0?5lowpass?5for?5entir@ DB 'for water f'
	DB	'x, lowpass for entire room', 00H		; `string'
CONST	ENDS
;	COMDAT ??_C@_09CFHPPHOC@room_type@
CONST	SEGMENT
??_C@_09CFHPPHOC@room_type@ DB 'room_type', 00H		; `string'
CONST	ENDS
;	COMDAT ??_C@_0BJ@PIIGGNGJ@current?5room?5type?5preset@
CONST	SEGMENT
??_C@_0BJ@PIIGGNGJ@current?5room?5type?5preset@ DB 'current room type pre'
	DB	'set', 00H					; `string'
CONST	ENDS
;	COMDAT ??_C@_0P@PBFLMBKC@waterroom_type@
CONST	SEGMENT
??_C@_0P@PBFLMBKC@waterroom_type@ DB 'waterroom_type', 00H ; `string'
CONST	ENDS
;	COMDAT ??_C@_02JODNFKLN@14@
CONST	SEGMENT
??_C@_02JODNFKLN@14@ DB '14', 00H			; `string'
CONST	ENDS
;	COMDAT ??_C@_0BA@KHJCHLBN@water?5room?5type@
CONST	SEGMENT
??_C@_0BA@KHJCHLBN@water?5room?5type@ DB 'water room type', 00H ; `string'
CONST	ENDS
;	COMDAT ??_C@_07LOCFINFM@dsp_off@
CONST	SEGMENT
??_C@_07LOCFINFM@dsp_off@ DB 'dsp_off', 00H		; `string'
CONST	ENDS
;	COMDAT ??_C@_01GBGANLPD@0@
CONST	SEGMENT
??_C@_01GBGANLPD@0@ DB '0', 00H				; `string'
CONST	ENDS
;	COMDAT ??_C@_0BH@BELPJFAK@disable?5DSP?5processing@
CONST	SEGMENT
??_C@_0BH@BELPJFAK@disable?5DSP?5processing@ DB 'disable DSP processing', 00H ; `string'
CONST	ENDS
;	COMDAT ??_C@_0L@PEMOELHP@room_hires@
CONST	SEGMENT
??_C@_0L@PEMOELHP@room_hires@ DB 'room_hires', 00H	; `string'
CONST	ENDS
;	COMDAT ??_C@_01FDFGLJHB@2@
CONST	SEGMENT
??_C@_01FDFGLJHB@2@ DB '2', 00H				; `string'
CONST	ENDS
;	COMDAT ??_C@_0DN@NPBBKMBL@dsp?5quality?4?51?5for?522k?0?52?5for?54@
CONST	SEGMENT
??_C@_0DN@NPBBKMBL@dsp?5quality?4?51?5for?522k?0?52?5for?54@ DB 'dsp qual'
	DB	'ity. 1 for 22k, 2 for 44k(recommended) and 3 for 96k', 00H ; `string'
CONST	ENDS
;	COMDAT voltbl
voltbl	SEGMENT
_volmd	DW	014H
	DW	0182H
voltbl	ENDS
; Function compile flags: /Odtp /ZI
; File D:\DevDragon\XashFE\dev\src\engine\client\s_dsp.c
;	COMDAT _RVB_DoAMod
_TEXT	SEGMENT
tv210 = -84						; size = 4
tv205 = -84						; size = 4
tv211 = -80						; size = 4
tv206 = -80						; size = 4
_res$1 = -12						; size = 8
_paint$ = -4						; size = 4
_count$ = 8						; size = 4
_RVB_DoAMod PROC					; COMDAT

; 703  : {

	push	ebp
	mov	ebp, esp
	sub	esp, 84					; 00000054H
	push	ebx
	push	esi
	push	edi

; 704  : 	portable_samplepair_t	*paint = paintto;

	mov	eax, DWORD PTR _paintto
	mov	DWORD PTR _paint$[ebp], eax

; 705  : 
; 706  : 	if( !sxmod_lowpass->value && !sxmod_mod->value )

	mov	eax, DWORD PTR _sxmod_lowpass
	movss	xmm0, DWORD PTR [eax+12]
	ucomiss	xmm0, DWORD PTR __real@00000000
	lahf
	test	ah, 68					; 00000044H
	jp	SHORT $LN5@RVB_DoAMod
	mov	eax, DWORD PTR _sxmod_mod
	movss	xmm0, DWORD PTR [eax+12]
	ucomiss	xmm0, DWORD PTR __real@00000000
	lahf
	test	ah, 68					; 00000044H
	jp	SHORT $LN5@RVB_DoAMod

; 707  : 		return;

	jmp	$LN3@RVB_DoAMod
$LN5@RVB_DoAMod:

; 708  : 
; 709  : 	for( ; count; count--, paint++ )

	jmp	SHORT $LN4@RVB_DoAMod
$LN2@RVB_DoAMod:
	mov	eax, DWORD PTR _count$[ebp]
	sub	eax, 1
	mov	DWORD PTR _count$[ebp], eax
	mov	ecx, DWORD PTR _paint$[ebp]
	add	ecx, 8
	mov	DWORD PTR _paint$[ebp], ecx
$LN4@RVB_DoAMod:
	cmp	DWORD PTR _count$[ebp], 0
	je	$LN3@RVB_DoAMod

; 710  : 	{
; 711  : 		portable_samplepair_t	res = *paint;

	mov	eax, DWORD PTR _paint$[ebp]
	mov	ecx, DWORD PTR [eax]
	mov	edx, DWORD PTR [eax+4]
	mov	DWORD PTR _res$1[ebp], ecx
	mov	DWORD PTR _res$1[ebp+4], edx

; 712  : 
; 713  : 		if( sxmod_lowpass->value )

	mov	eax, DWORD PTR _sxmod_lowpass
	movss	xmm0, DWORD PTR [eax+12]
	ucomiss	xmm0, DWORD PTR __real@00000000
	lahf
	test	ah, 68					; 00000044H
	jnp	$LN6@RVB_DoAMod

; 714  : 		{
; 715  : 			res.left  = rgsxlp[0] + rgsxlp[1] + rgsxlp[2] + rgsxlp[3] + rgsxlp[4] + res.left;

	mov	eax, 4
	imul	ecx, eax, 0
	mov	edx, 4
	shl	edx, 0
	mov	eax, DWORD PTR _rgsxlp[ecx]
	add	eax, DWORD PTR _rgsxlp[edx]
	mov	ecx, 4
	shl	ecx, 1
	add	eax, DWORD PTR _rgsxlp[ecx]
	mov	edx, 4
	imul	ecx, edx, 3
	add	eax, DWORD PTR _rgsxlp[ecx]
	mov	edx, 4
	shl	edx, 2
	add	eax, DWORD PTR _rgsxlp[edx]
	add	eax, DWORD PTR _res$1[ebp]
	mov	DWORD PTR _res$1[ebp], eax

; 716  : 			res.right = rgsxlp[5] + rgsxlp[6] + rgsxlp[7] + rgsxlp[8] + rgsxlp[9] + res.right;

	mov	eax, 4
	imul	ecx, eax, 5
	mov	edx, 4
	imul	eax, edx, 6
	mov	ecx, DWORD PTR _rgsxlp[ecx]
	add	ecx, DWORD PTR _rgsxlp[eax]
	mov	edx, 4
	imul	eax, edx, 7
	add	ecx, DWORD PTR _rgsxlp[eax]
	mov	edx, 4
	shl	edx, 3
	add	ecx, DWORD PTR _rgsxlp[edx]
	mov	eax, 4
	imul	edx, eax, 9
	add	ecx, DWORD PTR _rgsxlp[edx]
	add	ecx, DWORD PTR _res$1[ebp+4]
	mov	DWORD PTR _res$1[ebp+4], ecx

; 717  : 
; 718  : 			res.left >>= 2;

	mov	eax, DWORD PTR _res$1[ebp]
	sar	eax, 2
	mov	DWORD PTR _res$1[ebp], eax

; 719  : 			res.right >>= 2;

	mov	eax, DWORD PTR _res$1[ebp+4]
	sar	eax, 2
	mov	DWORD PTR _res$1[ebp+4], eax

; 720  : 
; 721  : 			rgsxlp[0] = rgsxlp[1];

	mov	eax, 4
	shl	eax, 0
	mov	ecx, 4
	imul	edx, ecx, 0
	mov	eax, DWORD PTR _rgsxlp[eax]
	mov	DWORD PTR _rgsxlp[edx], eax

; 722  : 			rgsxlp[1] = rgsxlp[2];

	mov	eax, 4
	shl	eax, 1
	mov	ecx, 4
	shl	ecx, 0
	mov	edx, DWORD PTR _rgsxlp[eax]
	mov	DWORD PTR _rgsxlp[ecx], edx

; 723  : 			rgsxlp[2] = rgsxlp[3];

	mov	eax, 4
	imul	ecx, eax, 3
	mov	edx, 4
	shl	edx, 1
	mov	eax, DWORD PTR _rgsxlp[ecx]
	mov	DWORD PTR _rgsxlp[edx], eax

; 724  : 			rgsxlp[3] = rgsxlp[4];

	mov	eax, 4
	shl	eax, 2
	mov	ecx, 4
	imul	edx, ecx, 3
	mov	eax, DWORD PTR _rgsxlp[eax]
	mov	DWORD PTR _rgsxlp[edx], eax

; 725  : 			rgsxlp[4] = paint->left;

	mov	eax, 4
	shl	eax, 2
	mov	ecx, DWORD PTR _paint$[ebp]
	mov	edx, DWORD PTR [ecx]
	mov	DWORD PTR _rgsxlp[eax], edx

; 726  : 
; 727  : 			rgsxlp[5] = rgsxlp[6];

	mov	eax, 4
	imul	ecx, eax, 6
	mov	edx, 4
	imul	eax, edx, 5
	mov	ecx, DWORD PTR _rgsxlp[ecx]
	mov	DWORD PTR _rgsxlp[eax], ecx

; 728  : 			rgsxlp[6] = rgsxlp[7];

	mov	eax, 4
	imul	ecx, eax, 7
	mov	edx, 4
	imul	eax, edx, 6
	mov	ecx, DWORD PTR _rgsxlp[ecx]
	mov	DWORD PTR _rgsxlp[eax], ecx

; 729  : 			rgsxlp[7] = rgsxlp[8];

	mov	eax, 4
	shl	eax, 3
	mov	ecx, 4
	imul	edx, ecx, 7
	mov	eax, DWORD PTR _rgsxlp[eax]
	mov	DWORD PTR _rgsxlp[edx], eax

; 730  : 			rgsxlp[8] = rgsxlp[9];

	mov	eax, 4
	imul	ecx, eax, 9
	mov	edx, 4
	shl	edx, 3
	mov	eax, DWORD PTR _rgsxlp[ecx]
	mov	DWORD PTR _rgsxlp[edx], eax

; 731  : 			rgsxlp[9] = paint->right;

	mov	eax, 4
	imul	ecx, eax, 9
	mov	edx, DWORD PTR _paint$[ebp]
	mov	eax, DWORD PTR [edx+4]
	mov	DWORD PTR _rgsxlp[ecx], eax
$LN6@RVB_DoAMod:

; 732  : 		}
; 733  : 
; 734  : 		if( sxmod_mod->value )

	mov	eax, DWORD PTR _sxmod_mod
	movss	xmm0, DWORD PTR [eax+12]
	ucomiss	xmm0, DWORD PTR __real@00000000
	lahf
	test	ah, 68					; 00000044H
	jnp	$LN17@RVB_DoAMod

; 735  : 		{
; 736  : 			if( --sxmod1cur < 0 )

	mov	eax, DWORD PTR _sxmod1cur
	sub	eax, 1
	mov	DWORD PTR _sxmod1cur, eax
	jns	SHORT $LN8@RVB_DoAMod

; 737  : 				sxmod1cur = sxmod1;

	mov	eax, DWORD PTR _sxmod1
	mov	DWORD PTR _sxmod1cur, eax
$LN8@RVB_DoAMod:

; 738  : 
; 739  : 			if( !sxmod1 )

	cmp	DWORD PTR _sxmod1, 0
	jne	SHORT $LN9@RVB_DoAMod

; 740  : 				sxamodlt = COM_RandomLong( 32, 255 );

	push	255					; 000000ffH
	push	32					; 00000020H
	call	_COM_RandomLong
	add	esp, 8
	mov	DWORD PTR _sxamodlt, eax
$LN9@RVB_DoAMod:

; 741  : 
; 742  : 			if( --sxmod2cur < 0 )

	mov	eax, DWORD PTR _sxmod2cur
	sub	eax, 1
	mov	DWORD PTR _sxmod2cur, eax
	jns	SHORT $LN10@RVB_DoAMod

; 743  : 				sxmod2cur = sxmod2;

	mov	eax, DWORD PTR _sxmod2
	mov	DWORD PTR _sxmod2cur, eax
$LN10@RVB_DoAMod:

; 744  : 
; 745  : 			if( !sxmod2 )

	cmp	DWORD PTR _sxmod2, 0
	jne	SHORT $LN11@RVB_DoAMod

; 746  : 				sxamodrt = COM_RandomLong( 32, 255 );

	push	255					; 000000ffH
	push	32					; 00000020H
	call	_COM_RandomLong
	add	esp, 8
	mov	DWORD PTR _sxamodrt, eax
$LN11@RVB_DoAMod:

; 747  : 
; 748  : 			res.left = (sxamodl * res.left) >> 8;

	mov	eax, DWORD PTR _sxamodl
	imul	eax, DWORD PTR _res$1[ebp]
	sar	eax, 8
	mov	DWORD PTR _res$1[ebp], eax

; 749  : 			res.right = (sxamodr * res.right) >> 8;

	mov	eax, DWORD PTR _sxamodr
	imul	eax, DWORD PTR _res$1[ebp+4]
	sar	eax, 8
	mov	DWORD PTR _res$1[ebp+4], eax

; 750  : 
; 751  : 			if( sxamodl < sxamodlt )

	mov	eax, DWORD PTR _sxamodl
	cmp	eax, DWORD PTR _sxamodlt
	jge	SHORT $LN12@RVB_DoAMod

; 752  : 				sxamodl++;

	mov	eax, DWORD PTR _sxamodl
	add	eax, 1
	mov	DWORD PTR _sxamodl, eax
	jmp	SHORT $LN14@RVB_DoAMod
$LN12@RVB_DoAMod:

; 753  : 			else if( sxamodl > sxamodlt )

	mov	eax, DWORD PTR _sxamodl
	cmp	eax, DWORD PTR _sxamodlt
	jle	SHORT $LN14@RVB_DoAMod

; 754  : 				sxamodl--;

	mov	eax, DWORD PTR _sxamodl
	sub	eax, 1
	mov	DWORD PTR _sxamodl, eax
$LN14@RVB_DoAMod:

; 755  : 
; 756  : 			if( sxamodr < sxamodrt )

	mov	eax, DWORD PTR _sxamodr
	cmp	eax, DWORD PTR _sxamodrt
	jge	SHORT $LN15@RVB_DoAMod

; 757  : 				sxamodr++;

	mov	eax, DWORD PTR _sxamodr
	add	eax, 1
	mov	DWORD PTR _sxamodr, eax
	jmp	SHORT $LN17@RVB_DoAMod
$LN15@RVB_DoAMod:

; 758  : 			else if( sxamodr > sxamodrt )

	mov	eax, DWORD PTR _sxamodr
	cmp	eax, DWORD PTR _sxamodrt
	jle	SHORT $LN17@RVB_DoAMod

; 759  : 				sxamodr--;

	mov	eax, DWORD PTR _sxamodr
	sub	eax, 1
	mov	DWORD PTR _sxamodr, eax
$LN17@RVB_DoAMod:

; 760  : 		}
; 761  : 
; 762  : 		paint->left = CLIP(res.left);

	cmp	DWORD PTR _res$1[ebp], 32760		; 00007ff8H
	jle	SHORT $LN21@RVB_DoAMod
	mov	DWORD PTR tv206[ebp], 32760		; 00007ff8H
	jmp	SHORT $LN22@RVB_DoAMod
$LN21@RVB_DoAMod:
	cmp	DWORD PTR _res$1[ebp], -32760		; ffff8008H
	jge	SHORT $LN19@RVB_DoAMod
	mov	DWORD PTR tv205[ebp], -32760		; ffff8008H
	jmp	SHORT $LN20@RVB_DoAMod
$LN19@RVB_DoAMod:
	mov	eax, DWORD PTR _res$1[ebp]
	mov	DWORD PTR tv205[ebp], eax
$LN20@RVB_DoAMod:
	mov	ecx, DWORD PTR tv205[ebp]
	mov	DWORD PTR tv206[ebp], ecx
$LN22@RVB_DoAMod:
	mov	edx, DWORD PTR _paint$[ebp]
	mov	eax, DWORD PTR tv206[ebp]
	mov	DWORD PTR [edx], eax

; 763  : 		paint->right = CLIP(res.right);

	cmp	DWORD PTR _res$1[ebp+4], 32760		; 00007ff8H
	jle	SHORT $LN25@RVB_DoAMod
	mov	DWORD PTR tv211[ebp], 32760		; 00007ff8H
	jmp	SHORT $LN26@RVB_DoAMod
$LN25@RVB_DoAMod:
	cmp	DWORD PTR _res$1[ebp+4], -32760		; ffff8008H
	jge	SHORT $LN23@RVB_DoAMod
	mov	DWORD PTR tv210[ebp], -32760		; ffff8008H
	jmp	SHORT $LN24@RVB_DoAMod
$LN23@RVB_DoAMod:
	mov	eax, DWORD PTR _res$1[ebp+4]
	mov	DWORD PTR tv210[ebp], eax
$LN24@RVB_DoAMod:
	mov	ecx, DWORD PTR tv210[ebp]
	mov	DWORD PTR tv211[ebp], ecx
$LN26@RVB_DoAMod:
	mov	edx, DWORD PTR _paint$[ebp]
	mov	eax, DWORD PTR tv211[ebp]
	mov	DWORD PTR [edx+4], eax

; 764  : 	}

	jmp	$LN2@RVB_DoAMod
$LN3@RVB_DoAMod:

; 765  : }

	pop	edi
	pop	esi
	pop	ebx
	mov	esp, ebp
	pop	ebp
	ret	0
_RVB_DoAMod ENDP
_TEXT	ENDS
; Function compile flags: /Odtp /ZI
; File D:\DevDragon\XashFE\dev\src\engine\client\s_dsp.c
;	COMDAT _RVB_DoReverb
_TEXT	SEGMENT
tv140 = -92						; size = 4
tv129 = -92						; size = 4
tv141 = -88						; size = 4
tv130 = -88						; size = 4
_voutm$ = -20						; size = 4
_vlr$ = -16						; size = 4
_paint$ = -12						; size = 4
_dly2$ = -8						; size = 4
_dly1$ = -4						; size = 4
_count$ = 8						; size = 4
_RVB_DoReverb PROC					; COMDAT

; 672  : {

	push	ebp
	mov	ebp, esp
	sub	esp, 92					; 0000005cH
	push	ebx
	push	esi
	push	edi

; 673  : 	dly_t *const		dly1 = &rgsxdly[REVERBPOS];

	mov	eax, 56					; 00000038H
	shl	eax, 0
	add	eax, OFFSET _rgsxdly
	mov	DWORD PTR _dly1$[ebp], eax

; 674  : 	dly_t *const		dly2 = &rgsxdly[REVERBPOS+1];

	mov	eax, 56					; 00000038H
	shl	eax, 1
	add	eax, OFFSET _rgsxdly
	mov	DWORD PTR _dly2$[ebp], eax

; 675  : 	portable_samplepair_t	*paint = paintto;

	mov	eax, DWORD PTR _paintto
	mov	DWORD PTR _paint$[ebp], eax

; 676  : 	int			vlr, voutm;
; 677  : 
; 678  : 	if( !dly1->lpdelayline )

	mov	eax, DWORD PTR _dly1$[ebp]
	cmp	DWORD PTR [eax+52], 0
	jne	SHORT $LN5@RVB_DoReve

; 679  : 		return;

	jmp	$LN1@RVB_DoReve
$LN5@RVB_DoReve:

; 680  : 
; 681  : 	for( ; count; count--, paint++ )

	jmp	SHORT $LN4@RVB_DoReve
$LN2@RVB_DoReve:
	mov	eax, DWORD PTR _count$[ebp]
	sub	eax, 1
	mov	DWORD PTR _count$[ebp], eax
	mov	ecx, DWORD PTR _paint$[ebp]
	add	ecx, 8
	mov	DWORD PTR _paint$[ebp], ecx
$LN4@RVB_DoReve:
	cmp	DWORD PTR _count$[ebp], 0
	je	$LN1@RVB_DoReve

; 682  : 	{
; 683  : 		vlr = ( paint->left + paint->right ) >> 1;

	mov	eax, DWORD PTR _paint$[ebp]
	mov	ecx, DWORD PTR [eax]
	mov	edx, DWORD PTR _paint$[ebp]
	add	ecx, DWORD PTR [edx+4]
	sar	ecx, 1
	mov	DWORD PTR _vlr$[ebp], ecx

; 684  : 
; 685  : 		voutm = RVB_DoReverbForOneDly( dly1, vlr, paint );

	mov	eax, DWORD PTR _paint$[ebp]
	push	eax
	mov	ecx, DWORD PTR _vlr$[ebp]
	push	ecx
	mov	edx, DWORD PTR _dly1$[ebp]
	push	edx
	call	_RVB_DoReverbForOneDly
	add	esp, 12					; 0000000cH
	mov	DWORD PTR _voutm$[ebp], eax

; 686  : 		voutm += RVB_DoReverbForOneDly( dly2, vlr, paint );

	mov	eax, DWORD PTR _paint$[ebp]
	push	eax
	mov	ecx, DWORD PTR _vlr$[ebp]
	push	ecx
	mov	edx, DWORD PTR _dly2$[ebp]
	push	edx
	call	_RVB_DoReverbForOneDly
	add	esp, 12					; 0000000cH
	add	eax, DWORD PTR _voutm$[ebp]
	mov	DWORD PTR _voutm$[ebp], eax

; 687  : 
; 688  : 		voutm = (11 * voutm) >> 6;

	imul	eax, DWORD PTR _voutm$[ebp], 11
	sar	eax, 6
	mov	DWORD PTR _voutm$[ebp], eax

; 689  : 
; 690  : 		paint->left = CLIP( paint->left + voutm );

	mov	eax, DWORD PTR _paint$[ebp]
	mov	ecx, DWORD PTR [eax]
	add	ecx, DWORD PTR _voutm$[ebp]
	cmp	ecx, 32760				; 00007ff8H
	jle	SHORT $LN9@RVB_DoReve
	mov	DWORD PTR tv130[ebp], 32760		; 00007ff8H
	jmp	SHORT $LN10@RVB_DoReve
$LN9@RVB_DoReve:
	mov	edx, DWORD PTR _paint$[ebp]
	mov	eax, DWORD PTR [edx]
	add	eax, DWORD PTR _voutm$[ebp]
	cmp	eax, -32760				; ffff8008H
	jge	SHORT $LN7@RVB_DoReve
	mov	DWORD PTR tv129[ebp], -32760		; ffff8008H
	jmp	SHORT $LN8@RVB_DoReve
$LN7@RVB_DoReve:
	mov	ecx, DWORD PTR _paint$[ebp]
	mov	edx, DWORD PTR [ecx]
	add	edx, DWORD PTR _voutm$[ebp]
	mov	DWORD PTR tv129[ebp], edx
$LN8@RVB_DoReve:
	mov	eax, DWORD PTR tv129[ebp]
	mov	DWORD PTR tv130[ebp], eax
$LN10@RVB_DoReve:
	mov	ecx, DWORD PTR _paint$[ebp]
	mov	edx, DWORD PTR tv130[ebp]
	mov	DWORD PTR [ecx], edx

; 691  : 		paint->right = CLIP( paint->right + voutm );

	mov	eax, DWORD PTR _paint$[ebp]
	mov	ecx, DWORD PTR [eax+4]
	add	ecx, DWORD PTR _voutm$[ebp]
	cmp	ecx, 32760				; 00007ff8H
	jle	SHORT $LN13@RVB_DoReve
	mov	DWORD PTR tv141[ebp], 32760		; 00007ff8H
	jmp	SHORT $LN14@RVB_DoReve
$LN13@RVB_DoReve:
	mov	edx, DWORD PTR _paint$[ebp]
	mov	eax, DWORD PTR [edx+4]
	add	eax, DWORD PTR _voutm$[ebp]
	cmp	eax, -32760				; ffff8008H
	jge	SHORT $LN11@RVB_DoReve
	mov	DWORD PTR tv140[ebp], -32760		; ffff8008H
	jmp	SHORT $LN12@RVB_DoReve
$LN11@RVB_DoReve:
	mov	ecx, DWORD PTR _paint$[ebp]
	mov	edx, DWORD PTR [ecx+4]
	add	edx, DWORD PTR _voutm$[ebp]
	mov	DWORD PTR tv140[ebp], edx
$LN12@RVB_DoReve:
	mov	eax, DWORD PTR tv140[ebp]
	mov	DWORD PTR tv141[ebp], eax
$LN14@RVB_DoReve:
	mov	ecx, DWORD PTR _paint$[ebp]
	mov	edx, DWORD PTR tv141[ebp]
	mov	DWORD PTR [ecx+4], edx

; 692  : 	}

	jmp	$LN2@RVB_DoReve
$LN1@RVB_DoReve:

; 693  : }

	pop	edi
	pop	esi
	pop	ebx
	mov	esp, ebp
	pop	ebp
	ret	0
_RVB_DoReverb ENDP
_TEXT	ENDS
; Function compile flags: /Odtp /ZI
; File D:\DevDragon\XashFE\dev\src\engine\client\s_dsp.c
;	COMDAT _RVB_DoReverbForOneDly
_TEXT	SEGMENT
tv164 = -92						; size = 4
tv165 = -88						; size = 4
tv153 = -88						; size = 4
tv147 = -88						; size = 4
tv66 = -88						; size = 4
_voutm$ = -20						; size = 4
_valt$ = -16						; size = 4
_val$ = -12						; size = 4
_samplexf$ = -8						; size = 4
_delay$ = -4						; size = 4
_dly$ = 8						; size = 4
_vlr$ = 12						; size = 4
_samplepair$ = 16					; size = 4
_RVB_DoReverbForOneDly PROC				; COMDAT

; 598  : {

	push	ebp
	mov	ebp, esp
	sub	esp, 92					; 0000005cH
	push	ebx
	push	esi
	push	edi

; 599  : 	int	delay;
; 600  : 	int	samplexf;
; 601  : 	int	val, valt;
; 602  : 	int	voutm = 0;

	mov	DWORD PTR _voutm$[ebp], 0

; 603  : 
; 604  : 	if( --dly->modcur < 0 )

	mov	eax, DWORD PTR _dly$[ebp]
	mov	ecx, DWORD PTR [eax+48]
	sub	ecx, 1
	mov	DWORD PTR tv66[ebp], ecx
	mov	edx, DWORD PTR _dly$[ebp]
	mov	eax, DWORD PTR tv66[ebp]
	mov	DWORD PTR [edx+48], eax
	cmp	DWORD PTR tv66[ebp], 0
	jge	SHORT $LN2@RVB_DoReve

; 605  : 		dly->modcur = dly->mod;

	mov	eax, DWORD PTR _dly$[ebp]
	mov	ecx, DWORD PTR _dly$[ebp]
	mov	edx, DWORD PTR [ecx+44]
	mov	DWORD PTR [eax+48], edx
$LN2@RVB_DoReve:

; 606  : 
; 607  : 	delay = dly->lpdelayline[dly->idelayoutput];

	mov	eax, DWORD PTR _dly$[ebp]
	mov	ecx, DWORD PTR [eax+8]
	mov	edx, DWORD PTR _dly$[ebp]
	mov	eax, DWORD PTR [edx+52]
	mov	ecx, DWORD PTR [eax+ecx*4]
	mov	DWORD PTR _delay$[ebp], ecx

; 608  : 
; 609  : 	if( dly->xfade || delay || samplepair->left || samplepair->right )

	mov	eax, DWORD PTR _dly$[ebp]
	cmp	DWORD PTR [eax+16], 0
	jne	SHORT $LN5@RVB_DoReve
	cmp	DWORD PTR _delay$[ebp], 0
	jne	SHORT $LN5@RVB_DoReve
	mov	eax, DWORD PTR _samplepair$[ebp]
	cmp	DWORD PTR [eax], 0
	jne	SHORT $LN5@RVB_DoReve
	mov	eax, DWORD PTR _samplepair$[ebp]
	cmp	DWORD PTR [eax+4], 0
	je	$LN3@RVB_DoReve
$LN5@RVB_DoReve:

; 610  : 	{
; 611  : 		// modulate delay rate
; 612  : 		if( !dly->xfade && !dly->modcur && dly->mod )

	mov	eax, DWORD PTR _dly$[ebp]
	cmp	DWORD PTR [eax+16], 0
	jne	SHORT $LN6@RVB_DoReve
	mov	eax, DWORD PTR _dly$[ebp]
	cmp	DWORD PTR [eax+48], 0
	jne	SHORT $LN6@RVB_DoReve
	mov	eax, DWORD PTR _dly$[ebp]
	cmp	DWORD PTR [eax+44], 0
	je	SHORT $LN6@RVB_DoReve

; 613  : 		{
; 614  : 			dly->idelayoutputxf = dly->idelayoutput + ((COM_RandomLong( 0, 255 ) * delay) >> 9 );

	push	255					; 000000ffH
	push	0
	call	_COM_RandomLong
	add	esp, 8
	imul	eax, DWORD PTR _delay$[ebp]
	sar	eax, 9
	mov	ecx, DWORD PTR _dly$[ebp]
	add	eax, DWORD PTR [ecx+8]
	mov	edx, DWORD PTR _dly$[ebp]
	mov	DWORD PTR [edx+12], eax
$LN6@RVB_DoReve:

; 615  : 
; 616  : 			//dly->xfade = 32;
; 617  : 		}
; 618  : 
; 619  : 		dly->idelayoutputxf %= dly->cdelaysamplesmax;

	mov	eax, DWORD PTR _dly$[ebp]
	mov	ecx, DWORD PTR _dly$[ebp]
	mov	eax, DWORD PTR [eax+12]
	xor	edx, edx
	div	DWORD PTR [ecx]
	mov	eax, DWORD PTR _dly$[ebp]
	mov	DWORD PTR [eax+12], edx

; 620  : 
; 621  : 		if( dly->xfade )

	mov	eax, DWORD PTR _dly$[ebp]
	cmp	DWORD PTR [eax+16], 0
	je	$LN7@RVB_DoReve

; 622  : 		{
; 623  : 			samplexf = (dly->lpdelayline[dly->idelayoutputxf] * (REVERB_XFADE - dly->xfade)) / REVERB_XFADE;

	mov	eax, DWORD PTR _dly$[ebp]
	mov	ecx, DWORD PTR [eax+12]
	mov	edx, DWORD PTR _dly$[ebp]
	mov	eax, DWORD PTR [edx+52]
	mov	edx, DWORD PTR _dly$[ebp]
	mov	esi, 32					; 00000020H
	sub	esi, DWORD PTR [edx+16]
	mov	edx, esi
	imul	edx, DWORD PTR [eax+ecx*4]
	mov	eax, edx
	cdq
	and	edx, 31					; 0000001fH
	add	eax, edx
	sar	eax, 5
	mov	DWORD PTR _samplexf$[ebp], eax

; 624  : 			delay = ((delay * dly->xfade) / REVERB_XFADE) + samplexf;

	mov	eax, DWORD PTR _dly$[ebp]
	mov	ecx, DWORD PTR _delay$[ebp]
	imul	ecx, DWORD PTR [eax+16]
	mov	eax, ecx
	cdq
	and	edx, 31					; 0000001fH
	add	eax, edx
	sar	eax, 5
	add	eax, DWORD PTR _samplexf$[ebp]
	mov	DWORD PTR _delay$[ebp], eax

; 625  : 
; 626  : 			if( ++dly->idelayoutputxf >= dly->cdelaysamplesmax )

	mov	eax, DWORD PTR _dly$[ebp]
	mov	ecx, DWORD PTR [eax+12]
	add	ecx, 1
	mov	DWORD PTR tv147[ebp], ecx
	mov	edx, DWORD PTR _dly$[ebp]
	mov	eax, DWORD PTR tv147[ebp]
	mov	DWORD PTR [edx+12], eax
	mov	ecx, DWORD PTR _dly$[ebp]
	mov	edx, DWORD PTR tv147[ebp]
	cmp	edx, DWORD PTR [ecx]
	jb	SHORT $LN8@RVB_DoReve

; 627  : 				dly->idelayoutputxf = 0;

	mov	eax, DWORD PTR _dly$[ebp]
	mov	DWORD PTR [eax+12], 0
$LN8@RVB_DoReve:

; 628  : 
; 629  : 			if( --dly->xfade == 0 )

	mov	eax, DWORD PTR _dly$[ebp]
	mov	ecx, DWORD PTR [eax+16]
	sub	ecx, 1
	mov	DWORD PTR tv153[ebp], ecx
	mov	edx, DWORD PTR _dly$[ebp]
	mov	eax, DWORD PTR tv153[ebp]
	mov	DWORD PTR [edx+16], eax
	cmp	DWORD PTR tv153[ebp], 0
	jne	SHORT $LN7@RVB_DoReve

; 630  : 				dly->idelayoutput = dly->idelayoutputxf;

	mov	eax, DWORD PTR _dly$[ebp]
	mov	ecx, DWORD PTR _dly$[ebp]
	mov	edx, DWORD PTR [ecx+12]
	mov	DWORD PTR [eax+8], edx
$LN7@RVB_DoReve:

; 631  : 		}
; 632  : 
; 633  : 
; 634  : 		if( delay )

	cmp	DWORD PTR _delay$[ebp], 0
	je	SHORT $LN10@RVB_DoReve

; 635  : 		{
; 636  : 			val = vlr + ( ( dly->delayfeedback * delay ) >> 8 );

	mov	eax, DWORD PTR _dly$[ebp]
	mov	ecx, DWORD PTR [eax+24]
	imul	ecx, DWORD PTR _delay$[ebp]
	sar	ecx, 8
	add	ecx, DWORD PTR _vlr$[ebp]
	mov	DWORD PTR _val$[ebp], ecx

; 637  : 			val = CLIP( val );

	cmp	DWORD PTR _val$[ebp], 32760		; 00007ff8H
	jle	SHORT $LN17@RVB_DoReve
	mov	DWORD PTR tv165[ebp], 32760		; 00007ff8H
	jmp	SHORT $LN18@RVB_DoReve
$LN17@RVB_DoReve:
	cmp	DWORD PTR _val$[ebp], -32760		; ffff8008H
	jge	SHORT $LN15@RVB_DoReve
	mov	DWORD PTR tv164[ebp], -32760		; ffff8008H
	jmp	SHORT $LN16@RVB_DoReve
$LN15@RVB_DoReve:
	mov	eax, DWORD PTR _val$[ebp]
	mov	DWORD PTR tv164[ebp], eax
$LN16@RVB_DoReve:
	mov	ecx, DWORD PTR tv164[ebp]
	mov	DWORD PTR tv165[ebp], ecx
$LN18@RVB_DoReve:
	mov	edx, DWORD PTR tv165[ebp]
	mov	DWORD PTR _val$[ebp], edx

; 638  : 		}

	jmp	SHORT $LN11@RVB_DoReve
$LN10@RVB_DoReve:

; 639  : 		else
; 640  : 			val = vlr;

	mov	eax, DWORD PTR _vlr$[ebp]
	mov	DWORD PTR _val$[ebp], eax
$LN11@RVB_DoReve:

; 641  : 
; 642  : 		if( dly->lp )

	mov	eax, DWORD PTR _dly$[ebp]
	cmp	DWORD PTR [eax+28], 0
	je	SHORT $LN12@RVB_DoReve

; 643  : 		{
; 644  : 			valt = (dly->lp0 + val) >> 1;

	mov	eax, DWORD PTR _dly$[ebp]
	mov	ecx, DWORD PTR [eax+32]
	add	ecx, DWORD PTR _val$[ebp]
	sar	ecx, 1
	mov	DWORD PTR _valt$[ebp], ecx

; 645  : 			dly->lp0 = val;

	mov	eax, DWORD PTR _dly$[ebp]
	mov	ecx, DWORD PTR _val$[ebp]
	mov	DWORD PTR [eax+32], ecx

; 646  : 		}

	jmp	SHORT $LN13@RVB_DoReve
$LN12@RVB_DoReve:

; 647  : 		else
; 648  : 			valt = val;

	mov	eax, DWORD PTR _val$[ebp]
	mov	DWORD PTR _valt$[ebp], eax
$LN13@RVB_DoReve:

; 649  : 
; 650  : 		voutm = dly->lpdelayline[dly->idelayinput] = valt;

	mov	eax, DWORD PTR _dly$[ebp]
	mov	ecx, DWORD PTR [eax+4]
	mov	edx, DWORD PTR _dly$[ebp]
	mov	eax, DWORD PTR [edx+52]
	mov	edx, DWORD PTR _valt$[ebp]
	mov	DWORD PTR [eax+ecx*4], edx
	mov	eax, DWORD PTR _valt$[ebp]
	mov	DWORD PTR _voutm$[ebp], eax

; 651  : 	}

	jmp	SHORT $LN4@RVB_DoReve
$LN3@RVB_DoReve:

; 652  : 	else
; 653  : 	{
; 654  : 		voutm = dly->lpdelayline[dly->idelayinput] = 0;

	mov	eax, DWORD PTR _dly$[ebp]
	mov	ecx, DWORD PTR [eax+4]
	mov	edx, DWORD PTR _dly$[ebp]
	mov	eax, DWORD PTR [edx+52]
	mov	DWORD PTR [eax+ecx*4], 0
	mov	DWORD PTR _voutm$[ebp], 0

; 655  : 		dly->lp0 = 0;

	mov	eax, DWORD PTR _dly$[ebp]
	mov	DWORD PTR [eax+32], 0
$LN4@RVB_DoReve:

; 656  : 	}
; 657  : 
; 658  : 	DLY_MovePointer( dly );

	mov	eax, DWORD PTR _dly$[ebp]
	push	eax
	call	_DLY_MovePointer
	add	esp, 4

; 659  : 
; 660  : 	return voutm;

	mov	eax, DWORD PTR _voutm$[ebp]

; 661  : 
; 662  : }

	pop	edi
	pop	esi
	pop	ebx
	mov	esp, ebp
	pop	ebp
	ret	0
_RVB_DoReverbForOneDly ENDP
_TEXT	ENDS
; Function compile flags: /Odtp /ZI
; File D:\DevDragon\XashFE\dev\src\engine\client\s_dsp.c
;	COMDAT _RVB_CheckNewReverbVal
_TEXT	SEGMENT
tv128 = -80						; size = 4
tv90 = -80						; size = 4
_delay$ = -12						; size = 4
_dly2$ = -8						; size = 4
_dly1$ = -4						; size = 4
_RVB_CheckNewReverbVal PROC				; COMDAT

; 566  : {

	push	ebp
	mov	ebp, esp
	sub	esp, 80					; 00000050H
	push	ebx
	push	esi
	push	edi

; 567  : 	dly_t *const	dly1 = &rgsxdly[REVERBPOS];

	mov	eax, 56					; 00000038H
	shl	eax, 0
	add	eax, OFFSET _rgsxdly
	mov	DWORD PTR _dly1$[ebp], eax

; 568  : 	dly_t *const	dly2 = &rgsxdly[REVERBPOS + 1];

	mov	eax, 56					; 00000038H
	shl	eax, 1
	add	eax, OFFSET _rgsxdly
	mov	DWORD PTR _dly2$[ebp], eax

; 569  : 	float		delay = sxrvb_size->value;

	mov	eax, DWORD PTR _sxrvb_size
	movss	xmm0, DWORD PTR [eax+12]
	movss	DWORD PTR _delay$[ebp], xmm0

; 570  : 
; 571  : 	if( FBitSet( sxrvb_size->flags, FCVAR_CHANGED ))

	mov	eax, DWORD PTR _sxrvb_size
	mov	ecx, DWORD PTR [eax+8]
	and	ecx, 8192				; 00002000H
	je	SHORT $LN4@RVB_CheckN

; 572  : 	{
; 573  : 		if( delay == 0.0f )

	movss	xmm0, DWORD PTR _delay$[ebp]
	ucomiss	xmm0, DWORD PTR __real@00000000
	lahf
	test	ah, 68					; 00000044H
	jp	SHORT $LN3@RVB_CheckN

; 574  : 		{
; 575  : 			DLY_Free( REVERBPOS );

	push	1
	call	_DLY_Free
	add	esp, 4

; 576  : 			DLY_Free( REVERBPOS + 1 );

	push	2
	call	_DLY_Free
	add	esp, 4

; 577  : 		}

	jmp	SHORT $LN4@RVB_CheckN
$LN3@RVB_CheckN:

; 578  : 		else
; 579  : 		{
; 580  : 			RVB_SetUpDly( REVERBPOS, sxrvb_size->value, 500 );

	push	500					; 000001f4H
	mov	eax, DWORD PTR _sxrvb_size
	push	ecx
	movss	xmm0, DWORD PTR [eax+12]
	movss	DWORD PTR [esp], xmm0
	push	1
	call	_RVB_SetUpDly
	add	esp, 12					; 0000000cH

; 581  : 			RVB_SetUpDly( REVERBPOS+1, sxrvb_size->value * 0.71f, 700 );

	push	700					; 000002bcH
	mov	eax, DWORD PTR _sxrvb_size
	movss	xmm0, DWORD PTR [eax+12]
	mulss	xmm0, DWORD PTR __real@3f35c28f
	push	ecx
	movss	DWORD PTR [esp], xmm0
	push	2
	call	_RVB_SetUpDly
	add	esp, 12					; 0000000cH
$LN4@RVB_CheckN:

; 582  : 		}
; 583  : 	}
; 584  : 
; 585  : 	ClearBits( sxrvb_size->flags, FCVAR_CHANGED );

	mov	eax, DWORD PTR _sxrvb_size
	mov	ecx, DWORD PTR [eax+8]
	and	ecx, -8193				; ffffdfffH
	mov	edx, DWORD PTR _sxrvb_size
	mov	DWORD PTR [edx+8], ecx

; 586  : 	dly1->lp = dly2->lp = sxrvb_lp->value;

	mov	eax, DWORD PTR _sxrvb_lp
	cvttss2si ecx, DWORD PTR [eax+12]
	mov	DWORD PTR tv90[ebp], ecx
	mov	edx, DWORD PTR _dly2$[ebp]
	mov	eax, DWORD PTR tv90[ebp]
	mov	DWORD PTR [edx+28], eax
	mov	ecx, DWORD PTR _dly1$[ebp]
	mov	edx, DWORD PTR tv90[ebp]
	mov	DWORD PTR [ecx+28], edx

; 587  : 	dly1->delayfeedback = dly2->delayfeedback = (int)(255 * sxrvb_feedback->value);

	mov	eax, DWORD PTR _sxrvb_feedback
	movss	xmm0, DWORD PTR __real@437f0000
	mulss	xmm0, DWORD PTR [eax+12]
	cvttss2si ecx, xmm0
	mov	DWORD PTR tv128[ebp], ecx
	mov	edx, DWORD PTR _dly2$[ebp]
	mov	eax, DWORD PTR tv128[ebp]
	mov	DWORD PTR [edx+24], eax
	mov	ecx, DWORD PTR _dly1$[ebp]
	mov	edx, DWORD PTR tv128[ebp]
	mov	DWORD PTR [ecx+24], edx

; 588  : }

	pop	edi
	pop	esi
	pop	ebx
	mov	esp, ebp
	pop	ebp
	ret	0
_RVB_CheckNewReverbVal ENDP
_TEXT	ENDS
; Function compile flags: /Odtp /ZI
; File D:\DevDragon\XashFE\dev\src\engine\client\s_dsp.c
;	COMDAT _RVB_SetUpDly
_TEXT	SEGMENT
tv88 = -72						; size = 4
tv65 = -72						; size = 4
_samples$ = -4						; size = 4
_pos$ = 8						; size = 4
_delay$ = 12						; size = 4
_kmod$ = 16						; size = 4
_RVB_SetUpDly PROC					; COMDAT

; 530  : {

	push	ebp
	mov	ebp, esp
	sub	esp, 72					; 00000048H
	push	ebx
	push	esi
	push	edi

; 531  : 	int	samples;
; 532  : 
; 533  : 	delay = Q_min( delay, MAX_REVERB_DELAY );

	movss	xmm0, DWORD PTR __real@3dcccccd
	comiss	xmm0, DWORD PTR _delay$[ebp]
	jbe	SHORT $LN7@RVB_SetUpD
	movss	xmm0, DWORD PTR _delay$[ebp]
	movss	DWORD PTR tv65[ebp], xmm0
	jmp	SHORT $LN8@RVB_SetUpD
$LN7@RVB_SetUpD:
	movss	xmm0, DWORD PTR __real@3dcccccd
	movss	DWORD PTR tv65[ebp], xmm0
$LN8@RVB_SetUpD:
	movss	xmm0, DWORD PTR tv65[ebp]
	movss	DWORD PTR _delay$[ebp], xmm0

; 534  : 	samples = (int)(delay * idsp_dma_speed) << sxhires;

	cvtsi2ss xmm0, DWORD PTR _idsp_dma_speed
	mulss	xmm0, DWORD PTR _delay$[ebp]
	cvttss2si eax, xmm0
	mov	ecx, DWORD PTR _sxhires
	shl	eax, cl
	mov	DWORD PTR _samples$[ebp], eax

; 535  : 
; 536  : 	if( !rgsxdly[pos].lpdelayline )

	imul	eax, DWORD PTR _pos$[ebp], 56
	cmp	DWORD PTR _rgsxdly[eax+52], 0
	jne	SHORT $LN2@RVB_SetUpD

; 537  : 	{
; 538  : 		rgsxdly[pos].delaysamples = samples;

	imul	eax, DWORD PTR _pos$[ebp], 56
	mov	ecx, DWORD PTR _samples$[ebp]
	mov	DWORD PTR _rgsxdly[eax+20], ecx

; 539  : 		DLY_Init( pos, MAX_REVERB_DELAY );

	push	ecx
	movss	xmm0, DWORD PTR __real@3dcccccd
	movss	DWORD PTR [esp], xmm0
	mov	eax, DWORD PTR _pos$[ebp]
	push	eax
	call	_DLY_Init
	add	esp, 8
$LN2@RVB_SetUpD:

; 540  : 	}
; 541  : 
; 542  : 	rgsxdly[pos].modcur = rgsxdly[pos].mod = (int)(kmod * idsp_dma_speed / SOUND_11k) << sxhires;

	mov	eax, DWORD PTR _kmod$[ebp]
	imul	eax, DWORD PTR _idsp_dma_speed
	cdq
	mov	ecx, 11025				; 00002b11H
	idiv	ecx
	mov	ecx, DWORD PTR _sxhires
	shl	eax, cl
	mov	DWORD PTR tv88[ebp], eax
	imul	edx, DWORD PTR _pos$[ebp], 56
	mov	eax, DWORD PTR tv88[ebp]
	mov	DWORD PTR _rgsxdly[edx+44], eax
	imul	ecx, DWORD PTR _pos$[ebp], 56
	mov	edx, DWORD PTR tv88[ebp]
	mov	DWORD PTR _rgsxdly[ecx+48], edx

; 543  : 
; 544  : 	// set up crossfade, if delay has changed
; 545  : 	if( rgsxdly[pos].delaysamples != samples )

	imul	eax, DWORD PTR _pos$[ebp], 56
	mov	ecx, DWORD PTR _rgsxdly[eax+20]
	cmp	ecx, DWORD PTR _samples$[ebp]
	je	SHORT $LN3@RVB_SetUpD

; 546  : 	{
; 547  : 		rgsxdly[pos].idelayoutputxf = rgsxdly[pos].idelayinput - samples;

	imul	eax, DWORD PTR _pos$[ebp], 56
	mov	ecx, DWORD PTR _rgsxdly[eax+4]
	sub	ecx, DWORD PTR _samples$[ebp]
	imul	edx, DWORD PTR _pos$[ebp], 56
	mov	DWORD PTR _rgsxdly[edx+12], ecx

; 548  : 		if( rgsxdly[pos].idelayoutputxf < 0 )

	imul	eax, DWORD PTR _pos$[ebp], 56
	cmp	DWORD PTR _rgsxdly[eax+12], 0
	jae	SHORT $LN4@RVB_SetUpD

; 549  : 			rgsxdly[pos].idelayoutputxf += rgsxdly[pos].cdelaysamplesmax;

	imul	eax, DWORD PTR _pos$[ebp], 56
	imul	ecx, DWORD PTR _pos$[ebp], 56
	mov	edx, DWORD PTR _rgsxdly[eax+12]
	add	edx, DWORD PTR _rgsxdly[ecx]
	imul	eax, DWORD PTR _pos$[ebp], 56
	mov	DWORD PTR _rgsxdly[eax+12], edx
$LN4@RVB_SetUpD:

; 550  : 		rgsxdly[pos].xfade = 32;

	imul	eax, DWORD PTR _pos$[ebp], 56
	mov	DWORD PTR _rgsxdly[eax+16], 32		; 00000020H
$LN3@RVB_SetUpD:

; 551  : 	}
; 552  : 
; 553  : 	if( !rgsxdly[pos].delaysamples )

	imul	eax, DWORD PTR _pos$[ebp], 56
	cmp	DWORD PTR _rgsxdly[eax+20], 0
	jne	SHORT $LN5@RVB_SetUpD

; 554  : 		DLY_Free( pos );

	mov	eax, DWORD PTR _pos$[ebp]
	push	eax
	call	_DLY_Free
	add	esp, 4
$LN5@RVB_SetUpD:

; 555  : 
; 556  : }

	pop	edi
	pop	esi
	pop	ebx
	mov	esp, ebp
	pop	ebp
	ret	0
_RVB_SetUpDly ENDP
_TEXT	ENDS
; Function compile flags: /Odtp /ZI
; File D:\DevDragon\XashFE\dev\src\engine\client\s_dsp.c
;	COMDAT _DLY_DoDelay
_TEXT	SEGMENT
tv161 = -88						; size = 4
tv150 = -88						; size = 4
tv91 = -88						; size = 4
tv162 = -84						; size = 4
tv151 = -84						; size = 4
tv92 = -84						; size = 4
_val$1 = -16						; size = 4
_delay$ = -12						; size = 4
_paint$ = -8						; size = 4
_dly$ = -4						; size = 4
_count$ = 8						; size = 4
_DLY_DoDelay PROC					; COMDAT

; 479  : {

	push	ebp
	mov	ebp, esp
	sub	esp, 88					; 00000058H
	push	ebx
	push	esi
	push	edi

; 480  : 	dly_t *const		dly = &rgsxdly[MONODLY];

	mov	eax, 56					; 00000038H
	imul	ecx, eax, 0
	add	ecx, OFFSET _rgsxdly
	mov	DWORD PTR _dly$[ebp], ecx

; 481  : 	portable_samplepair_t	*paint = paintto;

	mov	eax, DWORD PTR _paintto
	mov	DWORD PTR _paint$[ebp], eax

; 482  : 	int			delay;
; 483  : 
; 484  : 	if( !dly->lpdelayline || !count )

	mov	eax, DWORD PTR _dly$[ebp]
	cmp	DWORD PTR [eax+52], 0
	je	SHORT $LN6@DLY_DoDela
	cmp	DWORD PTR _count$[ebp], 0
	jne	SHORT $LN5@DLY_DoDela
$LN6@DLY_DoDela:

; 485  : 		return; // inactive

	jmp	$LN1@DLY_DoDela
$LN5@DLY_DoDela:

; 486  : 
; 487  : 	for( ; count; count--, paint++ )

	jmp	SHORT $LN4@DLY_DoDela
$LN2@DLY_DoDela:
	mov	eax, DWORD PTR _count$[ebp]
	sub	eax, 1
	mov	DWORD PTR _count$[ebp], eax
	mov	ecx, DWORD PTR _paint$[ebp]
	add	ecx, 8
	mov	DWORD PTR _paint$[ebp], ecx
$LN4@DLY_DoDela:
	cmp	DWORD PTR _count$[ebp], 0
	je	$LN1@DLY_DoDela

; 488  : 	{
; 489  : 		delay = dly->lpdelayline[dly->idelayoutput];

	mov	eax, DWORD PTR _dly$[ebp]
	mov	ecx, DWORD PTR [eax+8]
	mov	edx, DWORD PTR _dly$[ebp]
	mov	eax, DWORD PTR [edx+52]
	mov	ecx, DWORD PTR [eax+ecx*4]
	mov	DWORD PTR _delay$[ebp], ecx

; 490  : 
; 491  : 		// don't process if delay line and left/right samples are zero
; 492  : 		if( delay || paint->left || paint->right )

	cmp	DWORD PTR _delay$[ebp], 0
	jne	SHORT $LN9@DLY_DoDela
	mov	eax, DWORD PTR _paint$[ebp]
	cmp	DWORD PTR [eax], 0
	jne	SHORT $LN9@DLY_DoDela
	mov	eax, DWORD PTR _paint$[ebp]
	cmp	DWORD PTR [eax+4], 0
	je	$LN7@DLY_DoDela
$LN9@DLY_DoDela:

; 493  : 		{
; 494  : 			// calculate delayed value from average
; 495  : 			int val = (( paint->left + paint->right ) >> 1 ) + (( dly->delayfeedback * delay ) >> 8);

	mov	eax, DWORD PTR _paint$[ebp]
	mov	ecx, DWORD PTR [eax]
	mov	edx, DWORD PTR _paint$[ebp]
	add	ecx, DWORD PTR [edx+4]
	sar	ecx, 1
	mov	eax, DWORD PTR _dly$[ebp]
	mov	edx, DWORD PTR [eax+24]
	imul	edx, DWORD PTR _delay$[ebp]
	sar	edx, 8
	add	ecx, edx
	mov	DWORD PTR _val$1[ebp], ecx

; 496  : 			val = CLIP( val );

	cmp	DWORD PTR _val$1[ebp], 32760		; 00007ff8H
	jle	SHORT $LN14@DLY_DoDela
	mov	DWORD PTR tv92[ebp], 32760		; 00007ff8H
	jmp	SHORT $LN15@DLY_DoDela
$LN14@DLY_DoDela:
	cmp	DWORD PTR _val$1[ebp], -32760		; ffff8008H
	jge	SHORT $LN12@DLY_DoDela
	mov	DWORD PTR tv91[ebp], -32760		; ffff8008H
	jmp	SHORT $LN13@DLY_DoDela
$LN12@DLY_DoDela:
	mov	eax, DWORD PTR _val$1[ebp]
	mov	DWORD PTR tv91[ebp], eax
$LN13@DLY_DoDela:
	mov	ecx, DWORD PTR tv91[ebp]
	mov	DWORD PTR tv92[ebp], ecx
$LN15@DLY_DoDela:
	mov	edx, DWORD PTR tv92[ebp]
	mov	DWORD PTR _val$1[ebp], edx

; 497  : 
; 498  : 			if( dly->lp ) // lowpass

	mov	eax, DWORD PTR _dly$[ebp]
	cmp	DWORD PTR [eax+28], 0
	je	SHORT $LN10@DLY_DoDela

; 499  : 			{
; 500  : 				dly->lp0 = dly->lp1;

	mov	eax, DWORD PTR _dly$[ebp]
	mov	ecx, DWORD PTR _dly$[ebp]
	mov	edx, DWORD PTR [ecx+36]
	mov	DWORD PTR [eax+32], edx

; 501  : 				dly->lp1 = val;

	mov	eax, DWORD PTR _dly$[ebp]
	mov	ecx, DWORD PTR _val$1[ebp]
	mov	DWORD PTR [eax+36], ecx

; 502  : 				val = ( dly->lp0 + dly->lp1 + (val << 1) ) >> 2;

	mov	eax, DWORD PTR _dly$[ebp]
	mov	ecx, DWORD PTR [eax+32]
	mov	edx, DWORD PTR _dly$[ebp]
	add	ecx, DWORD PTR [edx+36]
	mov	eax, DWORD PTR _val$1[ebp]
	lea	ecx, DWORD PTR [ecx+eax*2]
	sar	ecx, 2
	mov	DWORD PTR _val$1[ebp], ecx
$LN10@DLY_DoDela:

; 503  : 			}
; 504  : 
; 505  : 			dly->lpdelayline[dly->idelayinput] = val;

	mov	eax, DWORD PTR _dly$[ebp]
	mov	ecx, DWORD PTR [eax+4]
	mov	edx, DWORD PTR _dly$[ebp]
	mov	eax, DWORD PTR [edx+52]
	mov	edx, DWORD PTR _val$1[ebp]
	mov	DWORD PTR [eax+ecx*4], edx

; 506  : 
; 507  : 			val >>= 2;

	mov	eax, DWORD PTR _val$1[ebp]
	sar	eax, 2
	mov	DWORD PTR _val$1[ebp], eax

; 508  : 
; 509  : 			paint->left = CLIP( paint->left + val );

	mov	eax, DWORD PTR _paint$[ebp]
	mov	ecx, DWORD PTR [eax]
	add	ecx, DWORD PTR _val$1[ebp]
	cmp	ecx, 32760				; 00007ff8H
	jle	SHORT $LN18@DLY_DoDela
	mov	DWORD PTR tv151[ebp], 32760		; 00007ff8H
	jmp	SHORT $LN19@DLY_DoDela
$LN18@DLY_DoDela:
	mov	edx, DWORD PTR _paint$[ebp]
	mov	eax, DWORD PTR [edx]
	add	eax, DWORD PTR _val$1[ebp]
	cmp	eax, -32760				; ffff8008H
	jge	SHORT $LN16@DLY_DoDela
	mov	DWORD PTR tv150[ebp], -32760		; ffff8008H
	jmp	SHORT $LN17@DLY_DoDela
$LN16@DLY_DoDela:
	mov	ecx, DWORD PTR _paint$[ebp]
	mov	edx, DWORD PTR [ecx]
	add	edx, DWORD PTR _val$1[ebp]
	mov	DWORD PTR tv150[ebp], edx
$LN17@DLY_DoDela:
	mov	eax, DWORD PTR tv150[ebp]
	mov	DWORD PTR tv151[ebp], eax
$LN19@DLY_DoDela:
	mov	ecx, DWORD PTR _paint$[ebp]
	mov	edx, DWORD PTR tv151[ebp]
	mov	DWORD PTR [ecx], edx

; 510  : 			paint->right = CLIP( paint->right + val );

	mov	eax, DWORD PTR _paint$[ebp]
	mov	ecx, DWORD PTR [eax+4]
	add	ecx, DWORD PTR _val$1[ebp]
	cmp	ecx, 32760				; 00007ff8H
	jle	SHORT $LN22@DLY_DoDela
	mov	DWORD PTR tv162[ebp], 32760		; 00007ff8H
	jmp	SHORT $LN23@DLY_DoDela
$LN22@DLY_DoDela:
	mov	edx, DWORD PTR _paint$[ebp]
	mov	eax, DWORD PTR [edx+4]
	add	eax, DWORD PTR _val$1[ebp]
	cmp	eax, -32760				; ffff8008H
	jge	SHORT $LN20@DLY_DoDela
	mov	DWORD PTR tv161[ebp], -32760		; ffff8008H
	jmp	SHORT $LN21@DLY_DoDela
$LN20@DLY_DoDela:
	mov	ecx, DWORD PTR _paint$[ebp]
	mov	edx, DWORD PTR [ecx+4]
	add	edx, DWORD PTR _val$1[ebp]
	mov	DWORD PTR tv161[ebp], edx
$LN21@DLY_DoDela:
	mov	eax, DWORD PTR tv161[ebp]
	mov	DWORD PTR tv162[ebp], eax
$LN23@DLY_DoDela:
	mov	ecx, DWORD PTR _paint$[ebp]
	mov	edx, DWORD PTR tv162[ebp]
	mov	DWORD PTR [ecx+4], edx

; 511  : 		}

	jmp	SHORT $LN8@DLY_DoDela
$LN7@DLY_DoDela:

; 512  : 		else
; 513  : 		{
; 514  : 			dly->lpdelayline[dly->idelayinput] = 0;

	mov	eax, DWORD PTR _dly$[ebp]
	mov	ecx, DWORD PTR [eax+4]
	mov	edx, DWORD PTR _dly$[ebp]
	mov	eax, DWORD PTR [edx+52]
	mov	DWORD PTR [eax+ecx*4], 0

; 515  : 			dly->lp0 = dly->lp1 = 0;

	mov	eax, DWORD PTR _dly$[ebp]
	mov	DWORD PTR [eax+36], 0
	mov	ecx, DWORD PTR _dly$[ebp]
	mov	DWORD PTR [ecx+32], 0
$LN8@DLY_DoDela:

; 516  : 		}
; 517  : 
; 518  : 		DLY_MovePointer( dly );

	mov	eax, DWORD PTR _dly$[ebp]
	push	eax
	call	_DLY_MovePointer
	add	esp, 4

; 519  : 	}

	jmp	$LN2@DLY_DoDela
$LN1@DLY_DoDela:

; 520  : }

	pop	edi
	pop	esi
	pop	ebx
	mov	esp, ebp
	pop	ebp
	ret	0
_DLY_DoDelay ENDP
_TEXT	ENDS
; Function compile flags: /Odtp /ZI
; File D:\DevDragon\XashFE\dev\src\engine\client\s_dsp.c
;	COMDAT _DLY_CheckNewDelayVal
_TEXT	SEGMENT
tv73 = -76						; size = 4
_dly$ = -8						; size = 4
_delay$ = -4						; size = 4
_DLY_CheckNewDelayVal PROC				; COMDAT

; 432  : {

	push	ebp
	mov	ebp, esp
	sub	esp, 76					; 0000004cH
	push	ebx
	push	esi
	push	edi

; 433  : 	float		delay = sxdly_delay->value;

	mov	eax, DWORD PTR _sxdly_delay
	movss	xmm0, DWORD PTR [eax+12]
	movss	DWORD PTR _delay$[ebp], xmm0

; 434  : 	dly_t *const	dly = &rgsxdly[MONODLY];

	mov	eax, 56					; 00000038H
	imul	ecx, eax, 0
	add	ecx, OFFSET _rgsxdly
	mov	DWORD PTR _dly$[ebp], ecx

; 435  : 
; 436  : 	if( FBitSet( sxdly_delay->flags, FCVAR_CHANGED ))

	mov	eax, DWORD PTR _sxdly_delay
	mov	ecx, DWORD PTR [eax+8]
	and	ecx, 8192				; 00002000H
	je	$LN7@DLY_CheckN

; 437  : 	{
; 438  : 		if( delay == 0 )

	movss	xmm0, DWORD PTR _delay$[ebp]
	ucomiss	xmm0, DWORD PTR __real@00000000
	lahf
	test	ah, 68					; 00000044H
	jp	SHORT $LN3@DLY_CheckN

; 439  : 		{
; 440  : 			DLY_Free( MONODLY );

	push	0
	call	_DLY_Free
	add	esp, 4

; 441  : 		}

	jmp	$LN7@DLY_CheckN
$LN3@DLY_CheckN:

; 442  : 		else
; 443  : 		{
; 444  : 			delay = min( delay, MAX_MONO_DELAY );

	movss	xmm0, DWORD PTR __real@3ecccccd
	comiss	xmm0, DWORD PTR _delay$[ebp]
	jbe	SHORT $LN9@DLY_CheckN
	movss	xmm0, DWORD PTR _delay$[ebp]
	movss	DWORD PTR tv73[ebp], xmm0
	jmp	SHORT $LN10@DLY_CheckN
$LN9@DLY_CheckN:
	movss	xmm0, DWORD PTR __real@3ecccccd
	movss	DWORD PTR tv73[ebp], xmm0
$LN10@DLY_CheckN:
	movss	xmm0, DWORD PTR tv73[ebp]
	movss	DWORD PTR _delay$[ebp], xmm0

; 445  : 			dly->delaysamples = (int)(delay * idsp_dma_speed) << sxhires;

	cvtsi2ss xmm0, DWORD PTR _idsp_dma_speed
	mulss	xmm0, DWORD PTR _delay$[ebp]
	cvttss2si eax, xmm0
	mov	ecx, DWORD PTR _sxhires
	shl	eax, cl
	mov	ecx, DWORD PTR _dly$[ebp]
	mov	DWORD PTR [ecx+20], eax

; 446  : 
; 447  : 			// init dly
; 448  : 			if( !dly->lpdelayline )

	mov	eax, DWORD PTR _dly$[ebp]
	cmp	DWORD PTR [eax+52], 0
	jne	SHORT $LN5@DLY_CheckN

; 449  : 				DLY_Init( MONODLY, MAX_MONO_DELAY );

	push	ecx
	movss	xmm0, DWORD PTR __real@3ecccccd
	movss	DWORD PTR [esp], xmm0
	push	0
	call	_DLY_Init
	add	esp, 8
$LN5@DLY_CheckN:

; 450  : 
; 451  : 			if( dly->lpdelayline )

	mov	eax, DWORD PTR _dly$[ebp]
	cmp	DWORD PTR [eax+52], 0
	je	SHORT $LN6@DLY_CheckN

; 452  : 			{
; 453  : 				memset( dly->lpdelayline, 0, dly->cdelaysamplesmax * sizeof( int ) );

	mov	eax, DWORD PTR _dly$[ebp]
	mov	ecx, DWORD PTR [eax]
	shl	ecx, 2
	push	ecx
	push	0
	mov	edx, DWORD PTR _dly$[ebp]
	mov	eax, DWORD PTR [edx+52]
	push	eax
	call	_memset
	add	esp, 12					; 0000000cH

; 454  : 				dly->lp0 = dly->lp1 = dly->lp2 = 0;

	mov	eax, DWORD PTR _dly$[ebp]
	mov	DWORD PTR [eax+40], 0
	mov	ecx, DWORD PTR _dly$[ebp]
	mov	DWORD PTR [ecx+36], 0
	mov	edx, DWORD PTR _dly$[ebp]
	mov	DWORD PTR [edx+32], 0
$LN6@DLY_CheckN:

; 455  : 			}
; 456  : 
; 457  : 			dly->idelayinput = 0;

	mov	eax, DWORD PTR _dly$[ebp]
	mov	DWORD PTR [eax+4], 0

; 458  : 			dly->idelayoutput = dly->cdelaysamplesmax - dly->delaysamples;

	mov	eax, DWORD PTR _dly$[ebp]
	mov	ecx, DWORD PTR _dly$[ebp]
	mov	edx, DWORD PTR [eax]
	sub	edx, DWORD PTR [ecx+20]
	mov	eax, DWORD PTR _dly$[ebp]
	mov	DWORD PTR [eax+8], edx

; 459  : 
; 460  : 			if( !dly->delaysamples )

	mov	eax, DWORD PTR _dly$[ebp]
	cmp	DWORD PTR [eax+20], 0
	jne	SHORT $LN7@DLY_CheckN

; 461  : 				DLY_Free( MONODLY );

	push	0
	call	_DLY_Free
	add	esp, 4
$LN7@DLY_CheckN:

; 462  : 
; 463  : 		}
; 464  : 	}
; 465  : 
; 466  : 	ClearBits( sxdly_delay->flags, FCVAR_CHANGED );

	mov	eax, DWORD PTR _sxdly_delay
	mov	ecx, DWORD PTR [eax+8]
	and	ecx, -8193				; ffffdfffH
	mov	edx, DWORD PTR _sxdly_delay
	mov	DWORD PTR [edx+8], ecx

; 467  : 	dly->lp = sxdly_lp->value;

	mov	eax, DWORD PTR _sxdly_lp
	cvttss2si ecx, DWORD PTR [eax+12]
	mov	edx, DWORD PTR _dly$[ebp]
	mov	DWORD PTR [edx+28], ecx

; 468  : 	dly->delayfeedback = 255 * sxdly_feedback->value;

	mov	eax, DWORD PTR _sxdly_feedback
	movss	xmm0, DWORD PTR __real@437f0000
	mulss	xmm0, DWORD PTR [eax+12]
	cvttss2si ecx, xmm0
	mov	edx, DWORD PTR _dly$[ebp]
	mov	DWORD PTR [edx+24], ecx

; 469  : }

	pop	edi
	pop	esi
	pop	ebx
	mov	esp, ebp
	pop	ebp
	ret	0
_DLY_CheckNewDelayVal ENDP
_TEXT	ENDS
; Function compile flags: /Odtp /ZI
; File D:\DevDragon\XashFE\dev\src\engine\client\s_dsp.c
;	COMDAT _DLY_DoStereoDelay
_TEXT	SEGMENT
tv175 = -88						; size = 4
tv176 = -84						; size = 4
tv162 = -84						; size = 4
tv156 = -84						; size = 4
tv75 = -84						; size = 4
_paint$ = -16						; size = 4
_dly$ = -12						; size = 4
_samplexf$ = -8						; size = 4
_delay$ = -4						; size = 4
_count$ = 8						; size = 4
_DLY_DoStereoDelay PROC					; COMDAT

; 367  : {

	push	ebp
	mov	ebp, esp
	sub	esp, 88					; 00000058H
	push	ebx
	push	esi
	push	edi

; 368  : 	int			delay, samplexf;
; 369  : 	dly_t *const		dly = &rgsxdly[STEREODLY];

	mov	eax, 56					; 00000038H
	imul	ecx, eax, 3
	add	ecx, OFFSET _rgsxdly
	mov	DWORD PTR _dly$[ebp], ecx

; 370  : 	portable_samplepair_t	*paint = paintto;

	mov	eax, DWORD PTR _paintto
	mov	DWORD PTR _paint$[ebp], eax

; 371  : 
; 372  : 	if( !dly->lpdelayline )

	mov	eax, DWORD PTR _dly$[ebp]
	cmp	DWORD PTR [eax+52], 0
	jne	SHORT $LN5@DLY_DoSter

; 373  : 		return; // inactive

	jmp	$LN1@DLY_DoSter
$LN5@DLY_DoSter:

; 374  : 
; 375  : 	for( ; count; count--, paint++ )

	jmp	SHORT $LN4@DLY_DoSter
$LN2@DLY_DoSter:
	mov	eax, DWORD PTR _count$[ebp]
	sub	eax, 1
	mov	DWORD PTR _count$[ebp], eax
	mov	ecx, DWORD PTR _paint$[ebp]
	add	ecx, 8
	mov	DWORD PTR _paint$[ebp], ecx
$LN4@DLY_DoSter:
	cmp	DWORD PTR _count$[ebp], 0
	je	$LN1@DLY_DoSter

; 376  : 	{
; 377  : 		if( dly->mod && --dly->modcur < 0 )

	mov	eax, DWORD PTR _dly$[ebp]
	cmp	DWORD PTR [eax+44], 0
	je	SHORT $LN6@DLY_DoSter
	mov	eax, DWORD PTR _dly$[ebp]
	mov	ecx, DWORD PTR [eax+48]
	sub	ecx, 1
	mov	DWORD PTR tv75[ebp], ecx
	mov	edx, DWORD PTR _dly$[ebp]
	mov	eax, DWORD PTR tv75[ebp]
	mov	DWORD PTR [edx+48], eax
	cmp	DWORD PTR tv75[ebp], 0
	jge	SHORT $LN6@DLY_DoSter

; 378  : 			dly->modcur = dly->mod;

	mov	eax, DWORD PTR _dly$[ebp]
	mov	ecx, DWORD PTR _dly$[ebp]
	mov	edx, DWORD PTR [ecx+44]
	mov	DWORD PTR [eax+48], edx
$LN6@DLY_DoSter:

; 379  : 
; 380  : 		delay = dly->lpdelayline[dly->idelayoutput];

	mov	eax, DWORD PTR _dly$[ebp]
	mov	ecx, DWORD PTR [eax+8]
	mov	edx, DWORD PTR _dly$[ebp]
	mov	eax, DWORD PTR [edx+52]
	mov	ecx, DWORD PTR [eax+ecx*4]
	mov	DWORD PTR _delay$[ebp], ecx

; 381  : 
; 382  : 		// process only if crossfading, active left value or delayline
; 383  : 		if( delay || paint->left || dly->xfade )

	cmp	DWORD PTR _delay$[ebp], 0
	jne	SHORT $LN9@DLY_DoSter
	mov	eax, DWORD PTR _paint$[ebp]
	cmp	DWORD PTR [eax], 0
	jne	SHORT $LN9@DLY_DoSter
	mov	eax, DWORD PTR _dly$[ebp]
	cmp	DWORD PTR [eax+16], 0
	je	$LN7@DLY_DoSter
$LN9@DLY_DoSter:

; 384  : 		{
; 385  : 			// set up new crossfade, if not crossfading, not modulating, but going to
; 386  : 			if( !dly->xfade && !dly->modcur && dly->mod )

	mov	eax, DWORD PTR _dly$[ebp]
	cmp	DWORD PTR [eax+16], 0
	jne	SHORT $LN10@DLY_DoSter
	mov	eax, DWORD PTR _dly$[ebp]
	cmp	DWORD PTR [eax+48], 0
	jne	SHORT $LN10@DLY_DoSter
	mov	eax, DWORD PTR _dly$[ebp]
	cmp	DWORD PTR [eax+44], 0
	je	SHORT $LN10@DLY_DoSter

; 387  : 			{
; 388  : 				dly->idelayoutputxf = dly->idelayoutput + ((COM_RandomLong( 0, 255 ) * dly->delaysamples ) >> 9 );

	push	255					; 000000ffH
	push	0
	call	_COM_RandomLong
	add	esp, 8
	mov	ecx, DWORD PTR _dly$[ebp]
	imul	eax, DWORD PTR [ecx+20]
	sar	eax, 9
	mov	edx, DWORD PTR _dly$[ebp]
	add	eax, DWORD PTR [edx+8]
	mov	ecx, DWORD PTR _dly$[ebp]
	mov	DWORD PTR [ecx+12], eax

; 389  : 
; 390  : 				dly->xfade = 128;

	mov	eax, DWORD PTR _dly$[ebp]
	mov	DWORD PTR [eax+16], 128			; 00000080H
$LN10@DLY_DoSter:

; 391  : 			}
; 392  : 
; 393  : 			dly->idelayoutputxf %= dly->cdelaysamplesmax;

	mov	eax, DWORD PTR _dly$[ebp]
	mov	ecx, DWORD PTR _dly$[ebp]
	mov	eax, DWORD PTR [eax+12]
	xor	edx, edx
	div	DWORD PTR [ecx]
	mov	eax, DWORD PTR _dly$[ebp]
	mov	DWORD PTR [eax+12], edx

; 394  : 
; 395  : 			// modify delay, if crossfading
; 396  : 			if( dly->xfade )

	mov	eax, DWORD PTR _dly$[ebp]
	cmp	DWORD PTR [eax+16], 0
	je	$LN11@DLY_DoSter

; 397  : 			{
; 398  : 				samplexf = dly->lpdelayline[dly->idelayoutputxf] * (128 - dly->xfade) >> 7;

	mov	eax, DWORD PTR _dly$[ebp]
	mov	ecx, DWORD PTR [eax+12]
	mov	edx, DWORD PTR _dly$[ebp]
	mov	eax, DWORD PTR [edx+52]
	mov	edx, DWORD PTR _dly$[ebp]
	mov	esi, 128				; 00000080H
	sub	esi, DWORD PTR [edx+16]
	imul	esi, DWORD PTR [eax+ecx*4]
	sar	esi, 7
	mov	DWORD PTR _samplexf$[ebp], esi

; 399  : 				delay = samplexf + ((delay * dly->xfade) >> 7);

	mov	eax, DWORD PTR _dly$[ebp]
	mov	ecx, DWORD PTR _delay$[ebp]
	imul	ecx, DWORD PTR [eax+16]
	sar	ecx, 7
	add	ecx, DWORD PTR _samplexf$[ebp]
	mov	DWORD PTR _delay$[ebp], ecx

; 400  : 
; 401  : 				if( ++dly->idelayoutputxf >= dly->cdelaysamplesmax )

	mov	eax, DWORD PTR _dly$[ebp]
	mov	ecx, DWORD PTR [eax+12]
	add	ecx, 1
	mov	DWORD PTR tv156[ebp], ecx
	mov	edx, DWORD PTR _dly$[ebp]
	mov	eax, DWORD PTR tv156[ebp]
	mov	DWORD PTR [edx+12], eax
	mov	ecx, DWORD PTR _dly$[ebp]
	mov	edx, DWORD PTR tv156[ebp]
	cmp	edx, DWORD PTR [ecx]
	jb	SHORT $LN12@DLY_DoSter

; 402  : 					dly->idelayoutputxf = 0;

	mov	eax, DWORD PTR _dly$[ebp]
	mov	DWORD PTR [eax+12], 0
$LN12@DLY_DoSter:

; 403  : 
; 404  : 				if( --dly->xfade == 0 )

	mov	eax, DWORD PTR _dly$[ebp]
	mov	ecx, DWORD PTR [eax+16]
	sub	ecx, 1
	mov	DWORD PTR tv162[ebp], ecx
	mov	edx, DWORD PTR _dly$[ebp]
	mov	eax, DWORD PTR tv162[ebp]
	mov	DWORD PTR [edx+16], eax
	cmp	DWORD PTR tv162[ebp], 0
	jne	SHORT $LN11@DLY_DoSter

; 405  : 					dly->idelayoutput = dly->idelayoutputxf;

	mov	eax, DWORD PTR _dly$[ebp]
	mov	ecx, DWORD PTR _dly$[ebp]
	mov	edx, DWORD PTR [ecx+12]
	mov	DWORD PTR [eax+8], edx
$LN11@DLY_DoSter:

; 406  : 			}
; 407  : 
; 408  : 			// save left value to delay line
; 409  : 			dly->lpdelayline[dly->idelayinput] = CLIP( paint->left );

	mov	eax, DWORD PTR _paint$[ebp]
	cmp	DWORD PTR [eax], 32760			; 00007ff8H
	jle	SHORT $LN17@DLY_DoSter
	mov	DWORD PTR tv176[ebp], 32760		; 00007ff8H
	jmp	SHORT $LN18@DLY_DoSter
$LN17@DLY_DoSter:
	mov	ecx, DWORD PTR _paint$[ebp]
	cmp	DWORD PTR [ecx], -32760			; ffff8008H
	jge	SHORT $LN15@DLY_DoSter
	mov	DWORD PTR tv175[ebp], -32760		; ffff8008H
	jmp	SHORT $LN16@DLY_DoSter
$LN15@DLY_DoSter:
	mov	edx, DWORD PTR _paint$[ebp]
	mov	eax, DWORD PTR [edx]
	mov	DWORD PTR tv175[ebp], eax
$LN16@DLY_DoSter:
	mov	ecx, DWORD PTR tv175[ebp]
	mov	DWORD PTR tv176[ebp], ecx
$LN18@DLY_DoSter:
	mov	edx, DWORD PTR _dly$[ebp]
	mov	eax, DWORD PTR [edx+4]
	mov	ecx, DWORD PTR _dly$[ebp]
	mov	edx, DWORD PTR [ecx+52]
	mov	ecx, DWORD PTR tv176[ebp]
	mov	DWORD PTR [edx+eax*4], ecx

; 410  : 
; 411  : 			// paint new delay value
; 412  : 			paint->left = delay;

	mov	eax, DWORD PTR _paint$[ebp]
	mov	ecx, DWORD PTR _delay$[ebp]
	mov	DWORD PTR [eax], ecx

; 413  : 		}

	jmp	SHORT $LN8@DLY_DoSter
$LN7@DLY_DoSter:

; 414  : 		else
; 415  : 		{
; 416  : 			// clear delay line
; 417  : 			dly->lpdelayline[dly->idelayinput] = 0;

	mov	eax, DWORD PTR _dly$[ebp]
	mov	ecx, DWORD PTR [eax+4]
	mov	edx, DWORD PTR _dly$[ebp]
	mov	eax, DWORD PTR [edx+52]
	mov	DWORD PTR [eax+ecx*4], 0
$LN8@DLY_DoSter:

; 418  :                     }
; 419  : 
; 420  : 		DLY_MovePointer( dly );

	mov	eax, DWORD PTR _dly$[ebp]
	push	eax
	call	_DLY_MovePointer
	add	esp, 4

; 421  : 	}

	jmp	$LN2@DLY_DoSter
$LN1@DLY_DoSter:

; 422  : }

	pop	edi
	pop	esi
	pop	ebx
	mov	esp, ebp
	pop	ebp
	ret	0
_DLY_DoStereoDelay ENDP
_TEXT	ENDS
; Function compile flags: /Odtp /ZI
; File D:\DevDragon\XashFE\dev\src\engine\client\s_dsp.c
;	COMDAT _DLY_CheckNewStereoDelayVal
_TEXT	SEGMENT
tv73 = -80						; size = 4
_samples$1 = -12					; size = 4
_delay$ = -8						; size = 4
_dly$ = -4						; size = 4
_DLY_CheckNewStereoDelayVal PROC			; COMDAT

; 317  : {

	push	ebp
	mov	ebp, esp
	sub	esp, 80					; 00000050H
	push	ebx
	push	esi
	push	edi

; 318  : 	dly_t *const	dly = &rgsxdly[STEREODLY];

	mov	eax, 56					; 00000038H
	imul	ecx, eax, 3
	add	ecx, OFFSET _rgsxdly
	mov	DWORD PTR _dly$[ebp], ecx

; 319  : 	float		delay = sxste_delay->value;

	mov	eax, DWORD PTR _sxste_delay
	movss	xmm0, DWORD PTR [eax+12]
	movss	DWORD PTR _delay$[ebp], xmm0

; 320  : 
; 321  : 	if( !FBitSet( sxste_delay->flags, FCVAR_CHANGED ))

	mov	eax, DWORD PTR _sxste_delay
	mov	ecx, DWORD PTR [eax+8]
	and	ecx, 8192				; 00002000H
	jne	SHORT $LN2@DLY_CheckN

; 322  : 		return;

	jmp	$LN1@DLY_CheckN
$LN2@DLY_CheckN:

; 323  : 
; 324  : 	if( delay == 0 )

	movss	xmm0, DWORD PTR _delay$[ebp]
	ucomiss	xmm0, DWORD PTR __real@00000000
	lahf
	test	ah, 68					; 00000044H
	jp	SHORT $LN3@DLY_CheckN

; 325  : 	{
; 326  : 		DLY_Free( STEREODLY );

	push	3
	call	_DLY_Free
	add	esp, 4

; 327  : 	}

	jmp	$LN8@DLY_CheckN
$LN3@DLY_CheckN:

; 328  : 	else
; 329  : 	{
; 330  : 		int	samples;
; 331  : 
; 332  : 		delay = Q_min( delay, MAX_STEREO_DELAY );

	movss	xmm0, DWORD PTR __real@3dcccccd
	comiss	xmm0, DWORD PTR _delay$[ebp]
	jbe	SHORT $LN10@DLY_CheckN
	movss	xmm0, DWORD PTR _delay$[ebp]
	movss	DWORD PTR tv73[ebp], xmm0
	jmp	SHORT $LN11@DLY_CheckN
$LN10@DLY_CheckN:
	movss	xmm0, DWORD PTR __real@3dcccccd
	movss	DWORD PTR tv73[ebp], xmm0
$LN11@DLY_CheckN:
	movss	xmm0, DWORD PTR tv73[ebp]
	movss	DWORD PTR _delay$[ebp], xmm0

; 333  : 		samples = (int)(delay * idsp_dma_speed) << sxhires;

	cvtsi2ss xmm0, DWORD PTR _idsp_dma_speed
	mulss	xmm0, DWORD PTR _delay$[ebp]
	cvttss2si eax, xmm0
	mov	ecx, DWORD PTR _sxhires
	shl	eax, cl
	mov	DWORD PTR _samples$1[ebp], eax

; 334  : 
; 335  : 		// re-init dly
; 336  : 		if( !dly->lpdelayline )

	mov	eax, DWORD PTR _dly$[ebp]
	cmp	DWORD PTR [eax+52], 0
	jne	SHORT $LN5@DLY_CheckN

; 337  : 		{
; 338  : 			dly->delaysamples = samples;

	mov	eax, DWORD PTR _dly$[ebp]
	mov	ecx, DWORD PTR _samples$1[ebp]
	mov	DWORD PTR [eax+20], ecx

; 339  : 			DLY_Init( STEREODLY, MAX_STEREO_DELAY );

	push	ecx
	movss	xmm0, DWORD PTR __real@3dcccccd
	movss	DWORD PTR [esp], xmm0
	push	3
	call	_DLY_Init
	add	esp, 8
$LN5@DLY_CheckN:

; 340  : 		}
; 341  : 
; 342  : 		if( dly->delaysamples != samples )

	mov	eax, DWORD PTR _dly$[ebp]
	mov	ecx, DWORD PTR [eax+20]
	cmp	ecx, DWORD PTR _samples$1[ebp]
	je	SHORT $LN7@DLY_CheckN

; 343  : 		{
; 344  : 			dly->xfade = 128;

	mov	eax, DWORD PTR _dly$[ebp]
	mov	DWORD PTR [eax+16], 128			; 00000080H

; 345  : 			dly->idelayoutputxf = dly->idelayinput - samples;

	mov	eax, DWORD PTR _dly$[ebp]
	mov	ecx, DWORD PTR [eax+4]
	sub	ecx, DWORD PTR _samples$1[ebp]
	mov	edx, DWORD PTR _dly$[ebp]
	mov	DWORD PTR [edx+12], ecx

; 346  : 			if( dly->idelayoutputxf < 0 )

	mov	eax, DWORD PTR _dly$[ebp]
	cmp	DWORD PTR [eax+12], 0
	jae	SHORT $LN7@DLY_CheckN

; 347  : 				dly->idelayoutputxf += dly->cdelaysamplesmax;

	mov	eax, DWORD PTR _dly$[ebp]
	mov	ecx, DWORD PTR [eax+12]
	mov	edx, DWORD PTR _dly$[ebp]
	add	ecx, DWORD PTR [edx]
	mov	eax, DWORD PTR _dly$[ebp]
	mov	DWORD PTR [eax+12], ecx
$LN7@DLY_CheckN:

; 348  : 		}
; 349  : 
; 350  : 		dly->modcur = dly->mod = 0;

	mov	eax, DWORD PTR _dly$[ebp]
	mov	DWORD PTR [eax+44], 0
	mov	ecx, DWORD PTR _dly$[ebp]
	mov	DWORD PTR [ecx+48], 0

; 351  : 
; 352  : 		if( dly->delaysamples == 0 )

	mov	eax, DWORD PTR _dly$[ebp]
	cmp	DWORD PTR [eax+20], 0
	jne	SHORT $LN8@DLY_CheckN

; 353  : 			DLY_Free( STEREODLY );

	push	3
	call	_DLY_Free
	add	esp, 4
$LN8@DLY_CheckN:

; 354  : 	}
; 355  : 
; 356  : 	ClearBits( sxste_delay->flags, FCVAR_CHANGED );

	mov	eax, DWORD PTR _sxste_delay
	mov	ecx, DWORD PTR [eax+8]
	and	ecx, -8193				; ffffdfffH
	mov	edx, DWORD PTR _sxste_delay
	mov	DWORD PTR [edx+8], ecx
$LN1@DLY_CheckN:

; 357  : }

	pop	edi
	pop	esi
	pop	ebx
	mov	esp, ebp
	pop	ebp
	ret	0
_DLY_CheckNewStereoDelayVal ENDP
_TEXT	ENDS
; Function compile flags: /Odtp /ZI
; File D:\DevDragon\XashFE\dev\src\engine\client\s_dsp.c
;	COMDAT _DLY_MovePointer
_TEXT	SEGMENT
tv72 = -68						; size = 4
tv66 = -68						; size = 4
_dly$ = 8						; size = 4
_DLY_MovePointer PROC					; COMDAT

; 301  : {

	push	ebp
	mov	ebp, esp
	sub	esp, 68					; 00000044H
	push	ebx
	push	esi
	push	edi

; 302  : 	if( ++dly->idelayinput >= dly->cdelaysamplesmax )

	mov	eax, DWORD PTR _dly$[ebp]
	mov	ecx, DWORD PTR [eax+4]
	add	ecx, 1
	mov	DWORD PTR tv66[ebp], ecx
	mov	edx, DWORD PTR _dly$[ebp]
	mov	eax, DWORD PTR tv66[ebp]
	mov	DWORD PTR [edx+4], eax
	mov	ecx, DWORD PTR _dly$[ebp]
	mov	edx, DWORD PTR tv66[ebp]
	cmp	edx, DWORD PTR [ecx]
	jb	SHORT $LN2@DLY_MovePo

; 303  : 		dly->idelayinput = 0;

	mov	eax, DWORD PTR _dly$[ebp]
	mov	DWORD PTR [eax+4], 0
$LN2@DLY_MovePo:

; 304  : 
; 305  : 	if( ++dly->idelayoutput >= dly->cdelaysamplesmax )

	mov	eax, DWORD PTR _dly$[ebp]
	mov	ecx, DWORD PTR [eax+8]
	add	ecx, 1
	mov	DWORD PTR tv72[ebp], ecx
	mov	edx, DWORD PTR _dly$[ebp]
	mov	eax, DWORD PTR tv72[ebp]
	mov	DWORD PTR [edx+8], eax
	mov	ecx, DWORD PTR _dly$[ebp]
	mov	edx, DWORD PTR tv72[ebp]
	cmp	edx, DWORD PTR [ecx]
	jb	SHORT $LN1@DLY_MovePo

; 306  : 		dly->idelayoutput = 0;

	mov	eax, DWORD PTR _dly$[ebp]
	mov	DWORD PTR [eax+8], 0
$LN1@DLY_MovePo:

; 307  : }

	pop	edi
	pop	esi
	pop	ebx
	mov	esp, ebp
	pop	ebp
	ret	0
_DLY_MovePointer ENDP
_TEXT	ENDS
; Function compile flags: /Odtp /ZI
; File D:\DevDragon\XashFE\dev\src\engine\client\s_dsp.c
;	COMDAT _DLY_Init
_TEXT	SEGMENT
tv80 = -72						; size = 4
tv71 = -72						; size = 4
_cur$ = -4						; size = 4
_idelay$ = 8						; size = 4
_delay$ = 12						; size = 4
_DLY_Init PROC						; COMDAT

; 265  : {

	push	ebp
	mov	ebp, esp
	sub	esp, 72					; 00000048H
	push	ebx
	push	esi
	push	edi

; 266  : 	dly_t	*cur;
; 267  : 
; 268  : 	// DLY_Init called anytime with constants. So valid it in debug builds only.
; 269  : 	Assert( idelay >= 0 && idelay < MAXDLY );

	cmp	DWORD PTR _idelay$[ebp], 0
	jl	SHORT $LN3@DLY_Init
	cmp	DWORD PTR _idelay$[ebp], 4
	jge	SHORT $LN3@DLY_Init
	mov	DWORD PTR tv71[ebp], 1
	jmp	SHORT $LN4@DLY_Init
$LN3@DLY_Init:
	mov	DWORD PTR tv71[ebp], 0
$LN4@DLY_Init:
	push	0
	mov	eax, DWORD PTR ?__LINE__Var@?0??DLY_Init@@9@9
	add	eax, 4
	push	eax
	push	OFFSET ??_C@_0DC@EAHKHPGF@D?3?2DevDragon?2XashFE?2dev?2src?2eng@
	push	OFFSET ??_C@_0BP@FMOOONEG@idelay?5?$DO?$DN?50?5?$CG?$CG?5idelay?5?$DM?5MAXDLY@
	mov	ecx, DWORD PTR tv71[ebp]
	push	ecx
	call	_DBG_AssertFunction
	add	esp, 20					; 00000014H

; 270  : 	Assert( delay > 0.0f && delay <= MAX_DELAY );

	movss	xmm0, DWORD PTR _delay$[ebp]
	comiss	xmm0, DWORD PTR __real@00000000
	jbe	SHORT $LN5@DLY_Init
	movss	xmm0, DWORD PTR __real@3ecccccd
	comiss	xmm0, DWORD PTR _delay$[ebp]
	jb	SHORT $LN5@DLY_Init
	mov	DWORD PTR tv80[ebp], 1
	jmp	SHORT $LN6@DLY_Init
$LN5@DLY_Init:
	mov	DWORD PTR tv80[ebp], 0
$LN6@DLY_Init:
	push	0
	mov	eax, DWORD PTR ?__LINE__Var@?0??DLY_Init@@9@9
	add	eax, 5
	push	eax
	push	OFFSET ??_C@_0DC@EAHKHPGF@D?3?2DevDragon?2XashFE?2dev?2src?2eng@
	push	OFFSET ??_C@_0CD@BPGODPAP@delay?5?$DO?50?40f?5?$CG?$CG?5delay?5?$DM?$DN?5MAX_DE@
	mov	ecx, DWORD PTR tv80[ebp]
	push	ecx
	call	_DBG_AssertFunction
	add	esp, 20					; 00000014H

; 271  : 
; 272  : 	DLY_Free( idelay ); // free dly if it's allocated

	mov	eax, DWORD PTR _idelay$[ebp]
	push	eax
	call	_DLY_Free
	add	esp, 4

; 273  : 
; 274  : 	cur = &rgsxdly[idelay];

	imul	eax, DWORD PTR _idelay$[ebp], 56
	add	eax, OFFSET _rgsxdly
	mov	DWORD PTR _cur$[ebp], eax

; 275  : 	cur->cdelaysamplesmax = ((int)(delay * idsp_dma_speed) << sxhires) + 1;

	cvtsi2ss xmm0, DWORD PTR _idsp_dma_speed
	mulss	xmm0, DWORD PTR _delay$[ebp]
	cvttss2si eax, xmm0
	mov	ecx, DWORD PTR _sxhires
	shl	eax, cl
	add	eax, 1
	mov	ecx, DWORD PTR _cur$[ebp]
	mov	DWORD PTR [ecx], eax

; 276  : 	cur->lpdelayline = (int *)Z_Calloc( cur->cdelaysamplesmax * sizeof( int ));

	mov	eax, DWORD PTR ?__LINE__Var@?0??DLY_Init@@9@9
	add	eax, 11					; 0000000bH
	push	eax
	push	OFFSET ??_C@_0DC@EAHKHPGF@D?3?2DevDragon?2XashFE?2dev?2src?2eng@
	push	1
	mov	ecx, DWORD PTR _cur$[ebp]
	mov	edx, DWORD PTR [ecx]
	shl	edx, 2
	push	edx
	mov	eax, DWORD PTR _host+236
	push	eax
	call	__Mem_Alloc
	add	esp, 20					; 00000014H
	mov	ecx, DWORD PTR _cur$[ebp]
	mov	DWORD PTR [ecx+52], eax

; 277  : 	cur->xfade = 0;

	mov	eax, DWORD PTR _cur$[ebp]
	mov	DWORD PTR [eax+16], 0

; 278  : 
; 279  : 	// init modulation
; 280  : 	cur->mod = cur->modcur = 0;

	mov	eax, DWORD PTR _cur$[ebp]
	mov	DWORD PTR [eax+48], 0
	mov	ecx, DWORD PTR _cur$[ebp]
	mov	DWORD PTR [ecx+44], 0

; 281  : 
; 282  : 	// init lowpass
; 283  : 	cur->lp = 1;

	mov	eax, DWORD PTR _cur$[ebp]
	mov	DWORD PTR [eax+28], 1

; 284  : 	cur->lp0 = cur->lp1 = cur->lp2 = 0;

	mov	eax, DWORD PTR _cur$[ebp]
	mov	DWORD PTR [eax+40], 0
	mov	ecx, DWORD PTR _cur$[ebp]
	mov	DWORD PTR [ecx+36], 0
	mov	edx, DWORD PTR _cur$[ebp]
	mov	DWORD PTR [edx+32], 0

; 285  : 
; 286  : 	cur->idelayinput = 0;

	mov	eax, DWORD PTR _cur$[ebp]
	mov	DWORD PTR [eax+4], 0

; 287  : 	cur->idelayoutput = cur->cdelaysamplesmax - cur->delaysamples; // NOTE: delaysamples must be set!!!

	mov	eax, DWORD PTR _cur$[ebp]
	mov	ecx, DWORD PTR _cur$[ebp]
	mov	edx, DWORD PTR [eax]
	sub	edx, DWORD PTR [ecx+20]
	mov	eax, DWORD PTR _cur$[ebp]
	mov	DWORD PTR [eax+8], edx

; 288  : 
; 289  : 
; 290  : 	return 1;

	mov	eax, 1

; 291  : }

	pop	edi
	pop	esi
	pop	ebx
	mov	esp, ebp
	pop	ebp
	ret	0
_DLY_Init ENDP
_TEXT	ENDS
; Function compile flags: /Odtp /ZI
; File D:\DevDragon\XashFE\dev\src\engine\client\s_dsp.c
;	COMDAT _DLY_Free
_TEXT	SEGMENT
tv71 = -68						; size = 4
_idelay$ = 8						; size = 4
_DLY_Free PROC						; COMDAT

; 229  : {

	push	ebp
	mov	ebp, esp
	sub	esp, 68					; 00000044H
	push	ebx
	push	esi
	push	edi

; 230  : 	Assert( idelay >= 0 && idelay < MAXDLY );

	cmp	DWORD PTR _idelay$[ebp], 0
	jl	SHORT $LN5@DLY_Free
	cmp	DWORD PTR _idelay$[ebp], 4
	jge	SHORT $LN5@DLY_Free
	mov	DWORD PTR tv71[ebp], 1
	jmp	SHORT $LN6@DLY_Free
$LN5@DLY_Free:
	mov	DWORD PTR tv71[ebp], 0
$LN6@DLY_Free:
	push	0
	mov	eax, DWORD PTR ?__LINE__Var@?0??DLY_Free@@9@9
	add	eax, 1
	push	eax
	push	OFFSET ??_C@_0DC@EAHKHPGF@D?3?2DevDragon?2XashFE?2dev?2src?2eng@
	push	OFFSET ??_C@_0BP@FMOOONEG@idelay?5?$DO?$DN?50?5?$CG?$CG?5idelay?5?$DM?5MAXDLY@
	mov	ecx, DWORD PTR tv71[ebp]
	push	ecx
	call	_DBG_AssertFunction
	add	esp, 20					; 00000014H

; 231  : 
; 232  : 	if( rgsxdly[idelay].lpdelayline )

	imul	eax, DWORD PTR _idelay$[ebp], 56
	cmp	DWORD PTR _rgsxdly[eax+52], 0
	je	SHORT $LN1@DLY_Free

; 233  : 	{
; 234  : 		Z_Free( rgsxdly[idelay].lpdelayline );

	imul	eax, DWORD PTR _idelay$[ebp], 56
	cmp	DWORD PTR _rgsxdly[eax+52], 0
	je	SHORT $LN3@DLY_Free
	mov	eax, DWORD PTR ?__LINE__Var@?0??DLY_Free@@9@9
	add	eax, 5
	push	eax
	push	OFFSET ??_C@_0DC@EAHKHPGF@D?3?2DevDragon?2XashFE?2dev?2src?2eng@
	imul	ecx, DWORD PTR _idelay$[ebp], 56
	mov	edx, DWORD PTR _rgsxdly[ecx+52]
	push	edx
	call	__Mem_Free
	add	esp, 12					; 0000000cH
$LN3@DLY_Free:

; 235  : 		rgsxdly[idelay].lpdelayline = NULL;

	imul	eax, DWORD PTR _idelay$[ebp], 56
	mov	DWORD PTR _rgsxdly[eax+52], 0
$LN1@DLY_Free:

; 236  : 	}
; 237  : }

	pop	edi
	pop	esi
	pop	ebx
	mov	esp, ebp
	pop	ebp
	ret	0
_DLY_Free ENDP
_TEXT	ENDS
; Function compile flags: /Odtp /ZI
; File D:\DevDragon\XashFE\dev\src\engine\client\s_dsp.c
;	COMDAT _SX_ReloadRoomFX
_TEXT	SEGMENT
_SX_ReloadRoomFX PROC					; COMDAT

; 166  : {

	push	ebp
	mov	ebp, esp
	sub	esp, 64					; 00000040H
	push	ebx
	push	esi
	push	edi

; 167  : 	if( !dsp_room ) return; // not initialized

	cmp	DWORD PTR _dsp_room, 0
	jne	SHORT $LN2@SX_ReloadR
	jmp	SHORT $LN1@SX_ReloadR
$LN2@SX_ReloadR:

; 168  : 
; 169  : 	SetBits( sxste_delay->flags, FCVAR_CHANGED );

	mov	eax, DWORD PTR _sxste_delay
	mov	ecx, DWORD PTR [eax+8]
	or	ecx, 8192				; 00002000H
	mov	edx, DWORD PTR _sxste_delay
	mov	DWORD PTR [edx+8], ecx

; 170  : 	SetBits( sxrvb_feedback->flags, FCVAR_CHANGED );

	mov	eax, DWORD PTR _sxrvb_feedback
	mov	ecx, DWORD PTR [eax+8]
	or	ecx, 8192				; 00002000H
	mov	edx, DWORD PTR _sxrvb_feedback
	mov	DWORD PTR [edx+8], ecx

; 171  : 	SetBits( sxdly_delay->flags, FCVAR_CHANGED );

	mov	eax, DWORD PTR _sxdly_delay
	mov	ecx, DWORD PTR [eax+8]
	or	ecx, 8192				; 00002000H
	mov	edx, DWORD PTR _sxdly_delay
	mov	DWORD PTR [edx+8], ecx

; 172  : 	SetBits( room_type->flags, FCVAR_CHANGED );

	mov	eax, DWORD PTR _room_type
	mov	ecx, DWORD PTR [eax+8]
	or	ecx, 8192				; 00002000H
	mov	edx, DWORD PTR _room_type
	mov	DWORD PTR [edx+8], ecx
$LN1@SX_ReloadR:

; 173  : }

	pop	edi
	pop	esi
	pop	ebx
	mov	esp, ebp
	pop	ebp
	ret	0
_SX_ReloadRoomFX ENDP
_TEXT	ENDS
; Function compile flags: /Odtp /ZI
; File D:\DevDragon\XashFE\dev\src\engine\client\s_dsp.c
;	COMDAT _SX_Profiling_f
_TEXT	SEGMENT
_calls$ = -4128						; size = 4
_i$ = -4124						; size = 4
_end$ = -4120						; size = 8
_start$ = -4112						; size = 8
_oldroom$ = -4104					; size = 4
_testbuffer$ = -4100					; size = 4096
__$ArrayPad$ = -4					; size = 4
_SX_Profiling_f PROC					; COMDAT

; 871  : {

	push	ebp
	mov	ebp, esp
	mov	eax, 4640				; 00001220H
	call	__chkstk
	mov	eax, DWORD PTR ___security_cookie
	xor	eax, ebp
	mov	DWORD PTR __$ArrayPad$[ebp], eax
	push	ebx
	push	esi
	push	edi

; 872  : 	portable_samplepair_t	testbuffer[512];
; 873  : 	float			oldroom = room_type->value;

	mov	eax, DWORD PTR _room_type
	movss	xmm0, DWORD PTR [eax+12]
	movss	DWORD PTR _oldroom$[ebp], xmm0

; 874  : 	double			start, end;
; 875  : 	int			i, calls;
; 876  : 
; 877  : 	for( i = 0; i < 512; i++ )

	mov	DWORD PTR _i$[ebp], 0
	jmp	SHORT $LN4@SX_Profili
$LN2@SX_Profili:
	mov	eax, DWORD PTR _i$[ebp]
	add	eax, 1
	mov	DWORD PTR _i$[ebp], eax
$LN4@SX_Profili:
	cmp	DWORD PTR _i$[ebp], 512			; 00000200H
	jge	SHORT $LN3@SX_Profili

; 878  : 	{
; 879  : 		testbuffer[i].left = COM_RandomLong( 0, 3000 );

	push	3000					; 00000bb8H
	push	0
	call	_COM_RandomLong
	add	esp, 8
	mov	ecx, DWORD PTR _i$[ebp]
	mov	DWORD PTR _testbuffer$[ebp+ecx*8], eax

; 880  : 		testbuffer[i].right = COM_RandomLong( 0, 3000 );

	push	3000					; 00000bb8H
	push	0
	call	_COM_RandomLong
	add	esp, 8
	mov	ecx, DWORD PTR _i$[ebp]
	mov	DWORD PTR _testbuffer$[ebp+ecx*8+4], eax

; 881  : 	}

	jmp	SHORT $LN2@SX_Profili
$LN3@SX_Profili:

; 882  : 
; 883  : 	if( Cmd_Argc() > 1 )

	call	_Cmd_Argc
	cmp	eax, 1
	jbe	SHORT $LN8@SX_Profili

; 884  : 	{
; 885  : 		Cvar_SetValue( "room_type", Q_atof( Cmd_Argv( 1 )));

	push	1
	call	_Cmd_Argv
	add	esp, 4
	push	eax
	call	_Q_atof
	fstp	DWORD PTR [esp]
	push	OFFSET ??_C@_09CFHPPHOC@room_type@
	call	_Cvar_SetValue
	add	esp, 8

; 886  : 		SX_ReloadRoomFX();

	call	_SX_ReloadRoomFX

; 887  : 		CheckNewDspPresets(); // we just need idsp_room immediately, for message below

	call	_CheckNewDspPresets
$LN8@SX_Profili:

; 888  : 	}
; 889  : 
; 890  : 	Con_Printf( "Profiling 10000 calls to DSP. Sample count is 512, room_type is %i\n", idsp_room );

	mov	eax, DWORD PTR _idsp_room
	push	eax
	push	OFFSET ??_C@_0EE@BLHGIJAN@Profiling?510000?5calls?5to?5DSP?4?5S@
	call	_Con_Printf
	add	esp, 8

; 891  : 
; 892  : 	start = Sys_DoubleTime();

	call	_Sys_DoubleTime
	fstp	QWORD PTR _start$[ebp]

; 893  : 	for( calls = 10000; calls; calls-- )

	mov	DWORD PTR _calls$[ebp], 10000		; 00002710H
	jmp	SHORT $LN7@SX_Profili
$LN5@SX_Profili:
	mov	eax, DWORD PTR _calls$[ebp]
	sub	eax, 1
	mov	DWORD PTR _calls$[ebp], eax
$LN7@SX_Profili:
	cmp	DWORD PTR _calls$[ebp], 0
	je	SHORT $LN6@SX_Profili

; 894  : 	{
; 895  : 		DSP_Process( idsp_room, testbuffer, 512 );

	push	512					; 00000200H
	lea	eax, DWORD PTR _testbuffer$[ebp]
	push	eax
	mov	ecx, DWORD PTR _idsp_room
	push	ecx
	call	_DSP_Process
	add	esp, 12					; 0000000cH

; 896  : 	}

	jmp	SHORT $LN5@SX_Profili
$LN6@SX_Profili:

; 897  : 	end = Sys_DoubleTime();

	call	_Sys_DoubleTime
	fstp	QWORD PTR _end$[ebp]

; 898  : 
; 899  : 	Con_Printf( "----------\nTook %g seconds.\n", end - start );

	movsd	xmm0, QWORD PTR _end$[ebp]
	subsd	xmm0, QWORD PTR _start$[ebp]
	sub	esp, 8
	movsd	QWORD PTR [esp], xmm0
	push	OFFSET ??_C@_0BN@JGDKJGPP@?9?9?9?9?9?9?9?9?9?9?6Took?5?$CFg?5seconds?4?6@
	call	_Con_Printf
	add	esp, 12					; 0000000cH

; 900  : 
; 901  : 	if( Cmd_Argc() > 1 )

	call	_Cmd_Argc
	cmp	eax, 1
	jbe	SHORT $LN9@SX_Profili

; 902  : 	{
; 903  : 		Cvar_SetValue( "room_type", oldroom );

	push	ecx
	movss	xmm0, DWORD PTR _oldroom$[ebp]
	movss	DWORD PTR [esp], xmm0
	push	OFFSET ??_C@_09CFHPPHOC@room_type@
	call	_Cvar_SetValue
	add	esp, 8

; 904  : 		SX_ReloadRoomFX();

	call	_SX_ReloadRoomFX

; 905  : 		CheckNewDspPresets();

	call	_CheckNewDspPresets
$LN9@SX_Profili:

; 906  : 	}
; 907  : }

	pop	edi
	pop	esi
	pop	ebx
	mov	ecx, DWORD PTR __$ArrayPad$[ebp]
	xor	ecx, ebp
	call	@__security_check_cookie@4
	mov	esp, ebp
	pop	ebp
	ret	0
_SX_Profiling_f ENDP
_TEXT	ENDS
; Function compile flags: /Odtp /ZI
; File D:\DevDragon\XashFE\dev\src\engine\client\s_dsp.c
;	COMDAT _DSP_ClearState
_TEXT	SEGMENT
_DSP_ClearState PROC					; COMDAT

; 800  : {

	push	ebp
	mov	ebp, esp
	sub	esp, 64					; 00000040H
	push	ebx
	push	esi
	push	edi

; 801  : 	Cvar_SetValue( "room_type", 0.0f );

	push	ecx
	xorps	xmm0, xmm0
	movss	DWORD PTR [esp], xmm0
	push	OFFSET ??_C@_09CFHPPHOC@room_type@
	call	_Cvar_SetValue
	add	esp, 8

; 802  : 	SX_ReloadRoomFX();

	call	_SX_ReloadRoomFX

; 803  : }

	pop	edi
	pop	esi
	pop	ebx
	mov	esp, ebp
	pop	ebp
	ret	0
_DSP_ClearState ENDP
_TEXT	ENDS
; Function compile flags: /Odtp /ZI
; File D:\DevDragon\XashFE\dev\src\engine\client\s_dsp.c
;	COMDAT _DSP_GetGain
_TEXT	SEGMENT
_idsp$ = 8						; size = 4
_DSP_GetGain PROC					; COMDAT

; 866  : {

	push	ebp
	mov	ebp, esp
	sub	esp, 64					; 00000040H
	push	ebx
	push	esi
	push	edi

; 867  : 	return 1.0f;

	fld1

; 868  : }

	pop	edi
	pop	esi
	pop	ebx
	mov	esp, ebp
	pop	ebp
	ret	0
_DSP_GetGain ENDP
_TEXT	ENDS
; Function compile flags: /Odtp /ZI
; File D:\DevDragon\XashFE\dev\src\engine\client\s_dsp.c
;	COMDAT _DSP_Process
_TEXT	SEGMENT
_idsp$ = 8						; size = 4
_pbfront$ = 12						; size = 4
_sampleCount$ = 16					; size = 4
_DSP_Process PROC					; COMDAT

; 775  : {

	push	ebp
	mov	ebp, esp
	sub	esp, 64					; 00000040H
	push	ebx
	push	esi
	push	edi

; 776  : 	if( dsp_off->value )

	mov	eax, DWORD PTR _dsp_off
	movss	xmm0, DWORD PTR [eax+12]
	ucomiss	xmm0, DWORD PTR __real@00000000
	lahf
	test	ah, 68					; 00000044H
	jnp	SHORT $LN2@DSP_Proces

; 777  : 		return;

	jmp	SHORT $LN1@DSP_Proces
$LN2@DSP_Proces:

; 778  : 
; 779  : 	// don't process DSP while in menu
; 780  : 	if( cls.key_dest == key_menu || !sampleCount )

	cmp	DWORD PTR _cls+36, 2
	je	SHORT $LN4@DSP_Proces
	cmp	DWORD PTR _sampleCount$[ebp], 0
	jne	SHORT $LN3@DSP_Proces
$LN4@DSP_Proces:

; 781  : 		return;

	jmp	SHORT $LN1@DSP_Proces
$LN3@DSP_Proces:

; 782  : 
; 783  : 	// preset is already installed by CheckNewDspPresets
; 784  : 	paintto = pbfront;

	mov	eax, DWORD PTR _pbfront$[ebp]
	mov	DWORD PTR _paintto, eax

; 785  : 
; 786  : 	RVB_DoAMod( sampleCount );

	mov	eax, DWORD PTR _sampleCount$[ebp]
	push	eax
	call	_RVB_DoAMod
	add	esp, 4

; 787  : 	RVB_DoReverb( sampleCount );

	mov	eax, DWORD PTR _sampleCount$[ebp]
	push	eax
	call	_RVB_DoReverb
	add	esp, 4

; 788  : 	DLY_DoDelay( sampleCount );

	mov	eax, DWORD PTR _sampleCount$[ebp]
	push	eax
	call	_DLY_DoDelay
	add	esp, 4

; 789  : 	DLY_DoStereoDelay( sampleCount );

	mov	eax, DWORD PTR _sampleCount$[ebp]
	push	eax
	call	_DLY_DoStereoDelay
	add	esp, 4
$LN1@DSP_Proces:

; 790  : }

	pop	edi
	pop	esi
	pop	ebx
	mov	esp, ebp
	pop	ebp
	ret	0
_DSP_Process ENDP
_TEXT	ENDS
; Function compile flags: /Odtp /ZI
; File D:\DevDragon\XashFE\dev\src\engine\client\s_dsp.c
;	COMDAT _CheckNewDspPresets
_TEXT	SEGMENT
tv74 = -76						; size = 4
tv73 = -72						; size = 4
_cur$1 = -4						; size = 4
_CheckNewDspPresets PROC				; COMDAT

; 813  : {

	push	ebp
	mov	ebp, esp
	sub	esp, 76					; 0000004cH
	push	ebx
	push	esi
	push	edi

; 814  : 	if( dsp_off->value != 0.0f )

	mov	eax, DWORD PTR _dsp_off
	movss	xmm0, DWORD PTR [eax+12]
	ucomiss	xmm0, DWORD PTR __real@00000000
	lahf
	test	ah, 68					; 00000044H
	jnp	SHORT $LN2@CheckNewDs

; 815  : 		return;

	jmp	$LN1@CheckNewDs
$LN2@CheckNewDs:

; 816  : 
; 817  : 	if( s_listener.waterlevel > 2 )

	cmp	DWORD PTR _s_listener+64, 2
	jle	SHORT $LN3@CheckNewDs

; 818  : 		idsp_room = roomwater_type->value;

	mov	eax, DWORD PTR _roomwater_type
	cvttss2si ecx, DWORD PTR [eax+12]
	mov	DWORD PTR _idsp_room, ecx
	jmp	SHORT $LN4@CheckNewDs
$LN3@CheckNewDs:

; 819  : 	else idsp_room = room_type->value;

	mov	eax, DWORD PTR _room_type
	cvttss2si ecx, DWORD PTR [eax+12]
	mov	DWORD PTR _idsp_room, ecx
$LN4@CheckNewDs:

; 820  : 
; 821  : 	// don't pass invalid presets
; 822  : 	idsp_room = bound( 0, idsp_room, MAXPRESETS - 1 );

	cmp	DWORD PTR _idsp_room, 0
	jl	SHORT $LN12@CheckNewDs
	cmp	DWORD PTR _idsp_room, 28		; 0000001cH
	jge	SHORT $LN10@CheckNewDs
	mov	eax, DWORD PTR _idsp_room
	mov	DWORD PTR tv73[ebp], eax
	jmp	SHORT $LN11@CheckNewDs
$LN10@CheckNewDs:
	mov	DWORD PTR tv73[ebp], 28			; 0000001cH
$LN11@CheckNewDs:
	mov	ecx, DWORD PTR tv73[ebp]
	mov	DWORD PTR tv74[ebp], ecx
	jmp	SHORT $LN13@CheckNewDs
$LN12@CheckNewDs:
	mov	DWORD PTR tv74[ebp], 0
$LN13@CheckNewDs:
	mov	edx, DWORD PTR tv74[ebp]
	mov	DWORD PTR _idsp_room, edx

; 823  : 
; 824  : 	if( FBitSet( hisound->flags, FCVAR_CHANGED ))

	mov	eax, DWORD PTR _hisound
	mov	ecx, DWORD PTR [eax+8]
	and	ecx, 8192				; 00002000H
	je	SHORT $LN5@CheckNewDs

; 825  : 	{
; 826  : 		sxhires = hisound->value;

	mov	eax, DWORD PTR _hisound
	cvttss2si ecx, DWORD PTR [eax+12]
	mov	DWORD PTR _sxhires, ecx

; 827  : 		ClearBits( hisound->flags, FCVAR_CHANGED );

	mov	eax, DWORD PTR _hisound
	mov	ecx, DWORD PTR [eax+8]
	and	ecx, -8193				; ffffdfffH
	mov	edx, DWORD PTR _hisound
	mov	DWORD PTR [edx+8], ecx
$LN5@CheckNewDs:

; 828  : 	}
; 829  : 
; 830  : 	if( idsp_room == room_typeprev && idsp_room == 0 )

	mov	eax, DWORD PTR _idsp_room
	cmp	eax, DWORD PTR _room_typeprev
	jne	SHORT $LN6@CheckNewDs
	cmp	DWORD PTR _idsp_room, 0
	jne	SHORT $LN6@CheckNewDs

; 831  : 		return;

	jmp	$LN1@CheckNewDs
$LN6@CheckNewDs:

; 832  : 
; 833  : 	if( idsp_room > MAX_ROOM_TYPES )

	cmp	DWORD PTR _idsp_room, 29		; 0000001dH
	jbe	SHORT $LN7@CheckNewDs

; 834  : 		return;

	jmp	$LN1@CheckNewDs
$LN7@CheckNewDs:

; 835  : 
; 836  : 	if( idsp_room != room_typeprev )

	mov	eax, DWORD PTR _idsp_room
	cmp	eax, DWORD PTR _room_typeprev
	je	$LN8@CheckNewDs

; 837  : 	{
; 838  : 		const sx_preset_t *cur = rgsxpre + idsp_room;

	imul	eax, DWORD PTR _idsp_room, 36
	add	eax, OFFSET _rgsxpre
	mov	DWORD PTR _cur$1[ebp], eax

; 839  : 
; 840  : 		Cvar_SetValue( "room_lp", cur->room_lp );

	mov	eax, DWORD PTR _cur$1[ebp]
	push	ecx
	movss	xmm0, DWORD PTR [eax]
	movss	DWORD PTR [esp], xmm0
	push	OFFSET ??_C@_07GMMKNAEC@room_lp@
	call	_Cvar_SetValue
	add	esp, 8

; 841  : 		Cvar_SetValue( "room_mod", cur->room_mod );

	mov	eax, DWORD PTR _cur$1[ebp]
	push	ecx
	movss	xmm0, DWORD PTR [eax+4]
	movss	DWORD PTR [esp], xmm0
	push	OFFSET ??_C@_08DGOJMHOH@room_mod@
	call	_Cvar_SetValue
	add	esp, 8

; 842  : 		Cvar_SetValue( "room_size", cur->room_size );

	mov	eax, DWORD PTR _cur$1[ebp]
	push	ecx
	movss	xmm0, DWORD PTR [eax+8]
	movss	DWORD PTR [esp], xmm0
	push	OFFSET ??_C@_09MKNBPJLL@room_size@
	call	_Cvar_SetValue
	add	esp, 8

; 843  : 		Cvar_SetValue( "room_refl", cur->room_refl );

	mov	eax, DWORD PTR _cur$1[ebp]
	push	ecx
	movss	xmm0, DWORD PTR [eax+12]
	movss	DWORD PTR [esp], xmm0
	push	OFFSET ??_C@_09HJJJIOOO@room_refl@
	call	_Cvar_SetValue
	add	esp, 8

; 844  : 		Cvar_SetValue( "room_rvblp", cur->room_rvblp );

	mov	eax, DWORD PTR _cur$1[ebp]
	push	ecx
	movss	xmm0, DWORD PTR [eax+16]
	movss	DWORD PTR [esp], xmm0
	push	OFFSET ??_C@_0L@MANGFFAC@room_rvblp@
	call	_Cvar_SetValue
	add	esp, 8

; 845  : 		Cvar_SetValue( "room_delay", cur->room_delay );

	mov	eax, DWORD PTR _cur$1[ebp]
	push	ecx
	movss	xmm0, DWORD PTR [eax+20]
	movss	DWORD PTR [esp], xmm0
	push	OFFSET ??_C@_0L@LNMAGPP@room_delay@
	call	_Cvar_SetValue
	add	esp, 8

; 846  : 		Cvar_SetValue( "room_feedback", cur->room_feedback );

	mov	eax, DWORD PTR _cur$1[ebp]
	push	ecx
	movss	xmm0, DWORD PTR [eax+24]
	movss	DWORD PTR [esp], xmm0
	push	OFFSET ??_C@_0O@NEDGAAJJ@room_feedback@
	call	_Cvar_SetValue
	add	esp, 8

; 847  : 		Cvar_SetValue( "room_dlylp", cur->room_dlylp );

	mov	eax, DWORD PTR _cur$1[ebp]
	push	ecx
	movss	xmm0, DWORD PTR [eax+28]
	movss	DWORD PTR [esp], xmm0
	push	OFFSET ??_C@_0L@LIBBOLDJ@room_dlylp@
	call	_Cvar_SetValue
	add	esp, 8

; 848  : 		Cvar_SetValue( "room_left", cur->room_left );

	mov	eax, DWORD PTR _cur$1[ebp]
	push	ecx
	movss	xmm0, DWORD PTR [eax+32]
	movss	DWORD PTR [esp], xmm0
	push	OFFSET ??_C@_09CEFCDPFE@room_left@
	call	_Cvar_SetValue
	add	esp, 8
$LN8@CheckNewDs:

; 849  : 	}
; 850  : 
; 851  : 	room_typeprev = idsp_room;

	mov	eax, DWORD PTR _idsp_room
	mov	DWORD PTR _room_typeprev, eax

; 852  : 
; 853  : 	RVB_CheckNewReverbVal( );

	call	_RVB_CheckNewReverbVal

; 854  : 	DLY_CheckNewDelayVal( );

	call	_DLY_CheckNewDelayVal

; 855  : 	DLY_CheckNewStereoDelayVal();

	call	_DLY_CheckNewStereoDelayVal
$LN1@CheckNewDs:

; 856  : }

	pop	edi
	pop	esi
	pop	ebx
	mov	esp, ebp
	pop	ebp
	ret	0
_CheckNewDspPresets ENDP
_TEXT	ENDS
; Function compile flags: /Odtp /ZI
; File D:\DevDragon\XashFE\dev\src\engine\client\s_dsp.c
;	COMDAT _SX_Free
_TEXT	SEGMENT
_i$ = -4						; size = 4
_SX_Free PROC						; COMDAT

; 247  : {

	push	ebp
	mov	ebp, esp
	sub	esp, 68					; 00000044H
	push	ebx
	push	esi
	push	edi

; 248  : 	int	i;
; 249  : 
; 250  : 	for( i = 0; i <= 3; i++ )

	mov	DWORD PTR _i$[ebp], 0
	jmp	SHORT $LN4@SX_Free
$LN2@SX_Free:
	mov	eax, DWORD PTR _i$[ebp]
	add	eax, 1
	mov	DWORD PTR _i$[ebp], eax
$LN4@SX_Free:
	cmp	DWORD PTR _i$[ebp], 3
	jg	SHORT $LN3@SX_Free

; 251  : 		DLY_Free( i );

	mov	eax, DWORD PTR _i$[ebp]
	push	eax
	call	_DLY_Free
	add	esp, 4
	jmp	SHORT $LN2@SX_Free
$LN3@SX_Free:

; 252  : 
; 253  : 	Cmd_RemoveCommand( "dsp_profile" );

	push	OFFSET ??_C@_0M@LEACCLPF@dsp_profile@
	call	_Cmd_RemoveCommand
	add	esp, 4

; 254  : }

	pop	edi
	pop	esi
	pop	ebx
	mov	esp, ebp
	pop	ebp
	ret	0
_SX_Free ENDP
_TEXT	ENDS
; Function compile flags: /Odtp /ZI
; File D:\DevDragon\XashFE\dev\src\engine\client\s_dsp.c
;	COMDAT _SX_Init
_TEXT	SEGMENT
_SX_Init PROC						; COMDAT

; 183  : {

	push	ebp
	mov	ebp, esp
	sub	esp, 64					; 00000040H
	push	ebx
	push	esi
	push	edi

; 184  : 	memset( rgsxdly, 0, sizeof( rgsxdly ));

	push	224					; 000000e0H
	push	0
	push	OFFSET _rgsxdly
	call	_memset
	add	esp, 12					; 0000000cH

; 185  : 	memset( rgsxlp,  0, sizeof( rgsxlp  ));

	push	40					; 00000028H
	push	0
	push	OFFSET _rgsxlp
	call	_memset
	add	esp, 12					; 0000000cH

; 186  : 
; 187  : 	sxamodr = sxamodl = sxamodrt = sxamodlt = 255;

	mov	DWORD PTR _sxamodlt, 255		; 000000ffH
	mov	eax, DWORD PTR _sxamodlt
	mov	DWORD PTR _sxamodrt, eax
	mov	ecx, DWORD PTR _sxamodrt
	mov	DWORD PTR _sxamodl, ecx
	mov	edx, DWORD PTR _sxamodl
	mov	DWORD PTR _sxamodr, edx

; 188  : 	idsp_dma_speed = SOUND_11k;

	mov	DWORD PTR _idsp_dma_speed, 11025	; 00002b11H

; 189  : 
; 190  : 	hisound = Cvar_Get( "room_hires", "2", FCVAR_ARCHIVE, "dsp quality. 1 for 22k, 2 for 44k(recommended) and 3 for 96k" );

	push	OFFSET ??_C@_0DN@NPBBKMBL@dsp?5quality?4?51?5for?522k?0?52?5for?54@
	push	1
	push	OFFSET ??_C@_01FDFGLJHB@2@
	push	OFFSET ??_C@_0L@PEMOELHP@room_hires@
	call	_Cvar_Get
	add	esp, 16					; 00000010H
	mov	DWORD PTR _hisound, eax

; 191  : 	sxhires = 2;

	mov	DWORD PTR _sxhires, 2

; 192  : 
; 193  : 	sxmod1cur = sxmod1 = 350 * ( idsp_dma_speed / SOUND_11k );

	mov	eax, DWORD PTR _idsp_dma_speed
	cdq
	mov	ecx, 11025				; 00002b11H
	idiv	ecx
	imul	edx, eax, 350
	mov	DWORD PTR _sxmod1, edx
	mov	eax, DWORD PTR _sxmod1
	mov	DWORD PTR _sxmod1cur, eax

; 194  : 	sxmod2cur = sxmod2 = 450 * ( idsp_dma_speed / SOUND_11k );

	mov	eax, DWORD PTR _idsp_dma_speed
	cdq
	mov	ecx, 11025				; 00002b11H
	idiv	ecx
	imul	edx, eax, 450
	mov	DWORD PTR _sxmod2, edx
	mov	eax, DWORD PTR _sxmod2
	mov	DWORD PTR _sxmod2cur, eax

; 195  : 
; 196  : 	dsp_off          = Cvar_Get( "dsp_off",        "0",  FCVAR_ARCHIVE, "disable DSP processing" );

	push	OFFSET ??_C@_0BH@BELPJFAK@disable?5DSP?5processing@
	push	1
	push	OFFSET ??_C@_01GBGANLPD@0@
	push	OFFSET ??_C@_07LOCFINFM@dsp_off@
	call	_Cvar_Get
	add	esp, 16					; 00000010H
	mov	DWORD PTR _dsp_off, eax

; 197  : 	roomwater_type   = Cvar_Get( "waterroom_type", "14", 0, "water room type" );

	push	OFFSET ??_C@_0BA@KHJCHLBN@water?5room?5type@
	push	0
	push	OFFSET ??_C@_02JODNFKLN@14@
	push	OFFSET ??_C@_0P@PBFLMBKC@waterroom_type@
	call	_Cvar_Get
	add	esp, 16					; 00000010H
	mov	DWORD PTR _roomwater_type, eax

; 198  : 	room_type        = Cvar_Get( "room_type",      "0",  0, "current room type preset" );

	push	OFFSET ??_C@_0BJ@PIIGGNGJ@current?5room?5type?5preset@
	push	0
	push	OFFSET ??_C@_01GBGANLPD@0@
	push	OFFSET ??_C@_09CFHPPHOC@room_type@
	call	_Cvar_Get
	add	esp, 16					; 00000010H
	mov	DWORD PTR _room_type, eax

; 199  : 
; 200  : 	sxmod_lowpass    = Cvar_Get( "room_lp",  "0", 0, "for water fx, lowpass for entire room" );

	push	OFFSET ??_C@_0CG@BCHBINPO@for?5water?5fx?0?5lowpass?5for?5entir@
	push	0
	push	OFFSET ??_C@_01GBGANLPD@0@
	push	OFFSET ??_C@_07GMMKNAEC@room_lp@
	call	_Cvar_Get
	add	esp, 16					; 00000010H
	mov	DWORD PTR _sxmod_lowpass, eax

; 201  : 	sxmod_mod        = Cvar_Get( "room_mod", "0", 0, "stereo amptitude modulation for room" );

	push	OFFSET ??_C@_0CF@LIAGIFDO@stereo?5amptitude?5modulation?5for@
	push	0
	push	OFFSET ??_C@_01GBGANLPD@0@
	push	OFFSET ??_C@_08DGOJMHOH@room_mod@
	call	_Cvar_Get
	add	esp, 16					; 00000010H
	mov	DWORD PTR _sxmod_mod, eax

; 202  : 
; 203  : 	sxrvb_size       = Cvar_Get( "room_size",  "0", 0, "reverb: initial reflection size" );

	push	OFFSET ??_C@_0CA@KKNEPFED@reverb?3?5initial?5reflection?5size@
	push	0
	push	OFFSET ??_C@_01GBGANLPD@0@
	push	OFFSET ??_C@_09MKNBPJLL@room_size@
	call	_Cvar_Get
	add	esp, 16					; 00000010H
	mov	DWORD PTR _sxrvb_size, eax

; 204  : 	sxrvb_feedback   = Cvar_Get( "room_refl",  "0", 0, "reverb: decay time" );

	push	OFFSET ??_C@_0BD@IOJDPPFB@reverb?3?5decay?5time@
	push	0
	push	OFFSET ??_C@_01GBGANLPD@0@
	push	OFFSET ??_C@_09HJJJIOOO@room_refl@
	call	_Cvar_Get
	add	esp, 16					; 00000010H
	mov	DWORD PTR _sxrvb_feedback, eax

; 205  : 	sxrvb_lp         = Cvar_Get( "room_rvblp", "1", 0, "reverb: low pass filtering level" );

	push	OFFSET ??_C@_0CB@NGEDAKI@reverb?3?5low?5pass?5filtering?5leve@
	push	0
	push	OFFSET ??_C@_01HIHLOKLC@1@
	push	OFFSET ??_C@_0L@MANGFFAC@room_rvblp@
	call	_Cvar_Get
	add	esp, 16					; 00000010H
	mov	DWORD PTR _sxrvb_lp, eax

; 206  : 
; 207  : 	sxdly_delay      = Cvar_Get( "room_delay",    "0.8", 0, "mono delay: delay time" );

	push	OFFSET ??_C@_0BH@DIIENECB@mono?5delay?3?5delay?5time@
	push	0
	push	OFFSET ??_C@_03LNMAPFD@0?48@
	push	OFFSET ??_C@_0L@LNMAGPP@room_delay@
	call	_Cvar_Get
	add	esp, 16					; 00000010H
	mov	DWORD PTR _sxdly_delay, eax

; 208  : 	sxdly_feedback   = Cvar_Get( "room_feedback", "0.2", 0, "mono delay: decay time" );

	push	OFFSET ??_C@_0BH@OHDNBLPA@mono?5delay?3?5decay?5time@
	push	0
	push	OFFSET ??_C@_03PBDDOHNJ@0?42@
	push	OFFSET ??_C@_0O@NEDGAAJJ@room_feedback@
	call	_Cvar_Get
	add	esp, 16					; 00000010H
	mov	DWORD PTR _sxdly_feedback, eax

; 209  : 	sxdly_lp         = Cvar_Get( "room_dlylp",    "1",   0, "mono delay: low pass filtering level" );

	push	OFFSET ??_C@_0CF@KACBMIA@mono?5delay?3?5low?5pass?5filtering?5@
	push	0
	push	OFFSET ??_C@_01HIHLOKLC@1@
	push	OFFSET ??_C@_0L@LIBBOLDJ@room_dlylp@
	call	_Cvar_Get
	add	esp, 16					; 00000010H
	mov	DWORD PTR _sxdly_lp, eax

; 210  : 
; 211  : 	sxste_delay      = Cvar_Get( "room_left", "0", 0, "left channel delay time" );

	push	OFFSET ??_C@_0BI@FACMMAAK@left?5channel?5delay?5time@
	push	0
	push	OFFSET ??_C@_01GBGANLPD@0@
	push	OFFSET ??_C@_09CEFCDPFE@room_left@
	call	_Cvar_Get
	add	esp, 16					; 00000010H
	mov	DWORD PTR _sxste_delay, eax

; 212  : 
; 213  : 	Cmd_AddCommand( "dsp_profile", SX_Profiling_f, "dsp stress-test, first argument is room_type" );

	push	OFFSET ??_C@_0CN@HKNGMDDO@dsp?5stress?9test?0?5first?5argument@
	push	OFFSET _SX_Profiling_f
	push	OFFSET ??_C@_0M@LEACCLPF@dsp_profile@
	call	_Cmd_AddCommand
	add	esp, 12					; 0000000cH

; 214  : 
; 215  : 	// for compability
; 216  : 	dsp_room         = room_type;

	mov	eax, DWORD PTR _room_type
	mov	DWORD PTR _dsp_room, eax

; 217  : 
; 218  : 	SX_ReloadRoomFX();

	call	_SX_ReloadRoomFX

; 219  : }

	pop	edi
	pop	esi
	pop	ebx
	mov	esp, ebp
	pop	ebp
	ret	0
_SX_Init ENDP
_TEXT	ENDS
END
