; Listing generated by Microsoft (R) Optimizing Compiler Version 19.37.32705.0 

	TITLE	D:\DevDragon\XashFE\dev\src\temp\engine\!debug\sv_cmds.obj
	.686P
	.XMM
	include listing.inc
	.model	flat

INCLUDELIB MSVCRTD
INCLUDELIB OLDNAMES

PUBLIC	_SV_BroadcastCommand
PUBLIC	_SV_BroadcastPrintf
PUBLIC	_SV_InitOperatorCommands
PUBLIC	_SV_KillOperatorCommands
PUBLIC	_SV_ClientPrintf
PUBLIC	_SV_Status_f
PUBLIC	_SV_InitHostCommands
PUBLIC	_SV_ValidateMap
PUBLIC	_SV_Map_f
PUBLIC	_SV_MapBackground_f
PUBLIC	_SV_NextMap_f
PUBLIC	_SV_NewGame_f
PUBLIC	_SV_HazardCourse_f
PUBLIC	_SV_Load_f
PUBLIC	_SV_QuickLoad_f
PUBLIC	_SV_Save_f
PUBLIC	_SV_QuickSave_f
PUBLIC	_SV_DeleteSave_f
PUBLIC	_SV_AutoSave_f
PUBLIC	_SV_Restart_f
PUBLIC	_SV_Reload_f
PUBLIC	_SV_ChangeLevel_f
PUBLIC	_SV_ChangeLevel2_f
PUBLIC	_SV_Kick_f
PUBLIC	_SV_EntPatch_f
PUBLIC	_SV_ConSay_f
PUBLIC	_SV_Heartbeat_f
PUBLIC	_SV_ServerInfo_f
PUBLIC	_SV_LocalInfo_f
PUBLIC	_SV_ClientInfo_f
PUBLIC	_SV_KillServer_f
PUBLIC	_SV_PlayersOnly_f
PUBLIC	_SV_EdictUsage_f
PUBLIC	_SV_EntityInfo_f
PUBLIC	??_C@_0BF@BEBENGBA@Bad?5client?5slot?3?5?$CFi?6@ ; `string'
PUBLIC	??_C@_0BJ@PDNIBEAG@Client?5?$CFi?5is?5not?5active?6@ ; `string'
PUBLIC	??_C@_0CA@CAEDDADG@Userid?5?$CFs?5is?5not?5on?5the?5server?6@ ; `string'
PUBLIC	??_C@_0CP@BJKGLKEH@?$FO1Error?3?$FO7?5map?5?$CFs?5is?5invalid?5or@ ; `string'
PUBLIC	??_C@_0CB@PJOLFLJM@?$FO1Error?3?$FO7?5map?5?$CFs?5doesn?8t?5exist@ ; `string'
PUBLIC	??_C@_0DD@IIGHGIIE@?$FO1Error?3?$FO7?5map?5?$CFs?5doesn?8t?5have?5@ ; `string'
PUBLIC	??_C@_0BG@BFFDIHHN@Usage?3?5map?5?$DMmapname?$DO?6@ ; `string'
PUBLIC	??_C@_0CB@CGKIECDI@Usage?3?5map_background?5?$DMmapname?$DO@ ; `string'
PUBLIC	??_C@_0DK@LAMAKOH@?$FO1Error?3?$FO7?5can?8t?5set?5background@ ; `string'
PUBLIC	??_C@_01HIHLOKLC@1@				; `string'
PUBLIC	??_C@_0L@PCNFODNF@maxplayers@			; `string'
PUBLIC	??_C@_01GBGANLPD@0@				; `string'
PUBLIC	??_C@_0L@ILDAINPG@deathmatch@			; `string'
PUBLIC	??_C@_04OILOBHMB@coop@				; `string'
PUBLIC	?__LINE__Var@?0??SV_NextMap_f@@9@9		; `SV_NextMap_f'::`1'::__LINE__Var
PUBLIC	??_C@_0L@OKPFMBPD@maps?1?$CK?4bsp@		; `string'
PUBLIC	??_C@_0BJ@DJOICELF@next?5map?5can?8t?5be?5found?6@ ; `string'
PUBLIC	??_C@_03DGBMLAJE@bsp@				; `string'
PUBLIC	??_C@_0DE@IKJBKMHC@D?3?2DevDragon?2XashFE?2dev?2src?2eng@ ; `string'
PUBLIC	??_C@_0BJ@ILADGLBB@failed?5to?5load?5next?5map?6@ ; `string'
PUBLIC	??_C@_0BA@ICHBNMI@Usage?3?5newgame?6@		; `string'
PUBLIC	??_C@_0BF@KKPDDLCD@Usage?3?5hazardcourse?6@	; `string'
PUBLIC	??_C@_0N@KGAPJLAD@media?1?$CFs?4avi@		; `string'
PUBLIC	??_C@_0BA@GBJKJN@wait?$DL?5movie?5?$CFs?6@	; `string'
PUBLIC	??_C@_07IFACIOED@The?5End@			; `string'
PUBLIC	??_C@_0BI@KNLHFPBG@Usage?3?5load?5?$DMsavename?$DO?6@ ; `string'
PUBLIC	??_C@_05HFINLBCI@save?1@			; `string'
PUBLIC	??_C@_08NEHHDCOK@?$CFs?$CFs?4sav@		; `string'
PUBLIC	??_C@_0CI@CCMCCHIO@echo?5Quick?5Loading?4?4?4?$DL?5wait?$DL?5lo@ ; `string'
PUBLIC	??_C@_03CLCAEGCJ@new@				; `string'
PUBLIC	??_C@_0BI@BOIKHCDG@Usage?3?5save?5?$DMsavename?$DO?6@ ; `string'
PUBLIC	??_C@_0CH@KNANJKDI@echo?5Quick?5Saving?4?4?4?$DL?5wait?$DL?5sav@ ; `string'
PUBLIC	??_C@_0BI@DEOKPKPH@Usage?3?5killsave?5?$DMname?$DO?6@ ; `string'
PUBLIC	??_C@_08GDJCFMPC@?$CFs?$CFs?4bmp@		; `string'
PUBLIC	??_C@_0BB@FDKOPJA@Usage?3?5autosave?6@		; `string'
PUBLIC	??_C@_08CCMFCJIM@autosave@			; `string'
PUBLIC	??_C@_0BO@EEJLIBAC@Usage?3?5changelevel?5?$DMmapname?$DO?6@ ; `string'
PUBLIC	??_C@_0CK@GAJBFIKO@Usage?3?5changelevel2?5?$DMmapname?$DO?5?$DM@ ; `string'
PUBLIC	??_C@_0BP@ONLBGICF@Usage?3?5kick?5?$DMuserid?$DO?5?$HM?5?$DMname?$DO?6@ ; `string'
PUBLIC	??_C@_0CE@LKNKIIN@The?5local?5player?5cannot?5be?5kick@ ; `string'
PUBLIC	??_C@_0BL@KHFBEJNG@Kick?3?5?$CC?$CFs?$DM?$CFi?$DO?$CC?5was?5kicked?6@ ; `string'
PUBLIC	??_C@_0P@KCPNDOOJ@?$CFs?5was?5kicked?6@		; `string'
PUBLIC	??_C@_0BP@ENDOFIF@You?5were?5kicked?5from?5the?5game?6@ ; `string'
PUBLIC	??_C@_0BL@EFIDFBDP@Usage?3?5entpatch?5?$DMmapname?$DO?6@ ; `string'
PUBLIC	??_C@_0BG@LPGCMDEF@?$FO3no?5server?5running?4?6@ ; `string'
PUBLIC	??_C@_08BLGHJHOM@map?3?5?$CFs?6@		; `string'
PUBLIC	??_C@_0EH@PJCGICO@num?5score?5ping?5?5?5?5name?5?5?5?5?5?5?5?5?5@ ; `string'
PUBLIC	??_C@_0EI@IDNHFOMB@?9?9?9?5?9?9?9?9?9?5?9?9?9?9?9?9?9?5?9?9?9?9?9?9?9?9?9?9?9?9?9@ ; `string'
PUBLIC	??_C@_04OACLNE@?$CF3i?5@			; `string'
PUBLIC	??_C@_04CFILHEAI@?$CF5i?5@			; `string'
PUBLIC	??_C@_07FJPHLACI@Connect@			; `string'
PUBLIC	??_C@_07OJOLFONN@Zombie?5@			; `string'
PUBLIC	??_C@_06EJAMHCCN@Bot?5?5?5@			; `string'
PUBLIC	??_C@_04IPICLMID@?$CF7i?5@			; `string'
PUBLIC	??_C@_02DKCKIIND@?$CFs@				; `string'
PUBLIC	??_C@_01CLKCMJKC@?5@				; `string'
PUBLIC	??_C@_03JBELIGOI@?$CFg?5@			; `string'
PUBLIC	??_C@_03NPMIIIHK@?$CF5i@			; `string'
PUBLIC	??_C@_01EEMJAFIK@?6@				; `string'
PUBLIC	??_C@_08EHKIGBEA@hostname@			; `string'
PUBLIC	??_C@_04PFAOODAA@?$CFs?3?5@			; `string'
PUBLIC	??_C@_03OFAPEBGM@?$CFs?6@			; `string'
PUBLIC	??_C@_0BC@PCDMDIFJ@Server?5say?3?5?$CC?$CFs?$CC?6@ ; `string'
PUBLIC	?__LINE__Var@?0??SV_ServerInfo_f@@9@9		; `SV_ServerInfo_f'::`1'::__LINE__Var
PUBLIC	??_C@_0BH@LAHBCPJF@Server?5info?5settings?3?6@	; `string'
PUBLIC	??_C@_0BC@KADBPMIN@Total?5?$CFi?5symbols?6@	; `string'
PUBLIC	??_C@_0CF@DAGAMKEO@Usage?3?5serverinfo?5?$FL?5?$DMkey?$DO?5?$DMvalu@ ; `string'
PUBLIC	??_C@_0CD@JNCBJJNC@Star?5variables?5cannot?5be?5change@ ; `string'
PUBLIC	??_C@_0BF@FKGNFJNH@fullserverinfo?5?$CC?$CFs?$CC?6@ ; `string'
PUBLIC	??_C@_0BG@MIMOGIIF@Local?5info?5settings?3?6@	; `string'
PUBLIC	??_C@_0CE@OPGIEOFI@Usage?3?5localinfo?5?$FL?5?$DMkey?$DO?5?$DMvalue@ ; `string'
PUBLIC	??_C@_0BM@CJDPIDOK@Usage?3?5clientinfo?5?$DMuserid?$DO?6@ ; `string'
PUBLIC	??_C@_09IIBHBCGO@userinfo?6@			; `string'
PUBLIC	??_C@_09DDAOCEB@?9?9?9?9?9?9?9?9?6@		; `string'
PUBLIC	??_C@_09NFOPKLIK@sv_cheats@			; `string'
PUBLIC	??_C@_06BPGEEBGA@Freeze@			; `string'
PUBLIC	??_C@_06DEPGELNG@Resume@			; `string'
PUBLIC	??_C@_0BA@DKGJMAHL@?$CFs?5game?5physic?6@	; `string'
PUBLIC	??_C@_0BE@KPLEOPPO@?$CF5i?5edicts?5is?5used?6@	; `string'
PUBLIC	??_C@_0BE@BGFENMEM@?$CF5i?5edicts?5is?5free?6@	; `string'
PUBLIC	??_C@_0L@DBLADEED@?$CF5i?5total?6@		; `string'
PUBLIC	?__LINE__Var@?0??SV_EntityInfo_f@@9@9		; `SV_EntityInfo_f'::`1'::__LINE__Var
PUBLIC	??_C@_0BI@JGCHBLJO@?$CF5i?5origin?3?5?$CF?4f?5?$CF?4f?5?$CF?4f@ ; `string'
PUBLIC	??_C@_0M@KCEKFJCG@?0?5class?3?5?$CFs@		; `string'
PUBLIC	??_C@_0N@EBJODHCK@?0?5global?3?5?$CFs@		; `string'
PUBLIC	??_C@_0L@BMCMLICL@?0?5name?3?5?$CFs@		; `string'
PUBLIC	??_C@_0N@INNBBBPH@?0?5target?3?5?$CFs@		; `string'
PUBLIC	??_C@_0M@DLGAECIO@?0?5model?3?5?$CFs@		; `string'
PUBLIC	??_C@_0BA@FEHGCKED@start?5new?5level@		; `string'
PUBLIC	??_C@_03HBNNNHNM@map@				; `string'
PUBLIC	??_C@_0P@JDKKDOIP@begin?5new?5game@		; `string'
PUBLIC	??_C@_07GABIDAIO@newgame@			; `string'
PUBLIC	??_C@_0BJ@EMMBBAF@starting?5a?5Hazard?5Course@	; `string'
PUBLIC	??_C@_0N@ECBFBFLG@hazardcourse@			; `string'
PUBLIC	??_C@_0BD@CGDMGLJC@set?5background?5map@	; `string'
PUBLIC	??_C@_0P@KBIHHLHA@map_background@		; `string'
PUBLIC	??_C@_0BH@MMFMFBIC@load?5a?5saved?5game?5file@	; `string'
PUBLIC	??_C@_04EONOHKEP@load@				; `string'
PUBLIC	??_C@_0BN@CADCJDHA@load?5a?5quick?9saved?5game?5file@ ; `string'
PUBLIC	??_C@_09EMDGDLJG@loadquick@			; `string'
PUBLIC	??_C@_0CL@PNBMIEKN@continue?5from?5latest?5save?5or?5re@ ; `string'
PUBLIC	??_C@_06DGFOANMH@reload@			; `string'
PUBLIC	??_C@_0CG@LNAEDPJJ@delete?5a?5saved?5game?5file?5and?5sa@ ; `string'
PUBLIC	??_C@_08EOFKCHHB@killsave@			; `string'
PUBLIC	??_C@_0BA@CCGMDJPJ@load?5next?5level@		; `string'
PUBLIC	??_C@_07MCHHMPMB@nextmap@			; `string'
PUBLIC	??_C@_0CG@GICICLAK@send?5a?5heartbeat?5to?5the?5master?5@ ; `string'
PUBLIC	??_C@_09NCPIAHOP@heartbeat@			; `string'
PUBLIC	??_C@_0CP@NFGKADOB@kick?5a?5player?5off?5the?5server?5by@ ; `string'
PUBLIC	??_C@_04FNIJDBCC@kick@				; `string'
PUBLIC	??_C@_0CA@PAOLGACJ@print?5server?5status?5information@ ; `string'
PUBLIC	??_C@_06DJIHEMFI@status@			; `string'
PUBLIC	??_C@_0CH@GHCKIGDI@examine?5or?5change?5the?5localinfo@ ; `string'
PUBLIC	??_C@_09LJADEHNM@localinfo@			; `string'
PUBLIC	??_C@_0CI@PMJJPCPH@examine?5or?5change?5the?5serverinf@ ; `string'
PUBLIC	??_C@_0L@OJMFMOP@serverinfo@			; `string'
PUBLIC	??_C@_0CM@KOGCPGBG@print?5user?5infostring?5?$CIplayer?5n@ ; `string'
PUBLIC	??_C@_0L@FEIAOOGN@clientinfo@			; `string'
PUBLIC	??_C@_0CB@NJBOMPMN@freezes?5time?0?5except?5for?5player@ ; `string'
PUBLIC	??_C@_0M@IJGKCGLO@playersonly@			; `string'
PUBLIC	??_C@_0BJ@LBANABCH@restarting?5current?5level@	; `string'
PUBLIC	??_C@_07LDHOHMPD@restart@			; `string'
PUBLIC	??_C@_0CN@FFFCCIKA@write?5entity?5patch?5to?5allow?5ext@ ; `string'
PUBLIC	??_C@_08HONMJJCK@entpatch@			; `string'
PUBLIC	??_C@_0BN@JHPCLHFH@show?5info?5about?5edicts?5usage@ ; `string'
PUBLIC	??_C@_0M@FCFIIHJB@edict_usage@			; `string'
PUBLIC	??_C@_0BM@EECLIOB@show?5more?5info?5about?5edicts@ ; `string'
PUBLIC	??_C@_0M@HEMNGION@entity_info@			; `string'
PUBLIC	??_C@_0BI@PECGEOCA@shutdown?5current?5server@	; `string'
PUBLIC	??_C@_0P@IKLGAEBD@shutdownserver@		; `string'
PUBLIC	??_C@_0N@LLMIPGDC@change?5level@		; `string'
PUBLIC	??_C@_0M@HPDBOKLB@changelevel@			; `string'
PUBLIC	??_C@_0BE@GIPCDBAN@smooth?5change?5level@	; `string'
PUBLIC	??_C@_0N@FBGJOGIB@changelevel2@			; `string'
PUBLIC	??_C@_0BI@LCFDNKOB@save?5the?5game?5to?5a?5file@ ; `string'
PUBLIC	??_C@_04EMMDIJJL@save@				; `string'
PUBLIC	??_C@_0BP@BNPJJPJM@save?5the?5game?5to?5the?5quicksave@ ; `string'
PUBLIC	??_C@_09ICFIAJOH@savequick@			; `string'
PUBLIC	??_C@_0CB@IFPGMOA@save?5the?5game?5to?5?8autosave?8?5fil@ ; `string'
PUBLIC	??_C@_0CO@HDOIGABH@send?5a?5chat?5message?5to?5everyone@ ; `string'
PUBLIC	??_C@_03BANJEMDJ@say@				; `string'
PUBLIC	__real@c0f869f000000000
EXTRN	_Cbuf_AddText:PROC
EXTRN	_Cmd_Argc:PROC
EXTRN	_Cmd_Args:PROC
EXTRN	_Cmd_Argv:PROC
EXTRN	_Cmd_AddCommand:PROC
EXTRN	_Cmd_RemoveCommand:PROC
EXTRN	_Q_strlen:PROC
EXTRN	_Q_strncat:PROC
EXTRN	_Q_strncpy:PROC
EXTRN	__copystring:PROC
EXTRN	_Q_isdigit:PROC
EXTRN	_Q_atoi:PROC
EXTRN	_Q_atof:PROC
EXTRN	_Q_strnicmp:PROC
EXTRN	_Q_strncmp:PROC
EXTRN	_Q_vsnprintf:PROC
EXTRN	_Q_snprintf:PROC
EXTRN	_va:PROC
EXTRN	__Mem_Free:PROC
EXTRN	_Cvar_FindVarExt:PROC
EXTRN	_Cvar_FullSet:PROC
EXTRN	_Cvar_DirectSet:PROC
EXTRN	_Cvar_VariableInteger:PROC
EXTRN	_Cvar_VariableString:PROC
EXTRN	_NET_IsLocalAddress:PROC
EXTRN	_NET_BaseAdrToString:PROC
EXTRN	_COM_FileBase:PROC
EXTRN	_COM_FileExtension:PROC
EXTRN	_FS_Search:PROC
EXTRN	_FS_FileExists:PROC
EXTRN	_FS_Delete:PROC
EXTRN	_COM_StripExtension:PROC
EXTRN	_Host_EndGame:PROC
EXTRN	_Host_ShutdownServer:PROC
EXTRN	_COM_NewGame:PROC
EXTRN	_COM_LoadLevel:PROC
EXTRN	_SV_Active:PROC
EXTRN	_Con_DPrintf:PROC
EXTRN	_Con_Printf:PROC
EXTRN	_pfnNumberOfEntities:PROC
EXTRN	_Log_Printf:PROC
EXTRN	_SV_Serverinfo:PROC
EXTRN	_Info_SetValueForStarKey:PROC
EXTRN	_Info_Print:PROC
EXTRN	_MSG_WriteCmdExt:PROC
EXTRN	_MSG_WriteString:PROC
EXTRN	_SV_DropClient:PROC
EXTRN	_SV_CalcPing:PROC
EXTRN	_SV_CheckEdict:PROC
EXTRN	_SV_QueueChangeLevel:PROC
EXTRN	_SV_WriteEntityPatch:PROC
EXTRN	_SV_GetString:PROC
EXTRN	_SV_MapIsValid:PROC
EXTRN	_SV_EdictNum:PROC
EXTRN	_SV_SaveGame:PROC
EXTRN	_SV_LoadGame:PROC
EXTRN	_SV_GetLatestSave:PROC
EXTRN	@__security_check_cookie@4:PROC
EXTRN	_sv_maxclients:DWORD
EXTRN	_host:BYTE
EXTRN	_SI:BYTE
EXTRN	_svs:BYTE
EXTRN	_sv:BYTE
EXTRN	_svgame:BYTE
EXTRN	_sv_hostmap:DWORD
EXTRN	___security_cookie:DWORD
EXTRN	__fltused:DWORD
;	COMDAT __real@c0f869f000000000
CONST	SEGMENT
__real@c0f869f000000000 DQ 0c0f869f000000000r	; -99999
CONST	ENDS
;	COMDAT ??_C@_03BANJEMDJ@say@
CONST	SEGMENT
??_C@_03BANJEMDJ@say@ DB 'say', 00H			; `string'
CONST	ENDS
;	COMDAT ??_C@_0CO@HDOIGABH@send?5a?5chat?5message?5to?5everyone@
CONST	SEGMENT
??_C@_0CO@HDOIGABH@send?5a?5chat?5message?5to?5everyone@ DB 'send a chat '
	DB	'message to everyone on the server', 00H	; `string'
CONST	ENDS
;	COMDAT ??_C@_0CB@IFPGMOA@save?5the?5game?5to?5?8autosave?8?5fil@
CONST	SEGMENT
??_C@_0CB@IFPGMOA@save?5the?5game?5to?5?8autosave?8?5fil@ DB 'save the ga'
	DB	'me to ''autosave'' file', 00H		; `string'
CONST	ENDS
;	COMDAT ??_C@_09ICFIAJOH@savequick@
CONST	SEGMENT
??_C@_09ICFIAJOH@savequick@ DB 'savequick', 00H		; `string'
CONST	ENDS
;	COMDAT ??_C@_0BP@BNPJJPJM@save?5the?5game?5to?5the?5quicksave@
CONST	SEGMENT
??_C@_0BP@BNPJJPJM@save?5the?5game?5to?5the?5quicksave@ DB 'save the game'
	DB	' to the quicksave', 00H			; `string'
CONST	ENDS
;	COMDAT ??_C@_04EMMDIJJL@save@
CONST	SEGMENT
??_C@_04EMMDIJJL@save@ DB 'save', 00H			; `string'
CONST	ENDS
;	COMDAT ??_C@_0BI@LCFDNKOB@save?5the?5game?5to?5a?5file@
CONST	SEGMENT
??_C@_0BI@LCFDNKOB@save?5the?5game?5to?5a?5file@ DB 'save the game to a f'
	DB	'ile', 00H					; `string'
CONST	ENDS
;	COMDAT ??_C@_0N@FBGJOGIB@changelevel2@
CONST	SEGMENT
??_C@_0N@FBGJOGIB@changelevel2@ DB 'changelevel2', 00H	; `string'
CONST	ENDS
;	COMDAT ??_C@_0BE@GIPCDBAN@smooth?5change?5level@
CONST	SEGMENT
??_C@_0BE@GIPCDBAN@smooth?5change?5level@ DB 'smooth change level', 00H ; `string'
CONST	ENDS
;	COMDAT ??_C@_0M@HPDBOKLB@changelevel@
CONST	SEGMENT
??_C@_0M@HPDBOKLB@changelevel@ DB 'changelevel', 00H	; `string'
CONST	ENDS
;	COMDAT ??_C@_0N@LLMIPGDC@change?5level@
CONST	SEGMENT
??_C@_0N@LLMIPGDC@change?5level@ DB 'change level', 00H	; `string'
CONST	ENDS
;	COMDAT ??_C@_0P@IKLGAEBD@shutdownserver@
CONST	SEGMENT
??_C@_0P@IKLGAEBD@shutdownserver@ DB 'shutdownserver', 00H ; `string'
CONST	ENDS
;	COMDAT ??_C@_0BI@PECGEOCA@shutdown?5current?5server@
CONST	SEGMENT
??_C@_0BI@PECGEOCA@shutdown?5current?5server@ DB 'shutdown current server'
	DB	00H						; `string'
CONST	ENDS
;	COMDAT ??_C@_0M@HEMNGION@entity_info@
CONST	SEGMENT
??_C@_0M@HEMNGION@entity_info@ DB 'entity_info', 00H	; `string'
CONST	ENDS
;	COMDAT ??_C@_0BM@EECLIOB@show?5more?5info?5about?5edicts@
CONST	SEGMENT
??_C@_0BM@EECLIOB@show?5more?5info?5about?5edicts@ DB 'show more info abo'
	DB	'ut edicts', 00H				; `string'
CONST	ENDS
;	COMDAT ??_C@_0M@FCFIIHJB@edict_usage@
CONST	SEGMENT
??_C@_0M@FCFIIHJB@edict_usage@ DB 'edict_usage', 00H	; `string'
CONST	ENDS
;	COMDAT ??_C@_0BN@JHPCLHFH@show?5info?5about?5edicts?5usage@
CONST	SEGMENT
??_C@_0BN@JHPCLHFH@show?5info?5about?5edicts?5usage@ DB 'show info about '
	DB	'edicts usage', 00H				; `string'
CONST	ENDS
;	COMDAT ??_C@_08HONMJJCK@entpatch@
CONST	SEGMENT
??_C@_08HONMJJCK@entpatch@ DB 'entpatch', 00H		; `string'
CONST	ENDS
;	COMDAT ??_C@_0CN@FFFCCIKA@write?5entity?5patch?5to?5allow?5ext@
CONST	SEGMENT
??_C@_0CN@FFFCCIKA@write?5entity?5patch?5to?5allow?5ext@ DB 'write entity'
	DB	' patch to allow external editing', 00H	; `string'
CONST	ENDS
;	COMDAT ??_C@_07LDHOHMPD@restart@
CONST	SEGMENT
??_C@_07LDHOHMPD@restart@ DB 'restart', 00H		; `string'
CONST	ENDS
;	COMDAT ??_C@_0BJ@LBANABCH@restarting?5current?5level@
CONST	SEGMENT
??_C@_0BJ@LBANABCH@restarting?5current?5level@ DB 'restarting current lev'
	DB	'el', 00H					; `string'
CONST	ENDS
;	COMDAT ??_C@_0M@IJGKCGLO@playersonly@
CONST	SEGMENT
??_C@_0M@IJGKCGLO@playersonly@ DB 'playersonly', 00H	; `string'
CONST	ENDS
;	COMDAT ??_C@_0CB@NJBOMPMN@freezes?5time?0?5except?5for?5player@
CONST	SEGMENT
??_C@_0CB@NJBOMPMN@freezes?5time?0?5except?5for?5player@ DB 'freezes time'
	DB	', except for players', 00H			; `string'
CONST	ENDS
;	COMDAT ??_C@_0L@FEIAOOGN@clientinfo@
CONST	SEGMENT
??_C@_0L@FEIAOOGN@clientinfo@ DB 'clientinfo', 00H	; `string'
CONST	ENDS
;	COMDAT ??_C@_0CM@KOGCPGBG@print?5user?5infostring?5?$CIplayer?5n@
CONST	SEGMENT
??_C@_0CM@KOGCPGBG@print?5user?5infostring?5?$CIplayer?5n@ DB 'print user'
	DB	' infostring (player num required)', 00H	; `string'
CONST	ENDS
;	COMDAT ??_C@_0L@OJMFMOP@serverinfo@
CONST	SEGMENT
??_C@_0L@OJMFMOP@serverinfo@ DB 'serverinfo', 00H	; `string'
CONST	ENDS
;	COMDAT ??_C@_0CI@PMJJPCPH@examine?5or?5change?5the?5serverinf@
CONST	SEGMENT
??_C@_0CI@PMJJPCPH@examine?5or?5change?5the?5serverinf@ DB 'examine or ch'
	DB	'ange the serverinfo string', 00H		; `string'
CONST	ENDS
;	COMDAT ??_C@_09LJADEHNM@localinfo@
CONST	SEGMENT
??_C@_09LJADEHNM@localinfo@ DB 'localinfo', 00H		; `string'
CONST	ENDS
;	COMDAT ??_C@_0CH@GHCKIGDI@examine?5or?5change?5the?5localinfo@
CONST	SEGMENT
??_C@_0CH@GHCKIGDI@examine?5or?5change?5the?5localinfo@ DB 'examine or ch'
	DB	'ange the localinfo string', 00H		; `string'
CONST	ENDS
;	COMDAT ??_C@_06DJIHEMFI@status@
CONST	SEGMENT
??_C@_06DJIHEMFI@status@ DB 'status', 00H		; `string'
CONST	ENDS
;	COMDAT ??_C@_0CA@PAOLGACJ@print?5server?5status?5information@
CONST	SEGMENT
??_C@_0CA@PAOLGACJ@print?5server?5status?5information@ DB 'print server s'
	DB	'tatus information', 00H			; `string'
CONST	ENDS
;	COMDAT ??_C@_04FNIJDBCC@kick@
CONST	SEGMENT
??_C@_04FNIJDBCC@kick@ DB 'kick', 00H			; `string'
CONST	ENDS
;	COMDAT ??_C@_0CP@NFGKADOB@kick?5a?5player?5off?5the?5server?5by@
CONST	SEGMENT
??_C@_0CP@NFGKADOB@kick?5a?5player?5off?5the?5server?5by@ DB 'kick a play'
	DB	'er off the server by number or name', 00H	; `string'
CONST	ENDS
;	COMDAT ??_C@_09NCPIAHOP@heartbeat@
CONST	SEGMENT
??_C@_09NCPIAHOP@heartbeat@ DB 'heartbeat', 00H		; `string'
CONST	ENDS
;	COMDAT ??_C@_0CG@GICICLAK@send?5a?5heartbeat?5to?5the?5master?5@
CONST	SEGMENT
??_C@_0CG@GICICLAK@send?5a?5heartbeat?5to?5the?5master?5@ DB 'send a hear'
	DB	'tbeat to the master server', 00H		; `string'
CONST	ENDS
;	COMDAT ??_C@_07MCHHMPMB@nextmap@
CONST	SEGMENT
??_C@_07MCHHMPMB@nextmap@ DB 'nextmap', 00H		; `string'
CONST	ENDS
;	COMDAT ??_C@_0BA@CCGMDJPJ@load?5next?5level@
CONST	SEGMENT
??_C@_0BA@CCGMDJPJ@load?5next?5level@ DB 'load next level', 00H ; `string'
CONST	ENDS
;	COMDAT ??_C@_08EOFKCHHB@killsave@
CONST	SEGMENT
??_C@_08EOFKCHHB@killsave@ DB 'killsave', 00H		; `string'
CONST	ENDS
;	COMDAT ??_C@_0CG@LNAEDPJJ@delete?5a?5saved?5game?5file?5and?5sa@
CONST	SEGMENT
??_C@_0CG@LNAEDPJJ@delete?5a?5saved?5game?5file?5and?5sa@ DB 'delete a sa'
	DB	'ved game file and saveshot', 00H		; `string'
CONST	ENDS
;	COMDAT ??_C@_06DGFOANMH@reload@
CONST	SEGMENT
??_C@_06DGFOANMH@reload@ DB 'reload', 00H		; `string'
CONST	ENDS
;	COMDAT ??_C@_0CL@PNBMIEKN@continue?5from?5latest?5save?5or?5re@
CONST	SEGMENT
??_C@_0CL@PNBMIEKN@continue?5from?5latest?5save?5or?5re@ DB 'continue fro'
	DB	'm latest save or restart level', 00H	; `string'
CONST	ENDS
;	COMDAT ??_C@_09EMDGDLJG@loadquick@
CONST	SEGMENT
??_C@_09EMDGDLJG@loadquick@ DB 'loadquick', 00H		; `string'
CONST	ENDS
;	COMDAT ??_C@_0BN@CADCJDHA@load?5a?5quick?9saved?5game?5file@
CONST	SEGMENT
??_C@_0BN@CADCJDHA@load?5a?5quick?9saved?5game?5file@ DB 'load a quick-sa'
	DB	'ved game file', 00H				; `string'
CONST	ENDS
;	COMDAT ??_C@_04EONOHKEP@load@
CONST	SEGMENT
??_C@_04EONOHKEP@load@ DB 'load', 00H			; `string'
CONST	ENDS
;	COMDAT ??_C@_0BH@MMFMFBIC@load?5a?5saved?5game?5file@
CONST	SEGMENT
??_C@_0BH@MMFMFBIC@load?5a?5saved?5game?5file@ DB 'load a saved game file'
	DB	00H						; `string'
CONST	ENDS
;	COMDAT ??_C@_0P@KBIHHLHA@map_background@
CONST	SEGMENT
??_C@_0P@KBIHHLHA@map_background@ DB 'map_background', 00H ; `string'
CONST	ENDS
;	COMDAT ??_C@_0BD@CGDMGLJC@set?5background?5map@
CONST	SEGMENT
??_C@_0BD@CGDMGLJC@set?5background?5map@ DB 'set background map', 00H ; `string'
CONST	ENDS
;	COMDAT ??_C@_0N@ECBFBFLG@hazardcourse@
CONST	SEGMENT
??_C@_0N@ECBFBFLG@hazardcourse@ DB 'hazardcourse', 00H	; `string'
CONST	ENDS
;	COMDAT ??_C@_0BJ@EMMBBAF@starting?5a?5Hazard?5Course@
CONST	SEGMENT
??_C@_0BJ@EMMBBAF@starting?5a?5Hazard?5Course@ DB 'starting a Hazard Cour'
	DB	'se', 00H					; `string'
CONST	ENDS
;	COMDAT ??_C@_07GABIDAIO@newgame@
CONST	SEGMENT
??_C@_07GABIDAIO@newgame@ DB 'newgame', 00H		; `string'
CONST	ENDS
;	COMDAT ??_C@_0P@JDKKDOIP@begin?5new?5game@
CONST	SEGMENT
??_C@_0P@JDKKDOIP@begin?5new?5game@ DB 'begin new game', 00H ; `string'
CONST	ENDS
;	COMDAT ??_C@_03HBNNNHNM@map@
CONST	SEGMENT
??_C@_03HBNNNHNM@map@ DB 'map', 00H			; `string'
CONST	ENDS
;	COMDAT ??_C@_0BA@FEHGCKED@start?5new?5level@
CONST	SEGMENT
??_C@_0BA@FEHGCKED@start?5new?5level@ DB 'start new level', 00H ; `string'
CONST	ENDS
;	COMDAT ??_C@_0M@DLGAECIO@?0?5model?3?5?$CFs@
CONST	SEGMENT
??_C@_0M@DLGAECIO@?0?5model?3?5?$CFs@ DB ', model: %s', 00H ; `string'
CONST	ENDS
;	COMDAT ??_C@_0N@INNBBBPH@?0?5target?3?5?$CFs@
CONST	SEGMENT
??_C@_0N@INNBBBPH@?0?5target?3?5?$CFs@ DB ', target: %s', 00H ; `string'
CONST	ENDS
;	COMDAT ??_C@_0L@BMCMLICL@?0?5name?3?5?$CFs@
CONST	SEGMENT
??_C@_0L@BMCMLICL@?0?5name?3?5?$CFs@ DB ', name: %s', 00H ; `string'
CONST	ENDS
;	COMDAT ??_C@_0N@EBJODHCK@?0?5global?3?5?$CFs@
CONST	SEGMENT
??_C@_0N@EBJODHCK@?0?5global?3?5?$CFs@ DB ', global: %s', 00H ; `string'
CONST	ENDS
;	COMDAT ??_C@_0M@KCEKFJCG@?0?5class?3?5?$CFs@
CONST	SEGMENT
??_C@_0M@KCEKFJCG@?0?5class?3?5?$CFs@ DB ', class: %s', 00H ; `string'
CONST	ENDS
;	COMDAT ??_C@_0BI@JGCHBLJO@?$CF5i?5origin?3?5?$CF?4f?5?$CF?4f?5?$CF?4f@
CONST	SEGMENT
??_C@_0BI@JGCHBLJO@?$CF5i?5origin?3?5?$CF?4f?5?$CF?4f?5?$CF?4f@ DB '%5i o'
	DB	'rigin: %.f %.f %.f', 00H			; `string'
CONST	ENDS
;	COMDAT ?__LINE__Var@?0??SV_EntityInfo_f@@9@9
_DATA	SEGMENT
?__LINE__Var@?0??SV_EntityInfo_f@@9@9 DD 0345H		; `SV_EntityInfo_f'::`1'::__LINE__Var
_DATA	ENDS
;	COMDAT ??_C@_0L@DBLADEED@?$CF5i?5total?6@
CONST	SEGMENT
??_C@_0L@DBLADEED@?$CF5i?5total?6@ DB '%5i total', 0aH, 00H ; `string'
CONST	ENDS
;	COMDAT ??_C@_0BE@BGFENMEM@?$CF5i?5edicts?5is?5free?6@
CONST	SEGMENT
??_C@_0BE@BGFENMEM@?$CF5i?5edicts?5is?5free?6@ DB '%5i edicts is free', 0aH
	DB	00H						; `string'
CONST	ENDS
;	COMDAT ??_C@_0BE@KPLEOPPO@?$CF5i?5edicts?5is?5used?6@
CONST	SEGMENT
??_C@_0BE@KPLEOPPO@?$CF5i?5edicts?5is?5used?6@ DB '%5i edicts is used', 0aH
	DB	00H						; `string'
CONST	ENDS
;	COMDAT ??_C@_0BA@DKGJMAHL@?$CFs?5game?5physic?6@
CONST	SEGMENT
??_C@_0BA@DKGJMAHL@?$CFs?5game?5physic?6@ DB '%s game physic', 0aH, 00H ; `string'
CONST	ENDS
;	COMDAT ??_C@_06DEPGELNG@Resume@
CONST	SEGMENT
??_C@_06DEPGELNG@Resume@ DB 'Resume', 00H		; `string'
CONST	ENDS
;	COMDAT ??_C@_06BPGEEBGA@Freeze@
CONST	SEGMENT
??_C@_06BPGEEBGA@Freeze@ DB 'Freeze', 00H		; `string'
CONST	ENDS
;	COMDAT ??_C@_09NFOPKLIK@sv_cheats@
CONST	SEGMENT
??_C@_09NFOPKLIK@sv_cheats@ DB 'sv_cheats', 00H		; `string'
CONST	ENDS
;	COMDAT ??_C@_09DDAOCEB@?9?9?9?9?9?9?9?9?6@
CONST	SEGMENT
??_C@_09DDAOCEB@?9?9?9?9?9?9?9?9?6@ DB '--------', 0aH, 00H ; `string'
CONST	ENDS
;	COMDAT ??_C@_09IIBHBCGO@userinfo?6@
CONST	SEGMENT
??_C@_09IIBHBCGO@userinfo?6@ DB 'userinfo', 0aH, 00H	; `string'
CONST	ENDS
;	COMDAT ??_C@_0BM@CJDPIDOK@Usage?3?5clientinfo?5?$DMuserid?$DO?6@
CONST	SEGMENT
??_C@_0BM@CJDPIDOK@Usage?3?5clientinfo?5?$DMuserid?$DO?6@ DB 'Usage: clie'
	DB	'ntinfo <userid>', 0aH, 00H			; `string'
CONST	ENDS
;	COMDAT ??_C@_0CE@OPGIEOFI@Usage?3?5localinfo?5?$FL?5?$DMkey?$DO?5?$DMvalue@
CONST	SEGMENT
??_C@_0CE@OPGIEOFI@Usage?3?5localinfo?5?$FL?5?$DMkey?$DO?5?$DMvalue@ DB 'U'
	DB	'sage: localinfo [ <key> <value> ]', 0aH, 00H ; `string'
CONST	ENDS
;	COMDAT ??_C@_0BG@MIMOGIIF@Local?5info?5settings?3?6@
CONST	SEGMENT
??_C@_0BG@MIMOGIIF@Local?5info?5settings?3?6@ DB 'Local info settings:', 0aH
	DB	00H						; `string'
CONST	ENDS
;	COMDAT ??_C@_0BF@FKGNFJNH@fullserverinfo?5?$CC?$CFs?$CC?6@
CONST	SEGMENT
??_C@_0BF@FKGNFJNH@fullserverinfo?5?$CC?$CFs?$CC?6@ DB 'fullserverinfo "%'
	DB	's"', 0aH, 00H				; `string'
CONST	ENDS
;	COMDAT ??_C@_0CD@JNCBJJNC@Star?5variables?5cannot?5be?5change@
CONST	SEGMENT
??_C@_0CD@JNCBJJNC@Star?5variables?5cannot?5be?5change@ DB 'Star variable'
	DB	's cannot be changed.', 0aH, 00H		; `string'
CONST	ENDS
;	COMDAT ??_C@_0CF@DAGAMKEO@Usage?3?5serverinfo?5?$FL?5?$DMkey?$DO?5?$DMvalu@
CONST	SEGMENT
??_C@_0CF@DAGAMKEO@Usage?3?5serverinfo?5?$FL?5?$DMkey?$DO?5?$DMvalu@ DB 'U'
	DB	'sage: serverinfo [ <key> <value> ]', 0aH, 00H ; `string'
CONST	ENDS
;	COMDAT ??_C@_0BC@KADBPMIN@Total?5?$CFi?5symbols?6@
CONST	SEGMENT
??_C@_0BC@KADBPMIN@Total?5?$CFi?5symbols?6@ DB 'Total %i symbols', 0aH, 00H ; `string'
CONST	ENDS
;	COMDAT ??_C@_0BH@LAHBCPJF@Server?5info?5settings?3?6@
CONST	SEGMENT
??_C@_0BH@LAHBCPJF@Server?5info?5settings?3?6@ DB 'Server info settings:', 0aH
	DB	00H						; `string'
CONST	ENDS
;	COMDAT ?__LINE__Var@?0??SV_ServerInfo_f@@9@9
_DATA	SEGMENT
?__LINE__Var@?0??SV_ServerInfo_f@@9@9 DD 02aeH		; `SV_ServerInfo_f'::`1'::__LINE__Var
_DATA	ENDS
;	COMDAT ??_C@_0BC@PCDMDIFJ@Server?5say?3?5?$CC?$CFs?$CC?6@
CONST	SEGMENT
??_C@_0BC@PCDMDIFJ@Server?5say?3?5?$CC?$CFs?$CC?6@ DB 'Server say: "%s"', 0aH
	DB	00H						; `string'
CONST	ENDS
;	COMDAT ??_C@_03OFAPEBGM@?$CFs?6@
CONST	SEGMENT
??_C@_03OFAPEBGM@?$CFs?6@ DB '%s', 0aH, 00H		; `string'
CONST	ENDS
;	COMDAT ??_C@_04PFAOODAA@?$CFs?3?5@
CONST	SEGMENT
??_C@_04PFAOODAA@?$CFs?3?5@ DB '%s: ', 00H		; `string'
CONST	ENDS
;	COMDAT ??_C@_08EHKIGBEA@hostname@
CONST	SEGMENT
??_C@_08EHKIGBEA@hostname@ DB 'hostname', 00H		; `string'
CONST	ENDS
;	COMDAT ??_C@_01EEMJAFIK@?6@
CONST	SEGMENT
??_C@_01EEMJAFIK@?6@ DB 0aH, 00H			; `string'
CONST	ENDS
;	COMDAT ??_C@_03NPMIIIHK@?$CF5i@
CONST	SEGMENT
??_C@_03NPMIIIHK@?$CF5i@ DB '%5i', 00H			; `string'
CONST	ENDS
;	COMDAT ??_C@_03JBELIGOI@?$CFg?5@
CONST	SEGMENT
??_C@_03JBELIGOI@?$CFg?5@ DB '%g ', 00H			; `string'
CONST	ENDS
;	COMDAT ??_C@_01CLKCMJKC@?5@
CONST	SEGMENT
??_C@_01CLKCMJKC@?5@ DB ' ', 00H			; `string'
CONST	ENDS
;	COMDAT ??_C@_02DKCKIIND@?$CFs@
CONST	SEGMENT
??_C@_02DKCKIIND@?$CFs@ DB '%s', 00H			; `string'
CONST	ENDS
;	COMDAT ??_C@_04IPICLMID@?$CF7i?5@
CONST	SEGMENT
??_C@_04IPICLMID@?$CF7i?5@ DB '%7i ', 00H		; `string'
CONST	ENDS
;	COMDAT ??_C@_06EJAMHCCN@Bot?5?5?5@
CONST	SEGMENT
??_C@_06EJAMHCCN@Bot?5?5?5@ DB 'Bot   ', 00H		; `string'
CONST	ENDS
;	COMDAT ??_C@_07OJOLFONN@Zombie?5@
CONST	SEGMENT
??_C@_07OJOLFONN@Zombie?5@ DB 'Zombie ', 00H		; `string'
CONST	ENDS
;	COMDAT ??_C@_07FJPHLACI@Connect@
CONST	SEGMENT
??_C@_07FJPHLACI@Connect@ DB 'Connect', 00H		; `string'
CONST	ENDS
;	COMDAT ??_C@_04CFILHEAI@?$CF5i?5@
CONST	SEGMENT
??_C@_04CFILHEAI@?$CF5i?5@ DB '%5i ', 00H		; `string'
CONST	ENDS
;	COMDAT ??_C@_04OACLNE@?$CF3i?5@
CONST	SEGMENT
??_C@_04OACLNE@?$CF3i?5@ DB '%3i ', 00H			; `string'
CONST	ENDS
;	COMDAT ??_C@_0EI@IDNHFOMB@?9?9?9?5?9?9?9?9?9?5?9?9?9?9?9?9?9?5?9?9?9?9?9?9?9?9?9?9?9?9?9@
CONST	SEGMENT
??_C@_0EI@IDNHFOMB@?9?9?9?5?9?9?9?9?9?5?9?9?9?9?9?9?9?5?9?9?9?9?9?9?9?9?9?9?9?9?9@ DB '-'
	DB	'-- ----- ------- --------------- ------- --------------------'
	DB	'- ------', 0aH, 00H				; `string'
CONST	ENDS
;	COMDAT ??_C@_0EH@PJCGICO@num?5score?5ping?5?5?5?5name?5?5?5?5?5?5?5?5?5@
CONST	SEGMENT
??_C@_0EH@PJCGICO@num?5score?5ping?5?5?5?5name?5?5?5?5?5?5?5?5?5@ DB 'num'
	DB	' score ping    name            lastmsg address               '
	DB	'port ', 0aH, 00H				; `string'
CONST	ENDS
;	COMDAT ??_C@_08BLGHJHOM@map?3?5?$CFs?6@
CONST	SEGMENT
??_C@_08BLGHJHOM@map?3?5?$CFs?6@ DB 'map: %s', 0aH, 00H	; `string'
CONST	ENDS
;	COMDAT ??_C@_0BG@LPGCMDEF@?$FO3no?5server?5running?4?6@
CONST	SEGMENT
??_C@_0BG@LPGCMDEF@?$FO3no?5server?5running?4?6@ DB '^3no server running.'
	DB	0aH, 00H					; `string'
CONST	ENDS
;	COMDAT ??_C@_0BL@EFIDFBDP@Usage?3?5entpatch?5?$DMmapname?$DO?6@
CONST	SEGMENT
??_C@_0BL@EFIDFBDP@Usage?3?5entpatch?5?$DMmapname?$DO?6@ DB 'Usage: entpa'
	DB	'tch <mapname>', 0aH, 00H			; `string'
CONST	ENDS
;	COMDAT ??_C@_0BP@ENDOFIF@You?5were?5kicked?5from?5the?5game?6@
CONST	SEGMENT
??_C@_0BP@ENDOFIF@You?5were?5kicked?5from?5the?5game?6@ DB 'You were kick'
	DB	'ed from the game', 0aH, 00H			; `string'
CONST	ENDS
;	COMDAT ??_C@_0P@KCPNDOOJ@?$CFs?5was?5kicked?6@
CONST	SEGMENT
??_C@_0P@KCPNDOOJ@?$CFs?5was?5kicked?6@ DB '%s was kicked', 0aH, 00H ; `string'
CONST	ENDS
;	COMDAT ??_C@_0BL@KHFBEJNG@Kick?3?5?$CC?$CFs?$DM?$CFi?$DO?$CC?5was?5kicked?6@
CONST	SEGMENT
??_C@_0BL@KHFBEJNG@Kick?3?5?$CC?$CFs?$DM?$CFi?$DO?$CC?5was?5kicked?6@ DB 'K'
	DB	'ick: "%s<%i>" was kicked', 0aH, 00H		; `string'
CONST	ENDS
;	COMDAT ??_C@_0CE@LKNKIIN@The?5local?5player?5cannot?5be?5kick@
CONST	SEGMENT
??_C@_0CE@LKNKIIN@The?5local?5player?5cannot?5be?5kick@ DB 'The local pla'
	DB	'yer cannot be kicked!', 0aH, 00H		; `string'
CONST	ENDS
;	COMDAT ??_C@_0BP@ONLBGICF@Usage?3?5kick?5?$DMuserid?$DO?5?$HM?5?$DMname?$DO?6@
CONST	SEGMENT
??_C@_0BP@ONLBGICF@Usage?3?5kick?5?$DMuserid?$DO?5?$HM?5?$DMname?$DO?6@ DB 'U'
	DB	'sage: kick <userid> | <name>', 0aH, 00H	; `string'
CONST	ENDS
;	COMDAT ??_C@_0CK@GAJBFIKO@Usage?3?5changelevel2?5?$DMmapname?$DO?5?$DM@
CONST	SEGMENT
??_C@_0CK@GAJBFIKO@Usage?3?5changelevel2?5?$DMmapname?$DO?5?$DM@ DB 'Usag'
	DB	'e: changelevel2 <mapname> <landmark>', 0aH, 00H ; `string'
CONST	ENDS
;	COMDAT ??_C@_0BO@EEJLIBAC@Usage?3?5changelevel?5?$DMmapname?$DO?6@
CONST	SEGMENT
??_C@_0BO@EEJLIBAC@Usage?3?5changelevel?5?$DMmapname?$DO?6@ DB 'Usage: ch'
	DB	'angelevel <mapname>', 0aH, 00H		; `string'
CONST	ENDS
;	COMDAT ??_C@_08CCMFCJIM@autosave@
CONST	SEGMENT
??_C@_08CCMFCJIM@autosave@ DB 'autosave', 00H		; `string'
CONST	ENDS
;	COMDAT ??_C@_0BB@FDKOPJA@Usage?3?5autosave?6@
CONST	SEGMENT
??_C@_0BB@FDKOPJA@Usage?3?5autosave?6@ DB 'Usage: autosave', 0aH, 00H ; `string'
CONST	ENDS
;	COMDAT ??_C@_08GDJCFMPC@?$CFs?$CFs?4bmp@
CONST	SEGMENT
??_C@_08GDJCFMPC@?$CFs?$CFs?4bmp@ DB '%s%s.bmp', 00H	; `string'
CONST	ENDS
;	COMDAT ??_C@_0BI@DEOKPKPH@Usage?3?5killsave?5?$DMname?$DO?6@
CONST	SEGMENT
??_C@_0BI@DEOKPKPH@Usage?3?5killsave?5?$DMname?$DO?6@ DB 'Usage: killsave'
	DB	' <name>', 0aH, 00H				; `string'
CONST	ENDS
;	COMDAT ??_C@_0CH@KNANJKDI@echo?5Quick?5Saving?4?4?4?$DL?5wait?$DL?5sav@
CONST	SEGMENT
??_C@_0CH@KNANJKDI@echo?5Quick?5Saving?4?4?4?$DL?5wait?$DL?5sav@ DB 'echo'
	DB	' Quick Saving...; wait; save quick', 00H	; `string'
CONST	ENDS
;	COMDAT ??_C@_0BI@BOIKHCDG@Usage?3?5save?5?$DMsavename?$DO?6@
CONST	SEGMENT
??_C@_0BI@BOIKHCDG@Usage?3?5save?5?$DMsavename?$DO?6@ DB 'Usage: save <sa'
	DB	'vename>', 0aH, 00H				; `string'
CONST	ENDS
;	COMDAT ??_C@_03CLCAEGCJ@new@
CONST	SEGMENT
??_C@_03CLCAEGCJ@new@ DB 'new', 00H			; `string'
CONST	ENDS
;	COMDAT ??_C@_0CI@CCMCCHIO@echo?5Quick?5Loading?4?4?4?$DL?5wait?$DL?5lo@
CONST	SEGMENT
??_C@_0CI@CCMCCHIO@echo?5Quick?5Loading?4?4?4?$DL?5wait?$DL?5lo@ DB 'echo'
	DB	' Quick Loading...; wait; load quick', 00H	; `string'
CONST	ENDS
;	COMDAT ??_C@_08NEHHDCOK@?$CFs?$CFs?4sav@
CONST	SEGMENT
??_C@_08NEHHDCOK@?$CFs?$CFs?4sav@ DB '%s%s.sav', 00H	; `string'
CONST	ENDS
;	COMDAT ??_C@_05HFINLBCI@save?1@
CONST	SEGMENT
??_C@_05HFINLBCI@save?1@ DB 'save/', 00H		; `string'
CONST	ENDS
;	COMDAT ??_C@_0BI@KNLHFPBG@Usage?3?5load?5?$DMsavename?$DO?6@
CONST	SEGMENT
??_C@_0BI@KNLHFPBG@Usage?3?5load?5?$DMsavename?$DO?6@ DB 'Usage: load <sa'
	DB	'vename>', 0aH, 00H				; `string'
CONST	ENDS
;	COMDAT ??_C@_07IFACIOED@The?5End@
CONST	SEGMENT
??_C@_07IFACIOED@The?5End@ DB 'The End', 00H		; `string'
CONST	ENDS
;	COMDAT ??_C@_0BA@GBJKJN@wait?$DL?5movie?5?$CFs?6@
CONST	SEGMENT
??_C@_0BA@GBJKJN@wait?$DL?5movie?5?$CFs?6@ DB 'wait; movie %s', 0aH, 00H ; `string'
CONST	ENDS
;	COMDAT ??_C@_0N@KGAPJLAD@media?1?$CFs?4avi@
CONST	SEGMENT
??_C@_0N@KGAPJLAD@media?1?$CFs?4avi@ DB 'media/%s.avi', 00H ; `string'
CONST	ENDS
;	COMDAT ??_C@_0BF@KKPDDLCD@Usage?3?5hazardcourse?6@
CONST	SEGMENT
??_C@_0BF@KKPDDLCD@Usage?3?5hazardcourse?6@ DB 'Usage: hazardcourse', 0aH
	DB	00H						; `string'
CONST	ENDS
;	COMDAT ??_C@_0BA@ICHBNMI@Usage?3?5newgame?6@
CONST	SEGMENT
??_C@_0BA@ICHBNMI@Usage?3?5newgame?6@ DB 'Usage: newgame', 0aH, 00H ; `string'
CONST	ENDS
;	COMDAT ??_C@_0BJ@ILADGLBB@failed?5to?5load?5next?5map?6@
CONST	SEGMENT
??_C@_0BJ@ILADGLBB@failed?5to?5load?5next?5map?6@ DB 'failed to load next'
	DB	' map', 0aH, 00H				; `string'
CONST	ENDS
;	COMDAT ??_C@_0DE@IKJBKMHC@D?3?2DevDragon?2XashFE?2dev?2src?2eng@
CONST	SEGMENT
??_C@_0DE@IKJBKMHC@D?3?2DevDragon?2XashFE?2dev?2src?2eng@ DB 'D:\DevDrago'
	DB	'n\XashFE\dev\src\engine\server\sv_cmds.c', 00H ; `string'
CONST	ENDS
;	COMDAT ??_C@_03DGBMLAJE@bsp@
CONST	SEGMENT
??_C@_03DGBMLAJE@bsp@ DB 'bsp', 00H			; `string'
CONST	ENDS
;	COMDAT ??_C@_0BJ@DJOICELF@next?5map?5can?8t?5be?5found?6@
CONST	SEGMENT
??_C@_0BJ@DJOICELF@next?5map?5can?8t?5be?5found?6@ DB 'next map can''t be'
	DB	' found', 0aH, 00H				; `string'
CONST	ENDS
;	COMDAT ??_C@_0L@OKPFMBPD@maps?1?$CK?4bsp@
CONST	SEGMENT
??_C@_0L@OKPFMBPD@maps?1?$CK?4bsp@ DB 'maps/*.bsp', 00H	; `string'
CONST	ENDS
;	COMDAT ?__LINE__Var@?0??SV_NextMap_f@@9@9
_DATA	SEGMENT
?__LINE__Var@?0??SV_NextMap_f@@9@9 DD 0118H		; `SV_NextMap_f'::`1'::__LINE__Var
_DATA	ENDS
;	COMDAT ??_C@_04OILOBHMB@coop@
CONST	SEGMENT
??_C@_04OILOBHMB@coop@ DB 'coop', 00H			; `string'
CONST	ENDS
;	COMDAT ??_C@_0L@ILDAINPG@deathmatch@
CONST	SEGMENT
??_C@_0L@ILDAINPG@deathmatch@ DB 'deathmatch', 00H	; `string'
CONST	ENDS
;	COMDAT ??_C@_01GBGANLPD@0@
CONST	SEGMENT
??_C@_01GBGANLPD@0@ DB '0', 00H				; `string'
CONST	ENDS
;	COMDAT ??_C@_0L@PCNFODNF@maxplayers@
CONST	SEGMENT
??_C@_0L@PCNFODNF@maxplayers@ DB 'maxplayers', 00H	; `string'
CONST	ENDS
;	COMDAT ??_C@_01HIHLOKLC@1@
CONST	SEGMENT
??_C@_01HIHLOKLC@1@ DB '1', 00H				; `string'
CONST	ENDS
;	COMDAT ??_C@_0DK@LAMAKOH@?$FO1Error?3?$FO7?5can?8t?5set?5background@
CONST	SEGMENT
??_C@_0DK@LAMAKOH@?$FO1Error?3?$FO7?5can?8t?5set?5background@ DB '^1Error'
	DB	':^7 can''t set background map while game is active', 0aH, 00H ; `string'
CONST	ENDS
;	COMDAT ??_C@_0CB@CGKIECDI@Usage?3?5map_background?5?$DMmapname?$DO@
CONST	SEGMENT
??_C@_0CB@CGKIECDI@Usage?3?5map_background?5?$DMmapname?$DO@ DB 'Usage: m'
	DB	'ap_background <mapname>', 0aH, 00H		; `string'
CONST	ENDS
;	COMDAT ??_C@_0BG@BFFDIHHN@Usage?3?5map?5?$DMmapname?$DO?6@
CONST	SEGMENT
??_C@_0BG@BFFDIHHN@Usage?3?5map?5?$DMmapname?$DO?6@ DB 'Usage: map <mapna'
	DB	'me>', 0aH, 00H				; `string'
CONST	ENDS
;	COMDAT ??_C@_0DD@IIGHGIIE@?$FO1Error?3?$FO7?5map?5?$CFs?5doesn?8t?5have?5@
CONST	SEGMENT
??_C@_0DD@IIGHGIIE@?$FO1Error?3?$FO7?5map?5?$CFs?5doesn?8t?5have?5@ DB '^'
	DB	'1Error:^7 map %s doesn''t have a valid spawnpoint', 0aH, 00H ; `string'
CONST	ENDS
;	COMDAT ??_C@_0CB@PJOLFLJM@?$FO1Error?3?$FO7?5map?5?$CFs?5doesn?8t?5exist@
CONST	SEGMENT
??_C@_0CB@PJOLFLJM@?$FO1Error?3?$FO7?5map?5?$CFs?5doesn?8t?5exist@ DB '^1'
	DB	'Error:^7 map %s doesn''t exist', 0aH, 00H	; `string'
CONST	ENDS
;	COMDAT ??_C@_0CP@BJKGLKEH@?$FO1Error?3?$FO7?5map?5?$CFs?5is?5invalid?5or@
CONST	SEGMENT
??_C@_0CP@BJKGLKEH@?$FO1Error?3?$FO7?5map?5?$CFs?5is?5invalid?5or@ DB '^1'
	DB	'Error:^7 map %s is invalid or not supported', 0aH, 00H ; `string'
CONST	ENDS
;	COMDAT ??_C@_0CA@CAEDDADG@Userid?5?$CFs?5is?5not?5on?5the?5server?6@
CONST	SEGMENT
??_C@_0CA@CAEDDADG@Userid?5?$CFs?5is?5not?5on?5the?5server?6@ DB 'Userid '
	DB	'%s is not on the server', 0aH, 00H		; `string'
CONST	ENDS
;	COMDAT ??_C@_0BJ@PDNIBEAG@Client?5?$CFi?5is?5not?5active?6@
CONST	SEGMENT
??_C@_0BJ@PDNIBEAG@Client?5?$CFi?5is?5not?5active?6@ DB 'Client %i is not'
	DB	' active', 0aH, 00H				; `string'
CONST	ENDS
;	COMDAT ??_C@_0BF@BEBENGBA@Bad?5client?5slot?3?5?$CFi?6@
CONST	SEGMENT
??_C@_0BF@BEBENGBA@Bad?5client?5slot?3?5?$CFi?6@ DB 'Bad client slot: %i', 0aH
	DB	00H						; `string'
CONST	ENDS
;	COMDAT voltbl
voltbl	SEGMENT
_volmd	DB	010H
	DB	0e2H
voltbl	ENDS
;	COMDAT voltbl
voltbl	SEGMENT
_volmd	DB	010H
	DB	061H
voltbl	ENDS
;	COMDAT voltbl
voltbl	SEGMENT
_volmd	DW	010H
	DW	0179H
voltbl	ENDS
;	COMDAT voltbl
voltbl	SEGMENT
_volmd	DB	010H
	DB	0eeH
voltbl	ENDS
;	COMDAT voltbl
voltbl	SEGMENT
_volmd	DB	010H
	DB	08cH
voltbl	ENDS
;	COMDAT voltbl
voltbl	SEGMENT
_volmd	DB	010H
	DB	08bH
voltbl	ENDS
;	COMDAT voltbl
voltbl	SEGMENT
_volmd	DW	010H
	DW	011cH
voltbl	ENDS
;	COMDAT voltbl
voltbl	SEGMENT
_volmd	DB	010H
	DB	07dH
voltbl	ENDS
; Function compile flags: /Odtp /ZI
; File D:\DevDragon\XashFE\dev\src\engine\server\sv_cmds.c
;	COMDAT _SV_EntityInfo_f
_TEXT	SEGMENT
_i$ = -8						; size = 4
_ent$ = -4						; size = 4
_SV_EntityInfo_f PROC					; COMDAT

; 837  : {

	push	ebp
	mov	ebp, esp
	sub	esp, 72					; 00000048H
	push	ebx
	push	esi
	push	edi

; 838  : 	edict_t	*ent;
; 839  : 	int	i;
; 840  : 
; 841  : 	if( sv.state != ss_active )

	cmp	DWORD PTR _sv, 2
	je	SHORT $LN5@SV_EntityI

; 842  : 	{
; 843  : 		Con_Printf( "^3no server running.\n" );

	push	OFFSET ??_C@_0BG@LPGCMDEF@?$FO3no?5server?5running?4?6@
	call	_Con_Printf
	add	esp, 4

; 844  : 		return;

	jmp	$LN3@SV_EntityI
$LN5@SV_EntityI:

; 845  : 	}
; 846  : 
; 847  : 	for( i = 0; i < svgame.numEntities; i++ )

	mov	DWORD PTR _i$[ebp], 0
	jmp	SHORT $LN4@SV_EntityI
$LN2@SV_EntityI:
	mov	eax, DWORD PTR _i$[ebp]
	add	eax, 1
	mov	DWORD PTR _i$[ebp], eax
$LN4@SV_EntityI:
	mov	eax, DWORD PTR _i$[ebp]
	cmp	eax, DWORD PTR _svgame+7932
	jge	$LN3@SV_EntityI

; 848  : 	{
; 849  : 		ent = EDICT_NUM( i );

	mov	eax, DWORD PTR _i$[ebp]
	push	eax
	call	_SV_EdictNum
	add	esp, 4
	mov	DWORD PTR _ent$[ebp], eax

; 850  : 		if( !SV_IsValidEdict( ent )) continue;

	mov	eax, DWORD PTR ?__LINE__Var@?0??SV_EntityInfo_f@@9@9
	add	eax, 13					; 0000000dH
	push	eax
	push	OFFSET ??_C@_0DE@IKJBKMHC@D?3?2DevDragon?2XashFE?2dev?2src?2eng@
	mov	ecx, DWORD PTR _ent$[ebp]
	push	ecx
	call	_SV_CheckEdict
	add	esp, 12					; 0000000cH
	test	eax, eax
	jne	SHORT $LN6@SV_EntityI
	jmp	SHORT $LN2@SV_EntityI
$LN6@SV_EntityI:

; 851  : 
; 852  : 		Con_Printf( "%5i origin: %.f %.f %.f", i, ent->v.origin[0], ent->v.origin[1], ent->v.origin[2] );

	mov	eax, 4
	shl	eax, 1
	mov	ecx, DWORD PTR _ent$[ebp]
	cvtss2sd xmm0, DWORD PTR [ecx+eax+136]
	sub	esp, 8
	movsd	QWORD PTR [esp], xmm0
	mov	edx, 4
	shl	edx, 0
	mov	eax, DWORD PTR _ent$[ebp]
	cvtss2sd xmm0, DWORD PTR [eax+edx+136]
	sub	esp, 8
	movsd	QWORD PTR [esp], xmm0
	mov	ecx, 4
	imul	edx, ecx, 0
	mov	eax, DWORD PTR _ent$[ebp]
	cvtss2sd xmm0, DWORD PTR [eax+edx+136]
	sub	esp, 8
	movsd	QWORD PTR [esp], xmm0
	mov	ecx, DWORD PTR _i$[ebp]
	push	ecx
	push	OFFSET ??_C@_0BI@JGCHBLJO@?$CF5i?5origin?3?5?$CF?4f?5?$CF?4f?5?$CF?4f@
	call	_Con_Printf
	add	esp, 32					; 00000020H

; 853  : 
; 854  : 		if( ent->v.classname )

	mov	eax, DWORD PTR _ent$[ebp]
	cmp	DWORD PTR [eax+128], 0
	je	SHORT $LN7@SV_EntityI

; 855  : 			Con_Printf( ", class: %s", STRING( ent->v.classname ));

	mov	eax, DWORD PTR _ent$[ebp]
	mov	ecx, DWORD PTR [eax+128]
	push	ecx
	call	_SV_GetString
	add	esp, 4
	push	eax
	push	OFFSET ??_C@_0M@KCEKFJCG@?0?5class?3?5?$CFs@
	call	_Con_Printf
	add	esp, 8
$LN7@SV_EntityI:

; 856  : 
; 857  : 		if( ent->v.globalname )

	mov	eax, DWORD PTR _ent$[ebp]
	cmp	DWORD PTR [eax+132], 0
	je	SHORT $LN8@SV_EntityI

; 858  : 			Con_Printf( ", global: %s", STRING( ent->v.globalname ));

	mov	eax, DWORD PTR _ent$[ebp]
	mov	ecx, DWORD PTR [eax+132]
	push	ecx
	call	_SV_GetString
	add	esp, 4
	push	eax
	push	OFFSET ??_C@_0N@EBJODHCK@?0?5global?3?5?$CFs@
	call	_Con_Printf
	add	esp, 8
$LN8@SV_EntityI:

; 859  : 
; 860  : 		if( ent->v.targetname )

	mov	eax, DWORD PTR _ent$[ebp]
	cmp	DWORD PTR [eax+684], 0
	je	SHORT $LN9@SV_EntityI

; 861  : 			Con_Printf( ", name: %s", STRING( ent->v.targetname ));

	mov	eax, DWORD PTR _ent$[ebp]
	mov	ecx, DWORD PTR [eax+684]
	push	ecx
	call	_SV_GetString
	add	esp, 4
	push	eax
	push	OFFSET ??_C@_0L@BMCMLICL@?0?5name?3?5?$CFs@
	call	_Con_Printf
	add	esp, 8
$LN9@SV_EntityI:

; 862  : 
; 863  : 		if( ent->v.target )

	mov	eax, DWORD PTR _ent$[ebp]
	cmp	DWORD PTR [eax+680], 0
	je	SHORT $LN10@SV_EntityI

; 864  : 			Con_Printf( ", target: %s", STRING( ent->v.target ));

	mov	eax, DWORD PTR _ent$[ebp]
	mov	ecx, DWORD PTR [eax+680]
	push	ecx
	call	_SV_GetString
	add	esp, 4
	push	eax
	push	OFFSET ??_C@_0N@INNBBBPH@?0?5target?3?5?$CFs@
	call	_Con_Printf
	add	esp, 8
$LN10@SV_EntityI:

; 865  : 
; 866  : 		if( ent->v.model )

	mov	eax, DWORD PTR _ent$[ebp]
	cmp	DWORD PTR [eax+312], 0
	je	SHORT $LN11@SV_EntityI

; 867  : 			Con_Printf( ", model: %s", STRING( ent->v.model ));

	mov	eax, DWORD PTR _ent$[ebp]
	mov	ecx, DWORD PTR [eax+312]
	push	ecx
	call	_SV_GetString
	add	esp, 4
	push	eax
	push	OFFSET ??_C@_0M@DLGAECIO@?0?5model?3?5?$CFs@
	call	_Con_Printf
	add	esp, 8
$LN11@SV_EntityI:

; 868  : 
; 869  : 		Con_Printf( "\n" );

	push	OFFSET ??_C@_01EEMJAFIK@?6@
	call	_Con_Printf
	add	esp, 4

; 870  : 	}

	jmp	$LN2@SV_EntityI
$LN3@SV_EntityI:

; 871  : }

	pop	edi
	pop	esi
	pop	ebx
	mov	esp, ebp
	pop	ebp
	ret	0
_SV_EntityInfo_f ENDP
_TEXT	ENDS
; Function compile flags: /Odtp /ZI
; File D:\DevDragon\XashFE\dev\src\engine\server\sv_cmds.c
;	COMDAT _SV_EdictUsage_f
_TEXT	SEGMENT
_active$ = -4						; size = 4
_SV_EdictUsage_f PROC					; COMDAT

; 815  : {

	push	ebp
	mov	ebp, esp
	sub	esp, 68					; 00000044H
	push	ebx
	push	esi
	push	edi

; 816  : 	int	active;
; 817  : 
; 818  : 	if( sv.state != ss_active )

	cmp	DWORD PTR _sv, 2
	je	SHORT $LN2@SV_EdictUs

; 819  : 	{
; 820  : 		Con_Printf( "^3no server running.\n" );

	push	OFFSET ??_C@_0BG@LPGCMDEF@?$FO3no?5server?5running?4?6@
	call	_Con_Printf
	add	esp, 4

; 821  : 		return;

	jmp	SHORT $LN1@SV_EdictUs
$LN2@SV_EdictUs:

; 822  : 	}
; 823  : 
; 824  : 	active = pfnNumberOfEntities(); 

	call	_pfnNumberOfEntities
	mov	DWORD PTR _active$[ebp], eax

; 825  : 	Con_Printf( "%5i edicts is used\n", active );

	mov	eax, DWORD PTR _active$[ebp]
	push	eax
	push	OFFSET ??_C@_0BE@KPLEOPPO@?$CF5i?5edicts?5is?5used?6@
	call	_Con_Printf
	add	esp, 8

; 826  : 	Con_Printf( "%5i edicts is free\n", GI->max_edicts - active );

	mov	eax, DWORD PTR _SI+768
	mov	ecx, DWORD PTR [eax+1656]
	sub	ecx, DWORD PTR _active$[ebp]
	push	ecx
	push	OFFSET ??_C@_0BE@BGFENMEM@?$CF5i?5edicts?5is?5free?6@
	call	_Con_Printf
	add	esp, 8

; 827  : 	Con_Printf( "%5i total\n", GI->max_edicts );

	mov	eax, DWORD PTR _SI+768
	mov	ecx, DWORD PTR [eax+1656]
	push	ecx
	push	OFFSET ??_C@_0L@DBLADEED@?$CF5i?5total?6@
	call	_Con_Printf
	add	esp, 8
$LN1@SV_EdictUs:

; 828  : }

	pop	edi
	pop	esi
	pop	ebx
	mov	esp, ebp
	pop	ebp
	ret	0
_SV_EdictUsage_f ENDP
_TEXT	ENDS
; Function compile flags: /Odtp /ZI
; File D:\DevDragon\XashFE\dev\src\engine\server\sv_cmds.c
;	COMDAT _SV_PlayersOnly_f
_TEXT	SEGMENT
tv69 = -68						; size = 4
_SV_PlayersOnly_f PROC					; COMDAT

; 800  : {

	push	ebp
	mov	ebp, esp
	sub	esp, 68					; 00000044H
	push	ebx
	push	esi
	push	edi

; 801  : 	if( !Cvar_VariableInteger( "sv_cheats" )) return;

	push	OFFSET ??_C@_09NFOPKLIK@sv_cheats@
	call	_Cvar_VariableInteger
	add	esp, 4
	test	eax, eax
	jne	SHORT $LN2@SV_Players
	jmp	SHORT $LN1@SV_Players
$LN2@SV_Players:

; 802  : 
; 803  : 	sv.playersonly ^= 1;

	mov	eax, DWORD PTR _sv+2595648
	xor	eax, 1
	mov	DWORD PTR _sv+2595648, eax

; 804  : 
; 805  : 	SV_BroadcastPrintf( NULL, "%s game physic\n", sv.playersonly ? "Freeze" : "Resume" );

	je	SHORT $LN4@SV_Players
	mov	DWORD PTR tv69[ebp], OFFSET ??_C@_06BPGEEBGA@Freeze@
	jmp	SHORT $LN5@SV_Players
$LN4@SV_Players:
	mov	DWORD PTR tv69[ebp], OFFSET ??_C@_06DEPGELNG@Resume@
$LN5@SV_Players:
	mov	eax, DWORD PTR tv69[ebp]
	push	eax
	push	OFFSET ??_C@_0BA@DKGJMAHL@?$CFs?5game?5physic?6@
	push	0
	call	_SV_BroadcastPrintf
	add	esp, 12					; 0000000cH
$LN1@SV_Players:

; 806  : }

	pop	edi
	pop	esi
	pop	ebx
	mov	esp, ebp
	pop	ebp
	ret	0
_SV_PlayersOnly_f ENDP
_TEXT	ENDS
; Function compile flags: /Odtp /ZI
; File D:\DevDragon\XashFE\dev\src\engine\server\sv_cmds.c
;	COMDAT _SV_KillServer_f
_TEXT	SEGMENT
_SV_KillServer_f PROC					; COMDAT

; 788  : {

	push	ebp
	mov	ebp, esp
	sub	esp, 64					; 00000040H
	push	ebx
	push	esi
	push	edi

; 789  : 	Host_ShutdownServer();

	call	_Host_ShutdownServer

; 790  : }

	pop	edi
	pop	esi
	pop	ebx
	mov	esp, ebp
	pop	ebp
	ret	0
_SV_KillServer_f ENDP
_TEXT	ENDS
; Function compile flags: /Odtp /ZI
; File D:\DevDragon\XashFE\dev\src\engine\server\sv_cmds.c
;	COMDAT _SV_ClientInfo_f
_TEXT	SEGMENT
_cl$ = -4						; size = 4
_SV_ClientInfo_f PROC					; COMDAT

; 762  : {

	push	ebp
	mov	ebp, esp
	sub	esp, 68					; 00000044H
	push	ebx
	push	esi
	push	edi

; 763  : 	sv_client_t	*cl;
; 764  : 
; 765  : 	if( Cmd_Argc() != 2 )

	call	_Cmd_Argc
	cmp	eax, 2
	je	SHORT $LN2@SV_ClientI

; 766  : 	{
; 767  : 		Con_Printf( S_USAGE "clientinfo <userid>\n" );

	push	OFFSET ??_C@_0BM@CJDPIDOK@Usage?3?5clientinfo?5?$DMuserid?$DO?6@
	call	_Con_Printf
	add	esp, 4

; 768  : 		return;

	jmp	SHORT $LN1@SV_ClientI
$LN2@SV_ClientI:

; 769  : 	}
; 770  : 
; 771  : 	if(( cl = SV_SetPlayer( )) == NULL )

	call	_SV_SetPlayer
	mov	DWORD PTR _cl$[ebp], eax
	cmp	DWORD PTR _cl$[ebp], 0
	jne	SHORT $LN3@SV_ClientI

; 772  : 		return;

	jmp	SHORT $LN1@SV_ClientI
$LN3@SV_ClientI:

; 773  : 
; 774  : 	Con_Printf( "userinfo\n" );

	push	OFFSET ??_C@_09IIBHBCGO@userinfo?6@
	call	_Con_Printf
	add	esp, 4

; 775  : 	Con_Printf( "--------\n" );

	push	OFFSET ??_C@_09DDAOCEB@?9?9?9?9?9?9?9?9?6@
	call	_Con_Printf
	add	esp, 4

; 776  : 	Info_Print( cl->userinfo );

	mov	eax, DWORD PTR _cl$[ebp]
	add	eax, 48					; 00000030H
	push	eax
	call	_Info_Print
	add	esp, 4
$LN1@SV_ClientI:

; 777  : 
; 778  : }

	pop	edi
	pop	esi
	pop	ebx
	mov	esp, ebp
	pop	ebp
	ret	0
_SV_ClientInfo_f ENDP
_TEXT	ENDS
; Function compile flags: /Odtp /ZI
; File D:\DevDragon\XashFE\dev\src\engine\server\sv_cmds.c
;	COMDAT _SV_LocalInfo_f
_TEXT	SEGMENT
_SV_LocalInfo_f PROC					; COMDAT

; 730  : {

	push	ebp
	mov	ebp, esp
	sub	esp, 64					; 00000040H
	push	ebx
	push	esi
	push	edi

; 731  : 	if( Cmd_Argc() == 1 )

	call	_Cmd_Argc
	cmp	eax, 1
	jne	SHORT $LN2@SV_LocalIn

; 732  : 	{
; 733  : 		Con_Printf( "Local info settings:\n" );

	push	OFFSET ??_C@_0BG@MIMOGIIF@Local?5info?5settings?3?6@
	call	_Con_Printf
	add	esp, 4

; 734  : 		Info_Print( svs.localinfo );

	push	OFFSET _svs+572
	call	_Info_Print
	add	esp, 4

; 735  : 		Con_Printf( "Total %i symbols\n", Q_strlen( svs.localinfo ));

	push	OFFSET _svs+572
	call	_Q_strlen
	add	esp, 4
	push	eax
	push	OFFSET ??_C@_0BC@KADBPMIN@Total?5?$CFi?5symbols?6@
	call	_Con_Printf
	add	esp, 8

; 736  : 		return;

	jmp	SHORT $LN1@SV_LocalIn
$LN2@SV_LocalIn:

; 737  : 	}
; 738  : 
; 739  : 	if( Cmd_Argc() != 3 )

	call	_Cmd_Argc
	cmp	eax, 3
	je	SHORT $LN3@SV_LocalIn

; 740  : 	{
; 741  : 		Con_Printf( S_USAGE "localinfo [ <key> <value> ]\n");

	push	OFFSET ??_C@_0CE@OPGIEOFI@Usage?3?5localinfo?5?$FL?5?$DMkey?$DO?5?$DMvalue@
	call	_Con_Printf
	add	esp, 4

; 742  : 		return;

	jmp	SHORT $LN1@SV_LocalIn
$LN3@SV_LocalIn:

; 743  : 	}
; 744  : 
; 745  : 	if( Cmd_Argv(1)[0] == '*' )

	push	1
	call	_Cmd_Argv
	add	esp, 4
	mov	ecx, 1
	imul	edx, ecx, 0
	movsx	eax, BYTE PTR [eax+edx]
	cmp	eax, 42					; 0000002aH
	jne	SHORT $LN4@SV_LocalIn

; 746  : 	{
; 747  : 		Con_Printf( "Star variables cannot be changed.\n" );

	push	OFFSET ??_C@_0CD@JNCBJJNC@Star?5variables?5cannot?5be?5change@
	call	_Con_Printf
	add	esp, 4

; 748  : 		return;

	jmp	SHORT $LN1@SV_LocalIn
$LN4@SV_LocalIn:

; 749  : 	}
; 750  : 
; 751  : 	Info_SetValueForStarKey( svs.localinfo, Cmd_Argv(1), Cmd_Argv(2), MAX_LOCALINFO_STRING );

	push	32768					; 00008000H
	push	2
	call	_Cmd_Argv
	add	esp, 4
	push	eax
	push	1
	call	_Cmd_Argv
	add	esp, 4
	push	eax
	push	OFFSET _svs+572
	call	_Info_SetValueForStarKey
	add	esp, 16					; 00000010H
$LN1@SV_LocalIn:

; 752  : }

	pop	edi
	pop	esi
	pop	ebx
	mov	esp, ebp
	pop	ebp
	ret	0
_SV_LocalInfo_f ENDP
_TEXT	ENDS
; Function compile flags: /Odtp /ZI
; File D:\DevDragon\XashFE\dev\src\engine\server\sv_cmds.c
;	COMDAT _SV_ServerInfo_f
_TEXT	SEGMENT
_var$ = -4						; size = 4
_SV_ServerInfo_f PROC					; COMDAT

; 686  : {

	push	ebp
	mov	ebp, esp
	sub	esp, 68					; 00000044H
	push	ebx
	push	esi
	push	edi

; 687  : 	convar_t	*var;
; 688  : 
; 689  : 	if( Cmd_Argc() == 1 )

	call	_Cmd_Argc
	cmp	eax, 1
	jne	SHORT $LN2@SV_ServerI

; 690  : 	{
; 691  : 		Con_Printf( "Server info settings:\n" );

	push	OFFSET ??_C@_0BH@LAHBCPJF@Server?5info?5settings?3?6@
	call	_Con_Printf
	add	esp, 4

; 692  : 		Info_Print( svs.serverinfo );

	push	OFFSET _svs+60
	call	_Info_Print
	add	esp, 4

; 693  : 		Con_Printf( "Total %i symbols\n", Q_strlen( svs.serverinfo ));

	push	OFFSET _svs+60
	call	_Q_strlen
	add	esp, 4
	push	eax
	push	OFFSET ??_C@_0BC@KADBPMIN@Total?5?$CFi?5symbols?6@
	call	_Con_Printf
	add	esp, 8

; 694  : 		return;

	jmp	$LN1@SV_ServerI
$LN2@SV_ServerI:

; 695  : 	}
; 696  : 
; 697  : 	if( Cmd_Argc() != 3 )

	call	_Cmd_Argc
	cmp	eax, 3
	je	SHORT $LN3@SV_ServerI

; 698  : 	{
; 699  : 		Con_Printf( S_USAGE "serverinfo [ <key> <value> ]\n");

	push	OFFSET ??_C@_0CF@DAGAMKEO@Usage?3?5serverinfo?5?$FL?5?$DMkey?$DO?5?$DMvalu@
	call	_Con_Printf
	add	esp, 4

; 700  : 		return;

	jmp	$LN1@SV_ServerI
$LN3@SV_ServerI:

; 701  : 	}
; 702  : 
; 703  : 	if( Cmd_Argv(1)[0] == '*' )

	push	1
	call	_Cmd_Argv
	add	esp, 4
	mov	ecx, 1
	imul	edx, ecx, 0
	movsx	eax, BYTE PTR [eax+edx]
	cmp	eax, 42					; 0000002aH
	jne	SHORT $LN4@SV_ServerI

; 704  : 	{
; 705  : 		Con_Printf( "Star variables cannot be changed.\n" );

	push	OFFSET ??_C@_0CD@JNCBJJNC@Star?5variables?5cannot?5be?5change@
	call	_Con_Printf
	add	esp, 4

; 706  : 		return;

	jmp	$LN1@SV_ServerI
$LN4@SV_ServerI:

; 707  : 	}
; 708  : 
; 709  : 	// if this is a cvar, change it too	
; 710  : 	var = Cvar_FindVar( Cmd_Argv( 1 ));

	push	0
	push	1
	call	_Cmd_Argv
	add	esp, 4
	push	eax
	call	_Cvar_FindVarExt
	add	esp, 8
	mov	DWORD PTR _var$[ebp], eax

; 711  : 	if( var )

	cmp	DWORD PTR _var$[ebp], 0
	je	SHORT $LN5@SV_ServerI

; 712  : 	{
; 713  : 		freestring( var->string ); // free the old value string	

	mov	eax, DWORD PTR _var$[ebp]
	cmp	DWORD PTR [eax+4], 0
	je	SHORT $LN6@SV_ServerI
	mov	eax, DWORD PTR ?__LINE__Var@?0??SV_ServerInfo_f@@9@9
	add	eax, 27					; 0000001bH
	push	eax
	push	OFFSET ??_C@_0DE@IKJBKMHC@D?3?2DevDragon?2XashFE?2dev?2src?2eng@
	mov	ecx, DWORD PTR _var$[ebp]
	mov	edx, DWORD PTR [ecx+4]
	push	edx
	call	__Mem_Free
	add	esp, 12					; 0000000cH
	mov	eax, DWORD PTR _var$[ebp]
	mov	DWORD PTR [eax+4], 0
$LN6@SV_ServerI:

; 714  : 		var->string = copystring( Cmd_Argv( 2 ));

	mov	eax, DWORD PTR ?__LINE__Var@?0??SV_ServerInfo_f@@9@9
	add	eax, 28					; 0000001cH
	push	eax
	push	OFFSET ??_C@_0DE@IKJBKMHC@D?3?2DevDragon?2XashFE?2dev?2src?2eng@
	push	2
	call	_Cmd_Argv
	add	esp, 4
	push	eax
	mov	ecx, DWORD PTR _host+236
	push	ecx
	call	__copystring
	add	esp, 16					; 00000010H
	mov	edx, DWORD PTR _var$[ebp]
	mov	DWORD PTR [edx+4], eax

; 715  : 		var->value = Q_atof( var->string );

	mov	eax, DWORD PTR _var$[ebp]
	mov	ecx, DWORD PTR [eax+4]
	push	ecx
	call	_Q_atof
	add	esp, 4
	mov	edx, DWORD PTR _var$[ebp]
	fstp	DWORD PTR [edx+12]
$LN5@SV_ServerI:

; 716  : 	}
; 717  : 
; 718  : 	Info_SetValueForStarKey( svs.serverinfo, Cmd_Argv( 1 ), Cmd_Argv( 2 ), MAX_SERVERINFO_STRING );

	push	512					; 00000200H
	push	2
	call	_Cmd_Argv
	add	esp, 4
	push	eax
	push	1
	call	_Cmd_Argv
	add	esp, 4
	push	eax
	push	OFFSET _svs+60
	call	_Info_SetValueForStarKey
	add	esp, 16					; 00000010H

; 719  : 	SV_BroadcastCommand( "fullserverinfo \"%s\"\n", SV_Serverinfo( ));

	call	_SV_Serverinfo
	push	eax
	push	OFFSET ??_C@_0BF@FKGNFJNH@fullserverinfo?5?$CC?$CFs?$CC?6@
	call	_SV_BroadcastCommand
	add	esp, 8
$LN1@SV_ServerI:

; 720  : }

	pop	edi
	pop	esi
	pop	ebx
	mov	esp, ebp
	pop	ebp
	ret	0
_SV_ServerInfo_f ENDP
_TEXT	ENDS
; Function compile flags: /Odtp /ZI
; File D:\DevDragon\XashFE\dev\src\engine\server\sv_cmds.c
;	COMDAT _SV_Heartbeat_f
_TEXT	SEGMENT
_SV_Heartbeat_f PROC					; COMDAT

; 674  : {

	push	ebp
	mov	ebp, esp
	sub	esp, 64					; 00000040H
	push	ebx
	push	esi
	push	edi

; 675  : 	svs.last_heartbeat = MAX_HEARTBEAT;

	movsd	xmm0, QWORD PTR __real@c0f869f000000000
	movsd	QWORD PTR _svs+33368, xmm0

; 676  : }

	pop	edi
	pop	esi
	pop	ebx
	mov	esp, ebp
	pop	ebp
	ret	0
_SV_Heartbeat_f ENDP
_TEXT	ENDS
; Function compile flags: /Odtp /ZI
; File D:\DevDragon\XashFE\dev\src\engine\server\sv_cmds.c
;	COMDAT _SV_ConSay_f
_TEXT	SEGMENT
_text$ = -1032						; size = 1024
_p$ = -8						; size = 4
__$ArrayPad$ = -4					; size = 4
_SV_ConSay_f PROC					; COMDAT

; 643  : {

	push	ebp
	mov	ebp, esp
	sub	esp, 1224				; 000004c8H
	mov	eax, DWORD PTR ___security_cookie
	xor	eax, ebp
	mov	DWORD PTR __$ArrayPad$[ebp], eax
	push	ebx
	push	esi
	push	edi

; 644  : 	char	*p, text[MAX_SYSPATH];
; 645  : 
; 646  : 	if( Cmd_Argc() < 2 ) return;

	call	_Cmd_Argc
	cmp	eax, 2
	jae	SHORT $LN2@SV_ConSay_
	jmp	$LN1@SV_ConSay_
$LN2@SV_ConSay_:

; 647  : 
; 648  : 	if( !svs.clients || sv.background )

	cmp	DWORD PTR _svs+33344, 0
	je	SHORT $LN4@SV_ConSay_
	cmp	DWORD PTR _sv+4, 0
	je	SHORT $LN3@SV_ConSay_
$LN4@SV_ConSay_:

; 649  : 	{
; 650  : 		Con_Printf( "^3no server running.\n" );

	push	OFFSET ??_C@_0BG@LPGCMDEF@?$FO3no?5server?5running?4?6@
	call	_Con_Printf
	add	esp, 4

; 651  : 		return;

	jmp	$LN1@SV_ConSay_
$LN3@SV_ConSay_:

; 652  : 	}
; 653  : 
; 654  : 	Q_snprintf( text, sizeof( text ), "%s: ", Cvar_VariableString( "hostname" ));

	push	OFFSET ??_C@_08EHKIGBEA@hostname@
	call	_Cvar_VariableString
	add	esp, 4
	push	eax
	push	OFFSET ??_C@_04PFAOODAA@?$CFs?3?5@
	push	1024					; 00000400H
	lea	eax, DWORD PTR _text$[ebp]
	push	eax
	call	_Q_snprintf
	add	esp, 16					; 00000010H

; 655  : 	p = Cmd_Args();

	call	_Cmd_Args
	mov	DWORD PTR _p$[ebp], eax

; 656  : 
; 657  : 	if( *p == '"' )

	mov	eax, DWORD PTR _p$[ebp]
	movsx	ecx, BYTE PTR [eax]
	cmp	ecx, 34					; 00000022H
	jne	SHORT $LN5@SV_ConSay_

; 658  : 	{
; 659  : 		p++;

	mov	eax, DWORD PTR _p$[ebp]
	add	eax, 1
	mov	DWORD PTR _p$[ebp], eax

; 660  : 		p[Q_strlen(p) - 1] = 0;

	mov	eax, DWORD PTR _p$[ebp]
	push	eax
	call	_Q_strlen
	add	esp, 4
	mov	ecx, DWORD PTR _p$[ebp]
	mov	BYTE PTR [ecx+eax-1], 0
$LN5@SV_ConSay_:

; 661  : 	}
; 662  : 
; 663  : 	Q_strncat( text, p, MAX_SYSPATH );

	push	1024					; 00000400H
	mov	eax, DWORD PTR _p$[ebp]
	push	eax
	lea	ecx, DWORD PTR _text$[ebp]
	push	ecx
	call	_Q_strncat
	add	esp, 12					; 0000000cH

; 664  : 	SV_BroadcastPrintf( NULL, "%s\n", text );

	lea	eax, DWORD PTR _text$[ebp]
	push	eax
	push	OFFSET ??_C@_03OFAPEBGM@?$CFs?6@
	push	0
	call	_SV_BroadcastPrintf
	add	esp, 12					; 0000000cH

; 665  : 	Log_Printf( "Server say: \"%s\"\n", p );

	mov	eax, DWORD PTR _p$[ebp]
	push	eax
	push	OFFSET ??_C@_0BC@PCDMDIFJ@Server?5say?3?5?$CC?$CFs?$CC?6@
	call	_Log_Printf
	add	esp, 8
$LN1@SV_ConSay_:

; 666  : }

	pop	edi
	pop	esi
	pop	ebx
	mov	ecx, DWORD PTR __$ArrayPad$[ebp]
	xor	ecx, ebp
	call	@__security_check_cookie@4
	mov	esp, ebp
	pop	ebp
	ret	0
_SV_ConSay_f ENDP
_TEXT	ENDS
; Function compile flags: /Odtp /ZI
; File D:\DevDragon\XashFE\dev\src\engine\server\sv_cmds.c
;	COMDAT _SV_EntPatch_f
_TEXT	SEGMENT
_mapname$ = -4						; size = 4
_SV_EntPatch_f PROC					; COMDAT

; 568  : {

	push	ebp
	mov	ebp, esp
	sub	esp, 68					; 00000044H
	push	ebx
	push	esi
	push	edi

; 569  : 	const char	*mapname;
; 570  : 
; 571  : 	if( Cmd_Argc() < 2 )

	call	_Cmd_Argc
	cmp	eax, 2
	jae	SHORT $LN2@SV_EntPatc

; 572  : 	{
; 573  : 		if( sv.state != ss_dead )

	cmp	DWORD PTR _sv, 0
	je	SHORT $LN4@SV_EntPatc

; 574  : 		{
; 575  : 			mapname = sv.name;

	mov	DWORD PTR _mapname$[ebp], OFFSET _sv+56

; 576  : 		}

	jmp	SHORT $LN5@SV_EntPatc
$LN4@SV_EntPatc:

; 577  : 		else
; 578  : 		{
; 579  : 			Con_Printf( S_USAGE "entpatch <mapname>\n" );

	push	OFFSET ??_C@_0BL@EFIDFBDP@Usage?3?5entpatch?5?$DMmapname?$DO?6@
	call	_Con_Printf
	add	esp, 4

; 580  : 			return;

	jmp	SHORT $LN1@SV_EntPatc
$LN5@SV_EntPatc:

; 581  : 		}
; 582  : 	}

	jmp	SHORT $LN3@SV_EntPatc
$LN2@SV_EntPatc:

; 583  : 	else mapname = Cmd_Argv( 1 );

	push	1
	call	_Cmd_Argv
	add	esp, 4
	mov	DWORD PTR _mapname$[ebp], eax
$LN3@SV_EntPatc:

; 584  : 
; 585  : 	SV_WriteEntityPatch( mapname );

	mov	eax, DWORD PTR _mapname$[ebp]
	push	eax
	call	_SV_WriteEntityPatch
	add	esp, 4
$LN1@SV_EntPatc:

; 586  : }

	pop	edi
	pop	esi
	pop	ebx
	mov	esp, ebp
	pop	ebp
	ret	0
_SV_EntPatch_f ENDP
_TEXT	ENDS
; Function compile flags: /Odtp /ZI
; File D:\DevDragon\XashFE\dev\src\engine\server\sv_cmds.c
;	COMDAT _SV_Kick_f
_TEXT	SEGMENT
_cl$ = -4						; size = 4
_SV_Kick_f PROC						; COMDAT

; 538  : {

	push	ebp
	mov	ebp, esp
	sub	esp, 68					; 00000044H
	push	ebx
	push	esi
	push	edi

; 539  : 	sv_client_t	*cl;
; 540  : 
; 541  : 	if( Cmd_Argc() != 2 )

	call	_Cmd_Argc
	cmp	eax, 2
	je	SHORT $LN2@SV_Kick_f

; 542  : 	{
; 543  : 		Con_Printf( S_USAGE "kick <userid> | <name>\n" );

	push	OFFSET ??_C@_0BP@ONLBGICF@Usage?3?5kick?5?$DMuserid?$DO?5?$HM?5?$DMname?$DO?6@
	call	_Con_Printf
	add	esp, 4

; 544  : 		return;

	jmp	$LN1@SV_Kick_f
$LN2@SV_Kick_f:

; 545  : 	}
; 546  : 
; 547  : 	if(( cl = SV_SetPlayer( )) == NULL )

	call	_SV_SetPlayer
	mov	DWORD PTR _cl$[ebp], eax
	cmp	DWORD PTR _cl$[ebp], 0
	jne	SHORT $LN3@SV_Kick_f

; 548  : 		return;

	jmp	$LN1@SV_Kick_f
$LN3@SV_Kick_f:

; 549  : 
; 550  : 	if( NET_IsLocalAddress( cl->netchan.remote_address ))

	mov	eax, DWORD PTR _cl$[ebp]
	add	eax, 564				; 00000234H
	sub	esp, 20					; 00000014H
	mov	ecx, esp
	mov	edx, DWORD PTR [eax]
	mov	DWORD PTR [ecx], edx
	mov	edx, DWORD PTR [eax+4]
	mov	DWORD PTR [ecx+4], edx
	mov	edx, DWORD PTR [eax+8]
	mov	DWORD PTR [ecx+8], edx
	mov	edx, DWORD PTR [eax+12]
	mov	DWORD PTR [ecx+12], edx
	mov	eax, DWORD PTR [eax+16]
	mov	DWORD PTR [ecx+16], eax
	call	_NET_IsLocalAddress
	add	esp, 20					; 00000014H
	test	eax, eax
	je	SHORT $LN4@SV_Kick_f

; 551  : 	{
; 552  : 		Con_Printf( "The local player cannot be kicked!\n" );

	push	OFFSET ??_C@_0CE@LKNKIIN@The?5local?5player?5cannot?5be?5kick@
	call	_Con_Printf
	add	esp, 4

; 553  : 		return;

	jmp	SHORT $LN1@SV_Kick_f
$LN4@SV_Kick_f:

; 554  : 	}
; 555  : 
; 556  : 	Log_Printf( "Kick: \"%s<%i>\" was kicked\n", cl->name, cl->userid );

	mov	eax, DWORD PTR _cl$[ebp]
	mov	ecx, DWORD PTR [eax+289828]
	push	ecx
	mov	edx, DWORD PTR _cl$[ebp]
	add	edx, 8
	push	edx
	push	OFFSET ??_C@_0BL@KHFBEJNG@Kick?3?5?$CC?$CFs?$DM?$CFi?$DO?$CC?5was?5kicked?6@
	call	_Log_Printf
	add	esp, 12					; 0000000cH

; 557  : 	SV_BroadcastPrintf( cl, "%s was kicked\n", cl->name );

	mov	eax, DWORD PTR _cl$[ebp]
	add	eax, 8
	push	eax
	push	OFFSET ??_C@_0P@KCPNDOOJ@?$CFs?5was?5kicked?6@
	mov	ecx, DWORD PTR _cl$[ebp]
	push	ecx
	call	_SV_BroadcastPrintf
	add	esp, 12					; 0000000cH

; 558  : 	SV_ClientPrintf( cl, "You were kicked from the game\n" );

	push	OFFSET ??_C@_0BP@ENDOFIF@You?5were?5kicked?5from?5the?5game?6@
	mov	eax, DWORD PTR _cl$[ebp]
	push	eax
	call	_SV_ClientPrintf
	add	esp, 8

; 559  : 	SV_DropClient( cl, false );

	push	0
	mov	eax, DWORD PTR _cl$[ebp]
	push	eax
	call	_SV_DropClient
	add	esp, 8
$LN1@SV_Kick_f:

; 560  : }

	pop	edi
	pop	esi
	pop	ebx
	mov	esp, ebp
	pop	ebp
	ret	0
_SV_Kick_f ENDP
_TEXT	ENDS
; Function compile flags: /Odtp /ZI
; File D:\DevDragon\XashFE\dev\src\engine\server\sv_cmds.c
;	COMDAT _SV_ChangeLevel2_f
_TEXT	SEGMENT
_SV_ChangeLevel2_f PROC					; COMDAT

; 520  : {

	push	ebp
	mov	ebp, esp
	sub	esp, 64					; 00000040H
	push	ebx
	push	esi
	push	edi

; 521  : 	if( Cmd_Argc() != 3 )

	call	_Cmd_Argc
	cmp	eax, 3
	je	SHORT $LN2@SV_ChangeL

; 522  : 	{
; 523  : 		Con_Printf( S_USAGE "changelevel2 <mapname> <landmark>\n" );

	push	OFFSET ??_C@_0CK@GAJBFIKO@Usage?3?5changelevel2?5?$DMmapname?$DO?5?$DM@
	call	_Con_Printf
	add	esp, 4

; 524  : 		return;

	jmp	SHORT $LN1@SV_ChangeL
$LN2@SV_ChangeL:

; 525  : 	}
; 526  : 
; 527  : 	SV_QueueChangeLevel( Cmd_Argv( 1 ), Cmd_Argv( 2 ));

	push	2
	call	_Cmd_Argv
	add	esp, 4
	push	eax
	push	1
	call	_Cmd_Argv
	add	esp, 4
	push	eax
	call	_SV_QueueChangeLevel
	add	esp, 8
$LN1@SV_ChangeL:

; 528  : }

	pop	edi
	pop	esi
	pop	ebx
	mov	esp, ebp
	pop	ebp
	ret	0
_SV_ChangeLevel2_f ENDP
_TEXT	ENDS
; Function compile flags: /Odtp /ZI
; File D:\DevDragon\XashFE\dev\src\engine\server\sv_cmds.c
;	COMDAT _SV_ChangeLevel_f
_TEXT	SEGMENT
_SV_ChangeLevel_f PROC					; COMDAT

; 502  : {

	push	ebp
	mov	ebp, esp
	sub	esp, 64					; 00000040H
	push	ebx
	push	esi
	push	edi

; 503  : 	if( Cmd_Argc() != 2 )

	call	_Cmd_Argc
	cmp	eax, 2
	je	SHORT $LN2@SV_ChangeL

; 504  : 	{
; 505  : 		Con_Printf( S_USAGE "changelevel <mapname>\n" );

	push	OFFSET ??_C@_0BO@EEJLIBAC@Usage?3?5changelevel?5?$DMmapname?$DO?6@
	call	_Con_Printf
	add	esp, 4

; 506  : 		return;

	jmp	SHORT $LN1@SV_ChangeL
$LN2@SV_ChangeL:

; 507  : 	}
; 508  : 
; 509  : 	SV_QueueChangeLevel( Cmd_Argv( 1 ), NULL );

	push	0
	push	1
	call	_Cmd_Argv
	add	esp, 4
	push	eax
	call	_SV_QueueChangeLevel
	add	esp, 8
$LN1@SV_ChangeL:

; 510  : }

	pop	edi
	pop	esi
	pop	ebx
	mov	esp, ebp
	pop	ebp
	ret	0
_SV_ChangeLevel_f ENDP
_TEXT	ENDS
; Function compile flags: /Odtp /ZI
; File D:\DevDragon\XashFE\dev\src\engine\server\sv_cmds.c
;	COMDAT _SV_Reload_f
_TEXT	SEGMENT
_SV_Reload_f PROC					; COMDAT

; 485  : {

	push	ebp
	mov	ebp, esp
	sub	esp, 64					; 00000040H
	push	ebx
	push	esi
	push	edi

; 486  : 	// because reload can be multiple issued
; 487  : 	if( GameState->nextstate != STATE_RUNFRAME )

	cmp	DWORD PTR _host+20, 0
	je	SHORT $LN2@SV_Reload_

; 488  : 		return;

	jmp	SHORT $LN1@SV_Reload_
$LN2@SV_Reload_:

; 489  : 
; 490  : 	if( !SV_LoadGame( SV_GetLatestSave( )))

	call	_SV_GetLatestSave
	push	eax
	call	_SV_LoadGame
	add	esp, 4
	test	eax, eax
	jne	SHORT $LN1@SV_Reload_

; 491  : 		COM_LoadLevel( sv_hostmap->string, false );

	push	0
	mov	eax, DWORD PTR _sv_hostmap
	mov	ecx, DWORD PTR [eax+4]
	push	ecx
	call	_COM_LoadLevel
	add	esp, 8
$LN1@SV_Reload_:

; 492  : }

	pop	edi
	pop	esi
	pop	ebx
	mov	esp, ebp
	pop	ebp
	ret	0
_SV_Reload_f ENDP
_TEXT	ENDS
; Function compile flags: /Odtp /ZI
; File D:\DevDragon\XashFE\dev\src\engine\server\sv_cmds.c
;	COMDAT _SV_Restart_f
_TEXT	SEGMENT
_SV_Restart_f PROC					; COMDAT

; 470  : {

	push	ebp
	mov	ebp, esp
	sub	esp, 64					; 00000040H
	push	ebx
	push	esi
	push	edi

; 471  : 	// because restart can be multiple issued
; 472  : 	if( sv.state != ss_active )

	cmp	DWORD PTR _sv, 2
	je	SHORT $LN2@SV_Restart

; 473  : 		return;

	jmp	SHORT $LN1@SV_Restart
$LN2@SV_Restart:

; 474  : 	COM_LoadLevel( sv.name, sv.background );

	mov	eax, DWORD PTR _sv+4
	push	eax
	push	OFFSET _sv+56
	call	_COM_LoadLevel
	add	esp, 8
$LN1@SV_Restart:

; 475  : }

	pop	edi
	pop	esi
	pop	ebx
	mov	esp, ebp
	pop	ebp
	ret	0
_SV_Restart_f ENDP
_TEXT	ENDS
; Function compile flags: /Odtp /ZI
; File D:\DevDragon\XashFE\dev\src\engine\server\sv_cmds.c
;	COMDAT _SV_AutoSave_f
_TEXT	SEGMENT
_SV_AutoSave_f PROC					; COMDAT

; 452  : {

	push	ebp
	mov	ebp, esp
	sub	esp, 64					; 00000040H
	push	ebx
	push	esi
	push	edi

; 453  : 	if( Cmd_Argc() != 1 )

	call	_Cmd_Argc
	cmp	eax, 1
	je	SHORT $LN2@SV_AutoSav

; 454  : 	{
; 455  : 		Con_Printf( S_USAGE "autosave\n" );

	push	OFFSET ??_C@_0BB@FDKOPJA@Usage?3?5autosave?6@
	call	_Con_Printf
	add	esp, 4

; 456  : 		return;

	jmp	SHORT $LN1@SV_AutoSav
$LN2@SV_AutoSav:

; 457  : 	}
; 458  : 
; 459  : 	SV_SaveGame( "autosave" );

	push	OFFSET ??_C@_08CCMFCJIM@autosave@
	call	_SV_SaveGame
	add	esp, 4
$LN1@SV_AutoSav:

; 460  : }

	pop	edi
	pop	esi
	pop	ebx
	mov	esp, ebp
	pop	ebp
	ret	0
_SV_AutoSave_f ENDP
_TEXT	ENDS
; Function compile flags: /Odtp /ZI
; File D:\DevDragon\XashFE\dev\src\engine\server\sv_cmds.c
;	COMDAT _SV_DeleteSave_f
_TEXT	SEGMENT
_SV_DeleteSave_f PROC					; COMDAT

; 433  : {

	push	ebp
	mov	ebp, esp
	sub	esp, 64					; 00000040H
	push	ebx
	push	esi
	push	edi

; 434  : 	if( Cmd_Argc() != 2 )

	call	_Cmd_Argc
	cmp	eax, 2
	je	SHORT $LN2@SV_DeleteS

; 435  : 	{
; 436  : 		Con_Printf( S_USAGE "killsave <name>\n" );

	push	OFFSET ??_C@_0BI@DEOKPKPH@Usage?3?5killsave?5?$DMname?$DO?6@
	call	_Con_Printf
	add	esp, 4

; 437  : 		return;

	jmp	SHORT $LN1@SV_DeleteS
$LN2@SV_DeleteS:

; 438  : 	}
; 439  : 
; 440  : 	// delete save and saveshot
; 441  : 	FS_Delete( va( "%s%s.sav", DEFAULT_SAVE_DIRECTORY, Cmd_Argv( 1 )));

	push	1
	call	_Cmd_Argv
	add	esp, 4
	push	eax
	push	OFFSET ??_C@_05HFINLBCI@save?1@
	push	OFFSET ??_C@_08NEHHDCOK@?$CFs?$CFs?4sav@
	call	_va
	add	esp, 12					; 0000000cH
	push	eax
	call	_FS_Delete
	add	esp, 4

; 442  : 	FS_Delete( va( "%s%s.bmp", DEFAULT_SAVE_DIRECTORY, Cmd_Argv( 1 )));

	push	1
	call	_Cmd_Argv
	add	esp, 4
	push	eax
	push	OFFSET ??_C@_05HFINLBCI@save?1@
	push	OFFSET ??_C@_08GDJCFMPC@?$CFs?$CFs?4bmp@
	call	_va
	add	esp, 12					; 0000000cH
	push	eax
	call	_FS_Delete
	add	esp, 4
$LN1@SV_DeleteS:

; 443  : }

	pop	edi
	pop	esi
	pop	ebx
	mov	esp, ebp
	pop	ebp
	ret	0
_SV_DeleteSave_f ENDP
_TEXT	ENDS
; Function compile flags: /Odtp /ZI
; File D:\DevDragon\XashFE\dev\src\engine\server\sv_cmds.c
;	COMDAT _SV_QuickSave_f
_TEXT	SEGMENT
_SV_QuickSave_f PROC					; COMDAT

; 422  : {

	push	ebp
	mov	ebp, esp
	sub	esp, 64					; 00000040H
	push	ebx
	push	esi
	push	edi

; 423  : 	Cbuf_AddText( "echo Quick Saving...; wait; save quick" );

	push	OFFSET ??_C@_0CH@KNANJKDI@echo?5Quick?5Saving?4?4?4?$DL?5wait?$DL?5sav@
	call	_Cbuf_AddText
	add	esp, 4

; 424  : }

	pop	edi
	pop	esi
	pop	ebx
	mov	esp, ebp
	pop	ebp
	ret	0
_SV_QuickSave_f ENDP
_TEXT	ENDS
; Function compile flags: /Odtp /ZI
; File D:\DevDragon\XashFE\dev\src\engine\server\sv_cmds.c
;	COMDAT _SV_Save_f
_TEXT	SEGMENT
tv65 = -68						; size = 4
_SV_Save_f PROC						; COMDAT

; 400  : {

	push	ebp
	mov	ebp, esp
	sub	esp, 68					; 00000044H
	push	ebx
	push	esi
	push	edi

; 401  : 	switch( Cmd_Argc( ))

	call	_Cmd_Argc
	mov	DWORD PTR tv65[ebp], eax
	cmp	DWORD PTR tv65[ebp], 1
	je	SHORT $LN4@SV_Save_f
	cmp	DWORD PTR tv65[ebp], 2
	je	SHORT $LN5@SV_Save_f
	jmp	SHORT $LN6@SV_Save_f
$LN4@SV_Save_f:

; 402  : 	{
; 403  : 	case 1:
; 404  : 		SV_SaveGame( "new" );

	push	OFFSET ??_C@_03CLCAEGCJ@new@
	call	_SV_SaveGame
	add	esp, 4

; 405  : 		break;

	jmp	SHORT $LN1@SV_Save_f
$LN5@SV_Save_f:

; 406  : 	case 2:
; 407  : 		SV_SaveGame( Cmd_Argv( 1 ));

	push	1
	call	_Cmd_Argv
	add	esp, 4
	push	eax
	call	_SV_SaveGame
	add	esp, 4

; 408  : 		break;

	jmp	SHORT $LN1@SV_Save_f
$LN6@SV_Save_f:

; 409  : 	default:
; 410  : 		Con_Printf( S_USAGE "save <savename>\n" );

	push	OFFSET ??_C@_0BI@BOIKHCDG@Usage?3?5save?5?$DMsavename?$DO?6@
	call	_Con_Printf
	add	esp, 4
$LN1@SV_Save_f:

; 411  : 		break;
; 412  : 	}
; 413  : }

	pop	edi
	pop	esi
	pop	ebx
	mov	esp, ebp
	pop	ebp
	ret	0
_SV_Save_f ENDP
_TEXT	ENDS
; Function compile flags: /Odtp /ZI
; File D:\DevDragon\XashFE\dev\src\engine\server\sv_cmds.c
;	COMDAT _SV_QuickLoad_f
_TEXT	SEGMENT
_SV_QuickLoad_f PROC					; COMDAT

; 389  : {

	push	ebp
	mov	ebp, esp
	sub	esp, 64					; 00000040H
	push	ebx
	push	esi
	push	edi

; 390  : 	Cbuf_AddText( "echo Quick Loading...; wait; load quick" );

	push	OFFSET ??_C@_0CI@CCMCCHIO@echo?5Quick?5Loading?4?4?4?$DL?5wait?$DL?5lo@
	call	_Cbuf_AddText
	add	esp, 4

; 391  : }

	pop	edi
	pop	esi
	pop	ebx
	mov	esp, ebp
	pop	ebp
	ret	0
_SV_QuickLoad_f ENDP
_TEXT	ENDS
; Function compile flags: /Odtp /ZI
; File D:\DevDragon\XashFE\dev\src\engine\server\sv_cmds.c
;	COMDAT _SV_Load_f
_TEXT	SEGMENT
_path$ = -68						; size = 64
__$ArrayPad$ = -4					; size = 4
_SV_Load_f PROC						; COMDAT

; 369  : {

	push	ebp
	mov	ebp, esp
	sub	esp, 132				; 00000084H
	mov	eax, DWORD PTR ___security_cookie
	xor	eax, ebp
	mov	DWORD PTR __$ArrayPad$[ebp], eax
	push	ebx
	push	esi
	push	edi

; 370  : 	char	path[MAX_QPATH];
; 371  : 
; 372  : 	if( Cmd_Argc() != 2 )

	call	_Cmd_Argc
	cmp	eax, 2
	je	SHORT $LN2@SV_Load_f

; 373  : 	{
; 374  : 		Con_Printf( S_USAGE "load <savename>\n" );

	push	OFFSET ??_C@_0BI@KNLHFPBG@Usage?3?5load?5?$DMsavename?$DO?6@
	call	_Con_Printf
	add	esp, 4

; 375  : 		return;

	jmp	SHORT $LN1@SV_Load_f
$LN2@SV_Load_f:

; 376  : 	}
; 377  : 
; 378  : 	Q_snprintf( path, sizeof( path ), "%s%s.sav", DEFAULT_SAVE_DIRECTORY, Cmd_Argv( 1 ));

	push	1
	call	_Cmd_Argv
	add	esp, 4
	push	eax
	push	OFFSET ??_C@_05HFINLBCI@save?1@
	push	OFFSET ??_C@_08NEHHDCOK@?$CFs?$CFs?4sav@
	push	64					; 00000040H
	lea	eax, DWORD PTR _path$[ebp]
	push	eax
	call	_Q_snprintf
	add	esp, 20					; 00000014H

; 379  : 	SV_LoadGame( path );

	lea	eax, DWORD PTR _path$[ebp]
	push	eax
	call	_SV_LoadGame
	add	esp, 4
$LN1@SV_Load_f:

; 380  : }

	pop	edi
	pop	esi
	pop	ebx
	mov	ecx, DWORD PTR __$ArrayPad$[ebp]
	xor	ecx, ebp
	call	@__security_check_cookie@4
	mov	esp, ebp
	pop	ebp
	ret	0
_SV_Load_f ENDP
_TEXT	ENDS
; Function compile flags: /Odtp /ZI
; File D:\DevDragon\XashFE\dev\src\engine\server\sv_cmds.c
;	COMDAT _SV_HazardCourse_f
_TEXT	SEGMENT
_SV_HazardCourse_f PROC					; COMDAT

; 346  : {

	push	ebp
	mov	ebp, esp
	sub	esp, 64					; 00000040H
	push	ebx
	push	esi
	push	edi

; 347  : 	if( Cmd_Argc() != 1 )

	call	_Cmd_Argc
	cmp	eax, 1
	je	SHORT $LN2@SV_HazardC

; 348  : 	{
; 349  : 		Con_Printf( S_USAGE "hazardcourse\n" );

	push	OFFSET ??_C@_0BF@KKPDDLCD@Usage?3?5hazardcourse?6@
	call	_Con_Printf
	add	esp, 4

; 350  : 		return;

	jmp	SHORT $LN1@SV_HazardC
$LN2@SV_HazardC:

; 351  : 	}
; 352  : 
; 353  : 	// special case for Gunman Chronicles: playing avi-file
; 354  : 	if( FS_FileExists( va( "media/%s.avi", GI->trainmap ), false ))

	push	0
	mov	eax, DWORD PTR _SI+768
	add	eax, 320				; 00000140H
	push	eax
	push	OFFSET ??_C@_0N@KGAPJLAD@media?1?$CFs?4avi@
	call	_va
	add	esp, 8
	push	eax
	call	_FS_FileExists
	add	esp, 8
	test	eax, eax
	je	SHORT $LN3@SV_HazardC

; 355  : 	{
; 356  : 		Cbuf_AddText( va( "wait; movie %s\n", GI->trainmap ));

	mov	eax, DWORD PTR _SI+768
	add	eax, 320				; 00000140H
	push	eax
	push	OFFSET ??_C@_0BA@GBJKJN@wait?$DL?5movie?5?$CFs?6@
	call	_va
	add	esp, 8
	push	eax
	call	_Cbuf_AddText
	add	esp, 4

; 357  : 		Host_EndGame( true, DEFAULT_ENDGAME_MESSAGE );

	push	OFFSET ??_C@_07IFACIOED@The?5End@
	push	1
	call	_Host_EndGame
	add	esp, 8

; 358  : 	}

	jmp	SHORT $LN1@SV_HazardC
$LN3@SV_HazardC:

; 359  : 	else COM_NewGame( GI->trainmap );

	mov	eax, DWORD PTR _SI+768
	add	eax, 320				; 00000140H
	push	eax
	call	_COM_NewGame
	add	esp, 4
$LN1@SV_HazardC:

; 360  : }

	pop	edi
	pop	esi
	pop	ebx
	mov	esp, ebp
	pop	ebp
	ret	0
_SV_HazardCourse_f ENDP
_TEXT	ENDS
; Function compile flags: /Odtp /ZI
; File D:\DevDragon\XashFE\dev\src\engine\server\sv_cmds.c
;	COMDAT _SV_NewGame_f
_TEXT	SEGMENT
_SV_NewGame_f PROC					; COMDAT

; 329  : {

	push	ebp
	mov	ebp, esp
	sub	esp, 64					; 00000040H
	push	ebx
	push	esi
	push	edi

; 330  : 	if( Cmd_Argc() != 1 )

	call	_Cmd_Argc
	cmp	eax, 1
	je	SHORT $LN2@SV_NewGame

; 331  : 	{
; 332  : 		Con_Printf( S_USAGE "newgame\n" );

	push	OFFSET ??_C@_0BA@ICHBNMI@Usage?3?5newgame?6@
	call	_Con_Printf
	add	esp, 4

; 333  : 		return;

	jmp	SHORT $LN1@SV_NewGame
$LN2@SV_NewGame:

; 334  : 	}
; 335  : 
; 336  : 	COM_NewGame( GI->startmap );

	mov	eax, DWORD PTR _SI+768
	add	eax, 256				; 00000100H
	push	eax
	call	_COM_NewGame
	add	esp, 4
$LN1@SV_NewGame:

; 337  : }

	pop	edi
	pop	esi
	pop	ebx
	mov	esp, ebp
	pop	ebp
	ret	0
_SV_NewGame_f ENDP
_TEXT	ENDS
; Function compile flags: /Odtp /ZI
; File D:\DevDragon\XashFE\dev\src\engine\server\sv_cmds.c
;	COMDAT _SV_NextMap_f
_TEXT	SEGMENT
_ext$1 = -84						; size = 4
_t$ = -80						; size = 4
_next$ = -76						; size = 4
_i$ = -72						; size = 4
_nextmap$ = -68						; size = 64
__$ArrayPad$ = -4					; size = 4
_SV_NextMap_f PROC					; COMDAT

; 280  : {

	push	ebp
	mov	ebp, esp
	sub	esp, 148				; 00000094H
	mov	eax, DWORD PTR ___security_cookie
	xor	eax, ebp
	mov	DWORD PTR __$ArrayPad$[ebp], eax
	push	ebx
	push	esi
	push	edi

; 281  : 	char	nextmap[MAX_QPATH];
; 282  : 	int	i, next;
; 283  : 	search_t	*t;
; 284  : 
; 285  : 	t = FS_Search( "maps/*.bsp", true, true ); // only in gamedir

	push	1
	push	1
	push	OFFSET ??_C@_0L@OKPFMBPD@maps?1?$CK?4bsp@
	call	_FS_Search
	add	esp, 12					; 0000000cH
	mov	DWORD PTR _t$[ebp], eax

; 286  : 	if( !t )

	cmp	DWORD PTR _t$[ebp], 0
	jne	SHORT $LN5@SV_NextMap

; 287  : 	{
; 288  : 		Con_Printf( "next map can't be found\n" );

	push	OFFSET ??_C@_0BJ@DJOICELF@next?5map?5can?8t?5be?5found?6@
	call	_Con_Printf
	add	esp, 4

; 289  : 		return;

	jmp	$LN1@SV_NextMap
$LN5@SV_NextMap:

; 290  : 	}
; 291  : 
; 292  : 	for( i = 0; i < t->numfilenames; i++ )

	mov	DWORD PTR _i$[ebp], 0
	jmp	SHORT $LN4@SV_NextMap
$LN2@SV_NextMap:
	mov	eax, DWORD PTR _i$[ebp]
	add	eax, 1
	mov	DWORD PTR _i$[ebp], eax
$LN4@SV_NextMap:
	mov	eax, DWORD PTR _t$[ebp]
	mov	ecx, DWORD PTR _i$[ebp]
	cmp	ecx, DWORD PTR [eax]
	jge	$LN3@SV_NextMap

; 293  : 	{
; 294  : 		const char *ext = COM_FileExtension( t->filenames[i] );

	mov	eax, DWORD PTR _t$[ebp]
	mov	ecx, DWORD PTR [eax+4]
	mov	edx, DWORD PTR _i$[ebp]
	mov	eax, DWORD PTR [ecx+edx*4]
	push	eax
	call	_COM_FileExtension
	add	esp, 4
	mov	DWORD PTR _ext$1[ebp], eax

; 295  : 
; 296  : 		if( Q_stricmp( ext, "bsp" ))

	push	99999					; 0001869fH
	push	OFFSET ??_C@_03DGBMLAJE@bsp@
	mov	eax, DWORD PTR _ext$1[ebp]
	push	eax
	call	_Q_strnicmp
	add	esp, 12					; 0000000cH
	test	eax, eax
	je	SHORT $LN6@SV_NextMap

; 297  : 			continue;

	jmp	SHORT $LN2@SV_NextMap
$LN6@SV_NextMap:

; 298  : 
; 299  : 		COM_FileBase( t->filenames[i], nextmap );

	lea	eax, DWORD PTR _nextmap$[ebp]
	push	eax
	mov	ecx, DWORD PTR _t$[ebp]
	mov	edx, DWORD PTR [ecx+4]
	mov	eax, DWORD PTR _i$[ebp]
	mov	ecx, DWORD PTR [edx+eax*4]
	push	ecx
	call	_COM_FileBase
	add	esp, 8

; 300  : 		if( Q_stricmp( sv_hostmap->string, nextmap ))

	push	99999					; 0001869fH
	lea	eax, DWORD PTR _nextmap$[ebp]
	push	eax
	mov	ecx, DWORD PTR _sv_hostmap
	mov	edx, DWORD PTR [ecx+4]
	push	edx
	call	_Q_strnicmp
	add	esp, 12					; 0000000cH
	test	eax, eax
	je	SHORT $LN7@SV_NextMap

; 301  : 			continue; 

	jmp	$LN2@SV_NextMap
$LN7@SV_NextMap:

; 302  : 
; 303  : 		next = ( i + 1 ) % t->numfilenames;

	mov	eax, DWORD PTR _i$[ebp]
	add	eax, 1
	mov	ecx, DWORD PTR _t$[ebp]
	cdq
	idiv	DWORD PTR [ecx]
	mov	DWORD PTR _next$[ebp], edx

; 304  : 		COM_FileBase( t->filenames[next], nextmap );

	lea	eax, DWORD PTR _nextmap$[ebp]
	push	eax
	mov	ecx, DWORD PTR _t$[ebp]
	mov	edx, DWORD PTR [ecx+4]
	mov	eax, DWORD PTR _next$[ebp]
	mov	ecx, DWORD PTR [edx+eax*4]
	push	ecx
	call	_COM_FileBase
	add	esp, 8

; 305  : 		Cvar_DirectSet( sv_hostmap, nextmap );

	lea	eax, DWORD PTR _nextmap$[ebp]
	push	eax
	mov	ecx, DWORD PTR _sv_hostmap
	push	ecx
	call	_Cvar_DirectSet
	add	esp, 8

; 306  : 
; 307  : 		// found current point, check for valid
; 308  : 		if( SV_ValidateMap( nextmap, true ))

	push	1
	lea	eax, DWORD PTR _nextmap$[ebp]
	push	eax
	call	_SV_ValidateMap
	add	esp, 8
	test	eax, eax
	je	SHORT $LN8@SV_NextMap

; 309  : 		{
; 310  : 			// found and valid
; 311  : 			COM_LoadLevel( nextmap, false );

	push	0
	lea	eax, DWORD PTR _nextmap$[ebp]
	push	eax
	call	_COM_LoadLevel
	add	esp, 8

; 312  : 			Mem_Free( t );

	mov	eax, DWORD PTR ?__LINE__Var@?0??SV_NextMap_f@@9@9
	add	eax, 32					; 00000020H
	push	eax
	push	OFFSET ??_C@_0DE@IKJBKMHC@D?3?2DevDragon?2XashFE?2dev?2src?2eng@
	mov	ecx, DWORD PTR _t$[ebp]
	push	ecx
	call	__Mem_Free
	add	esp, 12					; 0000000cH

; 313  : 			return;

	jmp	SHORT $LN1@SV_NextMap
$LN8@SV_NextMap:

; 314  : 		}
; 315  : 		// jump to next map
; 316  : 	}

	jmp	$LN2@SV_NextMap
$LN3@SV_NextMap:

; 317  : 
; 318  : 	Con_Printf( "failed to load next map\n" );

	push	OFFSET ??_C@_0BJ@ILADGLBB@failed?5to?5load?5next?5map?6@
	call	_Con_Printf
	add	esp, 4

; 319  : 	Mem_Free( t );

	mov	eax, DWORD PTR ?__LINE__Var@?0??SV_NextMap_f@@9@9
	add	eax, 39					; 00000027H
	push	eax
	push	OFFSET ??_C@_0DE@IKJBKMHC@D?3?2DevDragon?2XashFE?2dev?2src?2eng@
	mov	ecx, DWORD PTR _t$[ebp]
	push	ecx
	call	__Mem_Free
	add	esp, 12					; 0000000cH
$LN1@SV_NextMap:

; 320  : }

	pop	edi
	pop	esi
	pop	ebx
	mov	ecx, DWORD PTR __$ArrayPad$[ebp]
	xor	ecx, ebp
	call	@__security_check_cookie@4
	mov	esp, ebp
	pop	ebp
	ret	0
_SV_NextMap_f ENDP
_TEXT	ENDS
; Function compile flags: /Odtp /ZI
; File D:\DevDragon\XashFE\dev\src\engine\server\sv_cmds.c
;	COMDAT _SV_MapBackground_f
_TEXT	SEGMENT
_mapname$ = -68						; size = 64
__$ArrayPad$ = -4					; size = 4
_SV_MapBackground_f PROC				; COMDAT

; 240  : {

	push	ebp
	mov	ebp, esp
	sub	esp, 132				; 00000084H
	mov	eax, DWORD PTR ___security_cookie
	xor	eax, ebp
	mov	DWORD PTR __$ArrayPad$[ebp], eax
	push	ebx
	push	esi
	push	edi

; 241  : 	char	mapname[MAX_QPATH];
; 242  : 
; 243  : 	if( Cmd_Argc() != 2 )

	call	_Cmd_Argc
	cmp	eax, 2
	je	SHORT $LN2@SV_MapBack

; 244  : 	{
; 245  : 		Con_Printf( S_USAGE "map_background <mapname>\n" );

	push	OFFSET ??_C@_0CB@CGKIECDI@Usage?3?5map_background?5?$DMmapname?$DO@
	call	_Con_Printf
	add	esp, 4

; 246  : 		return;

	jmp	$LN1@SV_MapBack
$LN2@SV_MapBack:

; 247  : 	}
; 248  : 
; 249  : 	if( SV_Active() && !sv.background )

	call	_SV_Active
	test	eax, eax
	je	SHORT $LN3@SV_MapBack
	cmp	DWORD PTR _sv+4, 0
	jne	SHORT $LN3@SV_MapBack

; 250  : 	{
; 251  : 		if( GameState->nextstate == STATE_RUNFRAME )

	cmp	DWORD PTR _host+20, 0
	jne	SHORT $LN4@SV_MapBack

; 252  : 			Con_Printf( S_ERROR "can't set background map while game is active\n" );

	push	OFFSET ??_C@_0DK@LAMAKOH@?$FO1Error?3?$FO7?5can?8t?5set?5background@
	call	_Con_Printf
	add	esp, 4
$LN4@SV_MapBack:

; 253  : 		return;

	jmp	$LN1@SV_MapBack
$LN3@SV_MapBack:

; 254  : 	}
; 255  : 
; 256  : 	// hold mapname to other place
; 257  : 	Q_strncpy( mapname, Cmd_Argv( 1 ), sizeof( mapname ));

	push	64					; 00000040H
	push	1
	call	_Cmd_Argv
	add	esp, 4
	push	eax
	lea	eax, DWORD PTR _mapname$[ebp]
	push	eax
	call	_Q_strncpy
	add	esp, 12					; 0000000cH

; 258  : 	COM_StripExtension( mapname );

	lea	eax, DWORD PTR _mapname$[ebp]
	push	eax
	call	_COM_StripExtension
	add	esp, 4

; 259  : 
; 260  : 	if( !SV_ValidateMap( mapname, false ))

	push	0
	lea	eax, DWORD PTR _mapname$[ebp]
	push	eax
	call	_SV_ValidateMap
	add	esp, 8
	test	eax, eax
	jne	SHORT $LN5@SV_MapBack

; 261  : 		return;

	jmp	SHORT $LN1@SV_MapBack
$LN5@SV_MapBack:

; 262  : 
; 263  : 	// background map is always run as singleplayer
; 264  : 	Cvar_FullSet( "maxplayers", "1", FCVAR_LATCH );

	push	2048					; 00000800H
	push	OFFSET ??_C@_01HIHLOKLC@1@
	push	OFFSET ??_C@_0L@PCNFODNF@maxplayers@
	call	_Cvar_FullSet
	add	esp, 12					; 0000000cH

; 265  : 	Cvar_FullSet( "deathmatch", "0", FCVAR_LATCH );

	push	2048					; 00000800H
	push	OFFSET ??_C@_01GBGANLPD@0@
	push	OFFSET ??_C@_0L@ILDAINPG@deathmatch@
	call	_Cvar_FullSet
	add	esp, 12					; 0000000cH

; 266  : 	Cvar_FullSet( "coop", "0", FCVAR_LATCH );

	push	2048					; 00000800H
	push	OFFSET ??_C@_01GBGANLPD@0@
	push	OFFSET ??_C@_04OILOBHMB@coop@
	call	_Cvar_FullSet
	add	esp, 12					; 0000000cH

; 267  : 
; 268  : 	COM_LoadLevel( mapname, true );

	push	1
	lea	eax, DWORD PTR _mapname$[ebp]
	push	eax
	call	_COM_LoadLevel
	add	esp, 8
$LN1@SV_MapBack:

; 269  : }

	pop	edi
	pop	esi
	pop	ebx
	mov	ecx, DWORD PTR __$ArrayPad$[ebp]
	xor	ecx, ebp
	call	@__security_check_cookie@4
	mov	esp, ebp
	pop	ebp
	ret	0
_SV_MapBackground_f ENDP
_TEXT	ENDS
; Function compile flags: /Odtp /ZI
; File D:\DevDragon\XashFE\dev\src\engine\server\sv_cmds.c
;	COMDAT _SV_Map_f
_TEXT	SEGMENT
_mapname$ = -68						; size = 64
__$ArrayPad$ = -4					; size = 4
_SV_Map_f PROC						; COMDAT

; 212  : {

	push	ebp
	mov	ebp, esp
	sub	esp, 132				; 00000084H
	mov	eax, DWORD PTR ___security_cookie
	xor	eax, ebp
	mov	DWORD PTR __$ArrayPad$[ebp], eax
	push	ebx
	push	esi
	push	edi

; 213  : 	char	mapname[MAX_QPATH];
; 214  : 
; 215  : 	if( Cmd_Argc() != 2 )

	call	_Cmd_Argc
	cmp	eax, 2
	je	SHORT $LN2@SV_Map_f

; 216  : 	{
; 217  : 		Con_Printf( S_USAGE "map <mapname>\n" );

	push	OFFSET ??_C@_0BG@BFFDIHHN@Usage?3?5map?5?$DMmapname?$DO?6@
	call	_Con_Printf
	add	esp, 4

; 218  : 		return;

	jmp	SHORT $LN1@SV_Map_f
$LN2@SV_Map_f:

; 219  : 	}
; 220  : 
; 221  : 	// hold mapname to other place
; 222  : 	Q_strncpy( mapname, Cmd_Argv( 1 ), sizeof( mapname ));

	push	64					; 00000040H
	push	1
	call	_Cmd_Argv
	add	esp, 4
	push	eax
	lea	eax, DWORD PTR _mapname$[ebp]
	push	eax
	call	_Q_strncpy
	add	esp, 12					; 0000000cH

; 223  : 	COM_StripExtension( mapname );

	lea	eax, DWORD PTR _mapname$[ebp]
	push	eax
	call	_COM_StripExtension
	add	esp, 4

; 224  : 
; 225  : 	if( !SV_ValidateMap( mapname, true ))

	push	1
	lea	eax, DWORD PTR _mapname$[ebp]
	push	eax
	call	_SV_ValidateMap
	add	esp, 8
	test	eax, eax
	jne	SHORT $LN3@SV_Map_f

; 226  : 		return;

	jmp	SHORT $LN1@SV_Map_f
$LN3@SV_Map_f:

; 227  : 
; 228  : 	Cvar_DirectSet( sv_hostmap, mapname );

	lea	eax, DWORD PTR _mapname$[ebp]
	push	eax
	mov	ecx, DWORD PTR _sv_hostmap
	push	ecx
	call	_Cvar_DirectSet
	add	esp, 8

; 229  : 	COM_LoadLevel( mapname, false );

	push	0
	lea	eax, DWORD PTR _mapname$[ebp]
	push	eax
	call	_COM_LoadLevel
	add	esp, 8
$LN1@SV_Map_f:

; 230  : }

	pop	edi
	pop	esi
	pop	ebx
	mov	ecx, DWORD PTR __$ArrayPad$[ebp]
	xor	ecx, ebp
	call	@__security_check_cookie@4
	mov	esp, ebp
	pop	ebp
	ret	0
_SV_Map_f ENDP
_TEXT	ENDS
; Function compile flags: /Odtp /ZI
; File D:\DevDragon\XashFE\dev\src\engine\server\sv_cmds.c
;	COMDAT _SV_ValidateMap
_TEXT	SEGMENT
_flags$ = -8						; size = 4
_spawn_entity$ = -4					; size = 4
_pMapName$ = 8						; size = 4
_check_spawn$ = 12					; size = 4
_SV_ValidateMap PROC					; COMDAT

; 171  : {

	push	ebp
	mov	ebp, esp
	sub	esp, 72					; 00000048H
	push	ebx
	push	esi
	push	edi

; 172  : 	char	*spawn_entity;
; 173  : 	int	flags;
; 174  : 
; 175  : 	// determine spawn entity classname
; 176  : 	if( !check_spawn || (int)sv_maxclients->value <= 1 )

	cmp	DWORD PTR _check_spawn$[ebp], 0
	je	SHORT $LN4@SV_Validat
	mov	eax, DWORD PTR _sv_maxclients
	cvttss2si ecx, DWORD PTR [eax+12]
	cmp	ecx, 1
	jg	SHORT $LN2@SV_Validat
$LN4@SV_Validat:

; 177  : 		spawn_entity = GI->sp_entity;

	mov	eax, DWORD PTR _SI+768
	add	eax, 1304				; 00000518H
	mov	DWORD PTR _spawn_entity$[ebp], eax
	jmp	SHORT $LN3@SV_Validat
$LN2@SV_Validat:

; 178  : 	else spawn_entity = GI->mp_entity;

	mov	eax, DWORD PTR _SI+768
	add	eax, 1336				; 00000538H
	mov	DWORD PTR _spawn_entity$[ebp], eax
$LN3@SV_Validat:

; 179  : 
; 180  : 	flags = SV_MapIsValid( pMapName, spawn_entity, NULL );

	push	0
	mov	eax, DWORD PTR _spawn_entity$[ebp]
	push	eax
	mov	ecx, DWORD PTR _pMapName$[ebp]
	push	ecx
	call	_SV_MapIsValid
	add	esp, 12					; 0000000cH
	mov	DWORD PTR _flags$[ebp], eax

; 181  : 
; 182  : 	if( FBitSet( flags, MAP_INVALID_VERSION ))

	mov	eax, DWORD PTR _flags$[ebp]
	and	eax, 8
	je	SHORT $LN5@SV_Validat

; 183  : 	{
; 184  : 		Con_Printf( S_ERROR "map %s is invalid or not supported\n", pMapName );

	mov	eax, DWORD PTR _pMapName$[ebp]
	push	eax
	push	OFFSET ??_C@_0CP@BJKGLKEH@?$FO1Error?3?$FO7?5map?5?$CFs?5is?5invalid?5or@
	call	_Con_Printf
	add	esp, 8

; 185  : 		return false;

	xor	eax, eax
	jmp	SHORT $LN1@SV_Validat
$LN5@SV_Validat:

; 186  : 	}
; 187  : 
; 188  : 	if( !FBitSet( flags, MAP_IS_EXIST ))

	mov	eax, DWORD PTR _flags$[ebp]
	and	eax, 1
	jne	SHORT $LN6@SV_Validat

; 189  : 	{
; 190  : 		Con_Printf( S_ERROR "map %s doesn't exist\n", pMapName );

	mov	eax, DWORD PTR _pMapName$[ebp]
	push	eax
	push	OFFSET ??_C@_0CB@PJOLFLJM@?$FO1Error?3?$FO7?5map?5?$CFs?5doesn?8t?5exist@
	call	_Con_Printf
	add	esp, 8

; 191  : 		return false;

	xor	eax, eax
	jmp	SHORT $LN1@SV_Validat
$LN6@SV_Validat:

; 192  : 	}
; 193  : 
; 194  : 	if( check_spawn && !FBitSet( flags, MAP_HAS_SPAWNPOINT ))

	cmp	DWORD PTR _check_spawn$[ebp], 0
	je	SHORT $LN7@SV_Validat
	mov	eax, DWORD PTR _flags$[ebp]
	and	eax, 2
	jne	SHORT $LN7@SV_Validat

; 195  : 	{
; 196  : 		Con_Printf( S_ERROR "map %s doesn't have a valid spawnpoint\n", pMapName );

	mov	eax, DWORD PTR _pMapName$[ebp]
	push	eax
	push	OFFSET ??_C@_0DD@IIGHGIIE@?$FO1Error?3?$FO7?5map?5?$CFs?5doesn?8t?5have?5@
	call	_Con_Printf
	add	esp, 8

; 197  : 		return false;

	xor	eax, eax
	jmp	SHORT $LN1@SV_Validat
$LN7@SV_Validat:

; 198  : 	}
; 199  : 
; 200  : 	return true;

	mov	eax, 1
$LN1@SV_Validat:

; 201  : }

	pop	edi
	pop	esi
	pop	ebx
	mov	esp, ebp
	pop	ebp
	ret	0
_SV_ValidateMap ENDP
_TEXT	ENDS
; Function compile flags: /Odtp /ZI
; File D:\DevDragon\XashFE\dev\src\engine\server\sv_cmds.c
;	COMDAT _SV_SetPlayer
_TEXT	SEGMENT
_idnum$ = -16						; size = 4
_i$ = -12						; size = 4
_cl$ = -8						; size = 4
_s$ = -4						; size = 4
_SV_SetPlayer PROC					; COMDAT

; 113  : {

	push	ebp
	mov	ebp, esp
	sub	esp, 80					; 00000050H
	push	ebx
	push	esi
	push	edi

; 114  : 	char		*s;
; 115  : 	sv_client_t	*cl;
; 116  : 	int		i, idnum;
; 117  : 
; 118  : 	if( !svs.clients || sv.background )

	cmp	DWORD PTR _svs+33344, 0
	je	SHORT $LN6@SV_SetPlay
	cmp	DWORD PTR _sv+4, 0
	je	SHORT $LN5@SV_SetPlay
$LN6@SV_SetPlay:

; 119  : 		return NULL;

	xor	eax, eax
	jmp	$LN1@SV_SetPlay
$LN5@SV_SetPlay:

; 120  : 
; 121  : 	if( svs.maxclients == 1 || Cmd_Argc() < 2 )

	cmp	DWORD PTR _svs+16, 1
	je	SHORT $LN8@SV_SetPlay
	call	_Cmd_Argc
	cmp	eax, 2
	jae	SHORT $LN7@SV_SetPlay
$LN8@SV_SetPlay:

; 122  : 	{
; 123  : 		// special case for local client
; 124  : 		return svs.clients;

	mov	eax, DWORD PTR _svs+33344
	jmp	$LN1@SV_SetPlay
$LN7@SV_SetPlay:

; 125  : 	}
; 126  : 
; 127  : 	s = Cmd_Argv( 1 );

	push	1
	call	_Cmd_Argv
	add	esp, 4
	mov	DWORD PTR _s$[ebp], eax

; 128  : 
; 129  : 	// numeric values are just slot numbers
; 130  : 	if( Q_isdigit( s ) || (s[0] == '-' && Q_isdigit( s + 1 )))

	mov	eax, DWORD PTR _s$[ebp]
	push	eax
	call	_Q_isdigit
	add	esp, 4
	test	eax, eax
	jne	SHORT $LN10@SV_SetPlay
	mov	eax, 1
	imul	ecx, eax, 0
	mov	edx, DWORD PTR _s$[ebp]
	movsx	eax, BYTE PTR [edx+ecx]
	cmp	eax, 45					; 0000002dH
	jne	SHORT $LN9@SV_SetPlay
	mov	eax, DWORD PTR _s$[ebp]
	add	eax, 1
	push	eax
	call	_Q_isdigit
	add	esp, 4
	test	eax, eax
	je	SHORT $LN9@SV_SetPlay
$LN10@SV_SetPlay:

; 131  : 	{
; 132  : 		idnum = Q_atoi( s );

	mov	eax, DWORD PTR _s$[ebp]
	push	eax
	call	_Q_atoi
	add	esp, 4
	mov	DWORD PTR _idnum$[ebp], eax

; 133  : 
; 134  : 		if( idnum < 0 || idnum >= svs.maxclients )

	cmp	DWORD PTR _idnum$[ebp], 0
	jl	SHORT $LN12@SV_SetPlay
	mov	eax, DWORD PTR _idnum$[ebp]
	cmp	eax, DWORD PTR _svs+16
	jl	SHORT $LN11@SV_SetPlay
$LN12@SV_SetPlay:

; 135  : 		{
; 136  : 			Con_Printf( "Bad client slot: %i\n", idnum );

	mov	eax, DWORD PTR _idnum$[ebp]
	push	eax
	push	OFFSET ??_C@_0BF@BEBENGBA@Bad?5client?5slot?3?5?$CFi?6@
	call	_Con_Printf
	add	esp, 8

; 137  : 			return NULL;

	xor	eax, eax
	jmp	$LN1@SV_SetPlay
$LN11@SV_SetPlay:

; 138  : 		}
; 139  : 
; 140  : 		cl = &svs.clients[idnum];

	imul	eax, DWORD PTR _idnum$[ebp], 289832
	add	eax, DWORD PTR _svs+33344
	mov	DWORD PTR _cl$[ebp], eax

; 141  : 
; 142  : 		if( !cl->state )

	mov	eax, DWORD PTR _cl$[ebp]
	cmp	DWORD PTR [eax], 0
	jne	SHORT $LN13@SV_SetPlay

; 143  : 		{
; 144  : 			Con_Printf( "Client %i is not active\n", idnum );

	mov	eax, DWORD PTR _idnum$[ebp]
	push	eax
	push	OFFSET ??_C@_0BJ@PDNIBEAG@Client?5?$CFi?5is?5not?5active?6@
	call	_Con_Printf
	add	esp, 8

; 145  : 			return NULL;

	xor	eax, eax
	jmp	SHORT $LN1@SV_SetPlay
$LN13@SV_SetPlay:

; 146  : 		}
; 147  : 		return cl;

	mov	eax, DWORD PTR _cl$[ebp]
	jmp	SHORT $LN1@SV_SetPlay
$LN9@SV_SetPlay:

; 148  : 	}
; 149  : 
; 150  : 	// check for a name match
; 151  : 	for( i = 0, cl = svs.clients; i < svs.maxclients; i++, cl++ )

	mov	DWORD PTR _i$[ebp], 0
	mov	eax, DWORD PTR _svs+33344
	mov	DWORD PTR _cl$[ebp], eax
	jmp	SHORT $LN4@SV_SetPlay
$LN2@SV_SetPlay:
	mov	eax, DWORD PTR _i$[ebp]
	add	eax, 1
	mov	DWORD PTR _i$[ebp], eax
	mov	ecx, DWORD PTR _cl$[ebp]
	add	ecx, 289832				; 00046c28H
	mov	DWORD PTR _cl$[ebp], ecx
$LN4@SV_SetPlay:
	mov	eax, DWORD PTR _i$[ebp]
	cmp	eax, DWORD PTR _svs+16
	jge	SHORT $LN3@SV_SetPlay

; 152  : 	{
; 153  : 		if( !cl->state ) continue;

	mov	eax, DWORD PTR _cl$[ebp]
	cmp	DWORD PTR [eax], 0
	jne	SHORT $LN14@SV_SetPlay
	jmp	SHORT $LN2@SV_SetPlay
$LN14@SV_SetPlay:

; 154  : 
; 155  : 		if( !Q_strcmp( cl->name, s ))

	push	99999					; 0001869fH
	mov	eax, DWORD PTR _s$[ebp]
	push	eax
	mov	ecx, DWORD PTR _cl$[ebp]
	add	ecx, 8
	push	ecx
	call	_Q_strncmp
	add	esp, 12					; 0000000cH
	test	eax, eax
	jne	SHORT $LN15@SV_SetPlay

; 156  : 			return cl;

	mov	eax, DWORD PTR _cl$[ebp]
	jmp	SHORT $LN1@SV_SetPlay
$LN15@SV_SetPlay:

; 157  : 	}

	jmp	SHORT $LN2@SV_SetPlay
$LN3@SV_SetPlay:

; 158  : 
; 159  : 	Con_Printf( "Userid %s is not on the server\n", s );

	mov	eax, DWORD PTR _s$[ebp]
	push	eax
	push	OFFSET ??_C@_0CA@CAEDDADG@Userid?5?$CFs?5is?5not?5on?5the?5server?6@
	call	_Con_Printf
	add	esp, 8

; 160  : 	return NULL;

	xor	eax, eax
$LN1@SV_SetPlay:

; 161  : }

	pop	edi
	pop	esi
	pop	ebx
	mov	esp, ebp
	pop	ebp
	ret	0
_SV_SetPlayer ENDP
_TEXT	ENDS
; Function compile flags: /Odtp /ZI
; File D:\DevDragon\XashFE\dev\src\engine\server\sv_cmds.c
;	COMDAT _SV_InitHostCommands
_TEXT	SEGMENT
_SV_InitHostCommands PROC				; COMDAT

; 882  : {

	push	ebp
	mov	ebp, esp
	sub	esp, 64					; 00000040H
	push	ebx
	push	esi
	push	edi

; 883  : 	Cmd_AddCommand( "map", SV_Map_f, "start new level" );

	push	OFFSET ??_C@_0BA@FEHGCKED@start?5new?5level@
	push	OFFSET _SV_Map_f
	push	OFFSET ??_C@_03HBNNNHNM@map@
	call	_Cmd_AddCommand
	add	esp, 12					; 0000000cH

; 884  : 
; 885  : 	if( host.type == HOST_NORMAL )

	cmp	DWORD PTR _host+164, 0
	jne	$LN1@SV_InitHos

; 886  : 	{
; 887  : 		Cmd_AddCommand( "newgame", SV_NewGame_f, "begin new game" );

	push	OFFSET ??_C@_0P@JDKKDOIP@begin?5new?5game@
	push	OFFSET _SV_NewGame_f
	push	OFFSET ??_C@_07GABIDAIO@newgame@
	call	_Cmd_AddCommand
	add	esp, 12					; 0000000cH

; 888  : 		Cmd_AddCommand( "hazardcourse", SV_HazardCourse_f, "starting a Hazard Course" );

	push	OFFSET ??_C@_0BJ@EMMBBAF@starting?5a?5Hazard?5Course@
	push	OFFSET _SV_HazardCourse_f
	push	OFFSET ??_C@_0N@ECBFBFLG@hazardcourse@
	call	_Cmd_AddCommand
	add	esp, 12					; 0000000cH

; 889  : 		Cmd_AddCommand( "map_background", SV_MapBackground_f, "set background map" );

	push	OFFSET ??_C@_0BD@CGDMGLJC@set?5background?5map@
	push	OFFSET _SV_MapBackground_f
	push	OFFSET ??_C@_0P@KBIHHLHA@map_background@
	call	_Cmd_AddCommand
	add	esp, 12					; 0000000cH

; 890  : 		Cmd_AddCommand( "load", SV_Load_f, "load a saved game file" );

	push	OFFSET ??_C@_0BH@MMFMFBIC@load?5a?5saved?5game?5file@
	push	OFFSET _SV_Load_f
	push	OFFSET ??_C@_04EONOHKEP@load@
	call	_Cmd_AddCommand
	add	esp, 12					; 0000000cH

; 891  : 		Cmd_AddCommand( "loadquick", SV_QuickLoad_f, "load a quick-saved game file" );

	push	OFFSET ??_C@_0BN@CADCJDHA@load?5a?5quick?9saved?5game?5file@
	push	OFFSET _SV_QuickLoad_f
	push	OFFSET ??_C@_09EMDGDLJG@loadquick@
	call	_Cmd_AddCommand
	add	esp, 12					; 0000000cH

; 892  : 		Cmd_AddCommand( "reload", SV_Reload_f, "continue from latest save or restart level" );

	push	OFFSET ??_C@_0CL@PNBMIEKN@continue?5from?5latest?5save?5or?5re@
	push	OFFSET _SV_Reload_f
	push	OFFSET ??_C@_06DGFOANMH@reload@
	call	_Cmd_AddCommand
	add	esp, 12					; 0000000cH

; 893  : 		Cmd_AddCommand( "killsave", SV_DeleteSave_f, "delete a saved game file and saveshot" );

	push	OFFSET ??_C@_0CG@LNAEDPJJ@delete?5a?5saved?5game?5file?5and?5sa@
	push	OFFSET _SV_DeleteSave_f
	push	OFFSET ??_C@_08EOFKCHHB@killsave@
	call	_Cmd_AddCommand
	add	esp, 12					; 0000000cH

; 894  : 		Cmd_AddCommand( "nextmap", SV_NextMap_f, "load next level" );

	push	OFFSET ??_C@_0BA@CCGMDJPJ@load?5next?5level@
	push	OFFSET _SV_NextMap_f
	push	OFFSET ??_C@_07MCHHMPMB@nextmap@
	call	_Cmd_AddCommand
	add	esp, 12					; 0000000cH
$LN1@SV_InitHos:

; 895  : 	}
; 896  : }

	pop	edi
	pop	esi
	pop	ebx
	mov	esp, ebp
	pop	ebp
	ret	0
_SV_InitHostCommands ENDP
_TEXT	ENDS
; Function compile flags: /Odtp /ZI
; File D:\DevDragon\XashFE\dev\src\engine\server\sv_cmds.c
;	COMDAT _SV_Status_f
_TEXT	SEGMENT
_s$1 = -20						; size = 4
_l$2 = -16						; size = 4
_j$3 = -12						; size = 4
_i$ = -8						; size = 4
_cl$ = -4						; size = 4
_SV_Status_f PROC					; COMDAT

; 594  : {

	push	ebp
	mov	ebp, esp
	sub	esp, 84					; 00000054H
	push	ebx
	push	esi
	push	edi

; 595  : 	sv_client_t	*cl;
; 596  : 	int		i;
; 597  : 
; 598  : 	if( !svs.clients || sv.background )

	cmp	DWORD PTR _svs+33344, 0
	je	SHORT $LN12@SV_Status_
	cmp	DWORD PTR _sv+4, 0
	je	SHORT $LN11@SV_Status_
$LN12@SV_Status_:

; 599  : 	{
; 600  : 		Con_Printf( "^3no server running.\n" );

	push	OFFSET ??_C@_0BG@LPGCMDEF@?$FO3no?5server?5running?4?6@
	call	_Con_Printf
	add	esp, 4

; 601  : 		return;

	jmp	$LN1@SV_Status_
$LN11@SV_Status_:

; 602  : 	}
; 603  : 
; 604  : 	Con_Printf( "map: %s\n", sv.name );

	push	OFFSET _sv+56
	push	OFFSET ??_C@_08BLGHJHOM@map?3?5?$CFs?6@
	call	_Con_Printf
	add	esp, 8

; 605  : 	Con_Printf( "num score ping    name            lastmsg address               port \n" );

	push	OFFSET ??_C@_0EH@PJCGICO@num?5score?5ping?5?5?5?5name?5?5?5?5?5?5?5?5?5@
	call	_Con_Printf
	add	esp, 4

; 606  : 	Con_Printf( "--- ----- ------- --------------- ------- --------------------- ------\n" );

	push	OFFSET ??_C@_0EI@IDNHFOMB@?9?9?9?5?9?9?9?9?9?5?9?9?9?9?9?9?9?5?9?9?9?9?9?9?9?9?9?9?9?9?9@
	call	_Con_Printf
	add	esp, 4

; 607  : 
; 608  : 	for( i = 0, cl = svs.clients; i < svs.maxclients; i++, cl++ )

	mov	DWORD PTR _i$[ebp], 0
	mov	eax, DWORD PTR _svs+33344
	mov	DWORD PTR _cl$[ebp], eax
	jmp	SHORT $LN4@SV_Status_
$LN2@SV_Status_:
	mov	eax, DWORD PTR _i$[ebp]
	add	eax, 1
	mov	DWORD PTR _i$[ebp], eax
	mov	ecx, DWORD PTR _cl$[ebp]
	add	ecx, 289832				; 00046c28H
	mov	DWORD PTR _cl$[ebp], ecx
$LN4@SV_Status_:
	mov	eax, DWORD PTR _i$[ebp]
	cmp	eax, DWORD PTR _svs+16
	jge	$LN3@SV_Status_

; 609  : 	{
; 610  : 		int	j, l;
; 611  : 		char	*s;
; 612  : 
; 613  : 		if( !cl->state ) continue;

	mov	eax, DWORD PTR _cl$[ebp]
	cmp	DWORD PTR [eax], 0
	jne	SHORT $LN13@SV_Status_
	jmp	SHORT $LN2@SV_Status_
$LN13@SV_Status_:

; 614  : 
; 615  : 		Con_Printf( "%3i ", i );

	mov	eax, DWORD PTR _i$[ebp]
	push	eax
	push	OFFSET ??_C@_04OACLNE@?$CF3i?5@
	call	_Con_Printf
	add	esp, 8

; 616  : 		Con_Printf( "%5i ", (int)cl->edict->v.frags );

	mov	eax, DWORD PTR _cl$[ebp]
	mov	ecx, DWORD PTR [eax+264948]
	cvttss2si edx, DWORD PTR [ecx+592]
	push	edx
	push	OFFSET ??_C@_04CFILHEAI@?$CF5i?5@
	call	_Con_Printf
	add	esp, 8

; 617  : 
; 618  : 		if( cl->state == cs_connected ) Con_Printf( "Connect" );

	mov	eax, DWORD PTR _cl$[ebp]
	cmp	DWORD PTR [eax], 2
	jne	SHORT $LN14@SV_Status_
	push	OFFSET ??_C@_07FJPHLACI@Connect@
	call	_Con_Printf
	add	esp, 4
	jmp	SHORT $LN19@SV_Status_
$LN14@SV_Status_:

; 619  : 		else if( cl->state == cs_zombie ) Con_Printf( "Zombie " );

	mov	eax, DWORD PTR _cl$[ebp]
	cmp	DWORD PTR [eax], 1
	jne	SHORT $LN16@SV_Status_
	push	OFFSET ??_C@_07OJOLFONN@Zombie?5@
	call	_Con_Printf
	add	esp, 4
	jmp	SHORT $LN19@SV_Status_
$LN16@SV_Status_:

; 620  : 		else if( FBitSet( cl->flags, FCL_FAKECLIENT )) Con_Printf( "Bot   " );

	mov	eax, DWORD PTR _cl$[ebp]
	mov	ecx, DWORD PTR [eax+40]
	and	ecx, 128				; 00000080H
	je	SHORT $LN18@SV_Status_
	push	OFFSET ??_C@_06EJAMHCCN@Bot?5?5?5@
	call	_Con_Printf
	add	esp, 4
	jmp	SHORT $LN19@SV_Status_
$LN18@SV_Status_:

; 621  : 		else Con_Printf( "%7i ", SV_CalcPing( cl ));

	mov	eax, DWORD PTR _cl$[ebp]
	push	eax
	call	_SV_CalcPing
	add	esp, 4
	push	eax
	push	OFFSET ??_C@_04IPICLMID@?$CF7i?5@
	call	_Con_Printf
	add	esp, 8
$LN19@SV_Status_:

; 622  : 
; 623  : 		Con_Printf( "%s", cl->name );

	mov	eax, DWORD PTR _cl$[ebp]
	add	eax, 8
	push	eax
	push	OFFSET ??_C@_02DKCKIIND@?$CFs@
	call	_Con_Printf
	add	esp, 8

; 624  : 		l = 24 - Q_strlen( cl->name );

	mov	eax, DWORD PTR _cl$[ebp]
	add	eax, 8
	push	eax
	call	_Q_strlen
	add	esp, 4
	mov	ecx, 24					; 00000018H
	sub	ecx, eax
	mov	DWORD PTR _l$2[ebp], ecx

; 625  : 		for( j = 0; j < l; j++ ) Con_Printf( " " );

	mov	DWORD PTR _j$3[ebp], 0
	jmp	SHORT $LN7@SV_Status_
$LN5@SV_Status_:
	mov	eax, DWORD PTR _j$3[ebp]
	add	eax, 1
	mov	DWORD PTR _j$3[ebp], eax
$LN7@SV_Status_:
	mov	eax, DWORD PTR _j$3[ebp]
	cmp	eax, DWORD PTR _l$2[ebp]
	jge	SHORT $LN6@SV_Status_
	push	OFFSET ??_C@_01CLKCMJKC@?5@
	call	_Con_Printf
	add	esp, 4
	jmp	SHORT $LN5@SV_Status_
$LN6@SV_Status_:

; 626  : 		Con_Printf( "%g ", ( host.realtime - cl->netchan.last_received ));

	mov	eax, DWORD PTR _cl$[ebp]
	movsd	xmm0, QWORD PTR _host+1440
	subsd	xmm0, QWORD PTR [eax+592]
	sub	esp, 8
	movsd	QWORD PTR [esp], xmm0
	push	OFFSET ??_C@_03JBELIGOI@?$CFg?5@
	call	_Con_Printf
	add	esp, 12					; 0000000cH

; 627  : 		s = NET_BaseAdrToString( cl->netchan.remote_address );

	mov	eax, DWORD PTR _cl$[ebp]
	add	eax, 564				; 00000234H
	sub	esp, 20					; 00000014H
	mov	ecx, esp
	mov	edx, DWORD PTR [eax]
	mov	DWORD PTR [ecx], edx
	mov	edx, DWORD PTR [eax+4]
	mov	DWORD PTR [ecx+4], edx
	mov	edx, DWORD PTR [eax+8]
	mov	DWORD PTR [ecx+8], edx
	mov	edx, DWORD PTR [eax+12]
	mov	DWORD PTR [ecx+12], edx
	mov	eax, DWORD PTR [eax+16]
	mov	DWORD PTR [ecx+16], eax
	call	_NET_BaseAdrToString
	add	esp, 20					; 00000014H
	mov	DWORD PTR _s$1[ebp], eax

; 628  : 		Con_Printf( "%s", s );

	mov	eax, DWORD PTR _s$1[ebp]
	push	eax
	push	OFFSET ??_C@_02DKCKIIND@?$CFs@
	call	_Con_Printf
	add	esp, 8

; 629  : 		l = 22 - Q_strlen( s );

	mov	eax, DWORD PTR _s$1[ebp]
	push	eax
	call	_Q_strlen
	add	esp, 4
	mov	ecx, 22					; 00000016H
	sub	ecx, eax
	mov	DWORD PTR _l$2[ebp], ecx

; 630  : 		for( j = 0; j < l; j++ ) Con_Printf( " " );

	mov	DWORD PTR _j$3[ebp], 0
	jmp	SHORT $LN10@SV_Status_
$LN8@SV_Status_:
	mov	eax, DWORD PTR _j$3[ebp]
	add	eax, 1
	mov	DWORD PTR _j$3[ebp], eax
$LN10@SV_Status_:
	mov	eax, DWORD PTR _j$3[ebp]
	cmp	eax, DWORD PTR _l$2[ebp]
	jge	SHORT $LN9@SV_Status_
	push	OFFSET ??_C@_01CLKCMJKC@?5@
	call	_Con_Printf
	add	esp, 4
	jmp	SHORT $LN8@SV_Status_
$LN9@SV_Status_:

; 631  : 		Con_Printf( "%5i", cl->netchan.qport );

	mov	eax, DWORD PTR _cl$[ebp]
	mov	ecx, DWORD PTR [eax+584]
	push	ecx
	push	OFFSET ??_C@_03NPMIIIHK@?$CF5i@
	call	_Con_Printf
	add	esp, 8

; 632  : 		Con_Printf( "\n" );

	push	OFFSET ??_C@_01EEMJAFIK@?6@
	call	_Con_Printf
	add	esp, 4

; 633  : 	}

	jmp	$LN2@SV_Status_
$LN3@SV_Status_:

; 634  : 	Con_Printf( "\n" );

	push	OFFSET ??_C@_01EEMJAFIK@?6@
	call	_Con_Printf
	add	esp, 4
$LN1@SV_Status_:

; 635  : }

	pop	edi
	pop	esi
	pop	ebx
	mov	esp, ebp
	pop	ebp
	ret	0
_SV_Status_f ENDP
_TEXT	ENDS
; Function compile flags: /Odtp /ZI
; File D:\DevDragon\XashFE\dev\src\engine\server\sv_cmds.c
;	COMDAT _SV_ClientPrintf
_TEXT	SEGMENT
_argptr$ = -1032					; size = 4
_string$ = -1028					; size = 1024
__$ArrayPad$ = -4					; size = 4
_cl$ = 8						; size = 4
_fmt$ = 12						; size = 4
_SV_ClientPrintf PROC					; COMDAT

; 27   : {

	push	ebp
	mov	ebp, esp
	sub	esp, 1224				; 000004c8H
	mov	eax, DWORD PTR ___security_cookie
	xor	eax, ebp
	mov	DWORD PTR __$ArrayPad$[ebp], eax
	push	ebx
	push	esi
	push	edi

; 28   : 	char	string[MAX_SYSPATH];
; 29   : 	va_list	argptr;
; 30   : 
; 31   : 	if( FBitSet( cl->flags, FCL_FAKECLIENT ))

	mov	eax, DWORD PTR _cl$[ebp]
	mov	ecx, DWORD PTR [eax+40]
	and	ecx, 128				; 00000080H
	je	SHORT $LN2@SV_ClientP

; 32   : 		return;

	jmp	SHORT $LN1@SV_ClientP
$LN2@SV_ClientP:

; 33   : 	
; 34   : 	va_start( argptr, fmt );

	lea	eax, DWORD PTR _fmt$[ebp+4]
	mov	DWORD PTR _argptr$[ebp], eax

; 35   : 	Q_vsprintf( string, fmt, argptr );

	mov	eax, DWORD PTR _argptr$[ebp]
	push	eax
	mov	ecx, DWORD PTR _fmt$[ebp]
	push	ecx
	push	99999					; 0001869fH
	lea	edx, DWORD PTR _string$[ebp]
	push	edx
	call	_Q_vsnprintf
	add	esp, 16					; 00000010H

; 36   : 	va_end( argptr );

	mov	DWORD PTR _argptr$[ebp], 0

; 37   : 	
; 38   : 	MSG_BeginServerCmd( &cl->netchan.message, svc_print );

	push	0
	push	1
	push	8
	mov	eax, DWORD PTR _cl$[ebp]
	add	eax, 660				; 00000294H
	push	eax
	call	_MSG_WriteCmdExt
	add	esp, 16					; 00000010H

; 39   : 	MSG_WriteString( &cl->netchan.message, string );

	lea	eax, DWORD PTR _string$[ebp]
	push	eax
	mov	ecx, DWORD PTR _cl$[ebp]
	add	ecx, 660				; 00000294H
	push	ecx
	call	_MSG_WriteString
	add	esp, 8
$LN1@SV_ClientP:

; 40   : }

	pop	edi
	pop	esi
	pop	ebx
	mov	ecx, DWORD PTR __$ArrayPad$[ebp]
	xor	ecx, ebp
	call	@__security_check_cookie@4
	mov	esp, ebp
	pop	ebp
	ret	0
_SV_ClientPrintf ENDP
_TEXT	ENDS
; Function compile flags: /Odtp /ZI
; File D:\DevDragon\XashFE\dev\src\engine\server\sv_cmds.c
;	COMDAT _SV_KillOperatorCommands
_TEXT	SEGMENT
_SV_KillOperatorCommands PROC				; COMDAT

; 938  : {

	push	ebp
	mov	ebp, esp
	sub	esp, 64					; 00000040H
	push	ebx
	push	esi
	push	edi

; 939  : 	Cmd_RemoveCommand( "heartbeat" );

	push	OFFSET ??_C@_09NCPIAHOP@heartbeat@
	call	_Cmd_RemoveCommand
	add	esp, 4

; 940  : 	Cmd_RemoveCommand( "kick" );

	push	OFFSET ??_C@_04FNIJDBCC@kick@
	call	_Cmd_RemoveCommand
	add	esp, 4

; 941  : 	Cmd_RemoveCommand( "status" );

	push	OFFSET ??_C@_06DJIHEMFI@status@
	call	_Cmd_RemoveCommand
	add	esp, 4

; 942  : 	Cmd_RemoveCommand( "localinfo" );

	push	OFFSET ??_C@_09LJADEHNM@localinfo@
	call	_Cmd_RemoveCommand
	add	esp, 4

; 943  : 	Cmd_RemoveCommand( "serverinfo" );

	push	OFFSET ??_C@_0L@OJMFMOP@serverinfo@
	call	_Cmd_RemoveCommand
	add	esp, 4

; 944  : 	Cmd_RemoveCommand( "clientinfo" );

	push	OFFSET ??_C@_0L@FEIAOOGN@clientinfo@
	call	_Cmd_RemoveCommand
	add	esp, 4

; 945  : 	Cmd_RemoveCommand( "playersonly" );

	push	OFFSET ??_C@_0M@IJGKCGLO@playersonly@
	call	_Cmd_RemoveCommand
	add	esp, 4

; 946  : 	Cmd_RemoveCommand( "restart" );

	push	OFFSET ??_C@_07LDHOHMPD@restart@
	call	_Cmd_RemoveCommand
	add	esp, 4

; 947  : 	Cmd_RemoveCommand( "entpatch" );

	push	OFFSET ??_C@_08HONMJJCK@entpatch@
	call	_Cmd_RemoveCommand
	add	esp, 4

; 948  : 	Cmd_RemoveCommand( "edict_usage" );

	push	OFFSET ??_C@_0M@FCFIIHJB@edict_usage@
	call	_Cmd_RemoveCommand
	add	esp, 4

; 949  : 	Cmd_RemoveCommand( "entity_info" );

	push	OFFSET ??_C@_0M@HEMNGION@entity_info@
	call	_Cmd_RemoveCommand
	add	esp, 4

; 950  : 	Cmd_RemoveCommand( "shutdownserver" );

	push	OFFSET ??_C@_0P@IKLGAEBD@shutdownserver@
	call	_Cmd_RemoveCommand
	add	esp, 4

; 951  : 	Cmd_RemoveCommand( "changelevel" );

	push	OFFSET ??_C@_0M@HPDBOKLB@changelevel@
	call	_Cmd_RemoveCommand
	add	esp, 4

; 952  : 	Cmd_RemoveCommand( "changelevel2" );

	push	OFFSET ??_C@_0N@FBGJOGIB@changelevel2@
	call	_Cmd_RemoveCommand
	add	esp, 4

; 953  : 
; 954  : 	if( host.type == HOST_NORMAL )

	cmp	DWORD PTR _host+164, 0
	jne	SHORT $LN2@SV_KillOpe

; 955  : 	{
; 956  : 		Cmd_RemoveCommand( "save" );

	push	OFFSET ??_C@_04EMMDIJJL@save@
	call	_Cmd_RemoveCommand
	add	esp, 4

; 957  : 		Cmd_RemoveCommand( "savequick" );

	push	OFFSET ??_C@_09ICFIAJOH@savequick@
	call	_Cmd_RemoveCommand
	add	esp, 4

; 958  : 		Cmd_RemoveCommand( "autosave" );

	push	OFFSET ??_C@_08CCMFCJIM@autosave@
	call	_Cmd_RemoveCommand
	add	esp, 4

; 959  : 	}

	jmp	SHORT $LN1@SV_KillOpe
$LN2@SV_KillOpe:

; 960  : 	else if( host.type == HOST_DEDICATED )

	cmp	DWORD PTR _host+164, 1
	jne	SHORT $LN1@SV_KillOpe

; 961  : 	{
; 962  : 		Cmd_RemoveCommand( "say" );

	push	OFFSET ??_C@_03BANJEMDJ@say@
	call	_Cmd_RemoveCommand
	add	esp, 4
$LN1@SV_KillOpe:

; 963  : 	}
; 964  : }

	pop	edi
	pop	esi
	pop	ebx
	mov	esp, ebp
	pop	ebp
	ret	0
_SV_KillOperatorCommands ENDP
_TEXT	ENDS
; Function compile flags: /Odtp /ZI
; File D:\DevDragon\XashFE\dev\src\engine\server\sv_cmds.c
;	COMDAT _SV_InitOperatorCommands
_TEXT	SEGMENT
_SV_InitOperatorCommands PROC				; COMDAT

; 904  : {

	push	ebp
	mov	ebp, esp
	sub	esp, 64					; 00000040H
	push	ebx
	push	esi
	push	edi

; 905  : 	Cmd_AddCommand( "heartbeat", SV_Heartbeat_f, "send a heartbeat to the master server" );

	push	OFFSET ??_C@_0CG@GICICLAK@send?5a?5heartbeat?5to?5the?5master?5@
	push	OFFSET _SV_Heartbeat_f
	push	OFFSET ??_C@_09NCPIAHOP@heartbeat@
	call	_Cmd_AddCommand
	add	esp, 12					; 0000000cH

; 906  : 	Cmd_AddCommand( "kick", SV_Kick_f, "kick a player off the server by number or name" );

	push	OFFSET ??_C@_0CP@NFGKADOB@kick?5a?5player?5off?5the?5server?5by@
	push	OFFSET _SV_Kick_f
	push	OFFSET ??_C@_04FNIJDBCC@kick@
	call	_Cmd_AddCommand
	add	esp, 12					; 0000000cH

; 907  : 	Cmd_AddCommand( "status", SV_Status_f, "print server status information" );

	push	OFFSET ??_C@_0CA@PAOLGACJ@print?5server?5status?5information@
	push	OFFSET _SV_Status_f
	push	OFFSET ??_C@_06DJIHEMFI@status@
	call	_Cmd_AddCommand
	add	esp, 12					; 0000000cH

; 908  : 	Cmd_AddCommand( "localinfo", SV_LocalInfo_f, "examine or change the localinfo string" );

	push	OFFSET ??_C@_0CH@GHCKIGDI@examine?5or?5change?5the?5localinfo@
	push	OFFSET _SV_LocalInfo_f
	push	OFFSET ??_C@_09LJADEHNM@localinfo@
	call	_Cmd_AddCommand
	add	esp, 12					; 0000000cH

; 909  : 	Cmd_AddCommand( "serverinfo", SV_ServerInfo_f, "examine or change the serverinfo string" );

	push	OFFSET ??_C@_0CI@PMJJPCPH@examine?5or?5change?5the?5serverinf@
	push	OFFSET _SV_ServerInfo_f
	push	OFFSET ??_C@_0L@OJMFMOP@serverinfo@
	call	_Cmd_AddCommand
	add	esp, 12					; 0000000cH

; 910  : 	Cmd_AddCommand( "clientinfo", SV_ClientInfo_f, "print user infostring (player num required)" );

	push	OFFSET ??_C@_0CM@KOGCPGBG@print?5user?5infostring?5?$CIplayer?5n@
	push	OFFSET _SV_ClientInfo_f
	push	OFFSET ??_C@_0L@FEIAOOGN@clientinfo@
	call	_Cmd_AddCommand
	add	esp, 12					; 0000000cH

; 911  : 	Cmd_AddCommand( "playersonly", SV_PlayersOnly_f, "freezes time, except for players" );

	push	OFFSET ??_C@_0CB@NJBOMPMN@freezes?5time?0?5except?5for?5player@
	push	OFFSET _SV_PlayersOnly_f
	push	OFFSET ??_C@_0M@IJGKCGLO@playersonly@
	call	_Cmd_AddCommand
	add	esp, 12					; 0000000cH

; 912  : 	Cmd_AddCommand( "restart", SV_Restart_f, "restarting current level" );

	push	OFFSET ??_C@_0BJ@LBANABCH@restarting?5current?5level@
	push	OFFSET _SV_Restart_f
	push	OFFSET ??_C@_07LDHOHMPD@restart@
	call	_Cmd_AddCommand
	add	esp, 12					; 0000000cH

; 913  : 	Cmd_AddCommand( "entpatch", SV_EntPatch_f, "write entity patch to allow external editing" );

	push	OFFSET ??_C@_0CN@FFFCCIKA@write?5entity?5patch?5to?5allow?5ext@
	push	OFFSET _SV_EntPatch_f
	push	OFFSET ??_C@_08HONMJJCK@entpatch@
	call	_Cmd_AddCommand
	add	esp, 12					; 0000000cH

; 914  : 	Cmd_AddCommand( "edict_usage", SV_EdictUsage_f, "show info about edicts usage" );

	push	OFFSET ??_C@_0BN@JHPCLHFH@show?5info?5about?5edicts?5usage@
	push	OFFSET _SV_EdictUsage_f
	push	OFFSET ??_C@_0M@FCFIIHJB@edict_usage@
	call	_Cmd_AddCommand
	add	esp, 12					; 0000000cH

; 915  : 	Cmd_AddCommand( "entity_info", SV_EntityInfo_f, "show more info about edicts" );

	push	OFFSET ??_C@_0BM@EECLIOB@show?5more?5info?5about?5edicts@
	push	OFFSET _SV_EntityInfo_f
	push	OFFSET ??_C@_0M@HEMNGION@entity_info@
	call	_Cmd_AddCommand
	add	esp, 12					; 0000000cH

; 916  : 	Cmd_AddCommand( "shutdownserver", SV_KillServer_f, "shutdown current server" );

	push	OFFSET ??_C@_0BI@PECGEOCA@shutdown?5current?5server@
	push	OFFSET _SV_KillServer_f
	push	OFFSET ??_C@_0P@IKLGAEBD@shutdownserver@
	call	_Cmd_AddCommand
	add	esp, 12					; 0000000cH

; 917  : 	Cmd_AddCommand( "changelevel", SV_ChangeLevel_f, "change level" );

	push	OFFSET ??_C@_0N@LLMIPGDC@change?5level@
	push	OFFSET _SV_ChangeLevel_f
	push	OFFSET ??_C@_0M@HPDBOKLB@changelevel@
	call	_Cmd_AddCommand
	add	esp, 12					; 0000000cH

; 918  : 	Cmd_AddCommand( "changelevel2", SV_ChangeLevel2_f, "smooth change level" );

	push	OFFSET ??_C@_0BE@GIPCDBAN@smooth?5change?5level@
	push	OFFSET _SV_ChangeLevel2_f
	push	OFFSET ??_C@_0N@FBGJOGIB@changelevel2@
	call	_Cmd_AddCommand
	add	esp, 12					; 0000000cH

; 919  : 
; 920  : 	if( host.type == HOST_NORMAL )

	cmp	DWORD PTR _host+164, 0
	jne	SHORT $LN2@SV_InitOpe

; 921  : 	{
; 922  : 		Cmd_AddCommand( "save", SV_Save_f, "save the game to a file" );

	push	OFFSET ??_C@_0BI@LCFDNKOB@save?5the?5game?5to?5a?5file@
	push	OFFSET _SV_Save_f
	push	OFFSET ??_C@_04EMMDIJJL@save@
	call	_Cmd_AddCommand
	add	esp, 12					; 0000000cH

; 923  : 		Cmd_AddCommand( "savequick", SV_QuickSave_f, "save the game to the quicksave" );

	push	OFFSET ??_C@_0BP@BNPJJPJM@save?5the?5game?5to?5the?5quicksave@
	push	OFFSET _SV_QuickSave_f
	push	OFFSET ??_C@_09ICFIAJOH@savequick@
	call	_Cmd_AddCommand
	add	esp, 12					; 0000000cH

; 924  : 		Cmd_AddCommand( "autosave", SV_AutoSave_f, "save the game to 'autosave' file" );

	push	OFFSET ??_C@_0CB@IFPGMOA@save?5the?5game?5to?5?8autosave?8?5fil@
	push	OFFSET _SV_AutoSave_f
	push	OFFSET ??_C@_08CCMFCJIM@autosave@
	call	_Cmd_AddCommand
	add	esp, 12					; 0000000cH

; 925  : 	}

	jmp	SHORT $LN1@SV_InitOpe
$LN2@SV_InitOpe:

; 926  : 	else if( host.type == HOST_DEDICATED )

	cmp	DWORD PTR _host+164, 1
	jne	SHORT $LN1@SV_InitOpe

; 927  : 	{
; 928  : 		Cmd_AddCommand( "say", SV_ConSay_f, "send a chat message to everyone on the server" );

	push	OFFSET ??_C@_0CO@HDOIGABH@send?5a?5chat?5message?5to?5everyone@
	push	OFFSET _SV_ConSay_f
	push	OFFSET ??_C@_03BANJEMDJ@say@
	call	_Cmd_AddCommand
	add	esp, 12					; 0000000cH
$LN1@SV_InitOpe:

; 929  : 	}
; 930  : }

	pop	edi
	pop	esi
	pop	ebx
	mov	esp, ebp
	pop	ebp
	ret	0
_SV_InitOperatorCommands ENDP
_TEXT	ENDS
; Function compile flags: /Odtp /ZI
; File D:\DevDragon\XashFE\dev\src\engine\server\sv_cmds.c
;	COMDAT _SV_BroadcastPrintf
_TEXT	SEGMENT
_i$ = -1040						; size = 4
_cl$ = -1036						; size = 4
_argptr$ = -1032					; size = 4
_string$ = -1028					; size = 1024
__$ArrayPad$ = -4					; size = 4
_ignore$ = 8						; size = 4
_fmt$ = 12						; size = 4
_SV_BroadcastPrintf PROC				; COMDAT

; 50   : {

	push	ebp
	mov	ebp, esp
	sub	esp, 1232				; 000004d0H
	mov	eax, DWORD PTR ___security_cookie
	xor	eax, ebp
	mov	DWORD PTR __$ArrayPad$[ebp], eax
	push	ebx
	push	esi
	push	edi

; 51   : 	char		string[MAX_SYSPATH];
; 52   : 	va_list		argptr;
; 53   : 	sv_client_t	*cl;
; 54   : 	int		i;
; 55   : 
; 56   : 	va_start( argptr, fmt );

	lea	eax, DWORD PTR _fmt$[ebp+4]
	mov	DWORD PTR _argptr$[ebp], eax

; 57   : 	Q_vsprintf( string, fmt, argptr );

	mov	eax, DWORD PTR _argptr$[ebp]
	push	eax
	mov	ecx, DWORD PTR _fmt$[ebp]
	push	ecx
	push	99999					; 0001869fH
	lea	edx, DWORD PTR _string$[ebp]
	push	edx
	call	_Q_vsnprintf
	add	esp, 16					; 00000010H

; 58   : 	va_end( argptr );

	mov	DWORD PTR _argptr$[ebp], 0

; 59   : 
; 60   : 	if( sv.state == ss_active )

	cmp	DWORD PTR _sv, 2
	jne	$LN5@SV_Broadca

; 61   : 	{
; 62   : 		for( i = 0, cl = svs.clients; i < svs.maxclients; i++, cl++ )

	mov	DWORD PTR _i$[ebp], 0
	mov	eax, DWORD PTR _svs+33344
	mov	DWORD PTR _cl$[ebp], eax
	jmp	SHORT $LN4@SV_Broadca
$LN2@SV_Broadca:
	mov	eax, DWORD PTR _i$[ebp]
	add	eax, 1
	mov	DWORD PTR _i$[ebp], eax
	mov	ecx, DWORD PTR _cl$[ebp]
	add	ecx, 289832				; 00046c28H
	mov	DWORD PTR _cl$[ebp], ecx
$LN4@SV_Broadca:
	mov	eax, DWORD PTR _i$[ebp]
	cmp	eax, DWORD PTR _svs+16
	jge	SHORT $LN5@SV_Broadca

; 63   : 		{
; 64   : 			if( FBitSet( cl->flags, FCL_FAKECLIENT ))

	mov	eax, DWORD PTR _cl$[ebp]
	mov	ecx, DWORD PTR [eax+40]
	and	ecx, 128				; 00000080H
	je	SHORT $LN6@SV_Broadca

; 65   : 				continue;

	jmp	SHORT $LN2@SV_Broadca
$LN6@SV_Broadca:

; 66   : 
; 67   : 			if( cl == ignore || cl->state != cs_spawned )

	mov	eax, DWORD PTR _cl$[ebp]
	cmp	eax, DWORD PTR _ignore$[ebp]
	je	SHORT $LN8@SV_Broadca
	mov	eax, DWORD PTR _cl$[ebp]
	cmp	DWORD PTR [eax], 3
	je	SHORT $LN7@SV_Broadca
$LN8@SV_Broadca:

; 68   : 				continue;

	jmp	SHORT $LN2@SV_Broadca
$LN7@SV_Broadca:

; 69   : 
; 70   : 			MSG_BeginServerCmd( &cl->netchan.message, svc_print );

	push	0
	push	1
	push	8
	mov	eax, DWORD PTR _cl$[ebp]
	add	eax, 660				; 00000294H
	push	eax
	call	_MSG_WriteCmdExt
	add	esp, 16					; 00000010H

; 71   : 			MSG_WriteString( &cl->netchan.message, string );

	lea	eax, DWORD PTR _string$[ebp]
	push	eax
	mov	ecx, DWORD PTR _cl$[ebp]
	add	ecx, 660				; 00000294H
	push	ecx
	call	_MSG_WriteString
	add	esp, 8

; 72   : 		}

	jmp	$LN2@SV_Broadca
$LN5@SV_Broadca:

; 73   : 	}
; 74   : 
; 75   : 	if( host.type == HOST_DEDICATED )

	cmp	DWORD PTR _host+164, 1
	jne	SHORT $LN1@SV_Broadca

; 76   : 	{
; 77   : 		// echo to console
; 78   : 		Con_DPrintf( string );

	lea	eax, DWORD PTR _string$[ebp]
	push	eax
	call	_Con_DPrintf
	add	esp, 4
$LN1@SV_Broadca:

; 79   : 	}
; 80   : }

	pop	edi
	pop	esi
	pop	ebx
	mov	ecx, DWORD PTR __$ArrayPad$[ebp]
	xor	ecx, ebp
	call	@__security_check_cookie@4
	mov	esp, ebp
	pop	ebp
	ret	0
_SV_BroadcastPrintf ENDP
_TEXT	ENDS
; Function compile flags: /Odtp /ZI
; File D:\DevDragon\XashFE\dev\src\engine\server\sv_cmds.c
;	COMDAT _SV_BroadcastCommand
_TEXT	SEGMENT
_argptr$ = -1032					; size = 4
_string$ = -1028					; size = 1024
__$ArrayPad$ = -4					; size = 4
_fmt$ = 8						; size = 4
_SV_BroadcastCommand PROC				; COMDAT

; 90   : {

	push	ebp
	mov	ebp, esp
	sub	esp, 1224				; 000004c8H
	mov	eax, DWORD PTR ___security_cookie
	xor	eax, ebp
	mov	DWORD PTR __$ArrayPad$[ebp], eax
	push	ebx
	push	esi
	push	edi

; 91   : 	char	string[MAX_SYSPATH];
; 92   : 	va_list	argptr;	
; 93   : 
; 94   : 	if( sv.state == ss_dead )

	cmp	DWORD PTR _sv, 0
	jne	SHORT $LN2@SV_Broadca

; 95   : 		return;

	jmp	SHORT $LN1@SV_Broadca
$LN2@SV_Broadca:

; 96   : 
; 97   : 	va_start( argptr, fmt );

	lea	eax, DWORD PTR _fmt$[ebp+4]
	mov	DWORD PTR _argptr$[ebp], eax

; 98   : 	Q_vsprintf( string, fmt, argptr );

	mov	eax, DWORD PTR _argptr$[ebp]
	push	eax
	mov	ecx, DWORD PTR _fmt$[ebp]
	push	ecx
	push	99999					; 0001869fH
	lea	edx, DWORD PTR _string$[ebp]
	push	edx
	call	_Q_vsnprintf
	add	esp, 16					; 00000010H

; 99   : 	va_end( argptr );

	mov	DWORD PTR _argptr$[ebp], 0

; 100  : 
; 101  : 	MSG_BeginServerCmd( &sv.reliable_datagram, svc_stufftext );

	push	0
	push	1
	push	9
	push	OFFSET _sv+2431724
	call	_MSG_WriteCmdExt
	add	esp, 16					; 00000010H

; 102  : 	MSG_WriteString( &sv.reliable_datagram, string );

	lea	eax, DWORD PTR _string$[ebp]
	push	eax
	push	OFFSET _sv+2431724
	call	_MSG_WriteString
	add	esp, 8
$LN1@SV_Broadca:

; 103  : }

	pop	edi
	pop	esi
	pop	ebx
	mov	ecx, DWORD PTR __$ArrayPad$[ebp]
	xor	ecx, ebp
	call	@__security_check_cookie@4
	mov	esp, ebp
	pop	ebp
	ret	0
_SV_BroadcastCommand ENDP
_TEXT	ENDS
END
