; Listing generated by Microsoft (R) Optimizing Compiler Version 19.37.32705.0 

	TITLE	D:\DevDragon\XashFE\dev\src\temp\engine\!debug\sv_main.obj
	.686P
	.XMM
	include listing.inc
	.model	flat

INCLUDELIB MSVCRTD
INCLUDELIB OLDNAMES

PUBLIC	_sv_lan
PUBLIC	_sv_lan_rate
PUBLIC	_mp_logecho
PUBLIC	_mp_logfile
PUBLIC	_sv_unlag
PUBLIC	_sv_maxunlag
PUBLIC	_sv_unlagpush
PUBLIC	_sv_unlagsamples
PUBLIC	_rcon_password
PUBLIC	_sv_instancedbaseline
PUBLIC	_sv_background_freeze
PUBLIC	_sv_minupdaterate
PUBLIC	_sv_maxupdaterate
PUBLIC	_sv_downloadurl
PUBLIC	_sv_newunit
PUBLIC	_sv_clienttrace
PUBLIC	_sv_failuretime
PUBLIC	_sv_send_resources
PUBLIC	_sv_send_logos
PUBLIC	_sv_allow_upload
PUBLIC	_sv_allow_download
PUBLIC	_sv_airaccelerate
PUBLIC	_sv_accelerate
PUBLIC	_sv_friction
PUBLIC	_sv_edgefriction
PUBLIC	_sv_gravity
PUBLIC	_sv_stopspeed
PUBLIC	_sv_maxspeed
PUBLIC	_sv_wateralpha
PUBLIC	_sv_wateramp
PUBLIC	_sv_stepsize
PUBLIC	_sv_maxvelocity
PUBLIC	_sv_rollangle
PUBLIC	_sv_rollspeed
PUBLIC	_sv_skyname
PUBLIC	_sv_skycolor_r
PUBLIC	_sv_skycolor_g
PUBLIC	_sv_skycolor_b
PUBLIC	_sv_skyvec_x
PUBLIC	_sv_skyvec_y
PUBLIC	_sv_skyvec_z
PUBLIC	_sv_skyspeed
PUBLIC	_sv_skyangle
PUBLIC	_sv_skydir_x
PUBLIC	_sv_skydir_y
PUBLIC	_sv_skydir_z
PUBLIC	_sv_consistency
PUBLIC	_sv_password
PUBLIC	_sv_uploadmax
PUBLIC	_deathmatch
PUBLIC	_hostname
PUBLIC	_skill
PUBLIC	_coop
PUBLIC	??_C@_06BLLAPDHE@sv_lan@			; `string'
PUBLIC	??_C@_01GBGANLPD@0@				; `string'
PUBLIC	??_C@_0GG@KFLFDBGM@server?5is?5a?5lan?5server?5?$CI?5no?5hea@ ; `string'
PUBLIC	??_C@_0M@ECMLAMEJ@sv_lan_rate@			; `string'
PUBLIC	??_C@_07ENLDMLFH@20000?40@			; `string'
PUBLIC	??_C@_0BE@HBDODBDE@rate?5for?5lan?5server@	; `string'
PUBLIC	_sv_aim
PUBLIC	??_C@_06MMOECJNC@sv_aim@			; `string'
PUBLIC	??_C@_01HIHLOKLC@1@				; `string'
PUBLIC	??_C@_0BD@BDAGCAPB@auto?5aiming?5option@	; `string'
PUBLIC	??_C@_08MOFEJK@sv_unlag@			; `string'
PUBLIC	??_C@_0CG@PBANJNO@allow?5lag?5compensation?5on?5serve@ ; `string'
PUBLIC	??_C@_0M@IICIDGOJ@sv_maxunlag@			; `string'
PUBLIC	??_C@_03LOHCHBBO@0?45@				; `string'
PUBLIC	??_C@_0FK@CLLIFKFE@max?5latency?5value?5which?5can?5be?5@ ; `string'
PUBLIC	??_C@_0N@LCJBPKKL@sv_unlagpush@			; `string'
PUBLIC	??_C@_03MDAFIFFL@0?40@				; `string'
PUBLIC	??_C@_0CC@KABPKMKK@interpolation?5bias?5for?5unlag?5ti@ ; `string'
PUBLIC	??_C@_0BA@PDNKHDAF@sv_unlagsamples@		; `string'
PUBLIC	??_C@_0BL@EGMIHMIB@max?5samples?5to?5interpolate@ ; `string'
PUBLIC	??_C@_0O@EEIAMLPM@rcon_password@		; `string'
PUBLIC	??_C@_00CNPNBAHC@@				; `string'
PUBLIC	??_C@_0BI@FIMCMPPL@remote?5connect?5password@	; `string'
PUBLIC	_sv_filterban
PUBLIC	??_C@_0N@JMLBFDDF@sv_filterban@			; `string'
PUBLIC	??_C@_0BE@FNEBHCH@filter?5banned?5users@	; `string'
PUBLIC	_sv_cheats
PUBLIC	??_C@_09NFOPKLIK@sv_cheats@			; `string'
PUBLIC	??_C@_0BH@CNKNHLHA@allow?5cheats?5on?5server@	; `string'
PUBLIC	_sv_infinite_ammo
PUBLIC	??_C@_0BB@JBGGLKDL@sv_infinite_ammo@		; `string'
PUBLIC	??_C@_0HD@JLGCJFP@Allow?5infinite?5ammo?5on?5weapons?0@ ; `string'
PUBLIC	??_C@_0BF@EFNBMDO@sv_instancedbaseline@		; `string'
PUBLIC	??_C@_0DL@FKILFPOF@allow?5to?5use?5instanced?5baseline@ ; `string'
PUBLIC	_sv_contact
PUBLIC	??_C@_0L@DKGKOLAF@sv_contact@			; `string'
PUBLIC	??_C@_0DF@HALPNDKE@server?5techincal?5support?5contac@ ; `string'
PUBLIC	??_C@_0BB@ELOMOLOH@sv_minupdaterate@		; `string'
PUBLIC	??_C@_04LICCDMGM@10?40@				; `string'
PUBLIC	??_C@_0CJ@BFDEDMIN@minimal?5value?5for?5?8cl_updaterat@ ; `string'
PUBLIC	??_C@_0BB@PCMKHAJG@sv_maxupdaterate@		; `string'
PUBLIC	??_C@_04MCOCGPAM@30?40@				; `string'
PUBLIC	??_C@_0CJ@CALGCNND@maximal?5value?5for?5?8cl_updaterat@ ; `string'
PUBLIC	_sv_minrate
PUBLIC	??_C@_0L@IJMAKPEI@sv_minrate@			; `string'
PUBLIC	??_C@_0DF@LGODOOKP@min?5bandwidth?5rate?5allowed?5on?5s@ ; `string'
PUBLIC	_sv_maxrate
PUBLIC	??_C@_0L@GPKAAAKJ@sv_maxrate@			; `string'
PUBLIC	??_C@_0DF@IKIHCABH@max?5bandwidth?5rate?5allowed?5on?5s@ ; `string'
PUBLIC	_sv_logrelay
PUBLIC	??_C@_0M@KFNLOCMJ@sv_logrelay@			; `string'
PUBLIC	??_C@_0EE@JOLNIDPA@allow?5log?5messages?5from?5remote?5@ ; `string'
PUBLIC	??_C@_0L@EJFCEOPJ@sv_newunit@			; `string'
PUBLIC	??_C@_0FH@PEOBPEMM@clear?5level?9saves?5from?5previous@ ; `string'
PUBLIC	??_C@_0P@CCDIMHBI@sv_clienttrace@		; `string'
PUBLIC	??_C@_0FH@BLNMNPDN@0?5?$DN?5big?5box?$CIQuake?$CJ?0?50?45?5?$DN?5halfs@ ; `string'
PUBLIC	_sv_timeout
PUBLIC	??_C@_0L@MKEICGA@sv_timeout@			; `string'
PUBLIC	??_C@_02ICGJHNHJ@65@				; `string'
PUBLIC	??_C@_0EP@JALIABDK@after?5this?5many?5seconds?5without@ ; `string'
PUBLIC	??_C@_0P@BHENHCGI@sv_failuretime@		; `string'
PUBLIC	??_C@_0GE@IOIDLKLE@after?5this?5long?5without?5a?5packe@ ; `string'
PUBLIC	??_C@_0M@ELPBDANP@sv_password@			; `string'
PUBLIC	??_C@_0DB@JGMIEAMN@server?5password?5for?5entry?5into?5@ ; `string'
PUBLIC	_sv_proxies
PUBLIC	??_C@_0L@EOIDNMPN@sv_proxies@			; `string'
PUBLIC	??_C@_0DF@DGFFNNIP@maximum?5count?5of?5allowed?5proxie@ ; `string'
PUBLIC	??_C@_0O@CMBLKGEC@sv_send_logos@		; `string'
PUBLIC	??_C@_0EB@KOIFFIKB@send?5custom?5decal?5logo?5to?5other@ ; `string'
PUBLIC	??_C@_0BC@BFGIDJKI@sv_send_resources@		; `string'
PUBLIC	??_C@_0CP@KAMDKKLA@allow?5to?5download?5missed?5resour@ ; `string'
PUBLIC	_sv_logbans
PUBLIC	??_C@_0L@GMHMMPNH@sv_logbans@			; `string'
PUBLIC	??_C@_0DB@OBCDFPKA@print?5into?5the?5server?5log?5info?5@ ; `string'
PUBLIC	??_C@_0BA@OOHJHELC@sv_allow_upload@		; `string'
PUBLIC	??_C@_0CN@PCLIILDO@allow?5uploading?5custom?5resource@ ; `string'
PUBLIC	??_C@_0BC@FGCLLFEG@sv_allow_download@		; `string'
PUBLIC	??_C@_0DB@GKILGKDB@allow?5downloading?5custom?5resour@ ; `string'
PUBLIC	??_C@_0N@FFINAHF@sv_uploadmax@			; `string'
PUBLIC	??_C@_0DI@BIOKIBE@max?5size?5to?5upload?5custom?5resou@ ; `string'
PUBLIC	??_C@_0P@PMGKOLJF@sv_downloadurl@		; `string'
PUBLIC	??_C@_0DH@NLPBNPCC@location?5from?5which?5clients?5can@ ; `string'
PUBLIC	??_C@_0P@HELJHMBJ@mp_consistency@		; `string'
PUBLIC	??_C@_0CI@JNDIGHL@enbale?5consistency?5check?5in?5mul@ ; `string'
PUBLIC	??_C@_0L@GHDBGFCJ@mp_logecho@			; `string'
PUBLIC	??_C@_0CI@CNMOIEPC@log?5multiplayer?5frags?5to?5server@ ; `string'
PUBLIC	??_C@_0L@LCMKLPML@mp_logfile@			; `string'
PUBLIC	??_C@_0CB@BNMICHAH@log?5multiplayer?5frags?5to?5consol@ ; `string'
PUBLIC	_mapcyclefile
PUBLIC	??_C@_0N@NBABDDNG@mapcyclefile@			; `string'
PUBLIC	??_C@_0N@FDAHIHKA@mapcycle?4txt@		; `string'
PUBLIC	??_C@_0DB@DCILNEGL@name?5of?5multiplayer?5map?5cycle?5c@ ; `string'
PUBLIC	_motdfile
PUBLIC	??_C@_08DPEIBBAD@motdfile@			; `string'
PUBLIC	??_C@_08LNEOKFHF@motd?4txt@			; `string'
PUBLIC	??_C@_0CC@ECMIEDPB@name?5of?5?8message?5of?5the?5day?8?5fi@ ; `string'
PUBLIC	_logsdir
PUBLIC	??_C@_07CFKPIHBM@logsdir@			; `string'
PUBLIC	??_C@_04EPNAICGL@logs@				; `string'
PUBLIC	??_C@_0CA@NONKOAIM@place?5to?5store?5multiplayer?5logs@ ; `string'
PUBLIC	_bannedcfgfile
PUBLIC	??_C@_0O@MPPKKFHE@bannedcfgfile@		; `string'
PUBLIC	??_C@_0L@IIEKELGP@banned?4cfg@			; `string'
PUBLIC	??_C@_0BN@EKODDBO@name?5of?5list?5of?5banned?5users@ ; `string'
PUBLIC	??_C@_0L@ILDAINPG@deathmatch@			; `string'
PUBLIC	??_C@_0CE@LONNJDFL@deathmatch?5mode?5in?5multiplayer?5@ ; `string'
PUBLIC	??_C@_04OILOBHMB@coop@				; `string'
PUBLIC	??_C@_0CF@LDEOFJLO@cooperative?5mode?5in?5multiplayer@ ; `string'
PUBLIC	_teamplay
PUBLIC	??_C@_08IKNDEHFO@teamplay@			; `string'
PUBLIC	??_C@_0BO@KCLGKHC@team?5mode?5in?5multiplayer?5game@ ; `string'
PUBLIC	??_C@_05ODMCMJAJ@skill@				; `string'
PUBLIC	??_C@_01FDFGLJHB@2@				; `string'
PUBLIC	??_C@_0CB@MMNKMHJB@skill?5level?5in?5singleplayer?5gam@ ; `string'
PUBLIC	_temp1
PUBLIC	??_C@_05NELMKJIK@temp1@				; `string'
PUBLIC	??_C@_0CG@CLHANCKI@temporary?5cvar?5that?5used?5by?5som@ ; `string'
PUBLIC	??_C@_0L@FKMMBKBD@sv_gravity@			; `string'
PUBLIC	??_C@_03BAAJCDMO@800@				; `string'
PUBLIC	??_C@_0BE@JBOFDNFH@world?5gravity?5value@	; `string'
PUBLIC	??_C@_0N@LFAHFFEG@sv_stopspeed@			; `string'
PUBLIC	??_C@_03GNABGMEE@100@				; `string'
PUBLIC	??_C@_0CF@FGBNMIHN@how?5fast?5you?5come?5to?5a?5complete@ ; `string'
PUBLIC	??_C@_0M@NAINEIIC@sv_maxspeed@			; `string'
PUBLIC	??_C@_03MEIMHAKB@320@				; `string'
PUBLIC	??_C@_0DI@IKOMCCLP@maximum?5speed?5a?5player?5can?5acce@ ; `string'
PUBLIC	_sv_spectatormaxspeed
PUBLIC	??_C@_0BF@IDJMGIDH@sv_spectatormaxspeed@	; `string'
PUBLIC	??_C@_03OCGDPLBD@500@				; `string'
PUBLIC	??_C@_0DA@GLEMDBJO@maximum?5speed?5a?5spectator?5can?5a@ ; `string'
PUBLIC	??_C@_0O@OFAOFHGI@sv_accelerate@		; `string'
PUBLIC	??_C@_02PKFBJPLJ@10@				; `string'
PUBLIC	??_C@_0DC@NOJBMING@rate?5at?5which?5a?5player?5accelera@ ; `string'
PUBLIC	??_C@_0BB@OKHOGIP@sv_airaccelerate@		; `string'
PUBLIC	??_C@_0ED@PGBBGOFD@rate?5at?5which?5a?5player?5accelera@ ; `string'
PUBLIC	_sv_wateraccelerate
PUBLIC	??_C@_0BD@ENGAEIGL@sv_wateraccelerate@		; `string'
PUBLIC	??_C@_0EF@KIBNFDPN@rate?5at?5which?5a?5player?5accelera@ ; `string'
PUBLIC	??_C@_0M@CKLNABFC@sv_friction@			; `string'
PUBLIC	??_C@_01FAMBOPH@4@				; `string'
PUBLIC	??_C@_0BH@HHFIBCFI@how?5fast?5you?5slow?5down@	; `string'
PUBLIC	??_C@_0N@CFOJOFHL@edgefriction@			; `string'
PUBLIC	??_C@_0DP@BHNEDDIK@how?5much?5you?5slow?5down?5when?5nea@ ; `string'
PUBLIC	_sv_waterfriction
PUBLIC	??_C@_0BB@FMKHIHFO@sv_waterfriction@		; `string'
PUBLIC	??_C@_0CA@EBHFLGFL@how?5fast?5you?5slow?5down?5in?5water@ ; `string'
PUBLIC	_sv_bounce
PUBLIC	??_C@_09FDOPBHHA@sv_bounce@			; `string'
PUBLIC	??_C@_0DA@BADLJAGI@bounce?5factor?5for?5entities?5with@ ; `string'
PUBLIC	??_C@_0M@DFOHBOK@sv_stepsize@			; `string'
PUBLIC	??_C@_02DCIIBFLB@18@				; `string'
PUBLIC	??_C@_0CD@NEPFHGDG@how?5high?5you?5and?5NPS?8s?5can?5step@ ; `string'
PUBLIC	??_C@_0P@FKNMIPLB@sv_maxvelocity@		; `string'
PUBLIC	??_C@_04OJDKMIMG@2000@				; `string'
PUBLIC	??_C@_0CJ@DAJMENFL@max?5velocity?5for?5all?5things?5in?5@ ; `string'
PUBLIC	_sv_zmax
PUBLIC	??_C@_07BOLPGMIP@sv_zmax@			; `string'
PUBLIC	??_C@_04DPPBKBGP@4096@				; `string'
PUBLIC	??_C@_0BK@PHMIJFEI@maximum?5viewable?5distance@	; `string'
PUBLIC	??_C@_0M@COFDEJEF@sv_wateramp@			; `string'
PUBLIC	??_C@_0BI@PFNMDPJL@world?5waveheight?5factor@	; `string'
PUBLIC	_sv_footsteps
PUBLIC	??_C@_0N@OFGIKLBC@mp_footsteps@			; `string'
PUBLIC	??_C@_0L@NPFKENCH@sv_skyname@			; `string'
PUBLIC	??_C@_06OLPPELHM@desert@			; `string'
PUBLIC	??_C@_0DB@DCFOKFHK@skybox?5name?5?$CIcan?5be?5dynamically@ ; `string'
PUBLIC	??_C@_0N@HHKMFLLL@sv_rollangle@			; `string'
PUBLIC	??_C@_0CI@HOLOPPPO@how?5much?5to?5tilt?5the?5view?5when?5@ ; `string'
PUBLIC	??_C@_0N@FKKBBDIN@sv_rollspeed@			; `string'
PUBLIC	??_C@_03HPLEMDKK@200@				; `string'
PUBLIC	??_C@_0DA@EBLJLBH@how?5much?5strafing?5is?5necessary?5@ ; `string'
PUBLIC	??_C@_0O@CGCGGHO@sv_skycolor_r@			; `string'
PUBLIC	??_C@_0BN@PMKCGHPG@skylight?5red?5component?5value@ ; `string'
PUBLIC	??_C@_0O@DFNHIAGK@sv_skycolor_g@		; `string'
PUBLIC	??_C@_0BP@CEOHKJAJ@skylight?5green?5component?5value@ ; `string'
PUBLIC	??_C@_0O@EIKAHECP@sv_skycolor_b@		; `string'
PUBLIC	??_C@_0BO@BJPHMIOF@skylight?5blue?5component?5value@ ; `string'
PUBLIC	??_C@_0M@JBBFCNJL@sv_skyvec_x@			; `string'
PUBLIC	??_C@_0BN@KFNCCKFF@skylight?5direction?5by?5x?9axis@ ; `string'
PUBLIC	??_C@_0M@IIAOBMNK@sv_skyvec_y@			; `string'
PUBLIC	??_C@_0BN@DKFCBOB@skylight?5direction?5by?5y?9axis@ ; `string'
PUBLIC	??_C@_0M@KDCDEPBJ@sv_skyvec_z@			; `string'
PUBLIC	??_C@_0BN@DCENDLHM@skylight?5direction?5by?5z?9axis@ ; `string'
PUBLIC	??_C@_0M@PCFOFDPA@sv_skydir_x@			; `string'
PUBLIC	??_C@_0CC@HNLFGPDP@sky?5rotation?5factor?5around?5x?9ax@ ; `string'
PUBLIC	??_C@_0M@OLEFGCLB@sv_skydir_y@			; `string'
PUBLIC	??_C@_0CC@NLMCGEIL@sky?5rotation?5factor?5around?5y?9ax@ ; `string'
PUBLIC	??_C@_0M@MAGIDBHC@sv_skydir_z@			; `string'
PUBLIC	??_C@_0CC@OKCKHOBG@sky?5rotation?5factor?5around?5z?9ax@ ; `string'
PUBLIC	??_C@_0M@KODFIOCL@sv_skyangle@			; `string'
PUBLIC	??_C@_0CF@EIMGIDIL@skybox?5rotational?5angle?5?$CIin?5deg@ ; `string'
PUBLIC	??_C@_0M@IDDIMGBN@sv_skyspeed@			; `string'
PUBLIC	??_C@_0BI@CLFIJIB@skybox?5rotational?5speed@	; `string'
PUBLIC	??_C@_0O@IFEMIFOJ@sv_wateralpha@		; `string'
PUBLIC	??_C@_0EP@HPEGEGMH@world?5surfaces?5water?5transparen@ ; `string'
PUBLIC	??_C@_0BF@DHOFBMDH@sv_background_freeze@	; `string'
PUBLIC	??_C@_0EE@EGIBBPIA@freeze?5player?5movement?5on?5backg@ ; `string'
PUBLIC	_showtriggers
PUBLIC	??_C@_0N@DCDKEHFJ@showtriggers@			; `string'
PUBLIC	??_C@_0BK@EHKOIAFL@debug?5cvar?5shows?5triggers@ ; `string'
PUBLIC	_sv_airmove
PUBLIC	??_C@_0L@KLJANLOJ@sv_airmove@			; `string'
PUBLIC	??_C@_0BP@COCLDOCK@obsolete?0?5compatibility?5issues@ ; `string'
PUBLIC	_sv_version
PUBLIC	??_C@_0L@BAPGLOKE@sv_version@			; `string'
PUBLIC	??_C@_0BG@NIIJAIPH@engine?5version?5string@	; `string'
PUBLIC	??_C@_08EHKIGBEA@hostname@			; `string'
PUBLIC	??_C@_0BF@GPJPMPCB@name?5of?5current?5host@	; `string'
PUBLIC	_sv_fps
PUBLIC	??_C@_06JGIFLGEL@sv_fps@			; `string'
PUBLIC	??_C@_0BB@EECPFBDB@server?5framerate@		; `string'
PUBLIC	_violence_hblood
PUBLIC	??_C@_0BA@HHHGKLAB@violence_hblood@		; `string'
PUBLIC	??_C@_0BB@FFHFKAAB@draw?5human?5blood@		; `string'
PUBLIC	_violence_ablood
PUBLIC	??_C@_0BA@OCOOOONC@violence_ablood@		; `string'
PUBLIC	??_C@_0BB@EJGAJBKI@draw?5alien?5blood@		; `string'
PUBLIC	_violence_hgibs
PUBLIC	??_C@_0P@CKNFIDAM@violence_hgibs@		; `string'
PUBLIC	??_C@_0BI@NPALKMAN@show?5human?5gib?5entities@	; `string'
PUBLIC	_violence_agibs
PUBLIC	??_C@_0P@NNKNCME@violence_agibs@		; `string'
PUBLIC	??_C@_0BI@HANBBOGN@show?5alien?5gib?5entities@	; `string'
_DATA	SEGMENT
COMM	_sv_maxclients:DWORD
COMM	_sv_pausable:DWORD
COMM	_sv_check_errors:DWORD
COMM	_sv_reconnect_limit:DWORD
COMM	_sv_lighting_modulate:DWORD
COMM	_sv_novis:DWORD
COMM	_sv_hostmap:DWORD
COMM	_sv_validate_changelevel:DWORD
COMM	_public_server:DWORD
COMM	_timeout:DWORD
COMM	_sv_sendvelocity:DWORD
_DATA	ENDS
;	COMDAT ??_C@_0BI@HANBBOGN@show?5alien?5gib?5entities@
CONST	SEGMENT
??_C@_0BI@HANBBOGN@show?5alien?5gib?5entities@ DB 'show alien gib entitie'
	DB	's', 00H					; `string'
CONST	ENDS
;	COMDAT ??_C@_0P@NNKNCME@violence_agibs@
CONST	SEGMENT
??_C@_0P@NNKNCME@violence_agibs@ DB 'violence_agibs', 00H ; `string'
CONST	ENDS
;	COMDAT ??_C@_0BI@NPALKMAN@show?5human?5gib?5entities@
CONST	SEGMENT
??_C@_0BI@NPALKMAN@show?5human?5gib?5entities@ DB 'show human gib entitie'
	DB	's', 00H					; `string'
CONST	ENDS
;	COMDAT ??_C@_0P@CKNFIDAM@violence_hgibs@
CONST	SEGMENT
??_C@_0P@CKNFIDAM@violence_hgibs@ DB 'violence_hgibs', 00H ; `string'
CONST	ENDS
;	COMDAT ??_C@_0BB@EJGAJBKI@draw?5alien?5blood@
CONST	SEGMENT
??_C@_0BB@EJGAJBKI@draw?5alien?5blood@ DB 'draw alien blood', 00H ; `string'
CONST	ENDS
;	COMDAT ??_C@_0BA@OCOOOONC@violence_ablood@
CONST	SEGMENT
??_C@_0BA@OCOOOONC@violence_ablood@ DB 'violence_ablood', 00H ; `string'
CONST	ENDS
;	COMDAT ??_C@_0BB@FFHFKAAB@draw?5human?5blood@
CONST	SEGMENT
??_C@_0BB@FFHFKAAB@draw?5human?5blood@ DB 'draw human blood', 00H ; `string'
CONST	ENDS
;	COMDAT ??_C@_0BA@HHHGKLAB@violence_hblood@
CONST	SEGMENT
??_C@_0BA@HHHGKLAB@violence_hblood@ DB 'violence_hblood', 00H ; `string'
CONST	ENDS
;	COMDAT ??_C@_0BB@EECPFBDB@server?5framerate@
CONST	SEGMENT
??_C@_0BB@EECPFBDB@server?5framerate@ DB 'server framerate', 00H ; `string'
CONST	ENDS
;	COMDAT ??_C@_06JGIFLGEL@sv_fps@
CONST	SEGMENT
??_C@_06JGIFLGEL@sv_fps@ DB 'sv_fps', 00H		; `string'
CONST	ENDS
;	COMDAT ??_C@_0BF@GPJPMPCB@name?5of?5current?5host@
CONST	SEGMENT
??_C@_0BF@GPJPMPCB@name?5of?5current?5host@ DB 'name of current host', 00H ; `string'
CONST	ENDS
;	COMDAT ??_C@_08EHKIGBEA@hostname@
CONST	SEGMENT
??_C@_08EHKIGBEA@hostname@ DB 'hostname', 00H		; `string'
CONST	ENDS
;	COMDAT ??_C@_0BG@NIIJAIPH@engine?5version?5string@
CONST	SEGMENT
??_C@_0BG@NIIJAIPH@engine?5version?5string@ DB 'engine version string', 00H ; `string'
CONST	ENDS
;	COMDAT ??_C@_0L@BAPGLOKE@sv_version@
CONST	SEGMENT
??_C@_0L@BAPGLOKE@sv_version@ DB 'sv_version', 00H	; `string'
CONST	ENDS
;	COMDAT ??_C@_0BP@COCLDOCK@obsolete?0?5compatibility?5issues@
CONST	SEGMENT
??_C@_0BP@COCLDOCK@obsolete?0?5compatibility?5issues@ DB 'obsolete, compa'
	DB	'tibility issues', 00H			; `string'
CONST	ENDS
;	COMDAT ??_C@_0L@KLJANLOJ@sv_airmove@
CONST	SEGMENT
??_C@_0L@KLJANLOJ@sv_airmove@ DB 'sv_airmove', 00H	; `string'
CONST	ENDS
;	COMDAT ??_C@_0BK@EHKOIAFL@debug?5cvar?5shows?5triggers@
CONST	SEGMENT
??_C@_0BK@EHKOIAFL@debug?5cvar?5shows?5triggers@ DB 'debug cvar shows tri'
	DB	'ggers', 00H					; `string'
CONST	ENDS
;	COMDAT ??_C@_0N@DCDKEHFJ@showtriggers@
CONST	SEGMENT
??_C@_0N@DCDKEHFJ@showtriggers@ DB 'showtriggers', 00H	; `string'
CONST	ENDS
;	COMDAT ??_C@_0EE@EGIBBPIA@freeze?5player?5movement?5on?5backg@
CONST	SEGMENT
??_C@_0EE@EGIBBPIA@freeze?5player?5movement?5on?5backg@ DB 'freeze player'
	DB	' movement on background maps (e.g. to prevent falling)', 00H ; `string'
CONST	ENDS
;	COMDAT ??_C@_0BF@DHOFBMDH@sv_background_freeze@
CONST	SEGMENT
??_C@_0BF@DHOFBMDH@sv_background_freeze@ DB 'sv_background_freeze', 00H ; `string'
CONST	ENDS
;	COMDAT ??_C@_0EP@HPEGEGMH@world?5surfaces?5water?5transparen@
CONST	SEGMENT
??_C@_0EP@HPEGEGMH@world?5surfaces?5water?5transparen@ DB 'world surfaces'
	DB	' water transparency factor. 1.0 - solid, 0.0 - fully transpar'
	DB	'ent', 00H					; `string'
CONST	ENDS
;	COMDAT ??_C@_0O@IFEMIFOJ@sv_wateralpha@
CONST	SEGMENT
??_C@_0O@IFEMIFOJ@sv_wateralpha@ DB 'sv_wateralpha', 00H ; `string'
CONST	ENDS
;	COMDAT ??_C@_0BI@CLFIJIB@skybox?5rotational?5speed@
CONST	SEGMENT
??_C@_0BI@CLFIJIB@skybox?5rotational?5speed@ DB 'skybox rotational speed', 00H ; `string'
CONST	ENDS
;	COMDAT ??_C@_0M@IDDIMGBN@sv_skyspeed@
CONST	SEGMENT
??_C@_0M@IDDIMGBN@sv_skyspeed@ DB 'sv_skyspeed', 00H	; `string'
CONST	ENDS
;	COMDAT ??_C@_0CF@EIMGIDIL@skybox?5rotational?5angle?5?$CIin?5deg@
CONST	SEGMENT
??_C@_0CF@EIMGIDIL@skybox?5rotational?5angle?5?$CIin?5deg@ DB 'skybox rot'
	DB	'ational angle (in degrees)', 00H		; `string'
CONST	ENDS
;	COMDAT ??_C@_0M@KODFIOCL@sv_skyangle@
CONST	SEGMENT
??_C@_0M@KODFIOCL@sv_skyangle@ DB 'sv_skyangle', 00H	; `string'
CONST	ENDS
;	COMDAT ??_C@_0CC@OKCKHOBG@sky?5rotation?5factor?5around?5z?9ax@
CONST	SEGMENT
??_C@_0CC@OKCKHOBG@sky?5rotation?5factor?5around?5z?9ax@ DB 'sky rotation'
	DB	' factor around z-axis', 00H			; `string'
CONST	ENDS
;	COMDAT ??_C@_0M@MAGIDBHC@sv_skydir_z@
CONST	SEGMENT
??_C@_0M@MAGIDBHC@sv_skydir_z@ DB 'sv_skydir_z', 00H	; `string'
CONST	ENDS
;	COMDAT ??_C@_0CC@NLMCGEIL@sky?5rotation?5factor?5around?5y?9ax@
CONST	SEGMENT
??_C@_0CC@NLMCGEIL@sky?5rotation?5factor?5around?5y?9ax@ DB 'sky rotation'
	DB	' factor around y-axis', 00H			; `string'
CONST	ENDS
;	COMDAT ??_C@_0M@OLEFGCLB@sv_skydir_y@
CONST	SEGMENT
??_C@_0M@OLEFGCLB@sv_skydir_y@ DB 'sv_skydir_y', 00H	; `string'
CONST	ENDS
;	COMDAT ??_C@_0CC@HNLFGPDP@sky?5rotation?5factor?5around?5x?9ax@
CONST	SEGMENT
??_C@_0CC@HNLFGPDP@sky?5rotation?5factor?5around?5x?9ax@ DB 'sky rotation'
	DB	' factor around x-axis', 00H			; `string'
CONST	ENDS
;	COMDAT ??_C@_0M@PCFOFDPA@sv_skydir_x@
CONST	SEGMENT
??_C@_0M@PCFOFDPA@sv_skydir_x@ DB 'sv_skydir_x', 00H	; `string'
CONST	ENDS
;	COMDAT ??_C@_0BN@DCENDLHM@skylight?5direction?5by?5z?9axis@
CONST	SEGMENT
??_C@_0BN@DCENDLHM@skylight?5direction?5by?5z?9axis@ DB 'skylight directi'
	DB	'on by z-axis', 00H				; `string'
CONST	ENDS
;	COMDAT ??_C@_0M@KDCDEPBJ@sv_skyvec_z@
CONST	SEGMENT
??_C@_0M@KDCDEPBJ@sv_skyvec_z@ DB 'sv_skyvec_z', 00H	; `string'
CONST	ENDS
;	COMDAT ??_C@_0BN@DKFCBOB@skylight?5direction?5by?5y?9axis@
CONST	SEGMENT
??_C@_0BN@DKFCBOB@skylight?5direction?5by?5y?9axis@ DB 'skylight directio'
	DB	'n by y-axis', 00H				; `string'
CONST	ENDS
;	COMDAT ??_C@_0M@IIAOBMNK@sv_skyvec_y@
CONST	SEGMENT
??_C@_0M@IIAOBMNK@sv_skyvec_y@ DB 'sv_skyvec_y', 00H	; `string'
CONST	ENDS
;	COMDAT ??_C@_0BN@KFNCCKFF@skylight?5direction?5by?5x?9axis@
CONST	SEGMENT
??_C@_0BN@KFNCCKFF@skylight?5direction?5by?5x?9axis@ DB 'skylight directi'
	DB	'on by x-axis', 00H				; `string'
CONST	ENDS
;	COMDAT ??_C@_0M@JBBFCNJL@sv_skyvec_x@
CONST	SEGMENT
??_C@_0M@JBBFCNJL@sv_skyvec_x@ DB 'sv_skyvec_x', 00H	; `string'
CONST	ENDS
;	COMDAT ??_C@_0BO@BJPHMIOF@skylight?5blue?5component?5value@
CONST	SEGMENT
??_C@_0BO@BJPHMIOF@skylight?5blue?5component?5value@ DB 'skylight blue co'
	DB	'mponent value', 00H				; `string'
CONST	ENDS
;	COMDAT ??_C@_0O@EIKAHECP@sv_skycolor_b@
CONST	SEGMENT
??_C@_0O@EIKAHECP@sv_skycolor_b@ DB 'sv_skycolor_b', 00H ; `string'
CONST	ENDS
;	COMDAT ??_C@_0BP@CEOHKJAJ@skylight?5green?5component?5value@
CONST	SEGMENT
??_C@_0BP@CEOHKJAJ@skylight?5green?5component?5value@ DB 'skylight green '
	DB	'component value', 00H			; `string'
CONST	ENDS
;	COMDAT ??_C@_0O@DFNHIAGK@sv_skycolor_g@
CONST	SEGMENT
??_C@_0O@DFNHIAGK@sv_skycolor_g@ DB 'sv_skycolor_g', 00H ; `string'
CONST	ENDS
;	COMDAT ??_C@_0BN@PMKCGHPG@skylight?5red?5component?5value@
CONST	SEGMENT
??_C@_0BN@PMKCGHPG@skylight?5red?5component?5value@ DB 'skylight red comp'
	DB	'onent value', 00H				; `string'
CONST	ENDS
;	COMDAT ??_C@_0O@CGCGGHO@sv_skycolor_r@
CONST	SEGMENT
??_C@_0O@CGCGGHO@sv_skycolor_r@ DB 'sv_skycolor_r', 00H	; `string'
CONST	ENDS
;	COMDAT ??_C@_0DA@EBLJLBH@how?5much?5strafing?5is?5necessary?5@
CONST	SEGMENT
??_C@_0DA@EBLJLBH@how?5much?5strafing?5is?5necessary?5@ DB 'how much stra'
	DB	'fing is necessary to tilt the view', 00H	; `string'
CONST	ENDS
;	COMDAT ??_C@_03HPLEMDKK@200@
CONST	SEGMENT
??_C@_03HPLEMDKK@200@ DB '200', 00H			; `string'
CONST	ENDS
;	COMDAT ??_C@_0N@FKKBBDIN@sv_rollspeed@
CONST	SEGMENT
??_C@_0N@FKKBBDIN@sv_rollspeed@ DB 'sv_rollspeed', 00H	; `string'
CONST	ENDS
;	COMDAT ??_C@_0CI@HOLOPPPO@how?5much?5to?5tilt?5the?5view?5when?5@
CONST	SEGMENT
??_C@_0CI@HOLOPPPO@how?5much?5to?5tilt?5the?5view?5when?5@ DB 'how much t'
	DB	'o tilt the view when strafing', 00H		; `string'
CONST	ENDS
;	COMDAT ??_C@_0N@HHKMFLLL@sv_rollangle@
CONST	SEGMENT
??_C@_0N@HHKMFLLL@sv_rollangle@ DB 'sv_rollangle', 00H	; `string'
CONST	ENDS
;	COMDAT ??_C@_0DB@DCFOKFHK@skybox?5name?5?$CIcan?5be?5dynamically@
CONST	SEGMENT
??_C@_0DB@DCFOKFHK@skybox?5name?5?$CIcan?5be?5dynamically@ DB 'skybox nam'
	DB	'e (can be dynamically changed in-game)', 00H ; `string'
CONST	ENDS
;	COMDAT ??_C@_06OLPPELHM@desert@
CONST	SEGMENT
??_C@_06OLPPELHM@desert@ DB 'desert', 00H		; `string'
CONST	ENDS
;	COMDAT ??_C@_0L@NPFKENCH@sv_skyname@
CONST	SEGMENT
??_C@_0L@NPFKENCH@sv_skyname@ DB 'sv_skyname', 00H	; `string'
CONST	ENDS
;	COMDAT ??_C@_0N@OFGIKLBC@mp_footsteps@
CONST	SEGMENT
??_C@_0N@OFGIKLBC@mp_footsteps@ DB 'mp_footsteps', 00H	; `string'
CONST	ENDS
;	COMDAT ??_C@_0BI@PFNMDPJL@world?5waveheight?5factor@
CONST	SEGMENT
??_C@_0BI@PFNMDPJL@world?5waveheight?5factor@ DB 'world waveheight factor'
	DB	00H						; `string'
CONST	ENDS
;	COMDAT ??_C@_0M@COFDEJEF@sv_wateramp@
CONST	SEGMENT
??_C@_0M@COFDEJEF@sv_wateramp@ DB 'sv_wateramp', 00H	; `string'
CONST	ENDS
;	COMDAT ??_C@_0BK@PHMIJFEI@maximum?5viewable?5distance@
CONST	SEGMENT
??_C@_0BK@PHMIJFEI@maximum?5viewable?5distance@ DB 'maximum viewable dist'
	DB	'ance', 00H					; `string'
CONST	ENDS
;	COMDAT ??_C@_04DPPBKBGP@4096@
CONST	SEGMENT
??_C@_04DPPBKBGP@4096@ DB '4096', 00H			; `string'
CONST	ENDS
;	COMDAT ??_C@_07BOLPGMIP@sv_zmax@
CONST	SEGMENT
??_C@_07BOLPGMIP@sv_zmax@ DB 'sv_zmax', 00H		; `string'
CONST	ENDS
;	COMDAT ??_C@_0CJ@DAJMENFL@max?5velocity?5for?5all?5things?5in?5@
CONST	SEGMENT
??_C@_0CJ@DAJMENFL@max?5velocity?5for?5all?5things?5in?5@ DB 'max velocit'
	DB	'y for all things in the world', 00H		; `string'
CONST	ENDS
;	COMDAT ??_C@_04OJDKMIMG@2000@
CONST	SEGMENT
??_C@_04OJDKMIMG@2000@ DB '2000', 00H			; `string'
CONST	ENDS
;	COMDAT ??_C@_0P@FKNMIPLB@sv_maxvelocity@
CONST	SEGMENT
??_C@_0P@FKNMIPLB@sv_maxvelocity@ DB 'sv_maxvelocity', 00H ; `string'
CONST	ENDS
;	COMDAT ??_C@_0CD@NEPFHGDG@how?5high?5you?5and?5NPS?8s?5can?5step@
CONST	SEGMENT
??_C@_0CD@NEPFHGDG@how?5high?5you?5and?5NPS?8s?5can?5step@ DB 'how high y'
	DB	'ou and NPS''s can step up', 00H		; `string'
CONST	ENDS
;	COMDAT ??_C@_02DCIIBFLB@18@
CONST	SEGMENT
??_C@_02DCIIBFLB@18@ DB '18', 00H			; `string'
CONST	ENDS
;	COMDAT ??_C@_0M@DFOHBOK@sv_stepsize@
CONST	SEGMENT
??_C@_0M@DFOHBOK@sv_stepsize@ DB 'sv_stepsize', 00H	; `string'
CONST	ENDS
;	COMDAT ??_C@_0DA@BADLJAGI@bounce?5factor?5for?5entities?5with@
CONST	SEGMENT
??_C@_0DA@BADLJAGI@bounce?5factor?5for?5entities?5with@ DB 'bounce factor'
	DB	' for entities with MOVETYPE_BOUNCE', 00H	; `string'
CONST	ENDS
;	COMDAT ??_C@_09FDOPBHHA@sv_bounce@
CONST	SEGMENT
??_C@_09FDOPBHHA@sv_bounce@ DB 'sv_bounce', 00H		; `string'
CONST	ENDS
;	COMDAT ??_C@_0CA@EBHFLGFL@how?5fast?5you?5slow?5down?5in?5water@
CONST	SEGMENT
??_C@_0CA@EBHFLGFL@how?5fast?5you?5slow?5down?5in?5water@ DB 'how fast yo'
	DB	'u slow down in water', 00H			; `string'
CONST	ENDS
;	COMDAT ??_C@_0BB@FMKHIHFO@sv_waterfriction@
CONST	SEGMENT
??_C@_0BB@FMKHIHFO@sv_waterfriction@ DB 'sv_waterfriction', 00H ; `string'
CONST	ENDS
;	COMDAT ??_C@_0DP@BHNEDDIK@how?5much?5you?5slow?5down?5when?5nea@
CONST	SEGMENT
??_C@_0DP@BHNEDDIK@how?5much?5you?5slow?5down?5when?5nea@ DB 'how much yo'
	DB	'u slow down when nearing a ledge you might fall off', 00H ; `string'
CONST	ENDS
;	COMDAT ??_C@_0N@CFOJOFHL@edgefriction@
CONST	SEGMENT
??_C@_0N@CFOJOFHL@edgefriction@ DB 'edgefriction', 00H	; `string'
CONST	ENDS
;	COMDAT ??_C@_0BH@HHFIBCFI@how?5fast?5you?5slow?5down@
CONST	SEGMENT
??_C@_0BH@HHFIBCFI@how?5fast?5you?5slow?5down@ DB 'how fast you slow down'
	DB	00H						; `string'
CONST	ENDS
;	COMDAT ??_C@_01FAMBOPH@4@
CONST	SEGMENT
??_C@_01FAMBOPH@4@ DB '4', 00H				; `string'
CONST	ENDS
;	COMDAT ??_C@_0M@CKLNABFC@sv_friction@
CONST	SEGMENT
??_C@_0M@CKLNABFC@sv_friction@ DB 'sv_friction', 00H	; `string'
CONST	ENDS
;	COMDAT ??_C@_0EF@KIBNFDPN@rate?5at?5which?5a?5player?5accelera@
CONST	SEGMENT
??_C@_0EF@KIBNFDPN@rate?5at?5which?5a?5player?5accelera@ DB 'rate at whic'
	DB	'h a player accelerates to sv_maxspeed while in the water', 00H ; `string'
CONST	ENDS
;	COMDAT ??_C@_0BD@ENGAEIGL@sv_wateraccelerate@
CONST	SEGMENT
??_C@_0BD@ENGAEIGL@sv_wateraccelerate@ DB 'sv_wateraccelerate', 00H ; `string'
CONST	ENDS
;	COMDAT ??_C@_0ED@PGBBGOFD@rate?5at?5which?5a?5player?5accelera@
CONST	SEGMENT
??_C@_0ED@PGBBGOFD@rate?5at?5which?5a?5player?5accelera@ DB 'rate at whic'
	DB	'h a player accelerates to sv_maxspeed while in the air', 00H ; `string'
CONST	ENDS
;	COMDAT ??_C@_0BB@OKHOGIP@sv_airaccelerate@
CONST	SEGMENT
??_C@_0BB@OKHOGIP@sv_airaccelerate@ DB 'sv_airaccelerate', 00H ; `string'
CONST	ENDS
;	COMDAT ??_C@_0DC@NOJBMING@rate?5at?5which?5a?5player?5accelera@
CONST	SEGMENT
??_C@_0DC@NOJBMING@rate?5at?5which?5a?5player?5accelera@ DB 'rate at whic'
	DB	'h a player accelerates to sv_maxspeed', 00H	; `string'
CONST	ENDS
;	COMDAT ??_C@_02PKFBJPLJ@10@
CONST	SEGMENT
??_C@_02PKFBJPLJ@10@ DB '10', 00H			; `string'
CONST	ENDS
;	COMDAT ??_C@_0O@OFAOFHGI@sv_accelerate@
CONST	SEGMENT
??_C@_0O@OFAOFHGI@sv_accelerate@ DB 'sv_accelerate', 00H ; `string'
CONST	ENDS
;	COMDAT ??_C@_0DA@GLEMDBJO@maximum?5speed?5a?5spectator?5can?5a@
CONST	SEGMENT
??_C@_0DA@GLEMDBJO@maximum?5speed?5a?5spectator?5can?5a@ DB 'maximum spee'
	DB	'd a spectator can accelerate in air', 00H	; `string'
CONST	ENDS
;	COMDAT ??_C@_03OCGDPLBD@500@
CONST	SEGMENT
??_C@_03OCGDPLBD@500@ DB '500', 00H			; `string'
CONST	ENDS
;	COMDAT ??_C@_0BF@IDJMGIDH@sv_spectatormaxspeed@
CONST	SEGMENT
??_C@_0BF@IDJMGIDH@sv_spectatormaxspeed@ DB 'sv_spectatormaxspeed', 00H ; `string'
CONST	ENDS
;	COMDAT ??_C@_0DI@IKOMCCLP@maximum?5speed?5a?5player?5can?5acce@
CONST	SEGMENT
??_C@_0DI@IKOMCCLP@maximum?5speed?5a?5player?5can?5acce@ DB 'maximum spee'
	DB	'd a player can accelerate to when on ground', 00H ; `string'
CONST	ENDS
;	COMDAT ??_C@_03MEIMHAKB@320@
CONST	SEGMENT
??_C@_03MEIMHAKB@320@ DB '320', 00H			; `string'
CONST	ENDS
;	COMDAT ??_C@_0M@NAINEIIC@sv_maxspeed@
CONST	SEGMENT
??_C@_0M@NAINEIIC@sv_maxspeed@ DB 'sv_maxspeed', 00H	; `string'
CONST	ENDS
;	COMDAT ??_C@_0CF@FGBNMIHN@how?5fast?5you?5come?5to?5a?5complete@
CONST	SEGMENT
??_C@_0CF@FGBNMIHN@how?5fast?5you?5come?5to?5a?5complete@ DB 'how fast yo'
	DB	'u come to a complete stop', 00H		; `string'
CONST	ENDS
;	COMDAT ??_C@_03GNABGMEE@100@
CONST	SEGMENT
??_C@_03GNABGMEE@100@ DB '100', 00H			; `string'
CONST	ENDS
;	COMDAT ??_C@_0N@LFAHFFEG@sv_stopspeed@
CONST	SEGMENT
??_C@_0N@LFAHFFEG@sv_stopspeed@ DB 'sv_stopspeed', 00H	; `string'
CONST	ENDS
;	COMDAT ??_C@_0BE@JBOFDNFH@world?5gravity?5value@
CONST	SEGMENT
??_C@_0BE@JBOFDNFH@world?5gravity?5value@ DB 'world gravity value', 00H ; `string'
CONST	ENDS
;	COMDAT ??_C@_03BAAJCDMO@800@
CONST	SEGMENT
??_C@_03BAAJCDMO@800@ DB '800', 00H			; `string'
CONST	ENDS
;	COMDAT ??_C@_0L@FKMMBKBD@sv_gravity@
CONST	SEGMENT
??_C@_0L@FKMMBKBD@sv_gravity@ DB 'sv_gravity', 00H	; `string'
CONST	ENDS
;	COMDAT ??_C@_0CG@CLHANCKI@temporary?5cvar?5that?5used?5by?5som@
CONST	SEGMENT
??_C@_0CG@CLHANCKI@temporary?5cvar?5that?5used?5by?5som@ DB 'temporary cv'
	DB	'ar that used by some mods', 00H		; `string'
CONST	ENDS
;	COMDAT ??_C@_05NELMKJIK@temp1@
CONST	SEGMENT
??_C@_05NELMKJIK@temp1@ DB 'temp1', 00H			; `string'
CONST	ENDS
;	COMDAT ??_C@_0CB@MMNKMHJB@skill?5level?5in?5singleplayer?5gam@
CONST	SEGMENT
??_C@_0CB@MMNKMHJB@skill?5level?5in?5singleplayer?5gam@ DB 'skill level i'
	DB	'n singleplayer game', 00H			; `string'
CONST	ENDS
;	COMDAT ??_C@_01FDFGLJHB@2@
CONST	SEGMENT
??_C@_01FDFGLJHB@2@ DB '2', 00H				; `string'
CONST	ENDS
;	COMDAT ??_C@_05ODMCMJAJ@skill@
CONST	SEGMENT
??_C@_05ODMCMJAJ@skill@ DB 'skill', 00H			; `string'
CONST	ENDS
;	COMDAT ??_C@_0BO@KCLGKHC@team?5mode?5in?5multiplayer?5game@
CONST	SEGMENT
??_C@_0BO@KCLGKHC@team?5mode?5in?5multiplayer?5game@ DB 'team mode in mul'
	DB	'tiplayer game', 00H				; `string'
CONST	ENDS
;	COMDAT ??_C@_08IKNDEHFO@teamplay@
CONST	SEGMENT
??_C@_08IKNDEHFO@teamplay@ DB 'teamplay', 00H		; `string'
CONST	ENDS
;	COMDAT ??_C@_0CF@LDEOFJLO@cooperative?5mode?5in?5multiplayer@
CONST	SEGMENT
??_C@_0CF@LDEOFJLO@cooperative?5mode?5in?5multiplayer@ DB 'cooperative mo'
	DB	'de in multiplayer game', 00H		; `string'
CONST	ENDS
;	COMDAT ??_C@_04OILOBHMB@coop@
CONST	SEGMENT
??_C@_04OILOBHMB@coop@ DB 'coop', 00H			; `string'
CONST	ENDS
;	COMDAT ??_C@_0CE@LONNJDFL@deathmatch?5mode?5in?5multiplayer?5@
CONST	SEGMENT
??_C@_0CE@LONNJDFL@deathmatch?5mode?5in?5multiplayer?5@ DB 'deathmatch mo'
	DB	'de in multiplayer game', 00H		; `string'
CONST	ENDS
;	COMDAT ??_C@_0L@ILDAINPG@deathmatch@
CONST	SEGMENT
??_C@_0L@ILDAINPG@deathmatch@ DB 'deathmatch', 00H	; `string'
CONST	ENDS
;	COMDAT ??_C@_0BN@EKODDBO@name?5of?5list?5of?5banned?5users@
CONST	SEGMENT
??_C@_0BN@EKODDBO@name?5of?5list?5of?5banned?5users@ DB 'name of list of '
	DB	'banned users', 00H				; `string'
CONST	ENDS
;	COMDAT ??_C@_0L@IIEKELGP@banned?4cfg@
CONST	SEGMENT
??_C@_0L@IIEKELGP@banned?4cfg@ DB 'banned.cfg', 00H	; `string'
CONST	ENDS
;	COMDAT ??_C@_0O@MPPKKFHE@bannedcfgfile@
CONST	SEGMENT
??_C@_0O@MPPKKFHE@bannedcfgfile@ DB 'bannedcfgfile', 00H ; `string'
CONST	ENDS
;	COMDAT ??_C@_0CA@NONKOAIM@place?5to?5store?5multiplayer?5logs@
CONST	SEGMENT
??_C@_0CA@NONKOAIM@place?5to?5store?5multiplayer?5logs@ DB 'place to stor'
	DB	'e multiplayer logs', 00H			; `string'
CONST	ENDS
;	COMDAT ??_C@_04EPNAICGL@logs@
CONST	SEGMENT
??_C@_04EPNAICGL@logs@ DB 'logs', 00H			; `string'
CONST	ENDS
;	COMDAT ??_C@_07CFKPIHBM@logsdir@
CONST	SEGMENT
??_C@_07CFKPIHBM@logsdir@ DB 'logsdir', 00H		; `string'
CONST	ENDS
;	COMDAT ??_C@_0CC@ECMIEDPB@name?5of?5?8message?5of?5the?5day?8?5fi@
CONST	SEGMENT
??_C@_0CC@ECMIEDPB@name?5of?5?8message?5of?5the?5day?8?5fi@ DB 'name of '''
	DB	'message of the day'' file', 00H		; `string'
CONST	ENDS
;	COMDAT ??_C@_08LNEOKFHF@motd?4txt@
CONST	SEGMENT
??_C@_08LNEOKFHF@motd?4txt@ DB 'motd.txt', 00H		; `string'
CONST	ENDS
;	COMDAT ??_C@_08DPEIBBAD@motdfile@
CONST	SEGMENT
??_C@_08DPEIBBAD@motdfile@ DB 'motdfile', 00H		; `string'
CONST	ENDS
;	COMDAT ??_C@_0DB@DCILNEGL@name?5of?5multiplayer?5map?5cycle?5c@
CONST	SEGMENT
??_C@_0DB@DCILNEGL@name?5of?5multiplayer?5map?5cycle?5c@ DB 'name of mult'
	DB	'iplayer map cycle configuration file', 00H	; `string'
CONST	ENDS
;	COMDAT ??_C@_0N@FDAHIHKA@mapcycle?4txt@
CONST	SEGMENT
??_C@_0N@FDAHIHKA@mapcycle?4txt@ DB 'mapcycle.txt', 00H	; `string'
CONST	ENDS
;	COMDAT ??_C@_0N@NBABDDNG@mapcyclefile@
CONST	SEGMENT
??_C@_0N@NBABDDNG@mapcyclefile@ DB 'mapcyclefile', 00H	; `string'
CONST	ENDS
;	COMDAT ??_C@_0CB@BNMICHAH@log?5multiplayer?5frags?5to?5consol@
CONST	SEGMENT
??_C@_0CB@BNMICHAH@log?5multiplayer?5frags?5to?5consol@ DB 'log multiplay'
	DB	'er frags to console', 00H			; `string'
CONST	ENDS
;	COMDAT ??_C@_0L@LCMKLPML@mp_logfile@
CONST	SEGMENT
??_C@_0L@LCMKLPML@mp_logfile@ DB 'mp_logfile', 00H	; `string'
CONST	ENDS
;	COMDAT ??_C@_0CI@CNMOIEPC@log?5multiplayer?5frags?5to?5server@
CONST	SEGMENT
??_C@_0CI@CNMOIEPC@log?5multiplayer?5frags?5to?5server@ DB 'log multiplay'
	DB	'er frags to server logfile', 00H		; `string'
CONST	ENDS
;	COMDAT ??_C@_0L@GHDBGFCJ@mp_logecho@
CONST	SEGMENT
??_C@_0L@GHDBGFCJ@mp_logecho@ DB 'mp_logecho', 00H	; `string'
CONST	ENDS
;	COMDAT ??_C@_0CI@JNDIGHL@enbale?5consistency?5check?5in?5mul@
CONST	SEGMENT
??_C@_0CI@JNDIGHL@enbale?5consistency?5check?5in?5mul@ DB 'enbale consist'
	DB	'ency check in multiplayer', 00H		; `string'
CONST	ENDS
;	COMDAT ??_C@_0P@HELJHMBJ@mp_consistency@
CONST	SEGMENT
??_C@_0P@HELJHMBJ@mp_consistency@ DB 'mp_consistency', 00H ; `string'
CONST	ENDS
;	COMDAT ??_C@_0DH@NLPBNPCC@location?5from?5which?5clients?5can@
CONST	SEGMENT
??_C@_0DH@NLPBNPCC@location?5from?5which?5clients?5can@ DB 'location from'
	DB	' which clients can download missing files', 00H ; `string'
CONST	ENDS
;	COMDAT ??_C@_0P@PMGKOLJF@sv_downloadurl@
CONST	SEGMENT
??_C@_0P@PMGKOLJF@sv_downloadurl@ DB 'sv_downloadurl', 00H ; `string'
CONST	ENDS
;	COMDAT ??_C@_0DI@BIOKIBE@max?5size?5to?5upload?5custom?5resou@
CONST	SEGMENT
??_C@_0DI@BIOKIBE@max?5size?5to?5upload?5custom?5resou@ DB 'max size to u'
	DB	'pload custom resources (500 kB as default)', 00H ; `string'
CONST	ENDS
;	COMDAT ??_C@_0N@FFINAHF@sv_uploadmax@
CONST	SEGMENT
??_C@_0N@FFINAHF@sv_uploadmax@ DB 'sv_uploadmax', 00H	; `string'
CONST	ENDS
;	COMDAT ??_C@_0DB@GKILGKDB@allow?5downloading?5custom?5resour@
CONST	SEGMENT
??_C@_0DB@GKILGKDB@allow?5downloading?5custom?5resour@ DB 'allow download'
	DB	'ing custom resources to the client', 00H	; `string'
CONST	ENDS
;	COMDAT ??_C@_0BC@FGCLLFEG@sv_allow_download@
CONST	SEGMENT
??_C@_0BC@FGCLLFEG@sv_allow_download@ DB 'sv_allow_download', 00H ; `string'
CONST	ENDS
;	COMDAT ??_C@_0CN@PCLIILDO@allow?5uploading?5custom?5resource@
CONST	SEGMENT
??_C@_0CN@PCLIILDO@allow?5uploading?5custom?5resource@ DB 'allow uploadin'
	DB	'g custom resources on a server', 00H	; `string'
CONST	ENDS
;	COMDAT ??_C@_0BA@OOHJHELC@sv_allow_upload@
CONST	SEGMENT
??_C@_0BA@OOHJHELC@sv_allow_upload@ DB 'sv_allow_upload', 00H ; `string'
CONST	ENDS
;	COMDAT ??_C@_0DB@OBCDFPKA@print?5into?5the?5server?5log?5info?5@
CONST	SEGMENT
??_C@_0DB@OBCDFPKA@print?5into?5the?5server?5log?5info?5@ DB 'print into '
	DB	'the server log info about player bans', 00H	; `string'
CONST	ENDS
;	COMDAT ??_C@_0L@GMHMMPNH@sv_logbans@
CONST	SEGMENT
??_C@_0L@GMHMMPNH@sv_logbans@ DB 'sv_logbans', 00H	; `string'
CONST	ENDS
;	COMDAT ??_C@_0CP@KAMDKKLA@allow?5to?5download?5missed?5resour@
CONST	SEGMENT
??_C@_0CP@KAMDKKLA@allow?5to?5download?5missed?5resour@ DB 'allow to down'
	DB	'load missed resources for players', 00H	; `string'
CONST	ENDS
;	COMDAT ??_C@_0BC@BFGIDJKI@sv_send_resources@
CONST	SEGMENT
??_C@_0BC@BFGIDJKI@sv_send_resources@ DB 'sv_send_resources', 00H ; `string'
CONST	ENDS
;	COMDAT ??_C@_0EB@KOIFFIKB@send?5custom?5decal?5logo?5to?5other@
CONST	SEGMENT
??_C@_0EB@KOIFFIKB@send?5custom?5decal?5logo?5to?5other@ DB 'send custom '
	DB	'decal logo to other players so they can view his too', 00H ; `string'
CONST	ENDS
;	COMDAT ??_C@_0O@CMBLKGEC@sv_send_logos@
CONST	SEGMENT
??_C@_0O@CMBLKGEC@sv_send_logos@ DB 'sv_send_logos', 00H ; `string'
CONST	ENDS
;	COMDAT ??_C@_0DF@DGFFNNIP@maximum?5count?5of?5allowed?5proxie@
CONST	SEGMENT
??_C@_0DF@DGFFNNIP@maximum?5count?5of?5allowed?5proxie@ DB 'maximum count'
	DB	' of allowed proxies for HLTV spectating', 00H ; `string'
CONST	ENDS
;	COMDAT ??_C@_0L@EOIDNMPN@sv_proxies@
CONST	SEGMENT
??_C@_0L@EOIDNMPN@sv_proxies@ DB 'sv_proxies', 00H	; `string'
CONST	ENDS
;	COMDAT ??_C@_0DB@JGMIEAMN@server?5password?5for?5entry?5into?5@
CONST	SEGMENT
??_C@_0DB@JGMIEAMN@server?5password?5for?5entry?5into?5@ DB 'server passw'
	DB	'ord for entry into multiplayer games', 00H	; `string'
CONST	ENDS
;	COMDAT ??_C@_0M@ELPBDANP@sv_password@
CONST	SEGMENT
??_C@_0M@ELPBDANP@sv_password@ DB 'sv_password', 00H	; `string'
CONST	ENDS
;	COMDAT ??_C@_0GE@IOIDLKLE@after?5this?5long?5without?5a?5packe@
CONST	SEGMENT
??_C@_0GE@IOIDLKLE@after?5this?5long?5without?5a?5packe@ DB 'after this l'
	DB	'ong without a packet from client, don''t send any more until '
	DB	'client starts sending again', 00H		; `string'
CONST	ENDS
;	COMDAT ??_C@_0P@BHENHCGI@sv_failuretime@
CONST	SEGMENT
??_C@_0P@BHENHCGI@sv_failuretime@ DB 'sv_failuretime', 00H ; `string'
CONST	ENDS
;	COMDAT ??_C@_0EP@JALIABDK@after?5this?5many?5seconds?5without@
CONST	SEGMENT
??_C@_0EP@JALIABDK@after?5this?5many?5seconds?5without@ DB 'after this ma'
	DB	'ny seconds without a message from a client, the client is dro'
	DB	'pped', 00H					; `string'
CONST	ENDS
;	COMDAT ??_C@_02ICGJHNHJ@65@
CONST	SEGMENT
??_C@_02ICGJHNHJ@65@ DB '65', 00H			; `string'
CONST	ENDS
;	COMDAT ??_C@_0L@MKEICGA@sv_timeout@
CONST	SEGMENT
??_C@_0L@MKEICGA@sv_timeout@ DB 'sv_timeout', 00H	; `string'
CONST	ENDS
;	COMDAT ??_C@_0FH@BLNMNPDN@0?5?$DN?5big?5box?$CIQuake?$CJ?0?50?45?5?$DN?5halfs@
CONST	SEGMENT
??_C@_0FH@BLNMNPDN@0?5?$DN?5big?5box?$CIQuake?$CJ?0?50?45?5?$DN?5halfs@ DB '0'
	DB	' = big box(Quake), 0.5 = halfsize, 1 = normal (100%), otherwi'
	DB	'se it''s a scaling factor', 00H		; `string'
CONST	ENDS
;	COMDAT ??_C@_0P@CCDIMHBI@sv_clienttrace@
CONST	SEGMENT
??_C@_0P@CCDIMHBI@sv_clienttrace@ DB 'sv_clienttrace', 00H ; `string'
CONST	ENDS
;	COMDAT ??_C@_0FH@PEOBPEMM@clear?5level?9saves?5from?5previous@
CONST	SEGMENT
??_C@_0FH@PEOBPEMM@clear?5level?9saves?5from?5previous@ DB 'clear level-s'
	DB	'aves from previous SP game chapter to help keep .sav file siz'
	DB	'e as minimum', 00H				; `string'
CONST	ENDS
;	COMDAT ??_C@_0L@EJFCEOPJ@sv_newunit@
CONST	SEGMENT
??_C@_0L@EJFCEOPJ@sv_newunit@ DB 'sv_newunit', 00H	; `string'
CONST	ENDS
;	COMDAT ??_C@_0EE@JOLNIDPA@allow?5log?5messages?5from?5remote?5@
CONST	SEGMENT
??_C@_0EE@JOLNIDPA@allow?5log?5messages?5from?5remote?5@ DB 'allow log me'
	DB	'ssages from remote machines to be logged on this server', 00H ; `string'
CONST	ENDS
;	COMDAT ??_C@_0M@KFNLOCMJ@sv_logrelay@
CONST	SEGMENT
??_C@_0M@KFNLOCMJ@sv_logrelay@ DB 'sv_logrelay', 00H	; `string'
CONST	ENDS
;	COMDAT ??_C@_0DF@IKIHCABH@max?5bandwidth?5rate?5allowed?5on?5s@
CONST	SEGMENT
??_C@_0DF@IKIHCABH@max?5bandwidth?5rate?5allowed?5on?5s@ DB 'max bandwidt'
	DB	'h rate allowed on server, 0 == unlimited', 00H ; `string'
CONST	ENDS
;	COMDAT ??_C@_0L@GPKAAAKJ@sv_maxrate@
CONST	SEGMENT
??_C@_0L@GPKAAAKJ@sv_maxrate@ DB 'sv_maxrate', 00H	; `string'
CONST	ENDS
;	COMDAT ??_C@_0DF@LGODOOKP@min?5bandwidth?5rate?5allowed?5on?5s@
CONST	SEGMENT
??_C@_0DF@LGODOOKP@min?5bandwidth?5rate?5allowed?5on?5s@ DB 'min bandwidt'
	DB	'h rate allowed on server, 0 == unlimited', 00H ; `string'
CONST	ENDS
;	COMDAT ??_C@_0L@IJMAKPEI@sv_minrate@
CONST	SEGMENT
??_C@_0L@IJMAKPEI@sv_minrate@ DB 'sv_minrate', 00H	; `string'
CONST	ENDS
;	COMDAT ??_C@_0CJ@CALGCNND@maximal?5value?5for?5?8cl_updaterat@
CONST	SEGMENT
??_C@_0CJ@CALGCNND@maximal?5value?5for?5?8cl_updaterat@ DB 'maximal value'
	DB	' for ''cl_updaterate'' window', 00H		; `string'
CONST	ENDS
;	COMDAT ??_C@_04MCOCGPAM@30?40@
CONST	SEGMENT
??_C@_04MCOCGPAM@30?40@ DB '30.0', 00H			; `string'
CONST	ENDS
;	COMDAT ??_C@_0BB@PCMKHAJG@sv_maxupdaterate@
CONST	SEGMENT
??_C@_0BB@PCMKHAJG@sv_maxupdaterate@ DB 'sv_maxupdaterate', 00H ; `string'
CONST	ENDS
;	COMDAT ??_C@_0CJ@BFDEDMIN@minimal?5value?5for?5?8cl_updaterat@
CONST	SEGMENT
??_C@_0CJ@BFDEDMIN@minimal?5value?5for?5?8cl_updaterat@ DB 'minimal value'
	DB	' for ''cl_updaterate'' window', 00H		; `string'
CONST	ENDS
;	COMDAT ??_C@_04LICCDMGM@10?40@
CONST	SEGMENT
??_C@_04LICCDMGM@10?40@ DB '10.0', 00H			; `string'
CONST	ENDS
;	COMDAT ??_C@_0BB@ELOMOLOH@sv_minupdaterate@
CONST	SEGMENT
??_C@_0BB@ELOMOLOH@sv_minupdaterate@ DB 'sv_minupdaterate', 00H ; `string'
CONST	ENDS
;	COMDAT ??_C@_0DF@HALPNDKE@server?5techincal?5support?5contac@
CONST	SEGMENT
??_C@_0DF@HALPNDKE@server?5techincal?5support?5contac@ DB 'server techinc'
	DB	'al support contact address or web-page', 00H ; `string'
CONST	ENDS
;	COMDAT ??_C@_0L@DKGKOLAF@sv_contact@
CONST	SEGMENT
??_C@_0L@DKGKOLAF@sv_contact@ DB 'sv_contact', 00H	; `string'
CONST	ENDS
;	COMDAT ??_C@_0DL@FKILFPOF@allow?5to?5use?5instanced?5baseline@
CONST	SEGMENT
??_C@_0DL@FKILFPOF@allow?5to?5use?5instanced?5baseline@ DB 'allow to use '
	DB	'instanced baselines to saves network overhead', 00H ; `string'
CONST	ENDS
;	COMDAT ??_C@_0BF@EFNBMDO@sv_instancedbaseline@
CONST	SEGMENT
??_C@_0BF@EFNBMDO@sv_instancedbaseline@ DB 'sv_instancedbaseline', 00H ; `string'
CONST	ENDS
;	COMDAT ??_C@_0HD@JLGCJFP@Allow?5infinite?5ammo?5on?5weapons?0@
CONST	SEGMENT
??_C@_0HD@JLGCJFP@Allow?5infinite?5ammo?5on?5weapons?0@ DB 'Allow infinit'
	DB	'e ammo on weapons, 1 for reserve, 2 for ammo1, 4 for ammo2, 8'
	DB	' for clip ammo, 16 for override children', 00H ; `string'
CONST	ENDS
;	COMDAT ??_C@_0BB@JBGGLKDL@sv_infinite_ammo@
CONST	SEGMENT
??_C@_0BB@JBGGLKDL@sv_infinite_ammo@ DB 'sv_infinite_ammo', 00H ; `string'
CONST	ENDS
;	COMDAT ??_C@_0BH@CNKNHLHA@allow?5cheats?5on?5server@
CONST	SEGMENT
??_C@_0BH@CNKNHLHA@allow?5cheats?5on?5server@ DB 'allow cheats on server', 00H ; `string'
CONST	ENDS
;	COMDAT ??_C@_09NFOPKLIK@sv_cheats@
CONST	SEGMENT
??_C@_09NFOPKLIK@sv_cheats@ DB 'sv_cheats', 00H		; `string'
CONST	ENDS
;	COMDAT ??_C@_0BE@FNEBHCH@filter?5banned?5users@
CONST	SEGMENT
??_C@_0BE@FNEBHCH@filter?5banned?5users@ DB 'filter banned users', 00H ; `string'
CONST	ENDS
;	COMDAT ??_C@_0N@JMLBFDDF@sv_filterban@
CONST	SEGMENT
??_C@_0N@JMLBFDDF@sv_filterban@ DB 'sv_filterban', 00H	; `string'
CONST	ENDS
;	COMDAT ??_C@_0BI@FIMCMPPL@remote?5connect?5password@
CONST	SEGMENT
??_C@_0BI@FIMCMPPL@remote?5connect?5password@ DB 'remote connect password'
	DB	00H						; `string'
CONST	ENDS
;	COMDAT ??_C@_00CNPNBAHC@@
CONST	SEGMENT
??_C@_00CNPNBAHC@@ DB 00H				; `string'
CONST	ENDS
;	COMDAT ??_C@_0O@EEIAMLPM@rcon_password@
CONST	SEGMENT
??_C@_0O@EEIAMLPM@rcon_password@ DB 'rcon_password', 00H ; `string'
CONST	ENDS
;	COMDAT ??_C@_0BL@EGMIHMIB@max?5samples?5to?5interpolate@
CONST	SEGMENT
??_C@_0BL@EGMIHMIB@max?5samples?5to?5interpolate@ DB 'max samples to inte'
	DB	'rpolate', 00H				; `string'
CONST	ENDS
;	COMDAT ??_C@_0BA@PDNKHDAF@sv_unlagsamples@
CONST	SEGMENT
??_C@_0BA@PDNKHDAF@sv_unlagsamples@ DB 'sv_unlagsamples', 00H ; `string'
CONST	ENDS
;	COMDAT ??_C@_0CC@KABPKMKK@interpolation?5bias?5for?5unlag?5ti@
CONST	SEGMENT
??_C@_0CC@KABPKMKK@interpolation?5bias?5for?5unlag?5ti@ DB 'interpolation'
	DB	' bias for unlag time', 00H			; `string'
CONST	ENDS
;	COMDAT ??_C@_03MDAFIFFL@0?40@
CONST	SEGMENT
??_C@_03MDAFIFFL@0?40@ DB '0.0', 00H			; `string'
CONST	ENDS
;	COMDAT ??_C@_0N@LCJBPKKL@sv_unlagpush@
CONST	SEGMENT
??_C@_0N@LCJBPKKL@sv_unlagpush@ DB 'sv_unlagpush', 00H	; `string'
CONST	ENDS
;	COMDAT ??_C@_0FK@CLLIFKFE@max?5latency?5value?5which?5can?5be?5@
CONST	SEGMENT
??_C@_0FK@CLLIFKFE@max?5latency?5value?5which?5can?5be?5@ DB 'max latency'
	DB	' value which can be interpolated (by default ping should not '
	DB	'exceed 500 units)', 00H			; `string'
CONST	ENDS
;	COMDAT ??_C@_03LOHCHBBO@0?45@
CONST	SEGMENT
??_C@_03LOHCHBBO@0?45@ DB '0.5', 00H			; `string'
CONST	ENDS
;	COMDAT ??_C@_0M@IICIDGOJ@sv_maxunlag@
CONST	SEGMENT
??_C@_0M@IICIDGOJ@sv_maxunlag@ DB 'sv_maxunlag', 00H	; `string'
CONST	ENDS
;	COMDAT ??_C@_0CG@PBANJNO@allow?5lag?5compensation?5on?5serve@
CONST	SEGMENT
??_C@_0CG@PBANJNO@allow?5lag?5compensation?5on?5serve@ DB 'allow lag comp'
	DB	'ensation on server-side', 00H		; `string'
CONST	ENDS
;	COMDAT ??_C@_08MOFEJK@sv_unlag@
CONST	SEGMENT
??_C@_08MOFEJK@sv_unlag@ DB 'sv_unlag', 00H		; `string'
CONST	ENDS
;	COMDAT ??_C@_0BD@BDAGCAPB@auto?5aiming?5option@
CONST	SEGMENT
??_C@_0BD@BDAGCAPB@auto?5aiming?5option@ DB 'auto aiming option', 00H ; `string'
CONST	ENDS
;	COMDAT ??_C@_01HIHLOKLC@1@
CONST	SEGMENT
??_C@_01HIHLOKLC@1@ DB '1', 00H				; `string'
CONST	ENDS
;	COMDAT ??_C@_06MMOECJNC@sv_aim@
CONST	SEGMENT
??_C@_06MMOECJNC@sv_aim@ DB 'sv_aim', 00H		; `string'
CONST	ENDS
;	COMDAT ??_C@_0BE@HBDODBDE@rate?5for?5lan?5server@
CONST	SEGMENT
??_C@_0BE@HBDODBDE@rate?5for?5lan?5server@ DB 'rate for lan server', 00H ; `string'
CONST	ENDS
;	COMDAT ??_C@_07ENLDMLFH@20000?40@
CONST	SEGMENT
??_C@_07ENLDMLFH@20000?40@ DB '20000.0', 00H		; `string'
CONST	ENDS
;	COMDAT ??_C@_0M@ECMLAMEJ@sv_lan_rate@
CONST	SEGMENT
??_C@_0M@ECMLAMEJ@sv_lan_rate@ DB 'sv_lan_rate', 00H	; `string'
CONST	ENDS
;	COMDAT ??_C@_0GG@KFLFDBGM@server?5is?5a?5lan?5server?5?$CI?5no?5hea@
CONST	SEGMENT
??_C@_0GG@KFLFDBGM@server?5is?5a?5lan?5server?5?$CI?5no?5hea@ DB 'server '
	DB	'is a lan server ( no heartbeat, no authentication, no non-cla'
	DB	'ss C addresses, 9999.0 rate, etc.', 00H	; `string'
CONST	ENDS
;	COMDAT ??_C@_01GBGANLPD@0@
CONST	SEGMENT
??_C@_01GBGANLPD@0@ DB '0', 00H				; `string'
CONST	ENDS
;	COMDAT ??_C@_06BLLAPDHE@sv_lan@
CONST	SEGMENT
??_C@_06BLLAPDHE@sv_lan@ DB 'sv_lan', 00H		; `string'
CONST	ENDS
_DATA	SEGMENT
_sv_lan	DD	FLAT:??_C@_06BLLAPDHE@sv_lan@
	DD	FLAT:??_C@_01GBGANLPD@0@
	DD	00H
	DD	000000000r			; 0
	DD	0deadbeefH
	DD	FLAT:??_C@_0GG@KFLFDBGM@server?5is?5a?5lan?5server?5?$CI?5no?5hea@
	ORG $+4
_sv_lan_rate DD	FLAT:??_C@_0M@ECMLAMEJ@sv_lan_rate@
	DD	FLAT:??_C@_07ENLDMLFH@20000?40@
	DD	00H
	DD	000000000r			; 0
	DD	0deadbeefH
	DD	FLAT:??_C@_0BE@HBDODBDE@rate?5for?5lan?5server@
	ORG $+4
_mp_logecho DD	FLAT:??_C@_0L@GHDBGFCJ@mp_logecho@
	DD	FLAT:??_C@_01HIHLOKLC@1@
	DD	00H
	DD	000000000r			; 0
	DD	0deadbeefH
	DD	FLAT:??_C@_0CI@CNMOIEPC@log?5multiplayer?5frags?5to?5server@
	ORG $+4
_mp_logfile DD	FLAT:??_C@_0L@LCMKLPML@mp_logfile@
	DD	FLAT:??_C@_01HIHLOKLC@1@
	DD	00H
	DD	000000000r			; 0
	DD	0deadbeefH
	DD	FLAT:??_C@_0CB@BNMICHAH@log?5multiplayer?5frags?5to?5consol@
	ORG $+4
_sv_unlag DD	FLAT:??_C@_08MOFEJK@sv_unlag@
	DD	FLAT:??_C@_01HIHLOKLC@1@
	DD	00H
	DD	000000000r			; 0
	DD	0deadbeefH
	DD	FLAT:??_C@_0CG@PBANJNO@allow?5lag?5compensation?5on?5serve@
	ORG $+4
_sv_maxunlag DD	FLAT:??_C@_0M@IICIDGOJ@sv_maxunlag@
	DD	FLAT:??_C@_03LOHCHBBO@0?45@
	DD	00H
	DD	000000000r			; 0
	DD	0deadbeefH
	DD	FLAT:??_C@_0FK@CLLIFKFE@max?5latency?5value?5which?5can?5be?5@
	ORG $+4
_sv_unlagpush DD FLAT:??_C@_0N@LCJBPKKL@sv_unlagpush@
	DD	FLAT:??_C@_03MDAFIFFL@0?40@
	DD	00H
	DD	000000000r			; 0
	DD	0deadbeefH
	DD	FLAT:??_C@_0CC@KABPKMKK@interpolation?5bias?5for?5unlag?5ti@
	ORG $+4
_sv_unlagsamples DD FLAT:??_C@_0BA@PDNKHDAF@sv_unlagsamples@
	DD	FLAT:??_C@_01HIHLOKLC@1@
	DD	00H
	DD	000000000r			; 0
	DD	0deadbeefH
	DD	FLAT:??_C@_0BL@EGMIHMIB@max?5samples?5to?5interpolate@
	ORG $+4
_rcon_password DD FLAT:??_C@_0O@EEIAMLPM@rcon_password@
	DD	FLAT:??_C@_00CNPNBAHC@@
	DD	00H
	DD	000000000r			; 0
	DD	0deadbeefH
	DD	FLAT:??_C@_0BI@FIMCMPPL@remote?5connect?5password@
	ORG $+4
_sv_instancedbaseline DD FLAT:??_C@_0BF@EFNBMDO@sv_instancedbaseline@
	DD	FLAT:??_C@_01HIHLOKLC@1@
	DD	00H
	DD	000000000r			; 0
	DD	0deadbeefH
	DD	FLAT:??_C@_0DL@FKILFPOF@allow?5to?5use?5instanced?5baseline@
	ORG $+4
_sv_background_freeze DD FLAT:??_C@_0BF@DHOFBMDH@sv_background_freeze@
	DD	FLAT:??_C@_01HIHLOKLC@1@
	DD	01H
	DD	000000000r			; 0
	DD	0deadbeefH
	DD	FLAT:??_C@_0EE@EGIBBPIA@freeze?5player?5movement?5on?5backg@
	ORG $+4
_sv_minupdaterate DD FLAT:??_C@_0BB@ELOMOLOH@sv_minupdaterate@
	DD	FLAT:??_C@_04LICCDMGM@10?40@
	DD	01H
	DD	000000000r			; 0
	DD	0deadbeefH
	DD	FLAT:??_C@_0CJ@BFDEDMIN@minimal?5value?5for?5?8cl_updaterat@
	ORG $+4
_sv_maxupdaterate DD FLAT:??_C@_0BB@PCMKHAJG@sv_maxupdaterate@
	DD	FLAT:??_C@_04MCOCGPAM@30?40@
	DD	01H
	DD	000000000r			; 0
	DD	0deadbeefH
	DD	FLAT:??_C@_0CJ@CALGCNND@maximal?5value?5for?5?8cl_updaterat@
	ORG $+4
_sv_downloadurl DD FLAT:??_C@_0P@PMGKOLJF@sv_downloadurl@
	DD	FLAT:??_C@_00CNPNBAHC@@
	DD	020H
	DD	000000000r			; 0
	DD	0deadbeefH
	DD	FLAT:??_C@_0DH@NLPBNPCC@location?5from?5which?5clients?5can@
	ORG $+4
_sv_newunit DD	FLAT:??_C@_0L@EJFCEOPJ@sv_newunit@
	DD	FLAT:??_C@_01GBGANLPD@0@
	DD	00H
	DD	000000000r			; 0
	DD	0deadbeefH
	DD	FLAT:??_C@_0FH@PEOBPEMM@clear?5level?9saves?5from?5previous@
	ORG $+4
_sv_clienttrace DD FLAT:??_C@_0P@CCDIMHBI@sv_clienttrace@
	DD	FLAT:??_C@_01HIHLOKLC@1@
	DD	04H
	DD	000000000r			; 0
	DD	0deadbeefH
	DD	FLAT:??_C@_0FH@BLNMNPDN@0?5?$DN?5big?5box?$CIQuake?$CJ?0?50?45?5?$DN?5halfs@
	ORG $+4
_sv_failuretime DD FLAT:??_C@_0P@BHENHCGI@sv_failuretime@
	DD	FLAT:??_C@_03LOHCHBBO@0?45@
	DD	00H
	DD	000000000r			; 0
	DD	0deadbeefH
	DD	FLAT:??_C@_0GE@IOIDLKLE@after?5this?5long?5without?5a?5packe@
	ORG $+4
_sv_send_resources DD FLAT:??_C@_0BC@BFGIDJKI@sv_send_resources@
	DD	FLAT:??_C@_01HIHLOKLC@1@
	DD	00H
	DD	000000000r			; 0
	DD	0deadbeefH
	DD	FLAT:??_C@_0CP@KAMDKKLA@allow?5to?5download?5missed?5resour@
	ORG $+4
_sv_send_logos DD FLAT:??_C@_0O@CMBLKGEC@sv_send_logos@
	DD	FLAT:??_C@_01HIHLOKLC@1@
	DD	00H
	DD	000000000r			; 0
	DD	0deadbeefH
	DD	FLAT:??_C@_0EB@KOIFFIKB@send?5custom?5decal?5logo?5to?5other@
	ORG $+4
_sv_allow_upload DD FLAT:??_C@_0BA@OOHJHELC@sv_allow_upload@
	DD	FLAT:??_C@_01HIHLOKLC@1@
	DD	04H
	DD	000000000r			; 0
	DD	0deadbeefH
	DD	FLAT:??_C@_0CN@PCLIILDO@allow?5uploading?5custom?5resource@
	ORG $+4
_sv_allow_download DD FLAT:??_C@_0BC@FGCLLFEG@sv_allow_download@
	DD	FLAT:??_C@_01HIHLOKLC@1@
	DD	04H
	DD	000000000r			; 0
	DD	0deadbeefH
	DD	FLAT:??_C@_0DB@GKILGKDB@allow?5downloading?5custom?5resour@
	ORG $+4
_sv_airaccelerate DD FLAT:??_C@_0BB@OKHOGIP@sv_airaccelerate@
	DD	FLAT:??_C@_02PKFBJPLJ@10@
	DD	0400H
	DD	000000000r			; 0
	DD	0deadbeefH
	DD	FLAT:??_C@_0ED@PGBBGOFD@rate?5at?5which?5a?5player?5accelera@
	ORG $+4
_sv_accelerate DD FLAT:??_C@_0O@OFAOFHGI@sv_accelerate@
	DD	FLAT:??_C@_02PKFBJPLJ@10@
	DD	0400H
	DD	000000000r			; 0
	DD	0deadbeefH
	DD	FLAT:??_C@_0DC@NOJBMING@rate?5at?5which?5a?5player?5accelera@
	ORG $+4
_sv_friction DD	FLAT:??_C@_0M@CKLNABFC@sv_friction@
	DD	FLAT:??_C@_01FAMBOPH@4@
	DD	0400H
	DD	000000000r			; 0
	DD	0deadbeefH
	DD	FLAT:??_C@_0BH@HHFIBCFI@how?5fast?5you?5slow?5down@
	ORG $+4
_sv_edgefriction DD FLAT:??_C@_0N@CFOJOFHL@edgefriction@
	DD	FLAT:??_C@_01FDFGLJHB@2@
	DD	0400H
	DD	000000000r			; 0
	DD	0deadbeefH
	DD	FLAT:??_C@_0DP@BHNEDDIK@how?5much?5you?5slow?5down?5when?5nea@
	ORG $+4
_sv_gravity DD	FLAT:??_C@_0L@FKMMBKBD@sv_gravity@
	DD	FLAT:??_C@_03BAAJCDMO@800@
	DD	0400H
	DD	000000000r			; 0
	DD	0deadbeefH
	DD	FLAT:??_C@_0BE@JBOFDNFH@world?5gravity?5value@
	ORG $+4
_sv_stopspeed DD FLAT:??_C@_0N@LFAHFFEG@sv_stopspeed@
	DD	FLAT:??_C@_03GNABGMEE@100@
	DD	0400H
	DD	000000000r			; 0
	DD	0deadbeefH
	DD	FLAT:??_C@_0CF@FGBNMIHN@how?5fast?5you?5come?5to?5a?5complete@
	ORG $+4
_sv_maxspeed DD	FLAT:??_C@_0M@NAINEIIC@sv_maxspeed@
	DD	FLAT:??_C@_03MEIMHAKB@320@
	DD	0400H
	DD	000000000r			; 0
	DD	0deadbeefH
	DD	FLAT:??_C@_0DI@IKOMCCLP@maximum?5speed?5a?5player?5can?5acce@
	ORG $+4
_sv_wateralpha DD FLAT:??_C@_0O@IFEMIFOJ@sv_wateralpha@
	DD	FLAT:??_C@_01HIHLOKLC@1@
	DD	0500H
	DD	000000000r			; 0
	DD	0deadbeefH
	DD	FLAT:??_C@_0EP@HPEGEGMH@world?5surfaces?5water?5transparen@
	ORG $+4
_sv_wateramp DD	FLAT:??_C@_0M@COFDEJEF@sv_wateramp@
	DD	FLAT:??_C@_01GBGANLPD@0@
	DD	0500H
	DD	000000000r			; 0
	DD	0deadbeefH
	DD	FLAT:??_C@_0BI@PFNMDPJL@world?5waveheight?5factor@
	ORG $+4
_sv_stepsize DD	FLAT:??_C@_0M@DFOHBOK@sv_stepsize@
	DD	FLAT:??_C@_02DCIIBFLB@18@
	DD	0400H
	DD	000000000r			; 0
	DD	0deadbeefH
	DD	FLAT:??_C@_0CD@NEPFHGDG@how?5high?5you?5and?5NPS?8s?5can?5step@
	ORG $+4
_sv_maxvelocity DD FLAT:??_C@_0P@FKNMIPLB@sv_maxvelocity@
	DD	FLAT:??_C@_04OJDKMIMG@2000@
	DD	0500H
	DD	000000000r			; 0
	DD	0deadbeefH
	DD	FLAT:??_C@_0CJ@DAJMENFL@max?5velocity?5for?5all?5things?5in?5@
	ORG $+4
_sv_rollangle DD FLAT:??_C@_0N@HHKMFLLL@sv_rollangle@
	DD	FLAT:??_C@_01GBGANLPD@0@
	DD	0501H
	DD	000000000r			; 0
	DD	0deadbeefH
	DD	FLAT:??_C@_0CI@HOLOPPPO@how?5much?5to?5tilt?5the?5view?5when?5@
	ORG $+4
_sv_rollspeed DD FLAT:??_C@_0N@FKKBBDIN@sv_rollspeed@
	DD	FLAT:??_C@_03HPLEMDKK@200@
	DD	0500H
	DD	000000000r			; 0
	DD	0deadbeefH
	DD	FLAT:??_C@_0DA@EBLJLBH@how?5much?5strafing?5is?5necessary?5@
	ORG $+4
_sv_skyname DD	FLAT:??_C@_0L@NPFKENCH@sv_skyname@
	DD	FLAT:??_C@_06OLPPELHM@desert@
	DD	0500H
	DD	000000000r			; 0
	DD	0deadbeefH
	DD	FLAT:??_C@_0DB@DCFOKFHK@skybox?5name?5?$CIcan?5be?5dynamically@
	ORG $+4
_sv_skycolor_r DD FLAT:??_C@_0O@CGCGGHO@sv_skycolor_r@
	DD	FLAT:??_C@_01GBGANLPD@0@
	DD	0500H
	DD	000000000r			; 0
	DD	0deadbeefH
	DD	FLAT:??_C@_0BN@PMKCGHPG@skylight?5red?5component?5value@
	ORG $+4
_sv_skycolor_g DD FLAT:??_C@_0O@DFNHIAGK@sv_skycolor_g@
	DD	FLAT:??_C@_01GBGANLPD@0@
	DD	0500H
	DD	000000000r			; 0
	DD	0deadbeefH
	DD	FLAT:??_C@_0BP@CEOHKJAJ@skylight?5green?5component?5value@
	ORG $+4
_sv_skycolor_b DD FLAT:??_C@_0O@EIKAHECP@sv_skycolor_b@
	DD	FLAT:??_C@_01GBGANLPD@0@
	DD	0500H
	DD	000000000r			; 0
	DD	0deadbeefH
	DD	FLAT:??_C@_0BO@BJPHMIOF@skylight?5blue?5component?5value@
	ORG $+4
_sv_skyvec_x DD	FLAT:??_C@_0M@JBBFCNJL@sv_skyvec_x@
	DD	FLAT:??_C@_01GBGANLPD@0@
	DD	0500H
	DD	000000000r			; 0
	DD	0deadbeefH
	DD	FLAT:??_C@_0BN@KFNCCKFF@skylight?5direction?5by?5x?9axis@
	ORG $+4
_sv_skyvec_y DD	FLAT:??_C@_0M@IIAOBMNK@sv_skyvec_y@
	DD	FLAT:??_C@_01GBGANLPD@0@
	DD	0500H
	DD	000000000r			; 0
	DD	0deadbeefH
	DD	FLAT:??_C@_0BN@DKFCBOB@skylight?5direction?5by?5y?9axis@
	ORG $+4
_sv_skyvec_z DD	FLAT:??_C@_0M@KDCDEPBJ@sv_skyvec_z@
	DD	FLAT:??_C@_01GBGANLPD@0@
	DD	0500H
	DD	000000000r			; 0
	DD	0deadbeefH
	DD	FLAT:??_C@_0BN@DCENDLHM@skylight?5direction?5by?5z?9axis@
	ORG $+4
_sv_skyspeed DD	FLAT:??_C@_0M@IDDIMGBN@sv_skyspeed@
	DD	FLAT:??_C@_01GBGANLPD@0@
	DD	00H
	DD	000000000r			; 0
	DD	0deadbeefH
	DD	FLAT:??_C@_0BI@CLFIJIB@skybox?5rotational?5speed@
	ORG $+4
_sv_skyangle DD	FLAT:??_C@_0M@KODFIOCL@sv_skyangle@
	DD	FLAT:??_C@_01GBGANLPD@0@
	DD	0500H
	DD	000000000r			; 0
	DD	0deadbeefH
	DD	FLAT:??_C@_0CF@EIMGIDIL@skybox?5rotational?5angle?5?$CIin?5deg@
	ORG $+4
_sv_skydir_x DD	FLAT:??_C@_0M@PCFOFDPA@sv_skydir_x@
	DD	FLAT:??_C@_01GBGANLPD@0@
	DD	0500H
	DD	000000000r			; 0
	DD	0deadbeefH
	DD	FLAT:??_C@_0CC@HNLFGPDP@sky?5rotation?5factor?5around?5x?9ax@
	ORG $+4
_sv_skydir_y DD	FLAT:??_C@_0M@OLEFGCLB@sv_skydir_y@
	DD	FLAT:??_C@_01GBGANLPD@0@
	DD	0500H
	DD	000000000r			; 0
	DD	0deadbeefH
	DD	FLAT:??_C@_0CC@NLMCGEIL@sky?5rotation?5factor?5around?5y?9ax@
	ORG $+4
_sv_skydir_z DD	FLAT:??_C@_0M@MAGIDBHC@sv_skydir_z@
	DD	FLAT:??_C@_01HIHLOKLC@1@
	DD	0500H
	DD	000000000r			; 0
	DD	0deadbeefH
	DD	FLAT:??_C@_0CC@OKCKHOBG@sky?5rotation?5factor?5around?5z?9ax@
	ORG $+4
_sv_consistency DD FLAT:??_C@_0P@HELJHMBJ@mp_consistency@
	DD	FLAT:??_C@_01HIHLOKLC@1@
	DD	04H
	DD	000000000r			; 0
	DD	0deadbeefH
	DD	FLAT:??_C@_0CI@JNDIGHL@enbale?5consistency?5check?5in?5mul@
	ORG $+4
_sv_password DD	FLAT:??_C@_0M@ELPBDANP@sv_password@
	DD	FLAT:??_C@_00CNPNBAHC@@
	DD	024H
	DD	000000000r			; 0
	DD	0deadbeefH
	DD	FLAT:??_C@_0DB@JGMIEAMN@server?5password?5for?5entry?5into?5@
	ORG $+4
_sv_uploadmax DD FLAT:??_C@_0N@FFINAHF@sv_uploadmax@
	DD	FLAT:??_C@_03LOHCHBBO@0?45@
	DD	04H
	DD	000000000r			; 0
	DD	0deadbeefH
	DD	FLAT:??_C@_0DI@BIOKIBE@max?5size?5to?5upload?5custom?5resou@
	ORG $+4
_deathmatch DD	FLAT:??_C@_0L@ILDAINPG@deathmatch@
	DD	FLAT:??_C@_01GBGANLPD@0@
	DD	00H
	DD	000000000r			; 0
	DD	0deadbeefH
	DD	FLAT:??_C@_0CE@LONNJDFL@deathmatch?5mode?5in?5multiplayer?5@
	ORG $+4
_hostname DD	FLAT:??_C@_08EHKIGBEA@hostname@
	DD	FLAT:??_C@_00CNPNBAHC@@
	DD	084H
	DD	000000000r			; 0
	DD	0deadbeefH
	DD	FLAT:??_C@_0BF@GPJPMPCB@name?5of?5current?5host@
	ORG $+4
_skill	DD	FLAT:??_C@_05ODMCMJAJ@skill@
	DD	FLAT:??_C@_01FDFGLJHB@2@
	DD	00H
	DD	000000000r			; 0
	DD	0deadbeefH
	DD	FLAT:??_C@_0CB@MMNKMHJB@skill?5level?5in?5singleplayer?5gam@
	ORG $+4
_coop	DD	FLAT:??_C@_04OILOBHMB@coop@
	DD	FLAT:??_C@_01GBGANLPD@0@
	DD	00H
	DD	000000000r			; 0
	DD	0deadbeefH
	DD	FLAT:??_C@_0CF@LDEOFJLO@cooperative?5mode?5in?5multiplayer@
	ORG $+4
_sv_aim	DD	FLAT:??_C@_06MMOECJNC@sv_aim@
	DD	FLAT:??_C@_01HIHLOKLC@1@
	DD	05H
	DD	000000000r			; 0
	DD	0deadbeefH
	DD	FLAT:??_C@_0BD@BDAGCAPB@auto?5aiming?5option@
	ORG $+4
_sv_filterban DD FLAT:??_C@_0N@JMLBFDDF@sv_filterban@
	DD	FLAT:??_C@_01HIHLOKLC@1@
	DD	00H
	DD	000000000r			; 0
	DD	0deadbeefH
	DD	FLAT:??_C@_0BE@FNEBHCH@filter?5banned?5users@
	ORG $+4
_sv_cheats DD	FLAT:??_C@_09NFOPKLIK@sv_cheats@
	DD	FLAT:??_C@_01GBGANLPD@0@
	DD	04H
	DD	000000000r			; 0
	DD	0deadbeefH
	DD	FLAT:??_C@_0BH@CNKNHLHA@allow?5cheats?5on?5server@
	ORG $+4
_sv_infinite_ammo DD FLAT:??_C@_0BB@JBGGLKDL@sv_infinite_ammo@
	DD	FLAT:??_C@_01GBGANLPD@0@
	DD	04H
	DD	000000000r			; 0
	DD	0deadbeefH
	DD	FLAT:??_C@_0HD@JLGCJFP@Allow?5infinite?5ammo?5on?5weapons?0@
	ORG $+4
_sv_contact DD	FLAT:??_C@_0L@DKGKOLAF@sv_contact@
	DD	FLAT:??_C@_00CNPNBAHC@@
	DD	05H
	DD	000000000r			; 0
	DD	0deadbeefH
	DD	FLAT:??_C@_0DF@HALPNDKE@server?5techincal?5support?5contac@
	ORG $+4
_sv_minrate DD	FLAT:??_C@_0L@IJMAKPEI@sv_minrate@
	DD	FLAT:??_C@_01GBGANLPD@0@
	DD	04H
	DD	000000000r			; 0
	DD	0deadbeefH
	DD	FLAT:??_C@_0DF@LGODOOKP@min?5bandwidth?5rate?5allowed?5on?5s@
	ORG $+4
_sv_maxrate DD	FLAT:??_C@_0L@GPKAAAKJ@sv_maxrate@
	DD	FLAT:??_C@_01GBGANLPD@0@
	DD	04H
	DD	000000000r			; 0
	DD	0deadbeefH
	DD	FLAT:??_C@_0DF@IKIHCABH@max?5bandwidth?5rate?5allowed?5on?5s@
	ORG $+4
_sv_logrelay DD	FLAT:??_C@_0M@KFNLOCMJ@sv_logrelay@
	DD	FLAT:??_C@_01GBGANLPD@0@
	DD	01H
	DD	000000000r			; 0
	DD	0deadbeefH
	DD	FLAT:??_C@_0EE@JOLNIDPA@allow?5log?5messages?5from?5remote?5@
	ORG $+4
_sv_timeout DD	FLAT:??_C@_0L@MKEICGA@sv_timeout@
	DD	FLAT:??_C@_02ICGJHNHJ@65@
	DD	00H
	DD	000000000r			; 0
	DD	0deadbeefH
	DD	FLAT:??_C@_0EP@JALIABDK@after?5this?5many?5seconds?5without@
	ORG $+4
_sv_proxies DD	FLAT:??_C@_0L@EOIDNMPN@sv_proxies@
	DD	FLAT:??_C@_01HIHLOKLC@1@
	DD	04H
	DD	000000000r			; 0
	DD	0deadbeefH
	DD	FLAT:??_C@_0DF@DGFFNNIP@maximum?5count?5of?5allowed?5proxie@
	ORG $+4
_sv_logbans DD	FLAT:??_C@_0L@GMHMMPNH@sv_logbans@
	DD	FLAT:??_C@_01GBGANLPD@0@
	DD	00H
	DD	000000000r			; 0
	DD	0deadbeefH
	DD	FLAT:??_C@_0DB@OBCDFPKA@print?5into?5the?5server?5log?5info?5@
	ORG $+4
_mapcyclefile DD FLAT:??_C@_0N@NBABDDNG@mapcyclefile@
	DD	FLAT:??_C@_0N@FDAHIHKA@mapcycle?4txt@
	DD	00H
	DD	000000000r			; 0
	DD	0deadbeefH
	DD	FLAT:??_C@_0DB@DCILNEGL@name?5of?5multiplayer?5map?5cycle?5c@
	ORG $+4
_motdfile DD	FLAT:??_C@_08DPEIBBAD@motdfile@
	DD	FLAT:??_C@_08LNEOKFHF@motd?4txt@
	DD	00H
	DD	000000000r			; 0
	DD	0deadbeefH
	DD	FLAT:??_C@_0CC@ECMIEDPB@name?5of?5?8message?5of?5the?5day?8?5fi@
	ORG $+4
_logsdir DD	FLAT:??_C@_07CFKPIHBM@logsdir@
	DD	FLAT:??_C@_04EPNAICGL@logs@
	DD	00H
	DD	000000000r			; 0
	DD	0deadbeefH
	DD	FLAT:??_C@_0CA@NONKOAIM@place?5to?5store?5multiplayer?5logs@
	ORG $+4
_bannedcfgfile DD FLAT:??_C@_0O@MPPKKFHE@bannedcfgfile@
	DD	FLAT:??_C@_0L@IIEKELGP@banned?4cfg@
	DD	00H
	DD	000000000r			; 0
	DD	0deadbeefH
	DD	FLAT:??_C@_0BN@EKODDBO@name?5of?5list?5of?5banned?5users@
	ORG $+4
_teamplay DD	FLAT:??_C@_08IKNDEHFO@teamplay@
	DD	FLAT:??_C@_01GBGANLPD@0@
	DD	00H
	DD	000000000r			; 0
	DD	0deadbeefH
	DD	FLAT:??_C@_0BO@KCLGKHC@team?5mode?5in?5multiplayer?5game@
	ORG $+4
_temp1	DD	FLAT:??_C@_05NELMKJIK@temp1@
	DD	FLAT:??_C@_01GBGANLPD@0@
	DD	00H
	DD	000000000r			; 0
	DD	0deadbeefH
	DD	FLAT:??_C@_0CG@CLHANCKI@temporary?5cvar?5that?5used?5by?5som@
	ORG $+4
_sv_spectatormaxspeed DD FLAT:??_C@_0BF@IDJMGIDH@sv_spectatormaxspeed@
	DD	FLAT:??_C@_03OCGDPLBD@500@
	DD	0500H
	DD	000000000r			; 0
	DD	0deadbeefH
	DD	FLAT:??_C@_0DA@GLEMDBJO@maximum?5speed?5a?5spectator?5can?5a@
	ORG $+4
_sv_wateraccelerate DD FLAT:??_C@_0BD@ENGAEIGL@sv_wateraccelerate@
	DD	FLAT:??_C@_02PKFBJPLJ@10@
	DD	0400H
	DD	000000000r			; 0
	DD	0deadbeefH
	DD	FLAT:??_C@_0EF@KIBNFDPN@rate?5at?5which?5a?5player?5accelera@
	ORG $+4
_sv_waterfriction DD FLAT:??_C@_0BB@FMKHIHFO@sv_waterfriction@
	DD	FLAT:??_C@_01HIHLOKLC@1@
	DD	0400H
	DD	000000000r			; 0
	DD	0deadbeefH
	DD	FLAT:??_C@_0CA@EBHFLGFL@how?5fast?5you?5slow?5down?5in?5water@
	ORG $+4
_sv_bounce DD	FLAT:??_C@_09FDOPBHHA@sv_bounce@
	DD	FLAT:??_C@_01HIHLOKLC@1@
	DD	0400H
	DD	000000000r			; 0
	DD	0deadbeefH
	DD	FLAT:??_C@_0DA@BADLJAGI@bounce?5factor?5for?5entities?5with@
	ORG $+4
_sv_zmax DD	FLAT:??_C@_07BOLPGMIP@sv_zmax@
	DD	FLAT:??_C@_04DPPBKBGP@4096@
	DD	0440H
	DD	000000000r			; 0
	DD	0deadbeefH
	DD	FLAT:??_C@_0BK@PHMIJFEI@maximum?5viewable?5distance@
	ORG $+4
_sv_footsteps DD FLAT:??_C@_0N@OFGIKLBC@mp_footsteps@
	DD	FLAT:??_C@_01HIHLOKLC@1@
	DD	0400H
	DD	000000000r			; 0
	DD	0deadbeefH
	DD	FLAT:??_C@_0BE@JBOFDNFH@world?5gravity?5value@
	ORG $+4
_showtriggers DD FLAT:??_C@_0N@DCDKEHFJ@showtriggers@
	DD	FLAT:??_C@_01GBGANLPD@0@
	DD	0800H
	DD	000000000r			; 0
	DD	0deadbeefH
	DD	FLAT:??_C@_0BK@EHKOIAFL@debug?5cvar?5shows?5triggers@
	ORG $+4
_sv_airmove DD	FLAT:??_C@_0L@KLJANLOJ@sv_airmove@
	DD	FLAT:??_C@_01HIHLOKLC@1@
	DD	04H
	DD	000000000r			; 0
	DD	0deadbeefH
	DD	FLAT:??_C@_0BP@COCLDOCK@obsolete?0?5compatibility?5issues@
	ORG $+4
_sv_version DD	FLAT:??_C@_0L@BAPGLOKE@sv_version@
	DD	FLAT:??_C@_00CNPNBAHC@@
	DD	020000H
	DD	000000000r			; 0
	DD	0deadbeefH
	DD	FLAT:??_C@_0BG@NIIJAIPH@engine?5version?5string@
	ORG $+4
_sv_fps	DD	FLAT:??_C@_06JGIFLGEL@sv_fps@
	DD	FLAT:??_C@_03MDAFIFFL@0?40@
	DD	04H
	DD	000000000r			; 0
	DD	0deadbeefH
	DD	FLAT:??_C@_0BB@EECPFBDB@server?5framerate@
	ORG $+4
_violence_hblood DD FLAT:??_C@_0BA@HHHGKLAB@violence_hblood@
	DD	FLAT:??_C@_01HIHLOKLC@1@
	DD	00H
	DD	000000000r			; 0
	DD	0deadbeefH
	DD	FLAT:??_C@_0BB@FFHFKAAB@draw?5human?5blood@
	ORG $+4
_violence_ablood DD FLAT:??_C@_0BA@OCOOOONC@violence_ablood@
	DD	FLAT:??_C@_01HIHLOKLC@1@
	DD	00H
	DD	000000000r			; 0
	DD	0deadbeefH
	DD	FLAT:??_C@_0BB@EJGAJBKI@draw?5alien?5blood@
	ORG $+4
_violence_hgibs DD FLAT:??_C@_0P@CKNFIDAM@violence_hgibs@
	DD	FLAT:??_C@_01HIHLOKLC@1@
	DD	00H
	DD	000000000r			; 0
	DD	0deadbeefH
	DD	FLAT:??_C@_0BI@NPALKMAN@show?5human?5gib?5entities@
	ORG $+4
_violence_agibs DD FLAT:??_C@_0P@NNKNCME@violence_agibs@
	DD	FLAT:??_C@_01HIHLOKLC@1@
	DD	00H
	DD	000000000r			; 0
	DD	0deadbeefH
	DD	FLAT:??_C@_0BI@HANBBOGN@show?5alien?5gib?5entities@
	ORG $+4
_DATA	ENDS
PUBLIC	_SV_Init
PUBLIC	_SV_Shutdown
PUBLIC	_Host_ServerFrame
PUBLIC	_MSG_GetNumBitsWritten
PUBLIC	_MSG_GetMaxBytes
PUBLIC	_MSG_GetData
PUBLIC	_SV_FinalMessage
PUBLIC	_SV_UpdateMovevars
PUBLIC	_SV_PrepWorldFrame
PUBLIC	_SV_ProcessFile
PUBLIC	_SV_AddToMaster
PUBLIC	_SV_IsSimulating
PUBLIC	_SV_FreeClients
PUBLIC	_Master_Add
PUBLIC	_Master_Heartbeat
PUBLIC	_Master_Shutdown
PUBLIC	_SV_HasActivePlayers
PUBLIC	_SV_CheckCmdTimes
PUBLIC	_SV_ReadPackets
PUBLIC	_SV_CheckTimeouts
PUBLIC	_SV_RunGameFrame
PUBLIC	??_C@_0CO@FMEKEEEI@Ignoring?5non?9customization?5file@ ; `string'
PUBLIC	??_C@_0CE@FLDLGLNB@SV_ProcessFile?3?5?5Unrequested?5de@ ; `string'
PUBLIC	??_C@_0DA@EMOFFHLC@Downloaded?5?$CFi?5bytes?5for?5purport@ ; `string'
PUBLIC	??_C@_0L@DHBFCELB@custom?4hpk@			; `string'
PUBLIC	??_C@_0CK@FPPFLGNI@Duplicate?5resource?5received?5and@ ; `string'
PUBLIC	??_C@_0CJ@DNBGOIJD@?$FO1Error?3?$FO7?5parsing?5custom?5decal@ ; `string'
PUBLIC	??_C@_0N@KKPPDKKK@ClientPacket@			; `string'
PUBLIC	??_C@_04CLKJCJJE@rcon@				; `string'
PUBLIC	??_C@_0O@LIGDGICM@?$CFs?5timed?5out?6@		; `string'
PUBLIC	??_C@_0CK@HODBNJJG@Pause?5released?5since?5no?5players@ ; `string'
PUBLIC	??_C@_0BB@FHKNHLNB@ms?4xash?4su?327010@		; `string'
PUBLIC	??_C@_0BH@BKBAMPNP@can?8t?5resolve?5adr?3?5?$CFs?6@ ; `string'
PUBLIC	??_C@_02MGKJNJPI@q?$PP@				; `string'
PUBLIC	??_C@_0BI@POECJJJO@can?8t?5resolve?5addr?3?5?$CFs?6@ ; `string'
PUBLIC	??_C@_02LBACNBCJ@b?6@				; `string'
PUBLIC	??_C@_02NODKCLPH@0?6@				; `string'
PUBLIC	??_C@_02DPKJAMEF@?$CFd@				; `string'
PUBLIC	??_C@_08FCFPNNHF@protocol@			; `string'
PUBLIC	??_C@_02GMHACPFF@?$CFu@				; `string'
PUBLIC	??_C@_09DBEGHIJJ@challenge@			; `string'
PUBLIC	??_C@_07BCGOFIOM@players@			; `string'
PUBLIC	??_C@_03LJAEFNNE@max@				; `string'
PUBLIC	??_C@_04OOIACBCD@bots@				; `string'
PUBLIC	??_C@_07GGMBKBFD@gamedir@			; `string'
PUBLIC	??_C@_03HBNNNHNM@map@				; `string'
PUBLIC	??_C@_01LPLHEDKD@d@				; `string'
PUBLIC	??_C@_01HHGOMJKL@l@				; `string'
PUBLIC	??_C@_04GPMDFGEJ@type@				; `string'
PUBLIC	??_C@_08NLHBPEGP@password@			; `string'
PUBLIC	??_C@_01NOFIACDB@w@				; `string'
PUBLIC	??_C@_02EHCHIAMF@os@				; `string'
PUBLIC	??_C@_06CKKGAKDB@secure@			; `string'
PUBLIC	??_C@_03BNCAIPGG@lan@				; `string'
PUBLIC	??_C@_04PNCPDLMM@0?499@				; `string'
PUBLIC	??_C@_02DKCKIIND@?$CFs@				; `string'
PUBLIC	??_C@_07CPCPJPKL@version@			; `string'
PUBLIC	??_C@_03EAIPFAE@255@				; `string'
PUBLIC	??_C@_06JEJEKGIK@region@			; `string'
PUBLIC	??_C@_07IFEJIFCD@product@			; `string'
PUBLIC	??_C@_0CB@DHDLMOAJ@displays?5server?5protocol?5versio@ ; `string'
PUBLIC	??_C@_02IKAHHCAI@?$CFi@				; `string'
PUBLIC	??_C@_0BA@FADEPEFK@HEV?5suit?5volume@		; `string'
PUBLIC	??_C@_04FNMPJLCB@0?425@				; `string'
PUBLIC	??_C@_0L@BFLOMJEF@suitvolume@			; `string'
PUBLIC	??_C@_0CI@MOIEJPFN@indicate?5what?5background?5map?5is@ ; `string'
PUBLIC	??_C@_0O@DOOGBBKD@sv_background@		; `string'
PUBLIC	??_C@_0M@CIHGPAGF@game?5folder@			; `string'
PUBLIC	??_C@_0DC@IGNOPEHN@allow?5to?5talking?5for?5all?5player@ ; `string'
PUBLIC	??_C@_0L@MCGJBOEN@sv_alltalk@			; `string'
PUBLIC	??_C@_0CD@OLLKOLHG@allow?5XashXT?5to?5usage?5PhysX?5eng@ ; `string'
PUBLIC	??_C@_0P@EGEEADIG@sv_allow_PhysX@		; `string'
PUBLIC	??_C@_0CP@NGFEJKGP@cache?5SOLID_CUSTOM?5meshes?5befor@ ; `string'
PUBLIC	??_C@_0BD@OFKABNPE@sv_precache_meshes@		; `string'
PUBLIC	??_C@_0CL@KBEPHBHJ@name?5of?5config?5file?5for?5map?5cha@ ; `string'
PUBLIC	??_C@_0CM@IOJFICDA@name?5of?5dedicated?5server?5config@ ; `string'
PUBLIC	??_C@_0L@NOPMIKGD@server?4cfg@			; `string'
PUBLIC	??_C@_0O@DGADKMPA@servercfgfile@		; `string'
PUBLIC	??_C@_0CJ@HIOHPHLM@name?5of?5listen?5server?5configura@ ; `string'
PUBLIC	??_C@_0BB@EIAOCMOE@listenserver?4cfg@		; `string'
PUBLIC	??_C@_0P@DHKADKNH@lservercfgfile@		; `string'
PUBLIC	??_C@_0CE@FIJLLMNE@default?5folder?5to?5write?5server?5@ ; `string'
PUBLIC	??_C@_0BD@LOHLNEPP@connection?5timeout@		; `string'
PUBLIC	??_C@_03BDPCEMGP@125@				; `string'
PUBLIC	??_C@_07DDHNKDGP@timeout@			; `string'
PUBLIC	??_C@_0BO@FLIBGEHN@allow?5players?5to?5pause?5or?5not@ ; `string'
PUBLIC	??_C@_08KKMIMEJB@pausable@			; `string'
PUBLIC	??_C@_0CM@BFFCCGPF@test?5change?5level?5for?5level?9des@ ; `string'
PUBLIC	??_C@_0BI@DBJAJKNK@sv_validate_changelevel@	; `string'
PUBLIC	??_C@_0BE@HIJPCMFE@server?5max?5capacity@	; `string'
PUBLIC	??_C@_0L@PCNFODNF@maxplayers@			; `string'
PUBLIC	??_C@_0BI@DKLCHKGK@check?5edicts?5for?5errors@	; `string'
PUBLIC	??_C@_0BA@EIIDBIHB@sv_check_errors@		; `string'
PUBLIC	??_C@_0CK@OCMMGMIJ@change?5server?5type?5from?5private@ ; `string'
PUBLIC	??_C@_06EOMAMIIF@public@			; `string'
PUBLIC	??_C@_0BL@BOCCKKNK@lightstyles?5modulate?5scale@ ; `string'
PUBLIC	??_C@_03JFFPCCNN@0?46@				; `string'
PUBLIC	??_C@_0BE@NGHAOOJB@r_lighting_modulate@		; `string'
PUBLIC	??_C@_0BH@BAJFDDOH@max?5reconnect?5attempts@	; `string'
PUBLIC	??_C@_01EKENIIDA@3@				; `string'
PUBLIC	??_C@_0BD@HMFPBMC@sv_reconnect_limit@		; `string'
PUBLIC	??_C@_0CC@ODDIKFBB@force?5to?5ignore?5server?5visibili@ ; `string'
PUBLIC	??_C@_08ELKGLOGE@sv_novis@			; `string'
PUBLIC	??_C@_0BO@CFGILJEP@keep?5name?5of?5last?5entered?5map@ ; `string'
PUBLIC	??_C@_07MKKPGJML@hostmap@			; `string'
PUBLIC	??_C@_0L@EJNKCDI@NetMessage@			; `string'
PUBLIC	??_C@_06EDNJMPJF@Xash3D@			; `string'
PUBLIC	??_C@_0N@MJCMMFHK@?$CFs?3?5?$CFs?0?$CFi?0?$CFi@	; `string'
PUBLIC	??_C@_0N@FAJCICHN@FinalMessage@			; `string'
PUBLIC	?__LINE__Var@?0??SV_FreeClients@@9@9		; `SV_FreeClients'::`1'::__LINE__Var
PUBLIC	??_C@_0DE@PHIPFMKH@D?3?2DevDragon?2XashFE?2dev?2src?2eng@ ; `string'
PUBLIC	??_C@_0BB@ENNINOFP@Server?5shutdown?6@		; `string'
PUBLIC	__real@00000000
PUBLIC	__real@0000000000000000
PUBLIC	__real@3f800000
PUBLIC	__real@3f847ae147ae147b
PUBLIC	__real@3ff0000000000000
PUBLIC	__real@4034000000000000
PUBLIC	__real@4069000000000000
PUBLIC	__real@4072c00000000000
PUBLIC	__real@41a00000
PUBLIC	__real@43480000
PUBLIC	__real@43800000
PUBLIC	__real@46fffe00
PUBLIC	__real@47ffff00
PUBLIC	__xmm@80000000800000008000000080000000
EXTRN	_memcmp:PROC
EXTRN	_memcpy:PROC
EXTRN	_memset:PROC
EXTRN	_Cmd_Argv:PROC
EXTRN	_Cmd_TokenizeString:PROC
EXTRN	_Q_strlen:PROC
EXTRN	_Q_strncpy:PROC
EXTRN	_Q_strncmp:PROC
EXTRN	_Q_snprintf:PROC
EXTRN	_va:PROC
EXTRN	__Mem_Free:PROC
EXTRN	_Cvar_RegisterVariable:PROC
EXTRN	_Cvar_Get:PROC
EXTRN	_Cvar_FullSet:PROC
EXTRN	_Cvar_SetValue:PROC
EXTRN	_NET_Config:PROC
EXTRN	_NET_IsLocalAddress:PROC
EXTRN	_NET_StringToAdr:PROC
EXTRN	_NET_CompareBaseAdr:PROC
EXTRN	_NET_GetPacket:PROC
EXTRN	_NET_SendPacket:PROC
EXTRN	_COM_CheckString:PROC
EXTRN	_Q_buildnum:PROC
EXTRN	_Host_IsLocalGame:PROC
EXTRN	_CL_Active:PROC
EXTRN	_SV_Active:PROC
EXTRN	_COM_HexConvert:PROC
EXTRN	_Con_DPrintf:PROC
EXTRN	_Con_Printf:PROC
EXTRN	_COM_CreateCustomization:PROC
EXTRN	_HPAK_AddLump:PROC
EXTRN	_HPAK_FlushHostQueue:PROC
EXTRN	_CL_IsInGame:PROC
EXTRN	_CL_IsInConsole:PROC
EXTRN	_Log_Printf:PROC
EXTRN	_SV_BroadcastPrintf:PROC
EXTRN	_CL_IsPlaybackDemo:PROC
EXTRN	_SV_Initialized:PROC
EXTRN	_CL_Drop:PROC
EXTRN	_Info_SetValueForKey:PROC
EXTRN	_MSG_InitExt:PROC
EXTRN	_MSG_Clear:PROC
EXTRN	_MSG_WriteOneBit:PROC
EXTRN	_MSG_WriteCmdExt:PROC
EXTRN	_MSG_WriteString:PROC
EXTRN	_MSG_ReadUBitLong:PROC
EXTRN	_MSG_ReadShort:PROC
EXTRN	_MSG_ReadLong:PROC
EXTRN	_MSG_ReadStringExt:PROC
EXTRN	_Netchan_CopyNormalFragments:PROC
EXTRN	_Netchan_CopyFileFragments:PROC
EXTRN	_Netchan_TransmitBits:PROC
EXTRN	_Netchan_Process:PROC
EXTRN	_Netchan_IncomingReady:PROC
EXTRN	_SV_DropClient:PROC
EXTRN	_SV_RemoteCommand:PROC
EXTRN	_SV_Physics:PROC
EXTRN	_SV_SendClientMessages:PROC
EXTRN	_SV_TogglePause:PROC
EXTRN	_SV_ExecuteClientMessage:PROC
EXTRN	_SV_ConnectionlessPacket:PROC
EXTRN	_SV_BuildReconnect:PROC
EXTRN	_SV_EndRedirect:PROC
EXTRN	_SV_InitHostCommands:PROC
EXTRN	_SV_MoveToOnHandList:PROC
EXTRN	_SV_RequestMissingResources:PROC
EXTRN	_SV_UnloadProgs:PROC
EXTRN	_SV_EdictNum:PROC
EXTRN	_Log_Close:PROC
EXTRN	_SV_ClearGameState:PROC
EXTRN	_MSG_WriteDeltaMovevars:PROC
EXTRN	@__security_check_cookie@4:PROC
EXTRN	_memset:PROC
EXTRN	_host_developer:BYTE
EXTRN	_host_limitlocal:DWORD
EXTRN	_net_clockwindow:DWORD
EXTRN	_host:BYTE
EXTRN	_SI:BYTE
EXTRN	_net_from:BYTE
EXTRN	_net_message:BYTE
EXTRN	_net_message_buffer:BYTE
EXTRN	_svs:BYTE
EXTRN	_sv:BYTE
EXTRN	_svgame:BYTE
EXTRN	___security_cookie:DWORD
EXTRN	__fltused:DWORD
_BSS	SEGMENT
?lastreset@?1??SV_CheckCmdTimes@@9@9 DQ 01H DUP (?)	; `SV_CheckCmdTimes'::`2'::lastreset
_BSS	ENDS
;	COMDAT __xmm@80000000800000008000000080000000
CONST	SEGMENT
__xmm@80000000800000008000000080000000 DB 00H, 00H, 00H, 080H, 00H, 00H, 00H
	DB	080H, 00H, 00H, 00H, 080H, 00H, 00H, 00H, 080H
CONST	ENDS
;	COMDAT __real@47ffff00
CONST	SEGMENT
__real@47ffff00 DD 047ffff00r			; 131070
CONST	ENDS
;	COMDAT __real@46fffe00
CONST	SEGMENT
__real@46fffe00 DD 046fffe00r			; 32767
CONST	ENDS
;	COMDAT __real@43800000
CONST	SEGMENT
__real@43800000 DD 043800000r			; 256
CONST	ENDS
;	COMDAT __real@43480000
CONST	SEGMENT
__real@43480000 DD 043480000r			; 200
CONST	ENDS
;	COMDAT __real@41a00000
CONST	SEGMENT
__real@41a00000 DD 041a00000r			; 20
CONST	ENDS
;	COMDAT __real@4072c00000000000
CONST	SEGMENT
__real@4072c00000000000 DQ 04072c00000000000r	; 300
CONST	ENDS
;	COMDAT __real@4069000000000000
CONST	SEGMENT
__real@4069000000000000 DQ 04069000000000000r	; 200
CONST	ENDS
;	COMDAT __real@4034000000000000
CONST	SEGMENT
__real@4034000000000000 DQ 04034000000000000r	; 20
CONST	ENDS
;	COMDAT __real@3ff0000000000000
CONST	SEGMENT
__real@3ff0000000000000 DQ 03ff0000000000000r	; 1
CONST	ENDS
;	COMDAT __real@3f847ae147ae147b
CONST	SEGMENT
__real@3f847ae147ae147b DQ 03f847ae147ae147br	; 0.01
CONST	ENDS
;	COMDAT __real@3f800000
CONST	SEGMENT
__real@3f800000 DD 03f800000r			; 1
CONST	ENDS
;	COMDAT __real@0000000000000000
CONST	SEGMENT
__real@0000000000000000 DQ 00000000000000000r	; 0
CONST	ENDS
;	COMDAT __real@00000000
CONST	SEGMENT
__real@00000000 DD 000000000r			; 0
CONST	ENDS
;	COMDAT ??_C@_0BB@ENNINOFP@Server?5shutdown?6@
CONST	SEGMENT
??_C@_0BB@ENNINOFP@Server?5shutdown?6@ DB 'Server shutdown', 0aH, 00H ; `string'
CONST	ENDS
;	COMDAT ??_C@_0DE@PHIPFMKH@D?3?2DevDragon?2XashFE?2dev?2src?2eng@
CONST	SEGMENT
??_C@_0DE@PHIPFMKH@D?3?2DevDragon?2XashFE?2dev?2src?2eng@ DB 'D:\DevDrago'
	DB	'n\XashFE\dev\src\engine\server\sv_main.c', 00H ; `string'
CONST	ENDS
;	COMDAT ?__LINE__Var@?0??SV_FreeClients@@9@9
_DATA	SEGMENT
?__LINE__Var@?0??SV_FreeClients@@9@9 DD 03acH		; `SV_FreeClients'::`1'::__LINE__Var
_DATA	ENDS
;	COMDAT ??_C@_0N@FAJCICHN@FinalMessage@
CONST	SEGMENT
??_C@_0N@FAJCICHN@FinalMessage@ DB 'FinalMessage', 00H	; `string'
CONST	ENDS
;	COMDAT ??_C@_0N@MJCMMFHK@?$CFs?3?5?$CFs?0?$CFi?0?$CFi@
CONST	SEGMENT
??_C@_0N@MJCMMFHK@?$CFs?3?5?$CFs?0?$CFi?0?$CFi@ DB '%s: %s,%i,%i', 00H ; `string'
CONST	ENDS
;	COMDAT ??_C@_06EDNJMPJF@Xash3D@
CONST	SEGMENT
??_C@_06EDNJMPJF@Xash3D@ DB 'Xash3D', 00H		; `string'
CONST	ENDS
;	COMDAT ??_C@_0L@EJNKCDI@NetMessage@
CONST	SEGMENT
??_C@_0L@EJNKCDI@NetMessage@ DB 'NetMessage', 00H	; `string'
CONST	ENDS
;	COMDAT ??_C@_07MKKPGJML@hostmap@
CONST	SEGMENT
??_C@_07MKKPGJML@hostmap@ DB 'hostmap', 00H		; `string'
CONST	ENDS
;	COMDAT ??_C@_0BO@CFGILJEP@keep?5name?5of?5last?5entered?5map@
CONST	SEGMENT
??_C@_0BO@CFGILJEP@keep?5name?5of?5last?5entered?5map@ DB 'keep name of l'
	DB	'ast entered map', 00H			; `string'
CONST	ENDS
;	COMDAT ??_C@_08ELKGLOGE@sv_novis@
CONST	SEGMENT
??_C@_08ELKGLOGE@sv_novis@ DB 'sv_novis', 00H		; `string'
CONST	ENDS
;	COMDAT ??_C@_0CC@ODDIKFBB@force?5to?5ignore?5server?5visibili@
CONST	SEGMENT
??_C@_0CC@ODDIKFBB@force?5to?5ignore?5server?5visibili@ DB 'force to igno'
	DB	're server visibility', 00H			; `string'
CONST	ENDS
;	COMDAT ??_C@_0BD@HMFPBMC@sv_reconnect_limit@
CONST	SEGMENT
??_C@_0BD@HMFPBMC@sv_reconnect_limit@ DB 'sv_reconnect_limit', 00H ; `string'
CONST	ENDS
;	COMDAT ??_C@_01EKENIIDA@3@
CONST	SEGMENT
??_C@_01EKENIIDA@3@ DB '3', 00H				; `string'
CONST	ENDS
;	COMDAT ??_C@_0BH@BAJFDDOH@max?5reconnect?5attempts@
CONST	SEGMENT
??_C@_0BH@BAJFDDOH@max?5reconnect?5attempts@ DB 'max reconnect attempts', 00H ; `string'
CONST	ENDS
;	COMDAT ??_C@_0BE@NGHAOOJB@r_lighting_modulate@
CONST	SEGMENT
??_C@_0BE@NGHAOOJB@r_lighting_modulate@ DB 'r_lighting_modulate', 00H ; `string'
CONST	ENDS
;	COMDAT ??_C@_03JFFPCCNN@0?46@
CONST	SEGMENT
??_C@_03JFFPCCNN@0?46@ DB '0.6', 00H			; `string'
CONST	ENDS
;	COMDAT ??_C@_0BL@BOCCKKNK@lightstyles?5modulate?5scale@
CONST	SEGMENT
??_C@_0BL@BOCCKKNK@lightstyles?5modulate?5scale@ DB 'lightstyles modulate'
	DB	' scale', 00H				; `string'
CONST	ENDS
;	COMDAT ??_C@_06EOMAMIIF@public@
CONST	SEGMENT
??_C@_06EOMAMIIF@public@ DB 'public', 00H		; `string'
CONST	ENDS
;	COMDAT ??_C@_0CK@OCMMGMIJ@change?5server?5type?5from?5private@
CONST	SEGMENT
??_C@_0CK@OCMMGMIJ@change?5server?5type?5from?5private@ DB 'change server'
	DB	' type from private to public', 00H		; `string'
CONST	ENDS
;	COMDAT ??_C@_0BA@EIIDBIHB@sv_check_errors@
CONST	SEGMENT
??_C@_0BA@EIIDBIHB@sv_check_errors@ DB 'sv_check_errors', 00H ; `string'
CONST	ENDS
;	COMDAT ??_C@_0BI@DKLCHKGK@check?5edicts?5for?5errors@
CONST	SEGMENT
??_C@_0BI@DKLCHKGK@check?5edicts?5for?5errors@ DB 'check edicts for error'
	DB	's', 00H					; `string'
CONST	ENDS
;	COMDAT ??_C@_0L@PCNFODNF@maxplayers@
CONST	SEGMENT
??_C@_0L@PCNFODNF@maxplayers@ DB 'maxplayers', 00H	; `string'
CONST	ENDS
;	COMDAT ??_C@_0BE@HIJPCMFE@server?5max?5capacity@
CONST	SEGMENT
??_C@_0BE@HIJPCMFE@server?5max?5capacity@ DB 'server max capacity', 00H ; `string'
CONST	ENDS
;	COMDAT ??_C@_0BI@DBJAJKNK@sv_validate_changelevel@
CONST	SEGMENT
??_C@_0BI@DBJAJKNK@sv_validate_changelevel@ DB 'sv_validate_changelevel', 00H ; `string'
CONST	ENDS
;	COMDAT ??_C@_0CM@BFFCCGPF@test?5change?5level?5for?5level?9des@
CONST	SEGMENT
??_C@_0CM@BFFCCGPF@test?5change?5level?5for?5level?9des@ DB 'test change '
	DB	'level for level-designer errors', 00H	; `string'
CONST	ENDS
;	COMDAT ??_C@_08KKMIMEJB@pausable@
CONST	SEGMENT
??_C@_08KKMIMEJB@pausable@ DB 'pausable', 00H		; `string'
CONST	ENDS
;	COMDAT ??_C@_0BO@FLIBGEHN@allow?5players?5to?5pause?5or?5not@
CONST	SEGMENT
??_C@_0BO@FLIBGEHN@allow?5players?5to?5pause?5or?5not@ DB 'allow players '
	DB	'to pause or not', 00H			; `string'
CONST	ENDS
;	COMDAT ??_C@_07DDHNKDGP@timeout@
CONST	SEGMENT
??_C@_07DDHNKDGP@timeout@ DB 'timeout', 00H		; `string'
CONST	ENDS
;	COMDAT ??_C@_03BDPCEMGP@125@
CONST	SEGMENT
??_C@_03BDPCEMGP@125@ DB '125', 00H			; `string'
CONST	ENDS
;	COMDAT ??_C@_0BD@LOHLNEPP@connection?5timeout@
CONST	SEGMENT
??_C@_0BD@LOHLNEPP@connection?5timeout@ DB 'connection timeout', 00H ; `string'
CONST	ENDS
;	COMDAT ??_C@_0CE@FIJLLMNE@default?5folder?5to?5write?5server?5@
CONST	SEGMENT
??_C@_0CE@FIJLLMNE@default?5folder?5to?5write?5server?5@ DB 'default fold'
	DB	'er to write server logs', 00H		; `string'
CONST	ENDS
;	COMDAT ??_C@_0P@DHKADKNH@lservercfgfile@
CONST	SEGMENT
??_C@_0P@DHKADKNH@lservercfgfile@ DB 'lservercfgfile', 00H ; `string'
CONST	ENDS
;	COMDAT ??_C@_0BB@EIAOCMOE@listenserver?4cfg@
CONST	SEGMENT
??_C@_0BB@EIAOCMOE@listenserver?4cfg@ DB 'listenserver.cfg', 00H ; `string'
CONST	ENDS
;	COMDAT ??_C@_0CJ@HIOHPHLM@name?5of?5listen?5server?5configura@
CONST	SEGMENT
??_C@_0CJ@HIOHPHLM@name?5of?5listen?5server?5configura@ DB 'name of liste'
	DB	'n server configuration file', 00H		; `string'
CONST	ENDS
;	COMDAT ??_C@_0O@DGADKMPA@servercfgfile@
CONST	SEGMENT
??_C@_0O@DGADKMPA@servercfgfile@ DB 'servercfgfile', 00H ; `string'
CONST	ENDS
;	COMDAT ??_C@_0L@NOPMIKGD@server?4cfg@
CONST	SEGMENT
??_C@_0L@NOPMIKGD@server?4cfg@ DB 'server.cfg', 00H	; `string'
CONST	ENDS
;	COMDAT ??_C@_0CM@IOJFICDA@name?5of?5dedicated?5server?5config@
CONST	SEGMENT
??_C@_0CM@IOJFICDA@name?5of?5dedicated?5server?5config@ DB 'name of dedic'
	DB	'ated server configuration file', 00H	; `string'
CONST	ENDS
;	COMDAT ??_C@_0CL@KBEPHBHJ@name?5of?5config?5file?5for?5map?5cha@
CONST	SEGMENT
??_C@_0CL@KBEPHBHJ@name?5of?5config?5file?5for?5map?5cha@ DB 'name of con'
	DB	'fig file for map changing rules', 00H	; `string'
CONST	ENDS
;	COMDAT ??_C@_0BD@OFKABNPE@sv_precache_meshes@
CONST	SEGMENT
??_C@_0BD@OFKABNPE@sv_precache_meshes@ DB 'sv_precache_meshes', 00H ; `string'
CONST	ENDS
;	COMDAT ??_C@_0CP@NGFEJKGP@cache?5SOLID_CUSTOM?5meshes?5befor@
CONST	SEGMENT
??_C@_0CP@NGFEJKGP@cache?5SOLID_CUSTOM?5meshes?5befor@ DB 'cache SOLID_CU'
	DB	'STOM meshes before level loading', 00H	; `string'
CONST	ENDS
;	COMDAT ??_C@_0P@EGEEADIG@sv_allow_PhysX@
CONST	SEGMENT
??_C@_0P@EGEEADIG@sv_allow_PhysX@ DB 'sv_allow_PhysX', 00H ; `string'
CONST	ENDS
;	COMDAT ??_C@_0CD@OLLKOLHG@allow?5XashXT?5to?5usage?5PhysX?5eng@
CONST	SEGMENT
??_C@_0CD@OLLKOLHG@allow?5XashXT?5to?5usage?5PhysX?5eng@ DB 'allow XashXT'
	DB	' to usage PhysX engine', 00H		; `string'
CONST	ENDS
;	COMDAT ??_C@_0L@MCGJBOEN@sv_alltalk@
CONST	SEGMENT
??_C@_0L@MCGJBOEN@sv_alltalk@ DB 'sv_alltalk', 00H	; `string'
CONST	ENDS
;	COMDAT ??_C@_0DC@IGNOPEHN@allow?5to?5talking?5for?5all?5player@
CONST	SEGMENT
??_C@_0DC@IGNOPEHN@allow?5to?5talking?5for?5all?5player@ DB 'allow to tal'
	DB	'king for all players (legacy, unused)', 00H	; `string'
CONST	ENDS
;	COMDAT ??_C@_0M@CIHGPAGF@game?5folder@
CONST	SEGMENT
??_C@_0M@CIHGPAGF@game?5folder@ DB 'game folder', 00H	; `string'
CONST	ENDS
;	COMDAT ??_C@_0O@DOOGBBKD@sv_background@
CONST	SEGMENT
??_C@_0O@DOOGBBKD@sv_background@ DB 'sv_background', 00H ; `string'
CONST	ENDS
;	COMDAT ??_C@_0CI@MOIEJPFN@indicate?5what?5background?5map?5is@
CONST	SEGMENT
??_C@_0CI@MOIEJPFN@indicate?5what?5background?5map?5is@ DB 'indicate what'
	DB	' background map is running', 00H		; `string'
CONST	ENDS
;	COMDAT ??_C@_0L@BFLOMJEF@suitvolume@
CONST	SEGMENT
??_C@_0L@BFLOMJEF@suitvolume@ DB 'suitvolume', 00H	; `string'
CONST	ENDS
;	COMDAT ??_C@_04FNMPJLCB@0?425@
CONST	SEGMENT
??_C@_04FNMPJLCB@0?425@ DB '0.25', 00H			; `string'
CONST	ENDS
;	COMDAT ??_C@_0BA@FADEPEFK@HEV?5suit?5volume@
CONST	SEGMENT
??_C@_0BA@FADEPEFK@HEV?5suit?5volume@ DB 'HEV suit volume', 00H ; `string'
CONST	ENDS
;	COMDAT ??_C@_02IKAHHCAI@?$CFi@
CONST	SEGMENT
??_C@_02IKAHHCAI@?$CFi@ DB '%i', 00H			; `string'
CONST	ENDS
;	COMDAT ??_C@_0CB@DHDLMOAJ@displays?5server?5protocol?5versio@
CONST	SEGMENT
??_C@_0CB@DHDLMOAJ@displays?5server?5protocol?5versio@ DB 'displays serve'
	DB	'r protocol version', 00H			; `string'
CONST	ENDS
;	COMDAT ??_C@_07IFEJIFCD@product@
CONST	SEGMENT
??_C@_07IFEJIFCD@product@ DB 'product', 00H		; `string'
CONST	ENDS
;	COMDAT ??_C@_06JEJEKGIK@region@
CONST	SEGMENT
??_C@_06JEJEKGIK@region@ DB 'region', 00H		; `string'
CONST	ENDS
;	COMDAT ??_C@_03EAIPFAE@255@
CONST	SEGMENT
??_C@_03EAIPFAE@255@ DB '255', 00H			; `string'
CONST	ENDS
;	COMDAT ??_C@_07CPCPJPKL@version@
CONST	SEGMENT
??_C@_07CPCPJPKL@version@ DB 'version', 00H		; `string'
CONST	ENDS
;	COMDAT ??_C@_02DKCKIIND@?$CFs@
CONST	SEGMENT
??_C@_02DKCKIIND@?$CFs@ DB '%s', 00H			; `string'
CONST	ENDS
;	COMDAT ??_C@_04PNCPDLMM@0?499@
CONST	SEGMENT
??_C@_04PNCPDLMM@0?499@ DB '0.99', 00H			; `string'
CONST	ENDS
;	COMDAT ??_C@_03BNCAIPGG@lan@
CONST	SEGMENT
??_C@_03BNCAIPGG@lan@ DB 'lan', 00H			; `string'
CONST	ENDS
;	COMDAT ??_C@_06CKKGAKDB@secure@
CONST	SEGMENT
??_C@_06CKKGAKDB@secure@ DB 'secure', 00H		; `string'
CONST	ENDS
;	COMDAT ??_C@_02EHCHIAMF@os@
CONST	SEGMENT
??_C@_02EHCHIAMF@os@ DB 'os', 00H			; `string'
CONST	ENDS
;	COMDAT ??_C@_01NOFIACDB@w@
CONST	SEGMENT
??_C@_01NOFIACDB@w@ DB 'w', 00H				; `string'
CONST	ENDS
;	COMDAT ??_C@_08NLHBPEGP@password@
CONST	SEGMENT
??_C@_08NLHBPEGP@password@ DB 'password', 00H		; `string'
CONST	ENDS
;	COMDAT ??_C@_04GPMDFGEJ@type@
CONST	SEGMENT
??_C@_04GPMDFGEJ@type@ DB 'type', 00H			; `string'
CONST	ENDS
;	COMDAT ??_C@_01HHGOMJKL@l@
CONST	SEGMENT
??_C@_01HHGOMJKL@l@ DB 'l', 00H				; `string'
CONST	ENDS
;	COMDAT ??_C@_01LPLHEDKD@d@
CONST	SEGMENT
??_C@_01LPLHEDKD@d@ DB 'd', 00H				; `string'
CONST	ENDS
;	COMDAT ??_C@_03HBNNNHNM@map@
CONST	SEGMENT
??_C@_03HBNNNHNM@map@ DB 'map', 00H			; `string'
CONST	ENDS
;	COMDAT ??_C@_07GGMBKBFD@gamedir@
CONST	SEGMENT
??_C@_07GGMBKBFD@gamedir@ DB 'gamedir', 00H		; `string'
CONST	ENDS
;	COMDAT ??_C@_04OOIACBCD@bots@
CONST	SEGMENT
??_C@_04OOIACBCD@bots@ DB 'bots', 00H			; `string'
CONST	ENDS
;	COMDAT ??_C@_03LJAEFNNE@max@
CONST	SEGMENT
??_C@_03LJAEFNNE@max@ DB 'max', 00H			; `string'
CONST	ENDS
;	COMDAT ??_C@_07BCGOFIOM@players@
CONST	SEGMENT
??_C@_07BCGOFIOM@players@ DB 'players', 00H		; `string'
CONST	ENDS
;	COMDAT ??_C@_09DBEGHIJJ@challenge@
CONST	SEGMENT
??_C@_09DBEGHIJJ@challenge@ DB 'challenge', 00H		; `string'
CONST	ENDS
;	COMDAT ??_C@_02GMHACPFF@?$CFu@
CONST	SEGMENT
??_C@_02GMHACPFF@?$CFu@ DB '%u', 00H			; `string'
CONST	ENDS
;	COMDAT ??_C@_08FCFPNNHF@protocol@
CONST	SEGMENT
??_C@_08FCFPNNHF@protocol@ DB 'protocol', 00H		; `string'
CONST	ENDS
;	COMDAT ??_C@_02DPKJAMEF@?$CFd@
CONST	SEGMENT
??_C@_02DPKJAMEF@?$CFd@ DB '%d', 00H			; `string'
CONST	ENDS
;	COMDAT ??_C@_02NODKCLPH@0?6@
CONST	SEGMENT
??_C@_02NODKCLPH@0?6@ DB '0', 0aH, 00H			; `string'
CONST	ENDS
;	COMDAT ??_C@_02LBACNBCJ@b?6@
CONST	SEGMENT
??_C@_02LBACNBCJ@b?6@ DB 'b', 0aH, 00H			; `string'
CONST	ENDS
;	COMDAT ??_C@_0BI@POECJJJO@can?8t?5resolve?5addr?3?5?$CFs?6@
CONST	SEGMENT
??_C@_0BI@POECJJJO@can?8t?5resolve?5addr?3?5?$CFs?6@ DB 'can''t resolve a'
	DB	'ddr: %s', 0aH, 00H				; `string'
CONST	ENDS
;	COMDAT ??_C@_02MGKJNJPI@q?$PP@
CONST	SEGMENT
??_C@_02MGKJNJPI@q?$PP@ DB 'q', 0ffH, 00H		; `string'
CONST	ENDS
;	COMDAT ??_C@_0BH@BKBAMPNP@can?8t?5resolve?5adr?3?5?$CFs?6@
CONST	SEGMENT
??_C@_0BH@BKBAMPNP@can?8t?5resolve?5adr?3?5?$CFs?6@ DB 'can''t resolve ad'
	DB	'r: %s', 0aH, 00H				; `string'
CONST	ENDS
;	COMDAT ??_C@_0BB@FHKNHLNB@ms?4xash?4su?327010@
CONST	SEGMENT
??_C@_0BB@FHKNHLNB@ms?4xash?4su?327010@ DB 'ms.xash.su:27010', 00H ; `string'
CONST	ENDS
;	COMDAT ??_C@_0CK@HODBNJJG@Pause?5released?5since?5no?5players@
CONST	SEGMENT
??_C@_0CK@HODBNJJG@Pause?5released?5since?5no?5players@ DB 'Pause release'
	DB	'd since no players are left.', 00H		; `string'
CONST	ENDS
;	COMDAT ??_C@_0O@LIGDGICM@?$CFs?5timed?5out?6@
CONST	SEGMENT
??_C@_0O@LIGDGICM@?$CFs?5timed?5out?6@ DB '%s timed out', 0aH, 00H ; `string'
CONST	ENDS
;	COMDAT ??_C@_04CLKJCJJE@rcon@
CONST	SEGMENT
??_C@_04CLKJCJJE@rcon@ DB 'rcon', 00H			; `string'
CONST	ENDS
;	COMDAT ??_C@_0N@KKPPDKKK@ClientPacket@
CONST	SEGMENT
??_C@_0N@KKPPDKKK@ClientPacket@ DB 'ClientPacket', 00H	; `string'
CONST	ENDS
;	COMDAT ??_C@_0CJ@DNBGOIJD@?$FO1Error?3?$FO7?5parsing?5custom?5decal@
CONST	SEGMENT
??_C@_0CJ@DNBGOIJD@?$FO1Error?3?$FO7?5parsing?5custom?5decal@ DB '^1Error'
	DB	':^7 parsing custom decal from %s', 0aH, 00H	; `string'
CONST	ENDS
;	COMDAT ??_C@_0CK@FPPFLGNI@Duplicate?5resource?5received?5and@
CONST	SEGMENT
??_C@_0CK@FPPFLGNI@Duplicate?5resource?5received?5and@ DB 'Duplicate reso'
	DB	'urce received and ignored.', 0aH, 00H	; `string'
CONST	ENDS
;	COMDAT ??_C@_0L@DHBFCELB@custom?4hpk@
CONST	SEGMENT
??_C@_0L@DHBFCELB@custom?4hpk@ DB 'custom.hpk', 00H	; `string'
CONST	ENDS
;	COMDAT ??_C@_0DA@EMOFFHLC@Downloaded?5?$CFi?5bytes?5for?5purport@
CONST	SEGMENT
??_C@_0DA@EMOFFHLC@Downloaded?5?$CFi?5bytes?5for?5purport@ DB 'Downloaded'
	DB	' %i bytes for purported %i byte file', 0aH, 00H ; `string'
CONST	ENDS
;	COMDAT ??_C@_0CE@FLDLGLNB@SV_ProcessFile?3?5?5Unrequested?5de@
CONST	SEGMENT
??_C@_0CE@FLDLGLNB@SV_ProcessFile?3?5?5Unrequested?5de@ DB 'SV_ProcessFil'
	DB	'e:  Unrequested decal', 0aH, 00H		; `string'
CONST	ENDS
;	COMDAT ??_C@_0CO@FMEKEEEI@Ignoring?5non?9customization?5file@
CONST	SEGMENT
??_C@_0CO@FMEKEEEI@Ignoring?5non?9customization?5file@ DB 'Ignoring non-c'
	DB	'ustomization file upload of %s', 0aH, 00H	; `string'
CONST	ENDS
;	COMDAT voltbl
voltbl	SEGMENT
_volmd	DB	0dH
	DB	07cH
voltbl	ENDS
;	COMDAT voltbl
voltbl	SEGMENT
_volmd	DB	0dH
	DB	07cH
voltbl	ENDS
;	COMDAT voltbl
voltbl	SEGMENT
_volmd	DW	010H
	DW	03a1H
voltbl	ENDS
;	COMDAT voltbl
voltbl	SEGMENT
_volmd	DW	0dH
	DW	01deH
voltbl	ENDS
;	COMDAT voltbl
voltbl	SEGMENT
_volmd	DW	010H
	DW	01a3H
voltbl	ENDS
;	COMDAT voltbl
voltbl	SEGMENT
_volmd	DW	010H
	DW	069dH
voltbl	ENDS
; Function compile flags: /Odtp /ZI
; File D:\DevDragon\XashFE\dev\src\engine\server\sv_main.c
;	COMDAT _SV_RunGameFrame
_TEXT	SEGMENT
tv78 = -80						; size = 4
_numFrames$1 = -12					; size = 4
_fps$2 = -8						; size = 8
_SV_RunGameFrame PROC					; COMDAT

; 572  : {

	push	ebp
	mov	ebp, esp
	sub	esp, 80					; 00000050H
	push	ebx
	push	esi
	push	edi

; 573  : 	sv.simulating = SV_IsSimulating();

	call	_SV_IsSimulating
	mov	DWORD PTR _sv+2595652, eax

; 574  : 
; 575  : 	if( !sv.simulating )

	cmp	DWORD PTR _sv+2595652, 0
	jne	SHORT $LN4@SV_RunGame

; 576  : 		return true;

	mov	eax, 1
	jmp	$LN6@SV_RunGame
$LN4@SV_RunGame:

; 577  : 
; 578  : 	if( sv_fps.value != 0.0f )

	movss	xmm0, DWORD PTR _sv_fps+12
	ucomiss	xmm0, DWORD PTR __real@00000000
	lahf
	test	ah, 68					; 00000044H
	jnp	$LN5@SV_RunGame

; 579  : 	{
; 580  : 		double		fps = (1.0 / (double)( sv_fps.value - 0.01 )); // FP issues

	cvtss2sd xmm0, DWORD PTR _sv_fps+12
	subsd	xmm0, QWORD PTR __real@3f847ae147ae147b
	movsd	xmm1, QWORD PTR __real@3ff0000000000000
	divsd	xmm1, xmm0
	movsd	QWORD PTR _fps$2[ebp], xmm1

; 581  : 		int		numFrames = 0;

	mov	DWORD PTR _numFrames$1[ebp], 0
$LN2@SV_RunGame:

; 582  : 		static double	oldtime;
; 583  : 
; 584  : 		while( sv.time_residual >= fps )

	movsd	xmm0, QWORD PTR _sv+24
	comisd	xmm0, QWORD PTR _fps$2[ebp]
	jb	SHORT $LN3@SV_RunGame

; 585  : 		{
; 586  : 			sv.frametime = fps;

	cvtsd2ss xmm0, QWORD PTR _fps$2[ebp]
	movss	DWORD PTR _sv+32, xmm0

; 587  : 
; 588  : 			SV_Physics();

	call	_SV_Physics

; 589  : 
; 590  : 			sv.time_residual -= fps;

	movsd	xmm0, QWORD PTR _sv+24
	subsd	xmm0, QWORD PTR _fps$2[ebp]
	movsd	QWORD PTR _sv+24, xmm0

; 591  : 			sv.time += fps;

	movsd	xmm0, QWORD PTR _sv+16
	addsd	xmm0, QWORD PTR _fps$2[ebp]
	movsd	QWORD PTR _sv+16, xmm0

; 592  : 			numFrames++;

	mov	eax, DWORD PTR _numFrames$1[ebp]
	add	eax, 1
	mov	DWORD PTR _numFrames$1[ebp], eax

; 593  : 		}

	jmp	SHORT $LN2@SV_RunGame
$LN3@SV_RunGame:

; 594  : 
; 595  : 		return (numFrames != 0);

	cmp	DWORD PTR _numFrames$1[ebp], 0
	je	SHORT $LN8@SV_RunGame
	mov	DWORD PTR tv78[ebp], 1
	jmp	SHORT $LN9@SV_RunGame
$LN8@SV_RunGame:
	mov	DWORD PTR tv78[ebp], 0
$LN9@SV_RunGame:
	mov	eax, DWORD PTR tv78[ebp]
	jmp	SHORT $LN6@SV_RunGame

; 596  : 	}

	jmp	SHORT $LN6@SV_RunGame
$LN5@SV_RunGame:

; 597  : 	else
; 598  : 	{
; 599  : 		SV_Physics();

	call	_SV_Physics

; 600  : 		sv.time += sv.frametime;

	cvtss2sd xmm0, DWORD PTR _sv+32
	addsd	xmm0, QWORD PTR _sv+16
	movsd	QWORD PTR _sv+16, xmm0

; 601  : 		return true;

	mov	eax, 1
$LN6@SV_RunGame:

; 602  : 	}
; 603  : }

	pop	edi
	pop	esi
	pop	ebx
	mov	esp, ebp
	pop	ebp
	ret	0
_SV_RunGameFrame ENDP
_TEXT	ENDS
; Function compile flags: /Odtp /ZI
; File D:\DevDragon\XashFE\dev\src\engine\server\sv_main.c
;	COMDAT _SV_CheckTimeouts
_TEXT	SEGMENT
_numclients$ = -20					; size = 4
_i$ = -16						; size = 4
_droppoint$ = -12					; size = 8
_cl$ = -4						; size = 4
_SV_CheckTimeouts PROC					; COMDAT

; 462  : {

	push	ebp
	mov	ebp, esp
	sub	esp, 84					; 00000054H
	push	ebx
	push	esi
	push	edi

; 463  : 	sv_client_t	*cl;
; 464  : 	double		droppoint;
; 465  : 	int		i, numclients = 0;

	mov	DWORD PTR _numclients$[ebp], 0

; 466  : 
; 467  : 	droppoint = host.realtime - timeout->value;

	mov	eax, DWORD PTR _timeout
	cvtss2sd xmm0, DWORD PTR [eax+12]
	movsd	xmm1, QWORD PTR _host+1440
	subsd	xmm1, xmm0
	movsd	QWORD PTR _droppoint$[ebp], xmm1

; 468  : 
; 469  : 	for( i = 0, cl = svs.clients; i < svs.maxclients; i++, cl++ )

	mov	DWORD PTR _i$[ebp], 0
	mov	eax, DWORD PTR _svs+33344
	mov	DWORD PTR _cl$[ebp], eax
	jmp	SHORT $LN4@SV_CheckTi
$LN2@SV_CheckTi:
	mov	eax, DWORD PTR _i$[ebp]
	add	eax, 1
	mov	DWORD PTR _i$[ebp], eax
	mov	ecx, DWORD PTR _cl$[ebp]
	add	ecx, 289832				; 00046c28H
	mov	DWORD PTR _cl$[ebp], ecx
$LN4@SV_CheckTi:
	mov	eax, DWORD PTR _i$[ebp]
	cmp	eax, DWORD PTR _svs+16
	jge	$LN3@SV_CheckTi

; 470  : 	{
; 471  : 		if( cl->state >= cs_connected )

	mov	eax, DWORD PTR _cl$[ebp]
	cmp	DWORD PTR [eax], 2
	jl	SHORT $LN6@SV_CheckTi

; 472  : 		{
; 473  : 			if( cl->edict && !FBitSet( cl->edict->v.flags, FL_SPECTATOR|FL_FAKECLIENT ))

	mov	eax, DWORD PTR _cl$[ebp]
	cmp	DWORD PTR [eax+264948], 0
	je	SHORT $LN6@SV_CheckTi
	mov	eax, DWORD PTR _cl$[ebp]
	mov	ecx, DWORD PTR [eax+264948]
	mov	edx, DWORD PTR [ecx+656]
	and	edx, 67117056				; 04002000H
	jne	SHORT $LN6@SV_CheckTi

; 474  : 				numclients++;

	mov	eax, DWORD PTR _numclients$[ebp]
	add	eax, 1
	mov	DWORD PTR _numclients$[ebp], eax
$LN6@SV_CheckTi:

; 475  :                     }
; 476  : 
; 477  : 		// fake clients do not timeout
; 478  : 		if( FBitSet( cl->flags, FCL_FAKECLIENT ))

	mov	eax, DWORD PTR _cl$[ebp]
	mov	ecx, DWORD PTR [eax+40]
	and	ecx, 128				; 00000080H
	je	SHORT $LN7@SV_CheckTi

; 479  : 			continue;

	jmp	SHORT $LN2@SV_CheckTi
$LN7@SV_CheckTi:

; 480  : 
; 481  : 		// FIXME: get rid of the zombie state
; 482  : 		if( cl->state == cs_zombie )

	mov	eax, DWORD PTR _cl$[ebp]
	cmp	DWORD PTR [eax], 1
	jne	SHORT $LN8@SV_CheckTi

; 483  : 		{
; 484  : 			cl->state = cs_free; // can now be reused

	mov	eax, DWORD PTR _cl$[ebp]
	mov	DWORD PTR [eax], 0

; 485  : 			continue;

	jmp	SHORT $LN2@SV_CheckTi
$LN8@SV_CheckTi:

; 486  : 		}
; 487  : 
; 488  : 		if(( cl->state == cs_connected || cl->state == cs_spawned ) && cl->netchan.last_received < droppoint )

	mov	eax, DWORD PTR _cl$[ebp]
	cmp	DWORD PTR [eax], 2
	je	SHORT $LN10@SV_CheckTi
	mov	eax, DWORD PTR _cl$[ebp]
	cmp	DWORD PTR [eax], 3
	jne	SHORT $LN11@SV_CheckTi
$LN10@SV_CheckTi:
	mov	eax, DWORD PTR _cl$[ebp]
	movsd	xmm0, QWORD PTR _droppoint$[ebp]
	comisd	xmm0, QWORD PTR [eax+592]
	jbe	SHORT $LN11@SV_CheckTi

; 489  : 		{
; 490  : 			if( !NET_IsLocalAddress( cl->netchan.remote_address ))

	mov	eax, DWORD PTR _cl$[ebp]
	add	eax, 564				; 00000234H
	sub	esp, 20					; 00000014H
	mov	ecx, esp
	mov	edx, DWORD PTR [eax]
	mov	DWORD PTR [ecx], edx
	mov	edx, DWORD PTR [eax+4]
	mov	DWORD PTR [ecx+4], edx
	mov	edx, DWORD PTR [eax+8]
	mov	DWORD PTR [ecx+8], edx
	mov	edx, DWORD PTR [eax+12]
	mov	DWORD PTR [ecx+12], edx
	mov	eax, DWORD PTR [eax+16]
	mov	DWORD PTR [ecx+16], eax
	call	_NET_IsLocalAddress
	add	esp, 20					; 00000014H
	test	eax, eax
	jne	SHORT $LN11@SV_CheckTi

; 491  : 			{
; 492  : 				SV_BroadcastPrintf( NULL, "%s timed out\n", cl->name );

	mov	eax, DWORD PTR _cl$[ebp]
	add	eax, 8
	push	eax
	push	OFFSET ??_C@_0O@LIGDGICM@?$CFs?5timed?5out?6@
	push	0
	call	_SV_BroadcastPrintf
	add	esp, 12					; 0000000cH

; 493  : 				SV_DropClient( cl, false ); 

	push	0
	mov	eax, DWORD PTR _cl$[ebp]
	push	eax
	call	_SV_DropClient
	add	esp, 8

; 494  : 				cl->state = cs_free; // don't bother with zombie state

	mov	eax, DWORD PTR _cl$[ebp]
	mov	DWORD PTR [eax], 0
$LN11@SV_CheckTi:

; 495  : 			}
; 496  : 		}
; 497  : 	}

	jmp	$LN2@SV_CheckTi
$LN3@SV_CheckTi:

; 498  : 
; 499  : 	if( svs.maxclients > 1 && sv.paused && !numclients )

	cmp	DWORD PTR _svs+16, 1
	jle	SHORT $LN12@SV_CheckTi
	cmp	DWORD PTR _sv+2595656, 0
	je	SHORT $LN12@SV_CheckTi
	cmp	DWORD PTR _numclients$[ebp], 0
	jne	SHORT $LN12@SV_CheckTi

; 500  : 	{
; 501  : 		// nobody left, unpause the server
; 502  : 		SV_TogglePause( "Pause released since no players are left." );

	push	OFFSET ??_C@_0CK@HODBNJJG@Pause?5released?5since?5no?5players@
	call	_SV_TogglePause
	add	esp, 4
$LN12@SV_CheckTi:

; 503  : 	}
; 504  : }

	pop	edi
	pop	esi
	pop	ebx
	mov	esp, ebp
	pop	ebp
	ret	0
_SV_CheckTimeouts ENDP
_TEXT	ENDS
; Function compile flags: /Odtp /ZI
; File D:\DevDragon\XashFE\dev\src\engine\server\sv_main.c
;	COMDAT _SV_ReadPackets
_TEXT	SEGMENT
_c$1 = -24						; size = 4
_args$2 = -20						; size = 4
_curSize$ = -16						; size = 4
_qport$ = -12						; size = 4
_i$ = -8						; size = 4
_cl$ = -4						; size = 4
_SV_ReadPackets PROC					; COMDAT

; 345  : {

	push	ebp
	mov	ebp, esp
	sub	esp, 88					; 00000058H
	push	ebx
	push	esi
	push	edi
$LN31@SV_ReadPac:

; 346  : 	sv_client_t	*cl;
; 347  : 	int		i, qport;
; 348  : 	size_t		curSize;
; 349  : 
; 350  : 	while( NET_GetPacket( NS_SERVER, &net_from, net_message_buffer, &curSize ))

	lea	eax, DWORD PTR _curSize$[ebp]
	push	eax
	push	OFFSET _net_message_buffer
	push	OFFSET _net_from
	push	1
	call	_NET_GetPacket
	add	esp, 16					; 00000010H
	test	eax, eax
	je	$LN3@SV_ReadPac

; 351  : 	{
; 352  : 		MSG_Init( &net_message, "ClientPacket", net_message_buffer, curSize );

	push	-1
	mov	eax, DWORD PTR _curSize$[ebp]
	push	eax
	push	OFFSET _net_message_buffer
	push	OFFSET ??_C@_0N@KKPPDKKK@ClientPacket@
	push	OFFSET _net_message
	call	_MSG_InitExt
	add	esp, 20					; 00000014H

; 353  : 
; 354  : 		// check for connectionless packet (0xffffffff) first
; 355  : 		if( MSG_GetMaxBytes( &net_message ) >= 4 && *(int *)net_message.pData == -1 )

	push	OFFSET _net_message
	call	_MSG_GetMaxBytes
	add	esp, 4
	cmp	eax, 4
	jl	$LN7@SV_ReadPac
	mov	eax, DWORD PTR _net_message+8
	cmp	DWORD PTR [eax], -1
	jne	$LN7@SV_ReadPac

; 356  : 		{
; 357  : 			if( !svs.initialized )

	cmp	DWORD PTR _svs, 0
	jne	$LN8@SV_ReadPac

; 358  : 			{
; 359  : 				char	*args, *c;
; 360  : 
; 361  : 				MSG_Clear( &net_message  );

	push	OFFSET _net_message
	call	_MSG_Clear
	add	esp, 4

; 362  : 				MSG_ReadLong( &net_message  );// skip the -1 marker

	push	OFFSET _net_message
	call	_MSG_ReadLong
	add	esp, 4

; 363  : 
; 364  : 				args = MSG_ReadStringLine( &net_message  );

	push	1
	push	OFFSET _net_message
	call	_MSG_ReadStringExt
	add	esp, 8
	mov	DWORD PTR _args$2[ebp], eax

; 365  : 				Cmd_TokenizeString( args );

	mov	eax, DWORD PTR _args$2[ebp]
	push	eax
	call	_Cmd_TokenizeString
	add	esp, 4

; 366  : 				c = Cmd_Argv( 0 );

	push	0
	call	_Cmd_Argv
	add	esp, 4
	mov	DWORD PTR _c$1[ebp], eax

; 367  : 
; 368  : 				if( !Q_strcmp( c, "rcon" ))

	push	99999					; 0001869fH
	push	OFFSET ??_C@_04CLKJCJJE@rcon@
	mov	eax, DWORD PTR _c$1[ebp]
	push	eax
	call	_Q_strncmp
	add	esp, 12					; 0000000cH
	test	eax, eax
	jne	SHORT $LN10@SV_ReadPac

; 369  : 					SV_RemoteCommand( net_from, &net_message );

	push	OFFSET _net_message
	sub	esp, 20					; 00000014H
	mov	eax, esp
	mov	ecx, DWORD PTR _net_from
	mov	DWORD PTR [eax], ecx
	mov	edx, DWORD PTR _net_from+4
	mov	DWORD PTR [eax+4], edx
	mov	ecx, DWORD PTR _net_from+8
	mov	DWORD PTR [eax+8], ecx
	mov	edx, DWORD PTR _net_from+12
	mov	DWORD PTR [eax+12], edx
	mov	ecx, DWORD PTR _net_from+16
	mov	DWORD PTR [eax+16], ecx
	call	_SV_RemoteCommand
	add	esp, 24					; 00000018H
$LN10@SV_ReadPac:

; 370  : 			}

	jmp	SHORT $LN9@SV_ReadPac
$LN8@SV_ReadPac:

; 371  : 			else SV_ConnectionlessPacket( net_from, &net_message );

	push	OFFSET _net_message
	sub	esp, 20					; 00000014H
	mov	eax, esp
	mov	ecx, DWORD PTR _net_from
	mov	DWORD PTR [eax], ecx
	mov	edx, DWORD PTR _net_from+4
	mov	DWORD PTR [eax+4], edx
	mov	ecx, DWORD PTR _net_from+8
	mov	DWORD PTR [eax+8], ecx
	mov	edx, DWORD PTR _net_from+12
	mov	DWORD PTR [eax+12], edx
	mov	ecx, DWORD PTR _net_from+16
	mov	DWORD PTR [eax+16], ecx
	call	_SV_ConnectionlessPacket
	add	esp, 24					; 00000018H
$LN9@SV_ReadPac:

; 372  : 
; 373  : 			continue;

	jmp	$LN31@SV_ReadPac
$LN7@SV_ReadPac:

; 374  : 		}
; 375  : 
; 376  : 		// read the qport out of the message so we can fix up
; 377  : 		// stupid address translating routers
; 378  : 		MSG_Clear( &net_message );

	push	OFFSET _net_message
	call	_MSG_Clear
	add	esp, 4

; 379  : 		MSG_ReadLong( &net_message );	// sequence number

	push	OFFSET _net_message
	call	_MSG_ReadLong
	add	esp, 4

; 380  : 		MSG_ReadLong( &net_message );	// sequence number

	push	OFFSET _net_message
	call	_MSG_ReadLong
	add	esp, 4

; 381  : 		qport = (int)MSG_ReadShort( &net_message ) & 0xffff;

	push	OFFSET _net_message
	call	_MSG_ReadShort
	add	esp, 4
	and	eax, 65535				; 0000ffffH
	mov	DWORD PTR _qport$[ebp], eax

; 382  : 
; 383  : 		// check for packets from connected clients
; 384  : 		for( i = 0, sv.current_client = svs.clients; i < svs.maxclients; i++, sv.current_client++ )

	mov	DWORD PTR _i$[ebp], 0
	mov	eax, DWORD PTR _svs+33344
	mov	DWORD PTR _sv+40, eax
	jmp	SHORT $LN6@SV_ReadPac
$LN4@SV_ReadPac:
	mov	eax, DWORD PTR _i$[ebp]
	add	eax, 1
	mov	DWORD PTR _i$[ebp], eax
	mov	ecx, DWORD PTR _sv+40
	add	ecx, 289832				; 00046c28H
	mov	DWORD PTR _sv+40, ecx
$LN6@SV_ReadPac:
	mov	eax, DWORD PTR _i$[ebp]
	cmp	eax, DWORD PTR _svs+16
	jge	$LN5@SV_ReadPac

; 385  : 		{
; 386  : 			cl = sv.current_client;

	mov	eax, DWORD PTR _sv+40
	mov	DWORD PTR _cl$[ebp], eax

; 387  : 
; 388  : 			if( cl->state == cs_free || FBitSet( cl->flags, FCL_FAKECLIENT ))

	mov	eax, DWORD PTR _cl$[ebp]
	cmp	DWORD PTR [eax], 0
	je	SHORT $LN12@SV_ReadPac
	mov	eax, DWORD PTR _cl$[ebp]
	mov	ecx, DWORD PTR [eax+40]
	and	ecx, 128				; 00000080H
	je	SHORT $LN11@SV_ReadPac
$LN12@SV_ReadPac:

; 389  : 				continue;

	jmp	SHORT $LN4@SV_ReadPac
$LN11@SV_ReadPac:

; 390  : 
; 391  : 			if( !NET_CompareBaseAdr( net_from, cl->netchan.remote_address ))

	mov	eax, DWORD PTR _cl$[ebp]
	add	eax, 564				; 00000234H
	sub	esp, 20					; 00000014H
	mov	ecx, esp
	mov	edx, DWORD PTR [eax]
	mov	DWORD PTR [ecx], edx
	mov	edx, DWORD PTR [eax+4]
	mov	DWORD PTR [ecx+4], edx
	mov	edx, DWORD PTR [eax+8]
	mov	DWORD PTR [ecx+8], edx
	mov	edx, DWORD PTR [eax+12]
	mov	DWORD PTR [ecx+12], edx
	mov	eax, DWORD PTR [eax+16]
	mov	DWORD PTR [ecx+16], eax
	sub	esp, 20					; 00000014H
	mov	ecx, esp
	mov	edx, DWORD PTR _net_from
	mov	DWORD PTR [ecx], edx
	mov	eax, DWORD PTR _net_from+4
	mov	DWORD PTR [ecx+4], eax
	mov	edx, DWORD PTR _net_from+8
	mov	DWORD PTR [ecx+8], edx
	mov	eax, DWORD PTR _net_from+12
	mov	DWORD PTR [ecx+12], eax
	mov	edx, DWORD PTR _net_from+16
	mov	DWORD PTR [ecx+16], edx
	call	_NET_CompareBaseAdr
	add	esp, 40					; 00000028H
	test	eax, eax
	jne	SHORT $LN13@SV_ReadPac

; 392  : 				continue;

	jmp	$LN4@SV_ReadPac
$LN13@SV_ReadPac:

; 393  : 
; 394  : 			if( cl->netchan.qport != qport )

	mov	eax, DWORD PTR _cl$[ebp]
	mov	ecx, DWORD PTR [eax+584]
	cmp	ecx, DWORD PTR _qport$[ebp]
	je	SHORT $LN14@SV_ReadPac

; 395  : 				continue;

	jmp	$LN4@SV_ReadPac
$LN14@SV_ReadPac:

; 396  : 
; 397  : 			if( cl->netchan.remote_address.port != net_from.port )

	mov	eax, DWORD PTR _cl$[ebp]
	movzx	ecx, WORD PTR [eax+582]
	movzx	edx, WORD PTR _net_from+18
	cmp	ecx, edx
	je	SHORT $LN15@SV_ReadPac

; 398  : 				cl->netchan.remote_address.port = net_from.port;

	mov	eax, DWORD PTR _cl$[ebp]
	mov	cx, WORD PTR _net_from+18
	mov	WORD PTR [eax+582], cx
$LN15@SV_ReadPac:

; 399  : 
; 400  : 			if( Netchan_Process( &cl->netchan, &net_message ))

	push	OFFSET _net_message
	mov	eax, DWORD PTR _cl$[ebp]
	add	eax, 560				; 00000230H
	push	eax
	call	_Netchan_Process
	add	esp, 8
	test	eax, eax
	je	SHORT $LN20@SV_ReadPac

; 401  : 			{	
; 402  : 				if(( svs.maxclients == 1 && !host_limitlocal->value ) || ( cl->state != cs_spawned ))

	cmp	DWORD PTR _svs+16, 1
	jne	SHORT $LN19@SV_ReadPac
	mov	eax, DWORD PTR _host_limitlocal
	movss	xmm0, DWORD PTR [eax+12]
	ucomiss	xmm0, DWORD PTR __real@00000000
	lahf
	test	ah, 68					; 00000044H
	jnp	SHORT $LN18@SV_ReadPac
$LN19@SV_ReadPac:
	mov	eax, DWORD PTR _cl$[ebp]
	cmp	DWORD PTR [eax], 3
	je	SHORT $LN17@SV_ReadPac
$LN18@SV_ReadPac:

; 403  : 					SetBits( cl->flags, FCL_SEND_NET_MESSAGE ); // reply at end of frame

	mov	eax, DWORD PTR _cl$[ebp]
	mov	ecx, DWORD PTR [eax+40]
	or	ecx, 8
	mov	edx, DWORD PTR _cl$[ebp]
	mov	DWORD PTR [edx+40], ecx
$LN17@SV_ReadPac:

; 404  : 
; 405  : 				// this is a valid, sequenced packet, so process it
; 406  : 				if( cl->frames != NULL && cl->state != cs_zombie )

	mov	eax, DWORD PTR _cl$[ebp]
	cmp	DWORD PTR [eax+281884], 0
	je	SHORT $LN20@SV_ReadPac
	mov	eax, DWORD PTR _cl$[ebp]
	cmp	DWORD PTR [eax], 1
	je	SHORT $LN20@SV_ReadPac

; 407  : 				{
; 408  : 					SV_ExecuteClientMessage( cl, &net_message );

	push	OFFSET _net_message
	mov	eax, DWORD PTR _cl$[ebp]
	push	eax
	call	_SV_ExecuteClientMessage
	add	esp, 8

; 409  : 					svgame.globals->frametime = sv.frametime;

	mov	eax, DWORD PTR _svgame+19268
	movss	xmm0, DWORD PTR _sv+32
	movss	DWORD PTR [eax+4], xmm0

; 410  : 					svgame.globals->time = sv.time;

	cvtsd2ss xmm0, QWORD PTR _sv+16
	mov	eax, DWORD PTR _svgame+19268
	movss	DWORD PTR [eax], xmm0
$LN20@SV_ReadPac:

; 411  : 				}
; 412  : 			}
; 413  : 
; 414  : 			// fragmentation/reassembly sending takes priority over all game messages, want this in the future?
; 415  : 			if( Netchan_IncomingReady( &cl->netchan ))

	mov	eax, DWORD PTR _cl$[ebp]
	add	eax, 560				; 00000230H
	push	eax
	call	_Netchan_IncomingReady
	add	esp, 4
	test	eax, eax
	je	$LN27@SV_ReadPac

; 416  : 			{
; 417  : 				if( Netchan_CopyNormalFragments( &cl->netchan, &net_message, &curSize ))

	lea	eax, DWORD PTR _curSize$[ebp]
	push	eax
	push	OFFSET _net_message
	mov	ecx, DWORD PTR _cl$[ebp]
	add	ecx, 560				; 00000230H
	push	ecx
	call	_Netchan_CopyNormalFragments
	add	esp, 12					; 0000000cH
	test	eax, eax
	je	$LN26@SV_ReadPac

; 418  : 				{
; 419  : 					MSG_Init( &net_message, "ClientPacket", net_message_buffer, curSize );

	push	-1
	mov	eax, DWORD PTR _curSize$[ebp]
	push	eax
	push	OFFSET _net_message_buffer
	push	OFFSET ??_C@_0N@KKPPDKKK@ClientPacket@
	push	OFFSET _net_message
	call	_MSG_InitExt
	add	esp, 20					; 00000014H

; 420  : 
; 421  : 					if(( svs.maxclients == 1 && !host_limitlocal->value ) || ( cl->state != cs_spawned ))

	cmp	DWORD PTR _svs+16, 1
	jne	SHORT $LN25@SV_ReadPac
	mov	eax, DWORD PTR _host_limitlocal
	movss	xmm0, DWORD PTR [eax+12]
	ucomiss	xmm0, DWORD PTR __real@00000000
	lahf
	test	ah, 68					; 00000044H
	jnp	SHORT $LN24@SV_ReadPac
$LN25@SV_ReadPac:
	mov	eax, DWORD PTR _cl$[ebp]
	cmp	DWORD PTR [eax], 3
	je	SHORT $LN23@SV_ReadPac
$LN24@SV_ReadPac:

; 422  : 						SetBits( cl->flags, FCL_SEND_NET_MESSAGE ); // reply at end of frame

	mov	eax, DWORD PTR _cl$[ebp]
	mov	ecx, DWORD PTR [eax+40]
	or	ecx, 8
	mov	edx, DWORD PTR _cl$[ebp]
	mov	DWORD PTR [edx+40], ecx
$LN23@SV_ReadPac:

; 423  : 
; 424  : 					// this is a valid, sequenced packet, so process it
; 425  : 					if( cl->frames != NULL && cl->state != cs_zombie )

	mov	eax, DWORD PTR _cl$[ebp]
	cmp	DWORD PTR [eax+281884], 0
	je	SHORT $LN26@SV_ReadPac
	mov	eax, DWORD PTR _cl$[ebp]
	cmp	DWORD PTR [eax], 1
	je	SHORT $LN26@SV_ReadPac

; 426  : 					{
; 427  : 						SV_ExecuteClientMessage( cl, &net_message );

	push	OFFSET _net_message
	mov	eax, DWORD PTR _cl$[ebp]
	push	eax
	call	_SV_ExecuteClientMessage
	add	esp, 8

; 428  : 						svgame.globals->frametime = sv.frametime;

	mov	eax, DWORD PTR _svgame+19268
	movss	xmm0, DWORD PTR _sv+32
	movss	DWORD PTR [eax+4], xmm0

; 429  : 						svgame.globals->time = sv.time;

	cvtsd2ss xmm0, QWORD PTR _sv+16
	mov	eax, DWORD PTR _svgame+19268
	movss	DWORD PTR [eax], xmm0
$LN26@SV_ReadPac:

; 430  : 					}
; 431  : 				}
; 432  : 
; 433  : 				if( Netchan_CopyFileFragments( &cl->netchan, &net_message ))

	push	OFFSET _net_message
	mov	eax, DWORD PTR _cl$[ebp]
	add	eax, 560				; 00000230H
	push	eax
	call	_Netchan_CopyFileFragments
	add	esp, 8
	test	eax, eax
	je	SHORT $LN27@SV_ReadPac

; 434  : 				{
; 435  : 					SV_ProcessFile( cl, cl->netchan.incomingfilename );

	mov	eax, DWORD PTR _cl$[ebp]
	add	eax, 262964				; 00040334H
	push	eax
	mov	ecx, DWORD PTR _cl$[ebp]
	push	ecx
	call	_SV_ProcessFile
	add	esp, 8
$LN27@SV_ReadPac:

; 436  : 				}
; 437  : 			}
; 438  : 			break;

	jmp	SHORT $LN5@SV_ReadPac

; 439  : 		}

	jmp	$LN4@SV_ReadPac
$LN5@SV_ReadPac:

; 440  : 
; 441  : 		if( i != svs.maxclients )

	mov	eax, DWORD PTR _i$[ebp]
	cmp	eax, DWORD PTR _svs+16
	je	SHORT $LN28@SV_ReadPac

; 442  : 			continue;

	jmp	$LN31@SV_ReadPac
$LN28@SV_ReadPac:

; 443  : 	}

	jmp	$LN31@SV_ReadPac
$LN3@SV_ReadPac:

; 444  : 
; 445  : 	sv.current_client = NULL;

	mov	DWORD PTR _sv+40, 0

; 446  : }

	pop	edi
	pop	esi
	pop	ebx
	mov	esp, ebp
	pop	ebp
	ret	0
_SV_ReadPackets ENDP
_TEXT	ENDS
; Function compile flags: /Odtp /ZI
; File D:\DevDragon\XashFE\dev\src\engine\server\sv_main.c
;	COMDAT _SV_CheckCmdTimes
_TEXT	SEGMENT
_i$ = -12						; size = 4
_diff$ = -8						; size = 4
_cl$ = -4						; size = 4
_SV_CheckCmdTimes PROC					; COMDAT

; 226  : {

	push	ebp
	mov	ebp, esp
	sub	esp, 76					; 0000004cH
	push	ebx
	push	esi
	push	edi

; 227  : 	sv_client_t	*cl;
; 228  : 	static double	lastreset = 0;
; 229  : 	float		diff;
; 230  : 	int		i;
; 231  : 
; 232  : 	if( sv_fps.value != 0.0f )

	movss	xmm0, DWORD PTR _sv_fps+12
	ucomiss	xmm0, DWORD PTR __real@00000000
	lahf
	test	ah, 68					; 00000044H
	jnp	SHORT $LN7@SV_CheckCm

; 233  : 	{
; 234  : 		if( sv_fps.value < MIN_FPS )

	cvtss2sd xmm0, DWORD PTR _sv_fps+12
	movsd	xmm1, QWORD PTR __real@4034000000000000
	comisd	xmm1, xmm0
	jbe	SHORT $LN6@SV_CheckCm

; 235  : 			Cvar_SetValue( "sv_fps", MIN_FPS );

	push	ecx
	movss	xmm0, DWORD PTR __real@41a00000
	movss	DWORD PTR [esp], xmm0
	push	OFFSET ??_C@_06JGIFLGEL@sv_fps@
	call	_Cvar_SetValue
	add	esp, 8
$LN6@SV_CheckCm:

; 236  : 
; 237  : 		if( sv_fps.value > MAX_FPS )

	cvtss2sd xmm0, DWORD PTR _sv_fps+12
	comisd	xmm0, QWORD PTR __real@4069000000000000
	jbe	SHORT $LN7@SV_CheckCm

; 238  : 			Cvar_SetValue( "sv_fps", MAX_FPS );

	push	ecx
	movss	xmm0, DWORD PTR __real@43480000
	movss	DWORD PTR [esp], xmm0
	push	OFFSET ??_C@_06JGIFLGEL@sv_fps@
	call	_Cvar_SetValue
	add	esp, 8
$LN7@SV_CheckCm:

; 239  : 	}
; 240  : 
; 241  : 	if( Host_IsLocalGame( ))

	call	_Host_IsLocalGame
	test	eax, eax
	je	SHORT $LN8@SV_CheckCm

; 242  : 		return;

	jmp	$LN3@SV_CheckCm
$LN8@SV_CheckCm:

; 243  : 
; 244  : 	if(( host.realtime - lastreset ) < 1.0 )

	movsd	xmm0, QWORD PTR _host+1440
	subsd	xmm0, QWORD PTR ?lastreset@?1??SV_CheckCmdTimes@@9@9
	movsd	xmm1, QWORD PTR __real@3ff0000000000000
	comisd	xmm1, xmm0
	jbe	SHORT $LN9@SV_CheckCm

; 245  : 		return;

	jmp	$LN3@SV_CheckCm
$LN9@SV_CheckCm:

; 246  : 
; 247  : 	lastreset = host.realtime;

	movsd	xmm0, QWORD PTR _host+1440
	movsd	QWORD PTR ?lastreset@?1??SV_CheckCmdTimes@@9@9, xmm0

; 248  : 
; 249  : 	for( i = 0, cl = svs.clients; i < svs.maxclients; i++, cl++ )

	mov	DWORD PTR _i$[ebp], 0
	mov	eax, DWORD PTR _svs+33344
	mov	DWORD PTR _cl$[ebp], eax
	jmp	SHORT $LN4@SV_CheckCm
$LN2@SV_CheckCm:
	mov	eax, DWORD PTR _i$[ebp]
	add	eax, 1
	mov	DWORD PTR _i$[ebp], eax
	mov	ecx, DWORD PTR _cl$[ebp]
	add	ecx, 289832				; 00046c28H
	mov	DWORD PTR _cl$[ebp], ecx
$LN4@SV_CheckCm:
	mov	eax, DWORD PTR _i$[ebp]
	cmp	eax, DWORD PTR _svs+16
	jge	$LN3@SV_CheckCm

; 250  : 	{
; 251  : 		if( cl->state != cs_spawned )

	mov	eax, DWORD PTR _cl$[ebp]
	cmp	DWORD PTR [eax], 3
	je	SHORT $LN10@SV_CheckCm

; 252  : 			continue;

	jmp	SHORT $LN2@SV_CheckCm
$LN10@SV_CheckCm:

; 253  : 
; 254  : 		if( cl->connecttime == 0.0 )

	mov	eax, DWORD PTR _cl$[ebp]
	movsd	xmm0, QWORD PTR [eax+264912]
	ucomisd	xmm0, QWORD PTR __real@0000000000000000
	lahf
	test	ah, 68					; 00000044H
	jp	SHORT $LN11@SV_CheckCm

; 255  : 		{
; 256  : 			cl->connecttime = host.realtime;

	mov	eax, DWORD PTR _cl$[ebp]
	movsd	xmm0, QWORD PTR _host+1440
	movsd	QWORD PTR [eax+264912], xmm0
$LN11@SV_CheckCm:

; 257  : 		}
; 258  : 
; 259  : 		diff = cl->connecttime + cl->cmdtime - host.realtime;

	mov	eax, DWORD PTR _cl$[ebp]
	mov	ecx, DWORD PTR _cl$[ebp]
	movsd	xmm0, QWORD PTR [eax+264912]
	addsd	xmm0, QWORD PTR [ecx+264920]
	subsd	xmm0, QWORD PTR _host+1440
	cvtsd2ss xmm0, xmm0
	movss	DWORD PTR _diff$[ebp], xmm0

; 260  : 
; 261  : 		if( diff > net_clockwindow->value )

	mov	eax, DWORD PTR _net_clockwindow
	movss	xmm0, DWORD PTR _diff$[ebp]
	comiss	xmm0, DWORD PTR [eax+12]
	jbe	SHORT $LN12@SV_CheckCm

; 262  : 		{
; 263  : 			cl->ignorecmdtime = net_clockwindow->value + host.realtime;

	mov	eax, DWORD PTR _net_clockwindow
	cvtss2sd xmm0, DWORD PTR [eax+12]
	addsd	xmm0, QWORD PTR _host+1440
	mov	ecx, DWORD PTR _cl$[ebp]
	movsd	QWORD PTR [ecx+264928], xmm0

; 264  : 			cl->cmdtime = host.realtime - cl->connecttime;

	mov	eax, DWORD PTR _cl$[ebp]
	movsd	xmm0, QWORD PTR _host+1440
	subsd	xmm0, QWORD PTR [eax+264912]
	mov	ecx, DWORD PTR _cl$[ebp]
	movsd	QWORD PTR [ecx+264920], xmm0

; 265  : 		}

	jmp	SHORT $LN14@SV_CheckCm
$LN12@SV_CheckCm:

; 266  : 		else if( diff < -net_clockwindow->value )

	mov	eax, DWORD PTR _net_clockwindow
	movss	xmm0, DWORD PTR [eax+12]
	xorps	xmm0, DWORD PTR __xmm@80000000800000008000000080000000
	comiss	xmm0, DWORD PTR _diff$[ebp]
	jbe	SHORT $LN14@SV_CheckCm

; 267  : 		{
; 268  : 			cl->cmdtime = host.realtime - cl->connecttime;

	mov	eax, DWORD PTR _cl$[ebp]
	movsd	xmm0, QWORD PTR _host+1440
	subsd	xmm0, QWORD PTR [eax+264912]
	mov	ecx, DWORD PTR _cl$[ebp]
	movsd	QWORD PTR [ecx+264920], xmm0
$LN14@SV_CheckCm:

; 269  : 		}
; 270  : 	}

	jmp	$LN2@SV_CheckCm
$LN3@SV_CheckCm:

; 271  : }

	pop	edi
	pop	esi
	pop	ebx
	mov	esp, ebp
	pop	ebp
	ret	0
_SV_CheckCmdTimes ENDP
_TEXT	ENDS
; Function compile flags: /Odtp /ZI
; File D:\DevDragon\XashFE\dev\src\engine\server\sv_main.c
;	COMDAT _SV_HasActivePlayers
_TEXT	SEGMENT
_i$ = -4						; size = 4
_SV_HasActivePlayers PROC				; COMDAT

; 137  : {

	push	ebp
	mov	ebp, esp
	sub	esp, 68					; 00000044H
	push	ebx
	push	esi
	push	edi

; 138  : 	int	i;
; 139  : 
; 140  : 	// server inactive
; 141  : 	if( !svs.clients ) return false;

	cmp	DWORD PTR _svs+33344, 0
	jne	SHORT $LN5@SV_HasActi
	xor	eax, eax
	jmp	SHORT $LN1@SV_HasActi
$LN5@SV_HasActi:

; 142  : 
; 143  : 	for( i = 0; i < svs.maxclients; i++ )

	mov	DWORD PTR _i$[ebp], 0
	jmp	SHORT $LN4@SV_HasActi
$LN2@SV_HasActi:
	mov	eax, DWORD PTR _i$[ebp]
	add	eax, 1
	mov	DWORD PTR _i$[ebp], eax
$LN4@SV_HasActi:
	mov	eax, DWORD PTR _i$[ebp]
	cmp	eax, DWORD PTR _svs+16
	jge	SHORT $LN3@SV_HasActi

; 144  : 	{
; 145  : 		if( svs.clients[i].state == cs_spawned )

	imul	eax, DWORD PTR _i$[ebp], 289832
	mov	ecx, DWORD PTR _svs+33344
	cmp	DWORD PTR [ecx+eax], 3
	jne	SHORT $LN6@SV_HasActi

; 146  : 			return true;

	mov	eax, 1
	jmp	SHORT $LN1@SV_HasActi
$LN6@SV_HasActi:

; 147  : 	}

	jmp	SHORT $LN2@SV_HasActi
$LN3@SV_HasActi:

; 148  : 	return false;

	xor	eax, eax
$LN1@SV_HasActi:

; 149  : }

	pop	edi
	pop	esi
	pop	ebx
	mov	esp, ebp
	pop	ebp
	ret	0
_SV_HasActivePlayers ENDP
_TEXT	ENDS
; Function compile flags: /Odtp /ZI
; File D:\DevDragon\XashFE\dev\src\engine\server\sv_main.c
;	COMDAT _Master_Shutdown
_TEXT	SEGMENT
_adr$ = -24						; size = 20
__$ArrayPad$ = -4					; size = 4
_Master_Shutdown PROC					; COMDAT

; 702  : {

	push	ebp
	mov	ebp, esp
	sub	esp, 88					; 00000058H
	mov	eax, DWORD PTR ___security_cookie
	xor	eax, ebp
	mov	DWORD PTR __$ArrayPad$[ebp], eax
	push	ebx
	push	esi
	push	edi

; 703  : 	netadr_t	adr;
; 704  : 
; 705  : 	NET_Config( true ); // allow remote

	push	1
	call	_NET_Config
	add	esp, 4

; 706  : 
; 707  : 	if( !NET_StringToAdr( MASTERSERVER_ADR, &adr ))

	lea	eax, DWORD PTR _adr$[ebp]
	push	eax
	push	OFFSET ??_C@_0BB@FHKNHLNB@ms?4xash?4su?327010@
	call	_NET_StringToAdr
	add	esp, 8
	test	eax, eax
	jne	SHORT $LN2@Master_Shu

; 708  : 		Con_Printf( "can't resolve addr: %s\n", MASTERSERVER_ADR );

	push	OFFSET ??_C@_0BB@FHKNHLNB@ms?4xash?4su?327010@
	push	OFFSET ??_C@_0BI@POECJJJO@can?8t?5resolve?5addr?3?5?$CFs?6@
	call	_Con_Printf
	add	esp, 8
	jmp	SHORT $LN1@Master_Shu
$LN2@Master_Shu:

; 709  : 	else NET_SendPacket( NS_SERVER, 2, "\x62\x0A", adr );

	sub	esp, 20					; 00000014H
	mov	eax, esp
	mov	ecx, DWORD PTR _adr$[ebp]
	mov	DWORD PTR [eax], ecx
	mov	edx, DWORD PTR _adr$[ebp+4]
	mov	DWORD PTR [eax+4], edx
	mov	ecx, DWORD PTR _adr$[ebp+8]
	mov	DWORD PTR [eax+8], ecx
	mov	edx, DWORD PTR _adr$[ebp+12]
	mov	DWORD PTR [eax+12], edx
	mov	ecx, DWORD PTR _adr$[ebp+16]
	mov	DWORD PTR [eax+16], ecx
	push	OFFSET ??_C@_02LBACNBCJ@b?6@
	push	2
	push	1
	call	_NET_SendPacket
	add	esp, 32					; 00000020H
$LN1@Master_Shu:

; 710  : }

	pop	edi
	pop	esi
	pop	ebx
	mov	ecx, DWORD PTR __$ArrayPad$[ebp]
	xor	ecx, ebp
	call	@__security_check_cookie@4
	mov	esp, ebp
	pop	ebp
	ret	0
_Master_Shutdown ENDP
_TEXT	ENDS
; Function compile flags: /Odtp /ZI
; File D:\DevDragon\XashFE\dev\src\engine\server\sv_main.c
;	COMDAT _Master_Heartbeat
_TEXT	SEGMENT
_Master_Heartbeat PROC					; COMDAT

; 678  : {

	push	ebp
	mov	ebp, esp
	sub	esp, 64					; 00000040H
	push	ebx
	push	esi
	push	edi

; 679  : 	if( !public_server->value || svs.maxclients == 1 )

	mov	eax, DWORD PTR _public_server
	movss	xmm0, DWORD PTR [eax+12]
	ucomiss	xmm0, DWORD PTR __real@00000000
	lahf
	test	ah, 68					; 00000044H
	jnp	SHORT $LN3@Master_Hea
	cmp	DWORD PTR _svs+16, 1
	jne	SHORT $LN2@Master_Hea
$LN3@Master_Hea:

; 680  : 		return; // only public servers send heartbeats

	jmp	SHORT $LN1@Master_Hea
$LN2@Master_Hea:

; 681  : 
; 682  : 	// check for time wraparound
; 683  : 	if( svs.last_heartbeat > host.realtime )

	movsd	xmm0, QWORD PTR _svs+33368
	comisd	xmm0, QWORD PTR _host+1440
	jbe	SHORT $LN4@Master_Hea

; 684  : 		svs.last_heartbeat = host.realtime;

	movsd	xmm0, QWORD PTR _host+1440
	movsd	QWORD PTR _svs+33368, xmm0
$LN4@Master_Hea:

; 685  : 
; 686  : 	if(( host.realtime - svs.last_heartbeat ) < HEARTBEAT_SECONDS )

	movsd	xmm0, QWORD PTR _host+1440
	subsd	xmm0, QWORD PTR _svs+33368
	movsd	xmm1, QWORD PTR __real@4072c00000000000
	comisd	xmm1, xmm0
	jbe	SHORT $LN5@Master_Hea

; 687  : 		return; // not time to send yet

	jmp	SHORT $LN1@Master_Hea
$LN5@Master_Hea:

; 688  : 
; 689  : 	svs.last_heartbeat = host.realtime;

	movsd	xmm0, QWORD PTR _host+1440
	movsd	QWORD PTR _svs+33368, xmm0

; 690  : 
; 691  : 	Master_Add();

	call	_Master_Add
$LN1@Master_Hea:

; 692  : }

	pop	edi
	pop	esi
	pop	ebx
	mov	esp, ebp
	pop	ebp
	ret	0
_Master_Heartbeat ENDP
_TEXT	ENDS
; Function compile flags: /Odtp /ZI
; File D:\DevDragon\XashFE\dev\src\engine\server\sv_main.c
;	COMDAT _Master_Add
_TEXT	SEGMENT
_adr$ = -24						; size = 20
__$ArrayPad$ = -4					; size = 4
_Master_Add PROC					; COMDAT

; 659  : {

	push	ebp
	mov	ebp, esp
	sub	esp, 88					; 00000058H
	mov	eax, DWORD PTR ___security_cookie
	xor	eax, ebp
	mov	DWORD PTR __$ArrayPad$[ebp], eax
	push	ebx
	push	esi
	push	edi

; 660  : 	netadr_t	adr;
; 661  : 
; 662  : 	NET_Config( true ); // allow remote

	push	1
	call	_NET_Config
	add	esp, 4

; 663  : 
; 664  : 	if( !NET_StringToAdr( MASTERSERVER_ADR, &adr ))

	lea	eax, DWORD PTR _adr$[ebp]
	push	eax
	push	OFFSET ??_C@_0BB@FHKNHLNB@ms?4xash?4su?327010@
	call	_NET_StringToAdr
	add	esp, 8
	test	eax, eax
	jne	SHORT $LN2@Master_Add

; 665  : 		Con_Printf( "can't resolve adr: %s\n", MASTERSERVER_ADR );

	push	OFFSET ??_C@_0BB@FHKNHLNB@ms?4xash?4su?327010@
	push	OFFSET ??_C@_0BH@BKBAMPNP@can?8t?5resolve?5adr?3?5?$CFs?6@
	call	_Con_Printf
	add	esp, 8
	jmp	SHORT $LN1@Master_Add
$LN2@Master_Add:

; 666  : 	else NET_SendPacket( NS_SERVER, 2, "q\xFF", adr );

	sub	esp, 20					; 00000014H
	mov	eax, esp
	mov	ecx, DWORD PTR _adr$[ebp]
	mov	DWORD PTR [eax], ecx
	mov	edx, DWORD PTR _adr$[ebp+4]
	mov	DWORD PTR [eax+4], edx
	mov	ecx, DWORD PTR _adr$[ebp+8]
	mov	DWORD PTR [eax+8], ecx
	mov	edx, DWORD PTR _adr$[ebp+12]
	mov	DWORD PTR [eax+12], edx
	mov	ecx, DWORD PTR _adr$[ebp+16]
	mov	DWORD PTR [eax+16], ecx
	push	OFFSET ??_C@_02MGKJNJPI@q?$PP@
	push	2
	push	1
	call	_NET_SendPacket
	add	esp, 32					; 00000020H
$LN1@Master_Add:

; 667  : }

	pop	edi
	pop	esi
	pop	ebx
	mov	ecx, DWORD PTR __$ArrayPad$[ebp]
	xor	ecx, ebp
	call	@__security_check_cookie@4
	mov	esp, ebp
	pop	ebp
	ret	0
_Master_Add ENDP
_TEXT	ENDS
; Function compile flags: /Odtp /ZI
; File D:\DevDragon\XashFE\dev\src\engine\server\sv_main.c
;	COMDAT _SV_FreeClients
_TEXT	SEGMENT
_SV_FreeClients PROC					; COMDAT

; 940  : {

	push	ebp
	mov	ebp, esp
	sub	esp, 64					; 00000040H
	push	ebx
	push	esi
	push	edi

; 941  : 	if( svs.maxclients != 0 )

	cmp	DWORD PTR _svs+16, 0
	je	$LN1@SV_FreeCli

; 942  : 	{
; 943  : 		// free server static data
; 944  : 		if( svs.clients )

	cmp	DWORD PTR _svs+33344, 0
	je	SHORT $LN3@SV_FreeCli

; 945  : 		{
; 946  : 			Z_Free( svs.clients );

	cmp	DWORD PTR _svs+33344, 0
	je	SHORT $LN4@SV_FreeCli
	mov	eax, DWORD PTR ?__LINE__Var@?0??SV_FreeClients@@9@9
	add	eax, 6
	push	eax
	push	OFFSET ??_C@_0DE@PHIPFMKH@D?3?2DevDragon?2XashFE?2dev?2src?2eng@
	mov	ecx, DWORD PTR _svs+33344
	push	ecx
	call	__Mem_Free
	add	esp, 12					; 0000000cH
$LN4@SV_FreeCli:

; 947  : 			svs.clients = NULL;

	mov	DWORD PTR _svs+33344, 0
$LN3@SV_FreeCli:

; 948  : 		}
; 949  : 
; 950  : 		if( svs.packet_entities )

	cmp	DWORD PTR _svs+33356, 0
	je	SHORT $LN1@SV_FreeCli

; 951  : 		{
; 952  : 			Z_Free( svs.packet_entities );

	cmp	DWORD PTR _svs+33356, 0
	je	SHORT $LN6@SV_FreeCli
	mov	eax, DWORD PTR ?__LINE__Var@?0??SV_FreeClients@@9@9
	add	eax, 12					; 0000000cH
	push	eax
	push	OFFSET ??_C@_0DE@PHIPFMKH@D?3?2DevDragon?2XashFE?2dev?2src?2eng@
	mov	ecx, DWORD PTR _svs+33356
	push	ecx
	call	__Mem_Free
	add	esp, 12					; 0000000cH
$LN6@SV_FreeCli:

; 953  : 			svs.packet_entities = NULL;

	mov	DWORD PTR _svs+33356, 0

; 954  : 			svs.num_client_entities = 0;

	mov	DWORD PTR _svs+33348, 0

; 955  : 			svs.next_client_entities = 0;

	mov	DWORD PTR _svs+33352, 0
$LN1@SV_FreeCli:

; 956  : 		}
; 957  : 	}
; 958  : }

	pop	edi
	pop	esi
	pop	ebx
	mov	esp, ebp
	pop	ebp
	ret	0
_SV_FreeClients ENDP
_TEXT	ENDS
; Function compile flags: /Odtp /ZI
; File D:\DevDragon\XashFE\dev\src\engine\server\sv_main.c
;	COMDAT _SV_IsSimulating
_TEXT	SEGMENT
_SV_IsSimulating PROC					; COMDAT

; 537  : {

	push	ebp
	mov	ebp, esp
	sub	esp, 64					; 00000040H
	push	ebx
	push	esi
	push	edi

; 538  : 	if( sv.background && SV_Active() && CL_Active())

	cmp	DWORD PTR _sv+4, 0
	je	SHORT $LN2@SV_IsSimul
	call	_SV_Active
	test	eax, eax
	je	SHORT $LN2@SV_IsSimul
	call	_CL_Active
	test	eax, eax
	je	SHORT $LN2@SV_IsSimul

; 539  : 	{
; 540  : 		if( CL_IsInConsole( ))

	call	_CL_IsInConsole
	test	eax, eax
	je	SHORT $LN3@SV_IsSimul

; 541  : 			return false;

	xor	eax, eax
	jmp	SHORT $LN1@SV_IsSimul
$LN3@SV_IsSimul:

; 542  : 		return true; // force simulating for background map

	mov	eax, 1
	jmp	SHORT $LN1@SV_IsSimul
$LN2@SV_IsSimul:

; 543  : 	}
; 544  : 
; 545  : 	if( !SV_HasActivePlayers( ))

	call	_SV_HasActivePlayers
	test	eax, eax
	jne	SHORT $LN4@SV_IsSimul

; 546  : 		return false;

	xor	eax, eax
	jmp	SHORT $LN1@SV_IsSimul
$LN4@SV_IsSimul:

; 547  : 
; 548  : 	if( host.type == HOST_DEDICATED )

	cmp	DWORD PTR _host+164, 1
	jne	SHORT $LN5@SV_IsSimul

; 549  : 		return true; // always active for dedicated servers

	mov	eax, 1
	jmp	SHORT $LN1@SV_IsSimul
$LN5@SV_IsSimul:

; 550  : 
; 551  : 	// allow to freeze everything in singleplayer
; 552  : 	if( svs.maxclients <= 1 && sv.playersonly )

	cmp	DWORD PTR _svs+16, 1
	jg	SHORT $LN6@SV_IsSimul
	cmp	DWORD PTR _sv+2595648, 0
	je	SHORT $LN6@SV_IsSimul

; 553  : 		return false;

	xor	eax, eax
	jmp	SHORT $LN1@SV_IsSimul
$LN6@SV_IsSimul:

; 554  : 
; 555  : 	if( !sv.paused && CL_IsInGame( ))

	cmp	DWORD PTR _sv+2595656, 0
	jne	SHORT $LN7@SV_IsSimul
	call	_CL_IsInGame
	test	eax, eax
	je	SHORT $LN7@SV_IsSimul

; 556  : 		return true;

	mov	eax, 1
	jmp	SHORT $LN1@SV_IsSimul
$LN7@SV_IsSimul:

; 557  : 
; 558  : 	return false;

	xor	eax, eax
$LN1@SV_IsSimul:

; 559  : }

	pop	edi
	pop	esi
	pop	ebx
	mov	esp, ebp
	pop	ebp
	ret	0
_SV_IsSimulating ENDP
_TEXT	ENDS
; Function compile flags: /Odtp /ZI
; File D:\DevDragon\XashFE\dev\src\engine\server\sv_main.c
;	COMDAT _SV_AddToMaster
_TEXT	SEGMENT
tv168 = -348						; size = 4
_len$ = -280						; size = 4
_index$ = -276						; size = 4
_bots$ = -272						; size = 4
_clients$ = -268					; size = 4
_s$ = -264						; size = 256
_challenge$ = -8					; size = 4
__$ArrayPad$ = -4					; size = 4
_from$ = 8						; size = 20
_msg$ = 28						; size = 4
_SV_AddToMaster PROC					; COMDAT

; 721  : {

	push	ebp
	mov	ebp, esp
	sub	esp, 348				; 0000015cH
	mov	eax, DWORD PTR ___security_cookie
	xor	eax, ebp
	mov	DWORD PTR __$ArrayPad$[ebp], eax
	push	ebx
	push	esi
	push	edi

; 722  : 	uint	challenge;
; 723  : 	char	s[MAX_INFO_STRING] = "0\n"; // skip 2 bytes of header

	mov	ax, WORD PTR ??_C@_02NODKCLPH@0?6@
	mov	WORD PTR _s$[ebp], ax
	mov	cl, BYTE PTR ??_C@_02NODKCLPH@0?6@+2
	mov	BYTE PTR _s$[ebp+2], cl
	push	253					; 000000fdH
	push	0
	lea	eax, DWORD PTR _s$[ebp+3]
	push	eax
	call	_memset
	add	esp, 12					; 0000000cH

; 724  : 	int	clients = 0, bots = 0, index;

	mov	DWORD PTR _clients$[ebp], 0
	mov	DWORD PTR _bots$[ebp], 0

; 725  : 	int	len = sizeof( s );

	mov	DWORD PTR _len$[ebp], 256		; 00000100H

; 726  : 
; 727  : 	if( svs.clients )

	cmp	DWORD PTR _svs+33344, 0
	je	SHORT $LN5@SV_AddToMa

; 728  : 	{
; 729  : 		for( index = 0; index < svs.maxclients; index++ )

	mov	DWORD PTR _index$[ebp], 0
	jmp	SHORT $LN4@SV_AddToMa
$LN2@SV_AddToMa:
	mov	eax, DWORD PTR _index$[ebp]
	add	eax, 1
	mov	DWORD PTR _index$[ebp], eax
$LN4@SV_AddToMa:
	mov	eax, DWORD PTR _index$[ebp]
	cmp	eax, DWORD PTR _svs+16
	jge	SHORT $LN5@SV_AddToMa

; 730  : 		{
; 731  : 			if( svs.clients[index].state >= cs_connected )

	imul	eax, DWORD PTR _index$[ebp], 289832
	mov	ecx, DWORD PTR _svs+33344
	cmp	DWORD PTR [ecx+eax], 2
	jl	SHORT $LN6@SV_AddToMa

; 732  : 			{
; 733  : 				if( FBitSet( svs.clients[index].flags, FCL_FAKECLIENT ))

	imul	eax, DWORD PTR _index$[ebp], 289832
	mov	ecx, DWORD PTR _svs+33344
	mov	edx, DWORD PTR [ecx+eax+40]
	and	edx, 128				; 00000080H
	je	SHORT $LN7@SV_AddToMa

; 734  : 					bots++;

	mov	eax, DWORD PTR _bots$[ebp]
	add	eax, 1
	mov	DWORD PTR _bots$[ebp], eax
	jmp	SHORT $LN6@SV_AddToMa
$LN7@SV_AddToMa:

; 735  : 				else clients++;

	mov	eax, DWORD PTR _clients$[ebp]
	add	eax, 1
	mov	DWORD PTR _clients$[ebp], eax
$LN6@SV_AddToMa:

; 736  : 			}
; 737  : 		}

	jmp	SHORT $LN2@SV_AddToMa
$LN5@SV_AddToMa:

; 738  : 	}
; 739  : 
; 740  : 	challenge = MSG_ReadUBitLong( msg, sizeof( uint ) << 3 );

	push	32					; 00000020H
	mov	eax, DWORD PTR _msg$[ebp]
	push	eax
	call	_MSG_ReadUBitLong
	add	esp, 8
	mov	DWORD PTR _challenge$[ebp], eax

; 741  : 
; 742  : 	Info_SetValueForKey( s, "protocol", va( "%d", PROTOCOL_VERSION ), len ); // protocol version

	mov	eax, DWORD PTR _len$[ebp]
	push	eax
	push	49					; 00000031H
	push	OFFSET ??_C@_02DPKJAMEF@?$CFd@
	call	_va
	add	esp, 8
	push	eax
	push	OFFSET ??_C@_08FCFPNNHF@protocol@
	lea	ecx, DWORD PTR _s$[ebp]
	push	ecx
	call	_Info_SetValueForKey
	add	esp, 16					; 00000010H

; 743  : 	Info_SetValueForKey( s, "challenge", va( "%u", challenge ), len ); // challenge number

	mov	eax, DWORD PTR _len$[ebp]
	push	eax
	mov	ecx, DWORD PTR _challenge$[ebp]
	push	ecx
	push	OFFSET ??_C@_02GMHACPFF@?$CFu@
	call	_va
	add	esp, 8
	push	eax
	push	OFFSET ??_C@_09DBEGHIJJ@challenge@
	lea	edx, DWORD PTR _s$[ebp]
	push	edx
	call	_Info_SetValueForKey
	add	esp, 16					; 00000010H

; 744  : 	Info_SetValueForKey( s, "players", va( "%d", clients ), len ); // current player number, without bots

	mov	eax, DWORD PTR _len$[ebp]
	push	eax
	mov	ecx, DWORD PTR _clients$[ebp]
	push	ecx
	push	OFFSET ??_C@_02DPKJAMEF@?$CFd@
	call	_va
	add	esp, 8
	push	eax
	push	OFFSET ??_C@_07BCGOFIOM@players@
	lea	edx, DWORD PTR _s$[ebp]
	push	edx
	call	_Info_SetValueForKey
	add	esp, 16					; 00000010H

; 745  : 	Info_SetValueForKey( s, "max", va( "%d", svs.maxclients ), len ); // max_players

	mov	eax, DWORD PTR _len$[ebp]
	push	eax
	mov	ecx, DWORD PTR _svs+16
	push	ecx
	push	OFFSET ??_C@_02DPKJAMEF@?$CFd@
	call	_va
	add	esp, 8
	push	eax
	push	OFFSET ??_C@_03LJAEFNNE@max@
	lea	edx, DWORD PTR _s$[ebp]
	push	edx
	call	_Info_SetValueForKey
	add	esp, 16					; 00000010H

; 746  : 	Info_SetValueForKey( s, "bots", va( "%d", bots ), len ); // bot count

	mov	eax, DWORD PTR _len$[ebp]
	push	eax
	mov	ecx, DWORD PTR _bots$[ebp]
	push	ecx
	push	OFFSET ??_C@_02DPKJAMEF@?$CFd@
	call	_va
	add	esp, 8
	push	eax
	push	OFFSET ??_C@_04OOIACBCD@bots@
	lea	edx, DWORD PTR _s$[ebp]
	push	edx
	call	_Info_SetValueForKey
	add	esp, 16					; 00000010H

; 747  : 	Info_SetValueForKey( s, "gamedir", GI->gamedir, len ); // gamedir

	mov	eax, DWORD PTR _len$[ebp]
	push	eax
	mov	ecx, DWORD PTR _SI+768
	add	ecx, 128				; 00000080H
	push	ecx
	push	OFFSET ??_C@_07GGMBKBFD@gamedir@
	lea	edx, DWORD PTR _s$[ebp]
	push	edx
	call	_Info_SetValueForKey
	add	esp, 16					; 00000010H

; 748  : 	Info_SetValueForKey( s, "map", sv.name, len ); // current map

	mov	eax, DWORD PTR _len$[ebp]
	push	eax
	push	OFFSET _sv+56
	push	OFFSET ??_C@_03HBNNNHNM@map@
	lea	ecx, DWORD PTR _s$[ebp]
	push	ecx
	call	_Info_SetValueForKey
	add	esp, 16					; 00000010H

; 749  : 	Info_SetValueForKey( s, "type", (host.type == HOST_DEDICATED) ? "d" : "l", len ); // dedicated or local

	cmp	DWORD PTR _host+164, 1
	jne	SHORT $LN10@SV_AddToMa
	mov	DWORD PTR tv168[ebp], OFFSET ??_C@_01LPLHEDKD@d@
	jmp	SHORT $LN11@SV_AddToMa
$LN10@SV_AddToMa:
	mov	DWORD PTR tv168[ebp], OFFSET ??_C@_01HHGOMJKL@l@
$LN11@SV_AddToMa:
	mov	eax, DWORD PTR _len$[ebp]
	push	eax
	mov	ecx, DWORD PTR tv168[ebp]
	push	ecx
	push	OFFSET ??_C@_04GPMDFGEJ@type@
	lea	edx, DWORD PTR _s$[ebp]
	push	edx
	call	_Info_SetValueForKey
	add	esp, 16					; 00000010H

; 750  : 	Info_SetValueForKey( s, "password", "0", len ); // is password set

	mov	eax, DWORD PTR _len$[ebp]
	push	eax
	push	OFFSET ??_C@_01GBGANLPD@0@
	push	OFFSET ??_C@_08NLHBPEGP@password@
	lea	ecx, DWORD PTR _s$[ebp]
	push	ecx
	call	_Info_SetValueForKey
	add	esp, 16					; 00000010H

; 751  : 	Info_SetValueForKey( s, "os", "w", len ); // Windows

	mov	eax, DWORD PTR _len$[ebp]
	push	eax
	push	OFFSET ??_C@_01NOFIACDB@w@
	push	OFFSET ??_C@_02EHCHIAMF@os@
	lea	ecx, DWORD PTR _s$[ebp]
	push	ecx
	call	_Info_SetValueForKey
	add	esp, 16					; 00000010H

; 752  : 	Info_SetValueForKey( s, "secure", "0", len ); // server anti-cheat

	mov	eax, DWORD PTR _len$[ebp]
	push	eax
	push	OFFSET ??_C@_01GBGANLPD@0@
	push	OFFSET ??_C@_06CKKGAKDB@secure@
	lea	ecx, DWORD PTR _s$[ebp]
	push	ecx
	call	_Info_SetValueForKey
	add	esp, 16					; 00000010H

; 753  : 	Info_SetValueForKey( s, "lan", "0", len ); // LAN servers doesn't send info to master

	mov	eax, DWORD PTR _len$[ebp]
	push	eax
	push	OFFSET ??_C@_01GBGANLPD@0@
	push	OFFSET ??_C@_03BNCAIPGG@lan@
	lea	ecx, DWORD PTR _s$[ebp]
	push	ecx
	call	_Info_SetValueForKey
	add	esp, 16					; 00000010H

; 754  : 	Info_SetValueForKey( s, "version", va( "%s", XASH_VERSION ), len ); // server region. 255 -- all regions

	mov	eax, DWORD PTR _len$[ebp]
	push	eax
	push	OFFSET ??_C@_04PNCPDLMM@0?499@
	push	OFFSET ??_C@_02DKCKIIND@?$CFs@
	call	_va
	add	esp, 8
	push	eax
	push	OFFSET ??_C@_07CPCPJPKL@version@
	lea	ecx, DWORD PTR _s$[ebp]
	push	ecx
	call	_Info_SetValueForKey
	add	esp, 16					; 00000010H

; 755  : 	Info_SetValueForKey( s, "region", "255", len ); // server region. 255 -- all regions

	mov	eax, DWORD PTR _len$[ebp]
	push	eax
	push	OFFSET ??_C@_03EAIPFAE@255@
	push	OFFSET ??_C@_06JEJEKGIK@region@
	lea	ecx, DWORD PTR _s$[ebp]
	push	ecx
	call	_Info_SetValueForKey
	add	esp, 16					; 00000010H

; 756  : 	Info_SetValueForKey( s, "product", GI->gamefolder, len ); // product? Where is the difference with gamedir?

	mov	eax, DWORD PTR _len$[ebp]
	push	eax
	mov	ecx, DWORD PTR _SI+768
	push	ecx
	push	OFFSET ??_C@_07IFEJIFCD@product@
	lea	edx, DWORD PTR _s$[ebp]
	push	edx
	call	_Info_SetValueForKey
	add	esp, 16					; 00000010H

; 757  : 
; 758  : 	NET_SendPacket( NS_SERVER, Q_strlen( s ), s, from );

	sub	esp, 20					; 00000014H
	mov	eax, esp
	mov	ecx, DWORD PTR _from$[ebp]
	mov	DWORD PTR [eax], ecx
	mov	edx, DWORD PTR _from$[ebp+4]
	mov	DWORD PTR [eax+4], edx
	mov	ecx, DWORD PTR _from$[ebp+8]
	mov	DWORD PTR [eax+8], ecx
	mov	edx, DWORD PTR _from$[ebp+12]
	mov	DWORD PTR [eax+12], edx
	mov	ecx, DWORD PTR _from$[ebp+16]
	mov	DWORD PTR [eax+16], ecx
	lea	edx, DWORD PTR _s$[ebp]
	push	edx
	lea	eax, DWORD PTR _s$[ebp]
	push	eax
	call	_Q_strlen
	add	esp, 4
	push	eax
	push	1
	call	_NET_SendPacket
	add	esp, 32					; 00000020H

; 759  : }

	pop	edi
	pop	esi
	pop	ebx
	mov	ecx, DWORD PTR __$ArrayPad$[ebp]
	xor	ecx, ebp
	call	@__security_check_cookie@4
	mov	esp, ebp
	pop	ebp
	ret	0
_SV_AddToMaster ENDP
_TEXT	ENDS
; Function compile flags: /Odtp /ZI
; File D:\DevDragon\XashFE\dev\src\engine\server\sv_main.c
;	COMDAT _SV_ProcessFile
_TEXT	SEGMENT
_bError$ = -40						; size = 4
_bFound$ = -36						; size = 4
_md5$ = -32						; size = 16
_next$ = -16						; size = 4
_resource$ = -12					; size = 4
_pList$ = -8						; size = 4
__$ArrayPad$ = -4					; size = 4
_cl$ = 8						; size = 4
_filename$ = 12						; size = 4
_SV_ProcessFile PROC					; COMDAT

; 274  : {

	push	ebp
	mov	ebp, esp
	sub	esp, 104				; 00000068H
	mov	eax, DWORD PTR ___security_cookie
	xor	eax, ebp
	mov	DWORD PTR __$ArrayPad$[ebp], eax
	push	ebx
	push	esi
	push	edi

; 275  : 	customization_t	*pList;
; 276  : 	resource_t	*resource;
; 277  : 	resource_t	*next;
; 278  : 	byte		md5[16];
; 279  : 	qboolean		bFound;
; 280  : 	qboolean		bError;
; 281  : 
; 282  : 	if( filename[0] != '!' )

	mov	eax, 1
	imul	ecx, eax, 0
	mov	edx, DWORD PTR _filename$[ebp]
	movsx	eax, BYTE PTR [edx+ecx]
	cmp	eax, 33					; 00000021H
	je	SHORT $LN8@SV_Process

; 283  : 	{
; 284  : 		Con_Printf( "Ignoring non-customization file upload of %s\n", filename );

	mov	eax, DWORD PTR _filename$[ebp]
	push	eax
	push	OFFSET ??_C@_0CO@FMEKEEEI@Ignoring?5non?9customization?5file@
	call	_Con_Printf
	add	esp, 8

; 285  : 		return;

	jmp	$LN1@SV_Process
$LN8@SV_Process:

; 286  : 	}
; 287  : 
; 288  : 	COM_HexConvert( filename + 4, 32, md5 );

	lea	eax, DWORD PTR _md5$[ebp]
	push	eax
	push	32					; 00000020H
	mov	ecx, DWORD PTR _filename$[ebp]
	add	ecx, 4
	push	ecx
	call	_COM_HexConvert
	add	esp, 12					; 0000000cH

; 289  : 
; 290  : 	for( resource = cl->resourcesneeded.pNext; resource != &cl->resourcesneeded; resource = next )

	mov	eax, DWORD PTR _cl$[ebp]
	mov	ecx, DWORD PTR [eax+264848]
	mov	DWORD PTR _resource$[ebp], ecx
	jmp	SHORT $LN4@SV_Process
$LN2@SV_Process:
	mov	eax, DWORD PTR _next$[ebp]
	mov	DWORD PTR _resource$[ebp], eax
$LN4@SV_Process:
	mov	eax, DWORD PTR _cl$[ebp]
	add	eax, 264720				; 00040a10H
	cmp	DWORD PTR _resource$[ebp], eax
	je	SHORT $LN3@SV_Process

; 291  : 	{
; 292  : 		next = resource->pNext;

	mov	eax, DWORD PTR _resource$[ebp]
	mov	ecx, DWORD PTR [eax+128]
	mov	DWORD PTR _next$[ebp], ecx

; 293  : 
; 294  : 		if( !memcmp( resource->rgucMD5_hash, md5, 16 ))

	push	16					; 00000010H
	lea	eax, DWORD PTR _md5$[ebp]
	push	eax
	mov	ecx, DWORD PTR _resource$[ebp]
	add	ecx, 77					; 0000004dH
	push	ecx
	call	_memcmp
	add	esp, 12					; 0000000cH
	test	eax, eax
	jne	SHORT $LN9@SV_Process

; 295  : 			break;

	jmp	SHORT $LN3@SV_Process
$LN9@SV_Process:

; 296  : 	}

	jmp	SHORT $LN2@SV_Process
$LN3@SV_Process:

; 297  : 
; 298  : 	if( resource == &cl->resourcesneeded )

	mov	eax, DWORD PTR _cl$[ebp]
	add	eax, 264720				; 00040a10H
	cmp	DWORD PTR _resource$[ebp], eax
	jne	SHORT $LN10@SV_Process

; 299  : 	{
; 300  : 		Con_Printf( "SV_ProcessFile:  Unrequested decal\n" );

	push	OFFSET ??_C@_0CE@FLDLGLNB@SV_ProcessFile?3?5?5Unrequested?5de@
	call	_Con_Printf
	add	esp, 4

; 301  : 		return;

	jmp	$LN1@SV_Process
$LN10@SV_Process:

; 302  : 	}
; 303  : 
; 304  : 	if( resource->nDownloadSize != cl->netchan.tempbuffersize )

	mov	eax, DWORD PTR _resource$[ebp]
	mov	ecx, DWORD PTR _cl$[ebp]
	mov	edx, DWORD PTR [eax+72]
	cmp	edx, DWORD PTR [ecx+263228]
	je	SHORT $LN11@SV_Process

; 305  : 	{
; 306  : 		Con_Printf( "Downloaded %i bytes for purported %i byte file\n", cl->netchan.tempbuffersize, resource->nDownloadSize );

	mov	eax, DWORD PTR _resource$[ebp]
	mov	ecx, DWORD PTR [eax+72]
	push	ecx
	mov	edx, DWORD PTR _cl$[ebp]
	mov	eax, DWORD PTR [edx+263228]
	push	eax
	push	OFFSET ??_C@_0DA@EMOFFHLC@Downloaded?5?$CFi?5bytes?5for?5purport@
	call	_Con_Printf
	add	esp, 12					; 0000000cH

; 307  : 		return;

	jmp	$LN1@SV_Process
$LN11@SV_Process:

; 308  : 	}
; 309  : 
; 310  : 	HPAK_AddLump( true, CUSTOM_RES_PATH, resource, cl->netchan.tempbuffer, NULL );

	push	0
	mov	eax, DWORD PTR _cl$[ebp]
	mov	ecx, DWORD PTR [eax+263224]
	push	ecx
	mov	edx, DWORD PTR _resource$[ebp]
	push	edx
	push	OFFSET ??_C@_0L@DHBFCELB@custom?4hpk@
	push	1
	call	_HPAK_AddLump
	add	esp, 20					; 00000014H

; 311  : 	ClearBits( resource->ucFlags, RES_WASMISSING );

	mov	eax, DWORD PTR _resource$[ebp]
	movzx	ecx, BYTE PTR [eax+76]
	and	ecx, -3					; fffffffdH
	mov	edx, DWORD PTR _resource$[ebp]
	mov	BYTE PTR [edx+76], cl

; 312  : 	SV_MoveToOnHandList( cl, resource );

	mov	eax, DWORD PTR _resource$[ebp]
	push	eax
	mov	ecx, DWORD PTR _cl$[ebp]
	push	ecx
	call	_SV_MoveToOnHandList
	add	esp, 8

; 313  : 
; 314  : 	bError = false;

	mov	DWORD PTR _bError$[ebp], 0

; 315  : 	bFound = false;

	mov	DWORD PTR _bFound$[ebp], 0

; 316  : 
; 317  : 	for( pList = cl->customdata.pNext; pList; pList = pList->pNext )

	mov	eax, DWORD PTR _cl$[ebp]
	mov	ecx, DWORD PTR [eax+264580]
	mov	DWORD PTR _pList$[ebp], ecx
	jmp	SHORT $LN7@SV_Process
$LN5@SV_Process:
	mov	eax, DWORD PTR _pList$[ebp]
	mov	ecx, DWORD PTR [eax+160]
	mov	DWORD PTR _pList$[ebp], ecx
$LN7@SV_Process:
	cmp	DWORD PTR _pList$[ebp], 0
	je	SHORT $LN6@SV_Process

; 318  : 	{
; 319  : 		if( !memcmp( pList->resource.rgucMD5_hash, resource->rgucMD5_hash, 16 ))

	push	16					; 00000010H
	mov	eax, DWORD PTR _resource$[ebp]
	add	eax, 77					; 0000004dH
	push	eax
	mov	ecx, DWORD PTR _pList$[ebp]
	add	ecx, 81					; 00000051H
	push	ecx
	call	_memcmp
	add	esp, 12					; 0000000cH
	test	eax, eax
	jne	SHORT $LN12@SV_Process

; 320  : 		{
; 321  : 			bFound = true;

	mov	DWORD PTR _bFound$[ebp], 1

; 322  : 			break;

	jmp	SHORT $LN6@SV_Process
$LN12@SV_Process:

; 323  : 		}
; 324  : 	}

	jmp	SHORT $LN5@SV_Process
$LN6@SV_Process:

; 325  : 
; 326  : 	if( !bFound )

	cmp	DWORD PTR _bFound$[ebp], 0
	jne	SHORT $LN13@SV_Process

; 327  : 	{
; 328  : 		if( !COM_CreateCustomization( &cl->customdata, resource, -1, FCUST_FROMHPAK|FCUST_WIPEDATA|FCUST_IGNOREINIT, NULL, NULL ))

	push	0
	push	0
	push	7
	push	-1
	mov	eax, DWORD PTR _resource$[ebp]
	push	eax
	mov	ecx, DWORD PTR _cl$[ebp]
	add	ecx, 264420				; 000408e4H
	push	ecx
	call	_COM_CreateCustomization
	add	esp, 24					; 00000018H
	test	eax, eax
	jne	SHORT $LN15@SV_Process

; 329  : 			bError = true;

	mov	DWORD PTR _bError$[ebp], 1
$LN15@SV_Process:

; 330  : 	}

	jmp	SHORT $LN14@SV_Process
$LN13@SV_Process:

; 331  : 	else
; 332  : 	{
; 333  : 		Con_DPrintf( "Duplicate resource received and ignored.\n" );

	push	OFFSET ??_C@_0CK@FPPFLGNI@Duplicate?5resource?5received?5and@
	call	_Con_DPrintf
	add	esp, 4
$LN14@SV_Process:

; 334  : 	}
; 335  : 
; 336  : 	if( bError ) Con_Printf( S_ERROR "parsing custom decal from %s\n", cl->name );

	cmp	DWORD PTR _bError$[ebp], 0
	je	SHORT $LN1@SV_Process
	mov	eax, DWORD PTR _cl$[ebp]
	add	eax, 8
	push	eax
	push	OFFSET ??_C@_0CJ@DNBGOIJD@?$FO1Error?3?$FO7?5parsing?5custom?5decal@
	call	_Con_Printf
	add	esp, 8
$LN1@SV_Process:

; 337  : }

	pop	edi
	pop	esi
	pop	ebx
	mov	ecx, DWORD PTR __$ArrayPad$[ebp]
	xor	ecx, ebp
	call	@__security_check_cookie@4
	mov	esp, ebp
	pop	ebp
	ret	0
_SV_ProcessFile ENDP
_TEXT	ENDS
; Function compile flags: /Odtp /ZI
; File D:\DevDragon\XashFE\dev\src\engine\server\sv_main.c
;	COMDAT _SV_PrepWorldFrame
_TEXT	SEGMENT
_i$ = -8						; size = 4
_ent$ = -4						; size = 4
_SV_PrepWorldFrame PROC					; COMDAT

; 515  : {

	push	ebp
	mov	ebp, esp
	sub	esp, 72					; 00000048H
	push	ebx
	push	esi
	push	edi

; 516  : 	edict_t	*ent;
; 517  : 	int	i;
; 518  : 
; 519  : 	for( i = 1; i < svgame.numEntities; i++ )

	mov	DWORD PTR _i$[ebp], 1
	jmp	SHORT $LN4@SV_PrepWor
$LN2@SV_PrepWor:
	mov	eax, DWORD PTR _i$[ebp]
	add	eax, 1
	mov	DWORD PTR _i$[ebp], eax
$LN4@SV_PrepWor:
	mov	eax, DWORD PTR _i$[ebp]
	cmp	eax, DWORD PTR _svgame+7932
	jge	SHORT $LN3@SV_PrepWor

; 520  : 	{
; 521  : 		ent = EDICT_NUM( i );

	mov	eax, DWORD PTR _i$[ebp]
	push	eax
	call	_SV_EdictNum
	add	esp, 4
	mov	DWORD PTR _ent$[ebp], eax

; 522  : 		if( ent->free ) continue;

	mov	eax, DWORD PTR _ent$[ebp]
	cmp	DWORD PTR [eax], 0
	je	SHORT $LN5@SV_PrepWor
	jmp	SHORT $LN2@SV_PrepWor
$LN5@SV_PrepWor:

; 523  : 
; 524  : 		ClearBits( ent->v.effects, EF_MUZZLEFLASH|EF_NOINTERP );

	mov	eax, DWORD PTR _ent$[ebp]
	mov	ecx, DWORD PTR [eax+448]
	and	ecx, -35				; ffffffddH
	mov	edx, DWORD PTR _ent$[ebp]
	mov	DWORD PTR [edx+448], ecx

; 525  : 	}

	jmp	SHORT $LN2@SV_PrepWor
$LN3@SV_PrepWor:

; 526  : 
; 527  : 	if( svgame.physFuncs.pfnPrepWorldFrame != NULL )

	cmp	DWORD PTR _svgame+19548, 0
	je	SHORT $LN1@SV_PrepWor

; 528  : 		svgame.physFuncs.pfnPrepWorldFrame();

	call	DWORD PTR _svgame+19548
$LN1@SV_PrepWor:

; 529  : }

	pop	edi
	pop	esi
	pop	ebx
	mov	esp, ebp
	pop	ebp
	ret	0
_SV_PrepWorldFrame ENDP
_TEXT	ENDS
; Function compile flags: /Odtp /ZI
; File D:\DevDragon\XashFE\dev\src\engine\server\sv_main.c
;	COMDAT _SV_UpdateMovevars
_TEXT	SEGMENT
_initialize$ = 8					; size = 4
_SV_UpdateMovevars PROC					; COMDAT

; 160  : {

	push	ebp
	mov	ebp, esp
	sub	esp, 64					; 00000040H
	push	ebx
	push	esi
	push	edi

; 161  : 	if( !initialize && !host.movevars_changed )

	cmp	DWORD PTR _initialize$[ebp], 0
	jne	SHORT $LN2@SV_UpdateM
	cmp	DWORD PTR _host+34416, 0
	jne	SHORT $LN2@SV_UpdateM

; 162  : 		return;

	jmp	$LN1@SV_UpdateM
$LN2@SV_UpdateM:

; 163  : 
; 164  : 	// check range
; 165  : 	if( sv_zmax.value < 256.0f ) Cvar_SetValue( "sv_zmax", 256.0f );

	movss	xmm0, DWORD PTR __real@43800000
	comiss	xmm0, DWORD PTR _sv_zmax+12
	jbe	SHORT $LN3@SV_UpdateM
	push	ecx
	movss	xmm0, DWORD PTR __real@43800000
	movss	DWORD PTR [esp], xmm0
	push	OFFSET ??_C@_07BOLPGMIP@sv_zmax@
	call	_Cvar_SetValue
	add	esp, 8
$LN3@SV_UpdateM:

; 166  : 
; 167  : 	// clamp it right
; 168  : 	if( FBitSet( host.features, ENGINE_WRITE_LARGE_COORD ))

	mov	eax, DWORD PTR _host+34752
	and	eax, 1
	je	SHORT $LN4@SV_UpdateM

; 169  : 	{
; 170  : 		if( sv_zmax.value > 131070.0f )

	movss	xmm0, DWORD PTR _sv_zmax+12
	comiss	xmm0, DWORD PTR __real@47ffff00
	jbe	SHORT $LN6@SV_UpdateM

; 171  : 			Cvar_SetValue( "sv_zmax", 131070.0f );

	push	ecx
	movss	xmm0, DWORD PTR __real@47ffff00
	movss	DWORD PTR [esp], xmm0
	push	OFFSET ??_C@_07BOLPGMIP@sv_zmax@
	call	_Cvar_SetValue
	add	esp, 8
$LN6@SV_UpdateM:

; 172  : 	}

	jmp	SHORT $LN7@SV_UpdateM
$LN4@SV_UpdateM:

; 173  : 	else
; 174  : 	{
; 175  : 		if( sv_zmax.value > 32767.0f )

	movss	xmm0, DWORD PTR _sv_zmax+12
	comiss	xmm0, DWORD PTR __real@46fffe00
	jbe	SHORT $LN7@SV_UpdateM

; 176  : 			Cvar_SetValue( "sv_zmax", 32767.0f );

	push	ecx
	movss	xmm0, DWORD PTR __real@46fffe00
	movss	DWORD PTR [esp], xmm0
	push	OFFSET ??_C@_07BOLPGMIP@sv_zmax@
	call	_Cvar_SetValue
	add	esp, 8
$LN7@SV_UpdateM:

; 177  : 	}
; 178  : 
; 179  : 	svgame.movevars.gravity = sv_gravity.value;

	movss	xmm0, DWORD PTR _sv_gravity+12
	movss	DWORD PTR _svgame+7936, xmm0

; 180  : 	svgame.movevars.stopspeed = sv_stopspeed.value;

	movss	xmm0, DWORD PTR _sv_stopspeed+12
	movss	DWORD PTR _svgame+7940, xmm0

; 181  : 	svgame.movevars.maxspeed = sv_maxspeed.value;

	movss	xmm0, DWORD PTR _sv_maxspeed+12
	movss	DWORD PTR _svgame+7944, xmm0

; 182  : 	svgame.movevars.spectatormaxspeed = sv_spectatormaxspeed.value;

	movss	xmm0, DWORD PTR _sv_spectatormaxspeed+12
	movss	DWORD PTR _svgame+7948, xmm0

; 183  : 	svgame.movevars.accelerate = sv_accelerate.value;

	movss	xmm0, DWORD PTR _sv_accelerate+12
	movss	DWORD PTR _svgame+7952, xmm0

; 184  : 	svgame.movevars.airaccelerate = sv_airaccelerate.value;

	movss	xmm0, DWORD PTR _sv_airaccelerate+12
	movss	DWORD PTR _svgame+7956, xmm0

; 185  : 	svgame.movevars.wateraccelerate = sv_wateraccelerate.value;

	movss	xmm0, DWORD PTR _sv_wateraccelerate+12
	movss	DWORD PTR _svgame+7960, xmm0

; 186  : 	svgame.movevars.friction = sv_friction.value;

	movss	xmm0, DWORD PTR _sv_friction+12
	movss	DWORD PTR _svgame+7964, xmm0

; 187  : 	svgame.movevars.edgefriction = sv_edgefriction.value;

	movss	xmm0, DWORD PTR _sv_edgefriction+12
	movss	DWORD PTR _svgame+7968, xmm0

; 188  : 	svgame.movevars.waterfriction = sv_waterfriction.value;

	movss	xmm0, DWORD PTR _sv_waterfriction+12
	movss	DWORD PTR _svgame+7972, xmm0

; 189  : 	svgame.movevars.bounce = sv_bounce.value;

	movss	xmm0, DWORD PTR _sv_bounce+12
	movss	DWORD PTR _svgame+7980, xmm0

; 190  : 	svgame.movevars.stepsize = sv_stepsize.value;

	movss	xmm0, DWORD PTR _sv_stepsize+12
	movss	DWORD PTR _svgame+7984, xmm0

; 191  : 	svgame.movevars.maxvelocity = sv_maxvelocity.value;

	movss	xmm0, DWORD PTR _sv_maxvelocity+12
	movss	DWORD PTR _svgame+7988, xmm0

; 192  : 	svgame.movevars.zmax = sv_zmax.value;

	movss	xmm0, DWORD PTR _sv_zmax+12
	movss	DWORD PTR _svgame+7992, xmm0

; 193  : 	svgame.movevars.waveHeight = sv_wateramp.value;

	movss	xmm0, DWORD PTR _sv_wateramp+12
	movss	DWORD PTR _svgame+7996, xmm0

; 194  : 	Q_strncpy( svgame.movevars.skyName, sv_skyname.string, sizeof( svgame.movevars.skyName ));

	push	32					; 00000020H
	mov	eax, DWORD PTR _sv_skyname+4
	push	eax
	push	OFFSET _svgame+8004
	call	_Q_strncpy
	add	esp, 12					; 0000000cH

; 195  : 	svgame.movevars.footsteps = sv_footsteps.value;

	cvttss2si eax, DWORD PTR _sv_footsteps+12
	mov	DWORD PTR _svgame+8000, eax

; 196  : 	svgame.movevars.rollangle = sv_rollangle.value;

	movss	xmm0, DWORD PTR _sv_rollangle+12
	movss	DWORD PTR _svgame+8036, xmm0

; 197  : 	svgame.movevars.rollspeed = sv_rollspeed.value;

	movss	xmm0, DWORD PTR _sv_rollspeed+12
	movss	DWORD PTR _svgame+8040, xmm0

; 198  : 	svgame.movevars.skycolor_r = sv_skycolor_r.value;

	movss	xmm0, DWORD PTR _sv_skycolor_r+12
	movss	DWORD PTR _svgame+8044, xmm0

; 199  : 	svgame.movevars.skycolor_g = sv_skycolor_g.value;

	movss	xmm0, DWORD PTR _sv_skycolor_g+12
	movss	DWORD PTR _svgame+8048, xmm0

; 200  : 	svgame.movevars.skycolor_b = sv_skycolor_b.value;

	movss	xmm0, DWORD PTR _sv_skycolor_b+12
	movss	DWORD PTR _svgame+8052, xmm0

; 201  : 	svgame.movevars.skyvec_x = sv_skyvec_x.value;

	movss	xmm0, DWORD PTR _sv_skyvec_x+12
	movss	DWORD PTR _svgame+8056, xmm0

; 202  : 	svgame.movevars.skyvec_y = sv_skyvec_y.value;

	movss	xmm0, DWORD PTR _sv_skyvec_y+12
	movss	DWORD PTR _svgame+8060, xmm0

; 203  : 	svgame.movevars.skyvec_z = sv_skyvec_z.value;

	movss	xmm0, DWORD PTR _sv_skyvec_z+12
	movss	DWORD PTR _svgame+8064, xmm0

; 204  : 	svgame.movevars.skydir_x = sv_skydir_x.value;

	movss	xmm0, DWORD PTR _sv_skydir_x+12
	movss	DWORD PTR _svgame+8068, xmm0

; 205  : 	svgame.movevars.skydir_y = sv_skydir_y.value;

	movss	xmm0, DWORD PTR _sv_skydir_y+12
	movss	DWORD PTR _svgame+8072, xmm0

; 206  : 	svgame.movevars.skydir_z = sv_skydir_z.value;

	movss	xmm0, DWORD PTR _sv_skydir_z+12
	movss	DWORD PTR _svgame+8076, xmm0

; 207  : 	svgame.movevars.skyangle = sv_skyangle.value;

	movss	xmm0, DWORD PTR _sv_skyangle+12
	movss	DWORD PTR _svgame+8080, xmm0

; 208  : 	svgame.movevars.wateralpha = sv_wateralpha.value;

	movss	xmm0, DWORD PTR _sv_wateralpha+12
	movss	DWORD PTR _svgame+8092, xmm0

; 209  : 	svgame.movevars.features = host.features; // just in case. not really need

	mov	eax, DWORD PTR _host+34752
	mov	DWORD PTR _svgame+8084, eax

; 210  : 	svgame.movevars.entgravity = 1.0f;

	movss	xmm0, DWORD PTR __real@3f800000
	movss	DWORD PTR _svgame+7976, xmm0

; 211  : 
; 212  : 	if( initialize ) return; // too early

	cmp	DWORD PTR _initialize$[ebp], 0
	je	SHORT $LN8@SV_UpdateM
	jmp	SHORT $LN1@SV_UpdateM
$LN8@SV_UpdateM:

; 213  : 
; 214  : 	if( MSG_WriteDeltaMovevars( &sv.reliable_datagram, &svgame.oldmovevars, &svgame.movevars ))

	push	OFFSET _svgame+7936
	push	OFFSET _svgame+8096
	push	OFFSET _sv+2431724
	call	_MSG_WriteDeltaMovevars
	add	esp, 12					; 0000000cH
	test	eax, eax
	je	SHORT $LN9@SV_UpdateM

; 215  : 		memcpy( &svgame.oldmovevars, &svgame.movevars, sizeof( movevars_t )); // oldstate changed

	push	160					; 000000a0H
	push	OFFSET _svgame+7936
	push	OFFSET _svgame+8096
	call	_memcpy
	add	esp, 12					; 0000000cH
$LN9@SV_UpdateM:

; 216  : 
; 217  : 	host.movevars_changed = false;

	mov	DWORD PTR _host+34416, 0
$LN1@SV_UpdateM:

; 218  : }

	pop	edi
	pop	esi
	pop	ebx
	mov	esp, ebp
	pop	ebp
	ret	0
_SV_UpdateMovevars ENDP
_TEXT	ENDS
; Function compile flags: /Odtp /ZI
; File D:\DevDragon\XashFE\dev\src\engine\server\sv_main.c
;	COMDAT _SV_FinalMessage
_TEXT	SEGMENT
_i$ = -96						; size = 4
_msg$ = -92						; size = 20
_cl$ = -72						; size = 4
_msg_buf$ = -68						; size = 64
__$ArrayPad$ = -4					; size = 4
_message$ = 8						; size = 4
_reconnect$ = 12					; size = 4
_SV_FinalMessage PROC					; COMDAT

; 893  : {

	push	ebp
	mov	ebp, esp
	sub	esp, 160				; 000000a0H
	mov	eax, DWORD PTR ___security_cookie
	xor	eax, ebp
	mov	DWORD PTR __$ArrayPad$[ebp], eax
	push	ebx
	push	esi
	push	edi

; 894  : 	byte		msg_buf[64];
; 895  : 	sv_client_t	*cl;
; 896  : 	sizebuf_t		msg;
; 897  : 	int		i;
; 898  : 	
; 899  : 	MSG_Init( &msg, "FinalMessage", msg_buf, sizeof( msg_buf ));

	push	-1
	push	64					; 00000040H
	lea	eax, DWORD PTR _msg_buf$[ebp]
	push	eax
	push	OFFSET ??_C@_0N@FAJCICHN@FinalMessage@
	lea	ecx, DWORD PTR _msg$[ebp]
	push	ecx
	call	_MSG_InitExt
	add	esp, 20					; 00000014H

; 900  : 
; 901  : 	if( COM_CheckString( message ))

	mov	eax, DWORD PTR _message$[ebp]
	push	eax
	call	_COM_CheckString
	add	esp, 4
	test	eax, eax
	je	SHORT $LN8@SV_FinalMe

; 902  : 	{
; 903  : 		MSG_BeginServerCmd( &msg, svc_print );

	push	0
	push	1
	push	8
	lea	eax, DWORD PTR _msg$[ebp]
	push	eax
	call	_MSG_WriteCmdExt
	add	esp, 16					; 00000010H

; 904  : 		MSG_WriteString( &msg, message );

	mov	eax, DWORD PTR _message$[ebp]
	push	eax
	lea	ecx, DWORD PTR _msg$[ebp]
	push	ecx
	call	_MSG_WriteString
	add	esp, 8
$LN8@SV_FinalMe:

; 905  : 	}
; 906  : 
; 907  : 	if( reconnect )

	cmp	DWORD PTR _reconnect$[ebp], 0
	je	SHORT $LN9@SV_FinalMe

; 908  : 	{
; 909  : 		if( svs.maxclients <= 1 )

	cmp	DWORD PTR _svs+16, 1
	jg	SHORT $LN11@SV_FinalMe

; 910  : 		{
; 911  : 			MSG_BeginServerCmd( &msg, svc_changing );

	push	0
	push	1
	push	4
	lea	eax, DWORD PTR _msg$[ebp]
	push	eax
	call	_MSG_WriteCmdExt
	add	esp, 16					; 00000010H

; 912  : 			MSG_WriteOneBit( &msg, GameState->loadGame );

	mov	eax, DWORD PTR _host+156
	push	eax
	lea	ecx, DWORD PTR _msg$[ebp]
	push	ecx
	call	_MSG_WriteOneBit
	add	esp, 8

; 913  : 		}

	jmp	SHORT $LN12@SV_FinalMe
$LN11@SV_FinalMe:

; 914  : 		else SV_BuildReconnect( &msg ); 

	lea	eax, DWORD PTR _msg$[ebp]
	push	eax
	call	_SV_BuildReconnect
	add	esp, 4
$LN12@SV_FinalMe:

; 915  : 	}

	jmp	SHORT $LN10@SV_FinalMe
$LN9@SV_FinalMe:

; 916  : 	else
; 917  : 	{
; 918  : 		MSG_BeginServerCmd( &msg, svc_disconnect );

	push	0
	push	1
	push	2
	lea	eax, DWORD PTR _msg$[ebp]
	push	eax
	call	_MSG_WriteCmdExt
	add	esp, 16					; 00000010H
$LN10@SV_FinalMe:

; 919  : 	}
; 920  : 
; 921  : 	// send it twice
; 922  : 	// stagger the packets to crutch operating system limited buffers
; 923  : 	for( i = 0, cl = svs.clients; i < svs.maxclients; i++, cl++ )

	mov	DWORD PTR _i$[ebp], 0
	mov	eax, DWORD PTR _svs+33344
	mov	DWORD PTR _cl$[ebp], eax
	jmp	SHORT $LN4@SV_FinalMe
$LN2@SV_FinalMe:
	mov	eax, DWORD PTR _i$[ebp]
	add	eax, 1
	mov	DWORD PTR _i$[ebp], eax
	mov	ecx, DWORD PTR _cl$[ebp]
	add	ecx, 289832				; 00046c28H
	mov	DWORD PTR _cl$[ebp], ecx
$LN4@SV_FinalMe:
	mov	eax, DWORD PTR _i$[ebp]
	cmp	eax, DWORD PTR _svs+16
	jge	SHORT $LN3@SV_FinalMe

; 924  : 		if( cl->state >= cs_connected && !FBitSet( cl->flags, FCL_FAKECLIENT ))

	mov	eax, DWORD PTR _cl$[ebp]
	cmp	DWORD PTR [eax], 2
	jl	SHORT $LN13@SV_FinalMe
	mov	eax, DWORD PTR _cl$[ebp]
	mov	ecx, DWORD PTR [eax+40]
	and	ecx, 128				; 00000080H
	jne	SHORT $LN13@SV_FinalMe

; 925  : 			Netchan_TransmitBits( &cl->netchan, MSG_GetNumBitsWritten( &msg ), MSG_GetData( &msg ));

	lea	eax, DWORD PTR _msg$[ebp]
	push	eax
	call	_MSG_GetData
	add	esp, 4
	push	eax
	lea	ecx, DWORD PTR _msg$[ebp]
	push	ecx
	call	_MSG_GetNumBitsWritten
	add	esp, 4
	push	eax
	mov	edx, DWORD PTR _cl$[ebp]
	add	edx, 560				; 00000230H
	push	edx
	call	_Netchan_TransmitBits
	add	esp, 12					; 0000000cH
$LN13@SV_FinalMe:
	jmp	SHORT $LN2@SV_FinalMe
$LN3@SV_FinalMe:

; 926  : 
; 927  : 	for( i = 0, cl = svs.clients; i < svs.maxclients; i++, cl++ )

	mov	DWORD PTR _i$[ebp], 0
	mov	eax, DWORD PTR _svs+33344
	mov	DWORD PTR _cl$[ebp], eax
	jmp	SHORT $LN7@SV_FinalMe
$LN5@SV_FinalMe:
	mov	eax, DWORD PTR _i$[ebp]
	add	eax, 1
	mov	DWORD PTR _i$[ebp], eax
	mov	ecx, DWORD PTR _cl$[ebp]
	add	ecx, 289832				; 00046c28H
	mov	DWORD PTR _cl$[ebp], ecx
$LN7@SV_FinalMe:
	mov	eax, DWORD PTR _i$[ebp]
	cmp	eax, DWORD PTR _svs+16
	jge	SHORT $LN1@SV_FinalMe

; 928  : 		if( cl->state >= cs_connected && !FBitSet( cl->flags, FCL_FAKECLIENT ))

	mov	eax, DWORD PTR _cl$[ebp]
	cmp	DWORD PTR [eax], 2
	jl	SHORT $LN14@SV_FinalMe
	mov	eax, DWORD PTR _cl$[ebp]
	mov	ecx, DWORD PTR [eax+40]
	and	ecx, 128				; 00000080H
	jne	SHORT $LN14@SV_FinalMe

; 929  : 			Netchan_TransmitBits( &cl->netchan, MSG_GetNumBitsWritten( &msg ), MSG_GetData( &msg ));

	lea	eax, DWORD PTR _msg$[ebp]
	push	eax
	call	_MSG_GetData
	add	esp, 4
	push	eax
	lea	ecx, DWORD PTR _msg$[ebp]
	push	ecx
	call	_MSG_GetNumBitsWritten
	add	esp, 4
	push	eax
	mov	edx, DWORD PTR _cl$[ebp]
	add	edx, 560				; 00000230H
	push	edx
	call	_Netchan_TransmitBits
	add	esp, 12					; 0000000cH
$LN14@SV_FinalMe:
	jmp	SHORT $LN5@SV_FinalMe
$LN1@SV_FinalMe:

; 930  : }

	pop	edi
	pop	esi
	pop	ebx
	mov	ecx, DWORD PTR __$ArrayPad$[ebp]
	xor	ecx, ebp
	call	@__security_check_cookie@4
	mov	esp, ebp
	pop	ebp
	ret	0
_SV_FinalMessage ENDP
_TEXT	ENDS
; Function compile flags: /Odtp /ZI
; File D:\DevDragon\XashFE\dev\src\engine\common\net_buffer.h
;	COMDAT _MSG_GetData
_TEXT	SEGMENT
_sb$ = 8						; size = 4
_MSG_GetData PROC					; COMDAT

; 109  : _inline byte *MSG_GetData( sizebuf_t *sb ) { return sb->pData; }

	push	ebp
	mov	ebp, esp
	sub	esp, 64					; 00000040H
	push	ebx
	push	esi
	push	edi
	mov	eax, DWORD PTR _sb$[ebp]
	mov	eax, DWORD PTR [eax+8]
	pop	edi
	pop	esi
	pop	ebx
	mov	esp, ebp
	pop	ebp
	ret	0
_MSG_GetData ENDP
_TEXT	ENDS
; Function compile flags: /Odtp /ZI
; File D:\DevDragon\XashFE\dev\src\engine\common\net_buffer.h
;	COMDAT _MSG_GetMaxBytes
_TEXT	SEGMENT
_sb$ = 8						; size = 4
_MSG_GetMaxBytes PROC					; COMDAT

; 106  : _inline int MSG_GetMaxBytes( sizebuf_t *sb ) { return sb->nDataBits >> 3; }

	push	ebp
	mov	ebp, esp
	sub	esp, 64					; 00000040H
	push	ebx
	push	esi
	push	edi
	mov	eax, DWORD PTR _sb$[ebp]
	mov	eax, DWORD PTR [eax+16]
	sar	eax, 3
	pop	edi
	pop	esi
	pop	ebx
	mov	esp, ebp
	pop	ebp
	ret	0
_MSG_GetMaxBytes ENDP
_TEXT	ENDS
; Function compile flags: /Odtp /ZI
; File D:\DevDragon\XashFE\dev\src\engine\common\net_buffer.h
;	COMDAT _MSG_GetNumBitsWritten
_TEXT	SEGMENT
_sb$ = 8						; size = 4
_MSG_GetNumBitsWritten PROC				; COMDAT

; 104  : _inline int MSG_GetNumBitsWritten( sizebuf_t *sb ) { return sb->iCurBit; }

	push	ebp
	mov	ebp, esp
	sub	esp, 64					; 00000040H
	push	ebx
	push	esi
	push	edi
	mov	eax, DWORD PTR _sb$[ebp]
	mov	eax, DWORD PTR [eax+12]
	pop	edi
	pop	esi
	pop	ebx
	mov	esp, ebp
	pop	ebp
	ret	0
_MSG_GetNumBitsWritten ENDP
_TEXT	ENDS
; Function compile flags: /Odtp /ZI
; File D:\DevDragon\XashFE\dev\src\engine\server\sv_main.c
;	COMDAT _Host_ServerFrame
_TEXT	SEGMENT
_Host_ServerFrame PROC					; COMDAT

; 612  : {

	push	ebp
	mov	ebp, esp
	sub	esp, 64					; 00000040H
	push	ebx
	push	esi
	push	edi

; 613  : 	// if server is not active, do nothing
; 614  : 	if( !svs.initialized ) return;

	cmp	DWORD PTR _svs, 0
	jne	SHORT $LN2@Host_Serve
	jmp	$LN1@Host_Serve
$LN2@Host_Serve:

; 615  : 
; 616  : 	if( sv_fps.value != 0.0f && ( sv.simulating || sv.state != ss_active ))

	movss	xmm0, DWORD PTR _sv_fps+12
	ucomiss	xmm0, DWORD PTR __real@00000000
	lahf
	test	ah, 68					; 00000044H
	jnp	SHORT $LN3@Host_Serve
	cmp	DWORD PTR _sv+2595652, 0
	jne	SHORT $LN4@Host_Serve
	cmp	DWORD PTR _sv, 2
	je	SHORT $LN3@Host_Serve
$LN4@Host_Serve:

; 617  : 		sv.time_residual += host.frametime;

	movsd	xmm0, QWORD PTR _sv+24
	addsd	xmm0, QWORD PTR _host+1448
	movsd	QWORD PTR _sv+24, xmm0
$LN3@Host_Serve:

; 618  : 
; 619  : 	if( sv_fps.value == 0.0f )

	movss	xmm0, DWORD PTR _sv_fps+12
	ucomiss	xmm0, DWORD PTR __real@00000000
	lahf
	test	ah, 68					; 00000044H
	jp	SHORT $LN5@Host_Serve

; 620  : 		sv.frametime = host.frametime;

	cvtsd2ss xmm0, QWORD PTR _host+1448
	movss	DWORD PTR _sv+32, xmm0
$LN5@Host_Serve:

; 621  : 	svgame.globals->frametime = sv.frametime;

	mov	eax, DWORD PTR _svgame+19268
	movss	xmm0, DWORD PTR _sv+32
	movss	DWORD PTR [eax+4], xmm0

; 622  : 
; 623  : 	// check clients timewindow
; 624  : 	SV_CheckCmdTimes ();

	call	_SV_CheckCmdTimes

; 625  : 
; 626  : 	// read packets from clients
; 627  : 	SV_ReadPackets ();

	call	_SV_ReadPackets

; 628  : 
; 629  : 	// refresh physic movevars on the client side
; 630  : 	SV_UpdateMovevars ( false );

	push	0
	call	_SV_UpdateMovevars
	add	esp, 4

; 631  : 
; 632  : 	// request missing resources for clients
; 633  : 	SV_RequestMissingResources();

	call	_SV_RequestMissingResources

; 634  : 
; 635  : 	// check timeouts
; 636  : 	SV_CheckTimeouts ();

	call	_SV_CheckTimeouts

; 637  : 
; 638  : 	// let everything in the world think and move
; 639  : 	if( !SV_RunGameFrame ()) return;

	call	_SV_RunGameFrame
	test	eax, eax
	jne	SHORT $LN6@Host_Serve
	jmp	SHORT $LN1@Host_Serve
$LN6@Host_Serve:

; 640  : 		
; 641  : 	// send messages back to the clients that had packets read this frame
; 642  : 	SV_SendClientMessages ();

	call	_SV_SendClientMessages

; 643  : 
; 644  : 	// clear edict flags for next frame
; 645  : 	SV_PrepWorldFrame ();

	call	_SV_PrepWorldFrame

; 646  : 
; 647  : 	// send a heartbeat to the master if needed
; 648  : 	Master_Heartbeat ();

	call	_Master_Heartbeat
$LN1@Host_Serve:

; 649  : }

	pop	edi
	pop	esi
	pop	ebx
	mov	esp, ebp
	pop	ebp
	ret	0
_Host_ServerFrame ENDP
_TEXT	ENDS
; Function compile flags: /Odtp /ZI
; File D:\DevDragon\XashFE\dev\src\engine\server\sv_main.c
;	COMDAT _SV_Shutdown
_TEXT	SEGMENT
_finalmsg$ = 8						; size = 4
_SV_Shutdown PROC					; COMDAT

; 969  : {

	push	ebp
	mov	ebp, esp
	sub	esp, 64					; 00000040H
	push	ebx
	push	esi
	push	edi

; 970  : 	// already freed
; 971  : 	if( !SV_Initialized( ))

	call	_SV_Initialized
	test	eax, eax
	jne	SHORT $LN2@SV_Shutdow

; 972  : 	{
; 973  : 		// drop the client if want to load a new map
; 974  : 		if( CL_IsPlaybackDemo( ))

	call	_CL_IsPlaybackDemo
	test	eax, eax
	je	SHORT $LN3@SV_Shutdow

; 975  : 			CL_Drop();

	call	_CL_Drop
$LN3@SV_Shutdow:

; 976  : 		return;

	jmp	$LN1@SV_Shutdow
$LN2@SV_Shutdow:

; 977  : 	}
; 978  : 
; 979  : 	if( COM_CheckString( finalmsg ))

	mov	eax, DWORD PTR _finalmsg$[ebp]
	push	eax
	call	_COM_CheckString
	add	esp, 4
	test	eax, eax
	je	SHORT $LN4@SV_Shutdow

; 980  : 		Con_Printf( "%s", finalmsg );

	mov	eax, DWORD PTR _finalmsg$[ebp]
	push	eax
	push	OFFSET ??_C@_02DKCKIIND@?$CFs@
	call	_Con_Printf
	add	esp, 8
$LN4@SV_Shutdow:

; 981  : 
; 982  : 	// rcon will be disconnected
; 983  : 	SV_EndRedirect();

	call	_SV_EndRedirect

; 984  : 
; 985  : 	if( svs.clients )

	cmp	DWORD PTR _svs+33344, 0
	je	SHORT $LN5@SV_Shutdow

; 986  : 		SV_FinalMessage( finalmsg, false );

	push	0
	mov	eax, DWORD PTR _finalmsg$[ebp]
	push	eax
	call	_SV_FinalMessage
	add	esp, 8
$LN5@SV_Shutdow:

; 987  : 
; 988  : 	if( public_server->value && svs.maxclients != 1 )

	mov	eax, DWORD PTR _public_server
	movss	xmm0, DWORD PTR [eax+12]
	ucomiss	xmm0, DWORD PTR __real@00000000
	lahf
	test	ah, 68					; 00000044H
	jnp	SHORT $LN6@SV_Shutdow
	cmp	DWORD PTR _svs+16, 1
	je	SHORT $LN6@SV_Shutdow

; 989  : 		Master_Shutdown();

	call	_Master_Shutdown
$LN6@SV_Shutdow:

; 990  : 
; 991  : 	NET_Config( false );

	push	0
	call	_NET_Config
	add	esp, 4

; 992  : 	SV_UnloadProgs ();

	call	_SV_UnloadProgs

; 993  : 	CL_Drop();

	call	_CL_Drop

; 994  : 
; 995  : 	// free current level
; 996  : 	memset( &sv, 0, sizeof( sv ));

	push	2595672					; 00279b58H
	push	0
	push	OFFSET _sv
	call	_memset
	add	esp, 12					; 0000000cH

; 997  : 
; 998  : 	SV_FreeClients();

	call	_SV_FreeClients

; 999  : 	svs.maxclients = 0;

	mov	DWORD PTR _svs+16, 0

; 1000 : 
; 1001 : 	HPAK_FlushHostQueue();

	call	_HPAK_FlushHostQueue

; 1002 : 	Log_Printf( "Server shutdown\n" );

	push	OFFSET ??_C@_0BB@ENNINOFP@Server?5shutdown?6@
	call	_Log_Printf
	add	esp, 4

; 1003 : 	Log_Close();

	call	_Log_Close

; 1004 : 
; 1005 : 	svs.initialized = false;

	mov	DWORD PTR _svs, 0
$LN1@SV_Shutdow:

; 1006 : }

	pop	edi
	pop	esi
	pop	ebx
	mov	esp, ebp
	pop	ebp
	ret	0
_SV_Shutdown ENDP
_TEXT	ENDS
; Function compile flags: /Odtp /ZI
; File D:\DevDragon\XashFE\dev\src\engine\server\sv_main.c
;	COMDAT _SV_Init
_TEXT	SEGMENT
_versionString$ = -260					; size = 256
__$ArrayPad$ = -4					; size = 4
_SV_Init PROC						; COMDAT

; 771  : {

	push	ebp
	mov	ebp, esp
	sub	esp, 324				; 00000144H
	mov	eax, DWORD PTR ___security_cookie
	xor	eax, ebp
	mov	DWORD PTR __$ArrayPad$[ebp], eax
	push	ebx
	push	esi
	push	edi

; 772  : 	string	versionString;
; 773  : 
; 774  : 	SV_InitHostCommands();

	call	_SV_InitHostCommands

; 775  : 
; 776  : 	Cvar_Get ("protocol", va( "%i", PROTOCOL_VERSION ), FCVAR_READ_ONLY, "displays server protocol version" );

	push	OFFSET ??_C@_0CB@DHDLMOAJ@displays?5server?5protocol?5versio@
	push	131072					; 00020000H
	push	49					; 00000031H
	push	OFFSET ??_C@_02IKAHHCAI@?$CFi@
	call	_va
	add	esp, 8
	push	eax
	push	OFFSET ??_C@_08FCFPNNHF@protocol@
	call	_Cvar_Get
	add	esp, 16					; 00000010H

; 777  : 	Cvar_Get ("suitvolume", "0.25", FCVAR_ARCHIVE, "HEV suit volume" );

	push	OFFSET ??_C@_0BA@FADEPEFK@HEV?5suit?5volume@
	push	1
	push	OFFSET ??_C@_04FNMPJLCB@0?425@
	push	OFFSET ??_C@_0L@BFLOMJEF@suitvolume@
	call	_Cvar_Get
	add	esp, 16					; 00000010H

; 778  : 	Cvar_Get ("sv_background", "0", FCVAR_READ_ONLY, "indicate what background map is running" );

	push	OFFSET ??_C@_0CI@MOIEJPFN@indicate?5what?5background?5map?5is@
	push	131072					; 00020000H
	push	OFFSET ??_C@_01GBGANLPD@0@
	push	OFFSET ??_C@_0O@DOOGBBKD@sv_background@
	call	_Cvar_Get
	add	esp, 16					; 00000010H

; 779  : 	Cvar_Get( "gamedir", GI->gamefolder, FCVAR_SERVER, "game folder" );

	push	OFFSET ??_C@_0M@CIHGPAGF@game?5folder@
	push	4
	mov	eax, DWORD PTR _SI+768
	push	eax
	push	OFFSET ??_C@_07GGMBKBFD@gamedir@
	call	_Cvar_Get
	add	esp, 16					; 00000010H

; 780  : 	Cvar_Get( "sv_alltalk", "1", 0, "allow to talking for all players (legacy, unused)" );

	push	OFFSET ??_C@_0DC@IGNOPEHN@allow?5to?5talking?5for?5all?5player@
	push	0
	push	OFFSET ??_C@_01HIHLOKLC@1@
	push	OFFSET ??_C@_0L@MCGJBOEN@sv_alltalk@
	call	_Cvar_Get
	add	esp, 16					; 00000010H

; 781  : 	Cvar_Get( "sv_allow_PhysX", "1", FCVAR_ARCHIVE, "allow XashXT to usage PhysX engine" );			// XashXT cvar

	push	OFFSET ??_C@_0CD@OLLKOLHG@allow?5XashXT?5to?5usage?5PhysX?5eng@
	push	1
	push	OFFSET ??_C@_01HIHLOKLC@1@
	push	OFFSET ??_C@_0P@EGEEADIG@sv_allow_PhysX@
	call	_Cvar_Get
	add	esp, 16					; 00000010H

; 782  : 	Cvar_Get( "sv_precache_meshes", "1", FCVAR_ARCHIVE, "cache SOLID_CUSTOM meshes before level loading" );	// Paranoia 2 cvar

	push	OFFSET ??_C@_0CP@NGFEJKGP@cache?5SOLID_CUSTOM?5meshes?5befor@
	push	1
	push	OFFSET ??_C@_01HIHLOKLC@1@
	push	OFFSET ??_C@_0BD@OFKABNPE@sv_precache_meshes@
	call	_Cvar_Get
	add	esp, 16					; 00000010H

; 783  : 	Cvar_Get ("mapcyclefile", "mapcycle.txt", 0, "name of config file for map changing rules" );

	push	OFFSET ??_C@_0CL@KBEPHBHJ@name?5of?5config?5file?5for?5map?5cha@
	push	0
	push	OFFSET ??_C@_0N@FDAHIHKA@mapcycle?4txt@
	push	OFFSET ??_C@_0N@NBABDDNG@mapcyclefile@
	call	_Cvar_Get
	add	esp, 16					; 00000010H

; 784  : 	Cvar_Get ("servercfgfile","server.cfg", 0, "name of dedicated server configuration file" );

	push	OFFSET ??_C@_0CM@IOJFICDA@name?5of?5dedicated?5server?5config@
	push	0
	push	OFFSET ??_C@_0L@NOPMIKGD@server?4cfg@
	push	OFFSET ??_C@_0O@DGADKMPA@servercfgfile@
	call	_Cvar_Get
	add	esp, 16					; 00000010H

; 785  : 	Cvar_Get ("lservercfgfile","listenserver.cfg", 0, "name of listen server configuration file" );

	push	OFFSET ??_C@_0CJ@HIOHPHLM@name?5of?5listen?5server?5configura@
	push	0
	push	OFFSET ??_C@_0BB@EIAOCMOE@listenserver?4cfg@
	push	OFFSET ??_C@_0P@DHKADKNH@lservercfgfile@
	call	_Cvar_Get
	add	esp, 16					; 00000010H

; 786  : 	Cvar_Get ("logsdir","logs", 0, "default folder to write server logs" );

	push	OFFSET ??_C@_0CE@FIJLLMNE@default?5folder?5to?5write?5server?5@
	push	0
	push	OFFSET ??_C@_04EPNAICGL@logs@
	push	OFFSET ??_C@_07CFKPIHBM@logsdir@
	call	_Cvar_Get
	add	esp, 16					; 00000010H

; 787  : 
; 788  : 	Cvar_RegisterVariable (&sv_zmax);

	push	OFFSET _sv_zmax
	call	_Cvar_RegisterVariable
	add	esp, 4

; 789  : 	Cvar_RegisterVariable (&sv_wateramp);

	push	OFFSET _sv_wateramp
	call	_Cvar_RegisterVariable
	add	esp, 4

; 790  : 	Cvar_RegisterVariable (&sv_skycolor_r);

	push	OFFSET _sv_skycolor_r
	call	_Cvar_RegisterVariable
	add	esp, 4

; 791  : 	Cvar_RegisterVariable (&sv_skycolor_g);

	push	OFFSET _sv_skycolor_g
	call	_Cvar_RegisterVariable
	add	esp, 4

; 792  : 	Cvar_RegisterVariable (&sv_skycolor_b);

	push	OFFSET _sv_skycolor_b
	call	_Cvar_RegisterVariable
	add	esp, 4

; 793  : 	Cvar_RegisterVariable (&sv_skyvec_x);

	push	OFFSET _sv_skyvec_x
	call	_Cvar_RegisterVariable
	add	esp, 4

; 794  : 	Cvar_RegisterVariable (&sv_skyvec_y);

	push	OFFSET _sv_skyvec_y
	call	_Cvar_RegisterVariable
	add	esp, 4

; 795  : 	Cvar_RegisterVariable (&sv_skyvec_z);

	push	OFFSET _sv_skyvec_z
	call	_Cvar_RegisterVariable
	add	esp, 4

; 796  : 	Cvar_RegisterVariable (&sv_skyname);

	push	OFFSET _sv_skyname
	call	_Cvar_RegisterVariable
	add	esp, 4

; 797  : 	Cvar_RegisterVariable(&sv_skydir_x);

	push	OFFSET _sv_skydir_x
	call	_Cvar_RegisterVariable
	add	esp, 4

; 798  : 	Cvar_RegisterVariable(&sv_skydir_y);

	push	OFFSET _sv_skydir_y
	call	_Cvar_RegisterVariable
	add	esp, 4

; 799  : 	Cvar_RegisterVariable(&sv_skydir_z);

	push	OFFSET _sv_skydir_z
	call	_Cvar_RegisterVariable
	add	esp, 4

; 800  : 	Cvar_RegisterVariable(&sv_skyangle);

	push	OFFSET _sv_skyangle
	call	_Cvar_RegisterVariable
	add	esp, 4

; 801  : 	Cvar_RegisterVariable(&sv_skyspeed);

	push	OFFSET _sv_skyspeed
	call	_Cvar_RegisterVariable
	add	esp, 4

; 802  : 	Cvar_RegisterVariable (&sv_footsteps);

	push	OFFSET _sv_footsteps
	call	_Cvar_RegisterVariable
	add	esp, 4

; 803  : 	Cvar_RegisterVariable (&sv_wateralpha);

	push	OFFSET _sv_wateralpha
	call	_Cvar_RegisterVariable
	add	esp, 4

; 804  : 	Cvar_RegisterVariable (&sv_cheats);

	push	OFFSET _sv_cheats
	call	_Cvar_RegisterVariable
	add	esp, 4

; 805  : 	Cvar_RegisterVariable(&sv_infinite_ammo);

	push	OFFSET _sv_infinite_ammo
	call	_Cvar_RegisterVariable
	add	esp, 4

; 806  : 	Cvar_RegisterVariable (&sv_airmove);

	push	OFFSET _sv_airmove
	call	_Cvar_RegisterVariable
	add	esp, 4

; 807  : 	Cvar_RegisterVariable (&sv_fps);

	push	OFFSET _sv_fps
	call	_Cvar_RegisterVariable
	add	esp, 4

; 808  : 	Cvar_RegisterVariable (&showtriggers);

	push	OFFSET _showtriggers
	call	_Cvar_RegisterVariable
	add	esp, 4

; 809  : 	Cvar_RegisterVariable (&sv_aim);

	push	OFFSET _sv_aim
	call	_Cvar_RegisterVariable
	add	esp, 4

; 810  : 	Cvar_RegisterVariable (&motdfile);

	push	OFFSET _motdfile
	call	_Cvar_RegisterVariable
	add	esp, 4

; 811  : 	Cvar_RegisterVariable (&deathmatch);

	push	OFFSET _deathmatch
	call	_Cvar_RegisterVariable
	add	esp, 4

; 812  : 	Cvar_RegisterVariable (&coop);

	push	OFFSET _coop
	call	_Cvar_RegisterVariable
	add	esp, 4

; 813  : 	Cvar_RegisterVariable (&teamplay);

	push	OFFSET _teamplay
	call	_Cvar_RegisterVariable
	add	esp, 4

; 814  : 	Cvar_RegisterVariable (&skill);

	push	OFFSET _skill
	call	_Cvar_RegisterVariable
	add	esp, 4

; 815  : 	Cvar_RegisterVariable (&temp1);

	push	OFFSET _temp1
	call	_Cvar_RegisterVariable
	add	esp, 4

; 816  : 
; 817  : 	Cvar_RegisterVariable (&rcon_password);

	push	OFFSET _rcon_password
	call	_Cvar_RegisterVariable
	add	esp, 4

; 818  : 	Cvar_RegisterVariable (&sv_stepsize);

	push	OFFSET _sv_stepsize
	call	_Cvar_RegisterVariable
	add	esp, 4

; 819  : 	Cvar_RegisterVariable (&sv_newunit);

	push	OFFSET _sv_newunit
	call	_Cvar_RegisterVariable
	add	esp, 4

; 820  : 	Cvar_RegisterVariable (&hostname);

	push	OFFSET _hostname
	call	_Cvar_RegisterVariable
	add	esp, 4

; 821  : 	timeout = Cvar_Get( "timeout", "125", FCVAR_SERVER, "connection timeout" );

	push	OFFSET ??_C@_0BD@LOHLNEPP@connection?5timeout@
	push	4
	push	OFFSET ??_C@_03BDPCEMGP@125@
	push	OFFSET ??_C@_07DDHNKDGP@timeout@
	call	_Cvar_Get
	add	esp, 16					; 00000010H
	mov	DWORD PTR _timeout, eax

; 822  : 	sv_pausable = Cvar_Get( "pausable", "1", FCVAR_SERVER, "allow players to pause or not" );

	push	OFFSET ??_C@_0BO@FLIBGEHN@allow?5players?5to?5pause?5or?5not@
	push	4
	push	OFFSET ??_C@_01HIHLOKLC@1@
	push	OFFSET ??_C@_08KKMIMEJB@pausable@
	call	_Cvar_Get
	add	esp, 16					; 00000010H
	mov	DWORD PTR _sv_pausable, eax

; 823  : 	sv_validate_changelevel = Cvar_Get( "sv_validate_changelevel", "1", FCVAR_ARCHIVE, "test change level for level-designer errors" );

	push	OFFSET ??_C@_0CM@BFFCCGPF@test?5change?5level?5for?5level?9des@
	push	1
	push	OFFSET ??_C@_01HIHLOKLC@1@
	push	OFFSET ??_C@_0BI@DBJAJKNK@sv_validate_changelevel@
	call	_Cvar_Get
	add	esp, 16					; 00000010H
	mov	DWORD PTR _sv_validate_changelevel, eax

; 824  : 	Cvar_RegisterVariable (&sv_clienttrace);

	push	OFFSET _sv_clienttrace
	call	_Cvar_RegisterVariable
	add	esp, 4

; 825  : 	Cvar_RegisterVariable (&sv_bounce);

	push	OFFSET _sv_bounce
	call	_Cvar_RegisterVariable
	add	esp, 4

; 826  : 	Cvar_RegisterVariable (&sv_spectatormaxspeed);

	push	OFFSET _sv_spectatormaxspeed
	call	_Cvar_RegisterVariable
	add	esp, 4

; 827  : 	Cvar_RegisterVariable (&sv_waterfriction);

	push	OFFSET _sv_waterfriction
	call	_Cvar_RegisterVariable
	add	esp, 4

; 828  : 	Cvar_RegisterVariable (&sv_wateraccelerate);

	push	OFFSET _sv_wateraccelerate
	call	_Cvar_RegisterVariable
	add	esp, 4

; 829  : 	Cvar_RegisterVariable (&sv_rollangle);

	push	OFFSET _sv_rollangle
	call	_Cvar_RegisterVariable
	add	esp, 4

; 830  : 	Cvar_RegisterVariable (&sv_rollspeed);

	push	OFFSET _sv_rollspeed
	call	_Cvar_RegisterVariable
	add	esp, 4

; 831  : 	Cvar_RegisterVariable (&sv_airaccelerate);

	push	OFFSET _sv_airaccelerate
	call	_Cvar_RegisterVariable
	add	esp, 4

; 832  : 	Cvar_RegisterVariable (&sv_maxvelocity);

	push	OFFSET _sv_maxvelocity
	call	_Cvar_RegisterVariable
	add	esp, 4

; 833  :  	Cvar_RegisterVariable (&sv_gravity);

	push	OFFSET _sv_gravity
	call	_Cvar_RegisterVariable
	add	esp, 4

; 834  : 	Cvar_RegisterVariable (&sv_maxspeed);

	push	OFFSET _sv_maxspeed
	call	_Cvar_RegisterVariable
	add	esp, 4

; 835  : 	Cvar_RegisterVariable (&sv_accelerate);

	push	OFFSET _sv_accelerate
	call	_Cvar_RegisterVariable
	add	esp, 4

; 836  : 	Cvar_RegisterVariable (&sv_friction);

	push	OFFSET _sv_friction
	call	_Cvar_RegisterVariable
	add	esp, 4

; 837  : 	Cvar_RegisterVariable (&sv_edgefriction);

	push	OFFSET _sv_edgefriction
	call	_Cvar_RegisterVariable
	add	esp, 4

; 838  : 	Cvar_RegisterVariable (&sv_stopspeed);

	push	OFFSET _sv_stopspeed
	call	_Cvar_RegisterVariable
	add	esp, 4

; 839  : 	sv_maxclients = Cvar_Get( "maxplayers", "1", FCVAR_LATCH, "server max capacity" );

	push	OFFSET ??_C@_0BE@HIJPCMFE@server?5max?5capacity@
	push	2048					; 00000800H
	push	OFFSET ??_C@_01HIHLOKLC@1@
	push	OFFSET ??_C@_0L@PCNFODNF@maxplayers@
	call	_Cvar_Get
	add	esp, 16					; 00000010H
	mov	DWORD PTR _sv_maxclients, eax

; 840  : 	sv_check_errors = Cvar_Get( "sv_check_errors", "0", FCVAR_ARCHIVE, "check edicts for errors" );

	push	OFFSET ??_C@_0BI@DKLCHKGK@check?5edicts?5for?5errors@
	push	1
	push	OFFSET ??_C@_01GBGANLPD@0@
	push	OFFSET ??_C@_0BA@EIIDBIHB@sv_check_errors@
	call	_Cvar_Get
	add	esp, 16					; 00000010H
	mov	DWORD PTR _sv_check_errors, eax

; 841  : 	public_server = Cvar_Get ("public", "0", 0, "change server type from private to public" );

	push	OFFSET ??_C@_0CK@OCMMGMIJ@change?5server?5type?5from?5private@
	push	0
	push	OFFSET ??_C@_01GBGANLPD@0@
	push	OFFSET ??_C@_06EOMAMIIF@public@
	call	_Cvar_Get
	add	esp, 16					; 00000010H
	mov	DWORD PTR _public_server, eax

; 842  : 	sv_lighting_modulate = Cvar_Get( "r_lighting_modulate", "0.6", FCVAR_ARCHIVE, "lightstyles modulate scale" );

	push	OFFSET ??_C@_0BL@BOCCKKNK@lightstyles?5modulate?5scale@
	push	1
	push	OFFSET ??_C@_03JFFPCCNN@0?46@
	push	OFFSET ??_C@_0BE@NGHAOOJB@r_lighting_modulate@
	call	_Cvar_Get
	add	esp, 16					; 00000010H
	mov	DWORD PTR _sv_lighting_modulate, eax

; 843  : 	sv_reconnect_limit = Cvar_Get ("sv_reconnect_limit", "3", FCVAR_ARCHIVE, "max reconnect attempts" );

	push	OFFSET ??_C@_0BH@BAJFDDOH@max?5reconnect?5attempts@
	push	1
	push	OFFSET ??_C@_01EKENIIDA@3@
	push	OFFSET ??_C@_0BD@HMFPBMC@sv_reconnect_limit@
	call	_Cvar_Get
	add	esp, 16					; 00000010H
	mov	DWORD PTR _sv_reconnect_limit, eax

; 844  : 	Cvar_RegisterVariable (&sv_failuretime );

	push	OFFSET _sv_failuretime
	call	_Cvar_RegisterVariable
	add	esp, 4

; 845  : 	Cvar_RegisterVariable (&sv_unlag);

	push	OFFSET _sv_unlag
	call	_Cvar_RegisterVariable
	add	esp, 4

; 846  : 	Cvar_RegisterVariable (&sv_maxunlag);

	push	OFFSET _sv_maxunlag
	call	_Cvar_RegisterVariable
	add	esp, 4

; 847  : 	Cvar_RegisterVariable (&sv_unlagpush);

	push	OFFSET _sv_unlagpush
	call	_Cvar_RegisterVariable
	add	esp, 4

; 848  : 	Cvar_RegisterVariable (&sv_unlagsamples);

	push	OFFSET _sv_unlagsamples
	call	_Cvar_RegisterVariable
	add	esp, 4

; 849  : 	Cvar_RegisterVariable (&sv_allow_upload);

	push	OFFSET _sv_allow_upload
	call	_Cvar_RegisterVariable
	add	esp, 4

; 850  : 	Cvar_RegisterVariable (&sv_allow_download);

	push	OFFSET _sv_allow_download
	call	_Cvar_RegisterVariable
	add	esp, 4

; 851  : 	Cvar_RegisterVariable (&sv_send_logos);

	push	OFFSET _sv_send_logos
	call	_Cvar_RegisterVariable
	add	esp, 4

; 852  : 	Cvar_RegisterVariable (&sv_send_resources);

	push	OFFSET _sv_send_resources
	call	_Cvar_RegisterVariable
	add	esp, 4

; 853  : 	Cvar_RegisterVariable (&sv_uploadmax);

	push	OFFSET _sv_uploadmax
	call	_Cvar_RegisterVariable
	add	esp, 4

; 854  : 	Cvar_RegisterVariable (&sv_version);

	push	OFFSET _sv_version
	call	_Cvar_RegisterVariable
	add	esp, 4

; 855  : 	Cvar_RegisterVariable (&sv_instancedbaseline);

	push	OFFSET _sv_instancedbaseline
	call	_Cvar_RegisterVariable
	add	esp, 4

; 856  : 	Cvar_RegisterVariable (&sv_consistency);

	push	OFFSET _sv_consistency
	call	_Cvar_RegisterVariable
	add	esp, 4

; 857  : 	Cvar_RegisterVariable (&sv_downloadurl);

	push	OFFSET _sv_downloadurl
	call	_Cvar_RegisterVariable
	add	esp, 4

; 858  : 	sv_novis = Cvar_Get( "sv_novis", "0", 0, "force to ignore server visibility" );

	push	OFFSET ??_C@_0CC@ODDIKFBB@force?5to?5ignore?5server?5visibili@
	push	0
	push	OFFSET ??_C@_01GBGANLPD@0@
	push	OFFSET ??_C@_08ELKGLOGE@sv_novis@
	call	_Cvar_Get
	add	esp, 16					; 00000010H
	mov	DWORD PTR _sv_novis, eax

; 859  : 	sv_hostmap = Cvar_Get( "hostmap", GI->startmap, 0, "keep name of last entered map" );

	push	OFFSET ??_C@_0BO@CFGILJEP@keep?5name?5of?5last?5entered?5map@
	push	0
	mov	eax, DWORD PTR _SI+768
	add	eax, 256				; 00000100H
	push	eax
	push	OFFSET ??_C@_07MKKPGJML@hostmap@
	call	_Cvar_Get
	add	esp, 16					; 00000010H
	mov	DWORD PTR _sv_hostmap, eax

; 860  : 	Cvar_RegisterVariable (&sv_password);

	push	OFFSET _sv_password
	call	_Cvar_RegisterVariable
	add	esp, 4

; 861  : 	Cvar_RegisterVariable (&sv_lan);

	push	OFFSET _sv_lan
	call	_Cvar_RegisterVariable
	add	esp, 4

; 862  : 
; 863  : 	Cvar_RegisterVariable (&violence_ablood);

	push	OFFSET _violence_ablood
	call	_Cvar_RegisterVariable
	add	esp, 4

; 864  : 	Cvar_RegisterVariable (&violence_hblood);

	push	OFFSET _violence_hblood
	call	_Cvar_RegisterVariable
	add	esp, 4

; 865  : 	Cvar_RegisterVariable (&violence_agibs);

	push	OFFSET _violence_agibs
	call	_Cvar_RegisterVariable
	add	esp, 4

; 866  : 	Cvar_RegisterVariable (&violence_hgibs);

	push	OFFSET _violence_hgibs
	call	_Cvar_RegisterVariable
	add	esp, 4

; 867  : 	Cvar_RegisterVariable (&mp_logecho);

	push	OFFSET _mp_logecho
	call	_Cvar_RegisterVariable
	add	esp, 4

; 868  : 	Cvar_RegisterVariable (&mp_logfile);

	push	OFFSET _mp_logfile
	call	_Cvar_RegisterVariable
	add	esp, 4

; 869  : 	Cvar_RegisterVariable (&sv_background_freeze);

	push	OFFSET _sv_background_freeze
	call	_Cvar_RegisterVariable
	add	esp, 4

; 870  : 
; 871  : 	// when we in developer-mode automatically turn cheats on
; 872  : 	if( host_developer.value ) Cvar_SetValue( "sv_cheats", 1.0f );

	movss	xmm0, DWORD PTR _host_developer+12
	ucomiss	xmm0, DWORD PTR __real@00000000
	lahf
	test	ah, 68					; 00000044H
	jnp	SHORT $LN2@SV_Init
	push	ecx
	movss	xmm0, DWORD PTR __real@3f800000
	movss	DWORD PTR [esp], xmm0
	push	OFFSET ??_C@_09NFOPKLIK@sv_cheats@
	call	_Cvar_SetValue
	add	esp, 8
$LN2@SV_Init:

; 873  : 
; 874  : 	MSG_Init( &net_message, "NetMessage", net_message_buffer, sizeof( net_message_buffer ));

	push	-1
	push	131104					; 00020020H
	push	OFFSET _net_message_buffer
	push	OFFSET ??_C@_0L@EJNKCDI@NetMessage@
	push	OFFSET _net_message
	call	_MSG_InitExt
	add	esp, 20					; 00000014H

; 875  : 
; 876  : 	Q_snprintf( versionString, sizeof( versionString ), "%s: %s,%i,%i", "Xash3D", XASH_VERSION, PROTOCOL_VERSION, Q_buildnum() );

	call	_Q_buildnum
	push	eax
	push	49					; 00000031H
	push	OFFSET ??_C@_04PNCPDLMM@0?499@
	push	OFFSET ??_C@_06EDNJMPJF@Xash3D@
	push	OFFSET ??_C@_0N@MJCMMFHK@?$CFs?3?5?$CFs?0?$CFi?0?$CFi@
	push	256					; 00000100H
	lea	eax, DWORD PTR _versionString$[ebp]
	push	eax
	call	_Q_snprintf
	add	esp, 28					; 0000001cH

; 877  : 	Cvar_FullSet( "sv_version", versionString, FCVAR_READ_ONLY );

	push	131072					; 00020000H
	lea	eax, DWORD PTR _versionString$[ebp]
	push	eax
	push	OFFSET ??_C@_0L@BAPGLOKE@sv_version@
	call	_Cvar_FullSet
	add	esp, 12					; 0000000cH

; 878  : 
; 879  : 	SV_ClearGameState ();	// delete all temporary *.hl files

	call	_SV_ClearGameState

; 880  : }

	pop	edi
	pop	esi
	pop	ebx
	mov	ecx, DWORD PTR __$ArrayPad$[ebp]
	xor	ecx, ebp
	call	@__security_check_cookie@4
	mov	esp, ebp
	pop	ebp
	ret	0
_SV_Init ENDP
_TEXT	ENDS
END
